
C:\Users\frado\template\FreeRTOS-RustTemplate/target/thumbv7em-none-eabihf/debug/stm32-cortex-m4-f401re:     file format elf32-littlearm


Disassembly of section .text:

08000194 <Reset>:
 8000194:	b580      	push	{r7, lr}
 8000196:	466f      	mov	r7, sp
 8000198:	f006 fdbc 	bl	8006d14 <DefaultPreInit>
 800019c:	f240 000c 	movw	r0, #12
 80001a0:	f2c2 0000 	movt	r0, #8192	; 0x2000
 80001a4:	f643 51b0 	movw	r1, #15792	; 0x3db0
 80001a8:	f2c2 0100 	movt	r1, #8192	; 0x2000
 80001ac:	f006 fba7 	bl	80068fe <_ZN2r08zero_bss17h5c95e33a037a1a3eE>
 80001b0:	f240 0000 	movw	r0, #0
 80001b4:	f2c2 0000 	movt	r0, #8192	; 0x2000
 80001b8:	f240 010c 	movw	r1, #12
 80001bc:	f2c2 0100 	movt	r1, #8192	; 0x2000
 80001c0:	f64b 720c 	movw	r2, #48908	; 0xbf0c
 80001c4:	f6c0 0200 	movt	r2, #2048	; 0x800
 80001c8:	f006 fbd4 	bl	8006974 <_ZN2r09init_data17h1db645cdf22301c4E>
 80001cc:	f64e 5088 	movw	r0, #60808	; 0xed88
 80001d0:	f2ce 0000 	movt	r0, #57344	; 0xe000
 80001d4:	6801      	ldr	r1, [r0, #0]
 80001d6:	f441 0170 	orr.w	r1, r1, #15728640	; 0xf00000
 80001da:	f006 fc5b 	bl	8006a94 <_ZN4core3ptr14write_volatile17hd6de69c464e82e6cE>
 80001de:	f006 fd89 	bl	8006cf4 <ResetTrampoline>

080001e2 <_ZN4core5alloc6global11GlobalAlloc12alloc_zeroed17h9bccd744b704324fE>:
 80001e2:	b580      	push	{r7, lr}
 80001e4:	466f      	mov	r7, sp
 80001e6:	b08a      	sub	sp, #40	; 0x28
 80001e8:	9102      	str	r1, [sp, #8]
 80001ea:	9203      	str	r2, [sp, #12]
 80001ec:	9004      	str	r0, [sp, #16]
 80001ee:	2100      	movs	r1, #0
 80001f0:	f807 1c11 	strb.w	r1, [r7, #-17]
 80001f4:	a902      	add	r1, sp, #8
 80001f6:	9106      	str	r1, [sp, #24]
 80001f8:	9903      	ldr	r1, [sp, #12]
 80001fa:	9100      	str	r1, [sp, #0]
 80001fc:	9107      	str	r1, [sp, #28]
 80001fe:	9902      	ldr	r1, [sp, #8]
 8000200:	9a03      	ldr	r2, [sp, #12]
 8000202:	f005 f9ef 	bl	80055e4 <_ZN96_$LT$freertos_rust..allocator..FreeRtosAllocator$u20$as$u20$core..alloc..global..GlobalAlloc$GT$5alloc17ha2faf5168b77887cE>
 8000206:	4601      	mov	r1, r0
 8000208:	9101      	str	r1, [sp, #4]
 800020a:	9008      	str	r0, [sp, #32]
 800020c:	9009      	str	r0, [sp, #36]	; 0x24
 800020e:	b908      	cbnz	r0, 8000214 <_ZN4core5alloc6global11GlobalAlloc12alloc_zeroed17h9bccd744b704324fE+0x32>
 8000210:	e7ff      	b.n	8000212 <_ZN4core5alloc6global11GlobalAlloc12alloc_zeroed17h9bccd744b704324fE+0x30>
 8000212:	e000      	b.n	8000216 <_ZN4core5alloc6global11GlobalAlloc12alloc_zeroed17h9bccd744b704324fE+0x34>
 8000214:	e002      	b.n	800021c <_ZN4core5alloc6global11GlobalAlloc12alloc_zeroed17h9bccd744b704324fE+0x3a>
 8000216:	9801      	ldr	r0, [sp, #4]
 8000218:	b00a      	add	sp, #40	; 0x28
 800021a:	bd80      	pop	{r7, pc}
 800021c:	9801      	ldr	r0, [sp, #4]
 800021e:	9900      	ldr	r1, [sp, #0]
 8000220:	fab1 f181 	clz	r1, r1
 8000224:	094a      	lsrs	r2, r1, #5
 8000226:	2101      	movs	r1, #1
 8000228:	f000 f8ba 	bl	80003a0 <_ZN4core10intrinsics11write_bytes18precondition_check17h1c495d6cd44e7aebE>
 800022c:	e7ff      	b.n	800022e <_ZN4core5alloc6global11GlobalAlloc12alloc_zeroed17h9bccd744b704324fE+0x4c>
 800022e:	9900      	ldr	r1, [sp, #0]
 8000230:	9801      	ldr	r0, [sp, #4]
 8000232:	f009 f8a0 	bl	8009376 <__aeabi_memclr>
 8000236:	e7ee      	b.n	8000216 <_ZN4core5alloc6global11GlobalAlloc12alloc_zeroed17h9bccd744b704324fE+0x34>

08000238 <_ZN4core5alloc6global11GlobalAlloc7realloc17h425afe912a14999aE>:
 8000238:	b580      	push	{r7, lr}
 800023a:	466f      	mov	r7, sp
 800023c:	b09a      	sub	sp, #104	; 0x68
 800023e:	9103      	str	r1, [sp, #12]
 8000240:	9004      	str	r0, [sp, #16]
 8000242:	f8d7 c008 	ldr.w	ip, [r7, #8]
 8000246:	f8cd c014 	str.w	ip, [sp, #20]
 800024a:	9207      	str	r2, [sp, #28]
 800024c:	9308      	str	r3, [sp, #32]
 800024e:	900e      	str	r0, [sp, #56]	; 0x38
 8000250:	910f      	str	r1, [sp, #60]	; 0x3c
 8000252:	a807      	add	r0, sp, #28
 8000254:	9011      	str	r0, [sp, #68]	; 0x44
 8000256:	9807      	ldr	r0, [sp, #28]
 8000258:	9012      	str	r0, [sp, #72]	; 0x48
 800025a:	900c      	str	r0, [sp, #48]	; 0x30
 800025c:	980c      	ldr	r0, [sp, #48]	; 0x30
 800025e:	9006      	str	r0, [sp, #24]
 8000260:	9013      	str	r0, [sp, #76]	; 0x4c
 8000262:	e7ff      	b.n	8000264 <_ZN4core5alloc6global11GlobalAlloc7realloc17h425afe912a14999aE+0x2c>
 8000264:	9906      	ldr	r1, [sp, #24]
 8000266:	9805      	ldr	r0, [sp, #20]
 8000268:	f000 fcfe 	bl	8000c68 <_ZN4core5alloc6layout6Layout25from_size_align_unchecked18precondition_check17h81ee6ad0488b2651E>
 800026c:	e7ff      	b.n	800026e <_ZN4core5alloc6global11GlobalAlloc7realloc17h425afe912a14999aE+0x36>
 800026e:	9a05      	ldr	r2, [sp, #20]
 8000270:	9906      	ldr	r1, [sp, #24]
 8000272:	9804      	ldr	r0, [sp, #16]
 8000274:	9114      	str	r1, [sp, #80]	; 0x50
 8000276:	9215      	str	r2, [sp, #84]	; 0x54
 8000278:	f005 f9b4 	bl	80055e4 <_ZN96_$LT$freertos_rust..allocator..FreeRtosAllocator$u20$as$u20$core..alloc..global..GlobalAlloc$GT$5alloc17ha2faf5168b77887cE>
 800027c:	4601      	mov	r1, r0
 800027e:	9102      	str	r1, [sp, #8]
 8000280:	9016      	str	r0, [sp, #88]	; 0x58
 8000282:	9017      	str	r0, [sp, #92]	; 0x5c
 8000284:	b908      	cbnz	r0, 800028a <_ZN4core5alloc6global11GlobalAlloc7realloc17h425afe912a14999aE+0x52>
 8000286:	e7ff      	b.n	8000288 <_ZN4core5alloc6global11GlobalAlloc7realloc17h425afe912a14999aE+0x50>
 8000288:	e015      	b.n	80002b6 <_ZN4core5alloc6global11GlobalAlloc7realloc17h425afe912a14999aE+0x7e>
 800028a:	9805      	ldr	r0, [sp, #20]
 800028c:	9903      	ldr	r1, [sp, #12]
 800028e:	9118      	str	r1, [sp, #96]	; 0x60
 8000290:	a907      	add	r1, sp, #28
 8000292:	9119      	str	r1, [sp, #100]	; 0x64
 8000294:	9908      	ldr	r1, [sp, #32]
 8000296:	910a      	str	r1, [sp, #40]	; 0x28
 8000298:	900b      	str	r0, [sp, #44]	; 0x2c
 800029a:	a80a      	add	r0, sp, #40	; 0x28
 800029c:	a90b      	add	r1, sp, #44	; 0x2c
 800029e:	f000 f83f 	bl	8000320 <_ZN4core3ops8function6FnOnce9call_once17hd7644ec0847f1d90E>
 80002a2:	f807 0c31 	strb.w	r0, [r7, #-49]
 80002a6:	f817 1c31 	ldrb.w	r1, [r7, #-49]
 80002aa:	1c48      	adds	r0, r1, #1
 80002ac:	b2c0      	uxtb	r0, r0
 80002ae:	2802      	cmp	r0, #2
 80002b0:	d305      	bcc.n	80002be <_ZN4core5alloc6global11GlobalAlloc7realloc17h425afe912a14999aE+0x86>
 80002b2:	e7ff      	b.n	80002b4 <_ZN4core5alloc6global11GlobalAlloc7realloc17h425afe912a14999aE+0x7c>
 80002b4:	e006      	b.n	80002c4 <_ZN4core5alloc6global11GlobalAlloc7realloc17h425afe912a14999aE+0x8c>
 80002b6:	9802      	ldr	r0, [sp, #8]
 80002b8:	b01a      	add	sp, #104	; 0x68
 80002ba:	bd80      	pop	{r7, pc}
 80002bc:	defe      	udf	#254	; 0xfe
 80002be:	980a      	ldr	r0, [sp, #40]	; 0x28
 80002c0:	9009      	str	r0, [sp, #36]	; 0x24
 80002c2:	e002      	b.n	80002ca <_ZN4core5alloc6global11GlobalAlloc7realloc17h425afe912a14999aE+0x92>
 80002c4:	9805      	ldr	r0, [sp, #20]
 80002c6:	9009      	str	r0, [sp, #36]	; 0x24
 80002c8:	e7ff      	b.n	80002ca <_ZN4core5alloc6global11GlobalAlloc7realloc17h425afe912a14999aE+0x92>
 80002ca:	e7ff      	b.n	80002cc <_ZN4core5alloc6global11GlobalAlloc7realloc17h425afe912a14999aE+0x94>
 80002cc:	9902      	ldr	r1, [sp, #8]
 80002ce:	9803      	ldr	r0, [sp, #12]
 80002d0:	9a09      	ldr	r2, [sp, #36]	; 0x24
 80002d2:	466b      	mov	r3, sp
 80002d4:	601a      	str	r2, [r3, #0]
 80002d6:	2301      	movs	r3, #1
 80002d8:	461a      	mov	r2, r3
 80002da:	f000 f8c0 	bl	800045e <_ZN4core10intrinsics19copy_nonoverlapping18precondition_check17h32f83d8f61b722f4E>
 80002de:	e7ff      	b.n	80002e0 <_ZN4core5alloc6global11GlobalAlloc7realloc17h425afe912a14999aE+0xa8>
 80002e0:	9903      	ldr	r1, [sp, #12]
 80002e2:	9802      	ldr	r0, [sp, #8]
 80002e4:	9a09      	ldr	r2, [sp, #36]	; 0x24
 80002e6:	f008 ff64 	bl	80091b2 <__aeabi_memcpy>
 80002ea:	9903      	ldr	r1, [sp, #12]
 80002ec:	9804      	ldr	r0, [sp, #16]
 80002ee:	9a07      	ldr	r2, [sp, #28]
 80002f0:	9b08      	ldr	r3, [sp, #32]
 80002f2:	f005 f985 	bl	8005600 <_ZN96_$LT$freertos_rust..allocator..FreeRtosAllocator$u20$as$u20$core..alloc..global..GlobalAlloc$GT$7dealloc17h6e23447d1b01d97dE>
 80002f6:	e7de      	b.n	80002b6 <_ZN4core5alloc6global11GlobalAlloc7realloc17h425afe912a14999aE+0x7e>

080002f8 <_ZN4core3ops8function6FnOnce40call_once$u7b$$u7b$vtable.shim$u7d$$u7d$17h1e303e3190a424f2E>:
 80002f8:	b580      	push	{r7, lr}
 80002fa:	466f      	mov	r7, sp
 80002fc:	b082      	sub	sp, #8
 80002fe:	9100      	str	r1, [sp, #0]
 8000300:	9001      	str	r0, [sp, #4]
 8000302:	9800      	ldr	r0, [sp, #0]
 8000304:	f000 fb13 	bl	800092e <_ZN22stm32_cortex_m4_f401re18__cortex_m_rt_main28_$u7b$$u7b$closure$u7d$$u7d$17h293765dd09e2fb25E>
 8000308:	b002      	add	sp, #8
 800030a:	bd80      	pop	{r7, pc}

0800030c <_ZN4core3ops8function6FnOnce40call_once$u7b$$u7b$vtable.shim$u7d$$u7d$17hd068fe66644c9d46E>:
 800030c:	b580      	push	{r7, lr}
 800030e:	466f      	mov	r7, sp
 8000310:	b082      	sub	sp, #8
 8000312:	9100      	str	r1, [sp, #0]
 8000314:	9001      	str	r0, [sp, #4]
 8000316:	9800      	ldr	r0, [sp, #0]
 8000318:	f000 fb11 	bl	800093e <_ZN22stm32_cortex_m4_f401re18__cortex_m_rt_main28_$u7b$$u7b$closure$u7d$$u7d$17hb1438bd9d923544fE>
 800031c:	b002      	add	sp, #8
 800031e:	bd80      	pop	{r7, pc}

08000320 <_ZN4core3ops8function6FnOnce9call_once17hd7644ec0847f1d90E>:
 8000320:	b580      	push	{r7, lr}
 8000322:	466f      	mov	r7, sp
 8000324:	b084      	sub	sp, #16
 8000326:	9001      	str	r0, [sp, #4]
 8000328:	9102      	str	r1, [sp, #8]
 800032a:	9801      	ldr	r0, [sp, #4]
 800032c:	9902      	ldr	r1, [sp, #8]
 800032e:	f000 fcad 	bl	8000c8c <_ZN4core3cmp5impls50_$LT$impl$u20$core..cmp..Ord$u20$for$u20$usize$GT$3cmp17h411eb5815f3eb637E>
 8000332:	b004      	add	sp, #16
 8000334:	bd80      	pop	{r7, pc}

08000336 <_ZN4core3ptr53drop_in_place$LT$freertos_rust..task..TaskBuilder$GT$17hdc43521a99eab5f5E>:
 8000336:	b580      	push	{r7, lr}
 8000338:	466f      	mov	r7, sp
 800033a:	b082      	sub	sp, #8
 800033c:	9001      	str	r0, [sp, #4]
 800033e:	f004 fee3 	bl	8005108 <_ZN4core3ptr42drop_in_place$LT$alloc..string..String$GT$17h88b92c11c21e8942E>
 8000342:	b002      	add	sp, #8
 8000344:	bd80      	pop	{r7, pc}

08000346 <_ZN4core3ptr57drop_in_place$LT$freertos_rust..isr..InterruptContext$GT$17heee32578ee263f0aE>:
 8000346:	b580      	push	{r7, lr}
 8000348:	466f      	mov	r7, sp
 800034a:	b082      	sub	sp, #8
 800034c:	9001      	str	r0, [sp, #4]
 800034e:	f004 ff7d 	bl	800524c <_ZN78_$LT$freertos_rust..isr..InterruptContext$u20$as$u20$core..ops..drop..Drop$GT$4drop17h82e14173bf451fdeE>
 8000352:	b002      	add	sp, #8
 8000354:	bd80      	pop	{r7, pc}

08000356 <_ZN5alloc6string6String6as_str17h5cf7302ebe2e8332E>:
 8000356:	b580      	push	{r7, lr}
 8000358:	466f      	mov	r7, sp
 800035a:	b08c      	sub	sp, #48	; 0x30
 800035c:	9002      	str	r0, [sp, #8]
 800035e:	9003      	str	r0, [sp, #12]
 8000360:	9004      	str	r0, [sp, #16]
 8000362:	9005      	str	r0, [sp, #20]
 8000364:	6841      	ldr	r1, [r0, #4]
 8000366:	9100      	str	r1, [sp, #0]
 8000368:	9106      	str	r1, [sp, #24]
 800036a:	9107      	str	r1, [sp, #28]
 800036c:	9108      	str	r1, [sp, #32]
 800036e:	6880      	ldr	r0, [r0, #8]
 8000370:	9001      	str	r0, [sp, #4]
 8000372:	9009      	str	r0, [sp, #36]	; 0x24
 8000374:	e7ff      	b.n	8000376 <_ZN5alloc6string6String6as_str17h5cf7302ebe2e8332E+0x20>
 8000376:	9b01      	ldr	r3, [sp, #4]
 8000378:	9800      	ldr	r0, [sp, #0]
 800037a:	2201      	movs	r2, #1
 800037c:	4611      	mov	r1, r2
 800037e:	f000 faf6 	bl	800096e <_ZN4core5slice3raw14from_raw_parts18precondition_check17h87034b83b05e6045E>
 8000382:	e7ff      	b.n	8000384 <_ZN5alloc6string6String6as_str17h5cf7302ebe2e8332E+0x2e>
 8000384:	9901      	ldr	r1, [sp, #4]
 8000386:	9800      	ldr	r0, [sp, #0]
 8000388:	900a      	str	r0, [sp, #40]	; 0x28
 800038a:	910b      	str	r1, [sp, #44]	; 0x2c
 800038c:	b00c      	add	sp, #48	; 0x30
 800038e:	bd80      	pop	{r7, pc}

08000390 <_ZN65_$LT$alloc..string..String$u20$as$u20$core..ops..deref..Deref$GT$5deref17hcc747a64a952d52aE>:
 8000390:	b580      	push	{r7, lr}
 8000392:	466f      	mov	r7, sp
 8000394:	b082      	sub	sp, #8
 8000396:	9001      	str	r0, [sp, #4]
 8000398:	f7ff ffdd 	bl	8000356 <_ZN5alloc6string6String6as_str17h5cf7302ebe2e8332E>
 800039c:	b002      	add	sp, #8
 800039e:	bd80      	pop	{r7, pc}

080003a0 <_ZN4core10intrinsics11write_bytes18precondition_check17h1c495d6cd44e7aebE>:
 80003a0:	b580      	push	{r7, lr}
 80003a2:	466f      	mov	r7, sp
 80003a4:	b090      	sub	sp, #64	; 0x40
 80003a6:	9101      	str	r1, [sp, #4]
 80003a8:	9002      	str	r0, [sp, #8]
 80003aa:	4613      	mov	r3, r2
 80003ac:	9303      	str	r3, [sp, #12]
 80003ae:	900a      	str	r0, [sp, #40]	; 0x28
 80003b0:	910b      	str	r1, [sp, #44]	; 0x2c
 80003b2:	f807 2c0d 	strb.w	r2, [r7, #-13]
 80003b6:	f249 40b0 	movw	r0, #38064	; 0x94b0
 80003ba:	f6c0 0000 	movt	r0, #2048	; 0x800
 80003be:	900d      	str	r0, [sp, #52]	; 0x34
 80003c0:	f04f 3055 	mov.w	r0, #1431655765	; 0x55555555
 80003c4:	ea00 0051 	and.w	r0, r0, r1, lsr #1
 80003c8:	1a08      	subs	r0, r1, r0
 80003ca:	f04f 3133 	mov.w	r1, #858993459	; 0x33333333
 80003ce:	ea01 0190 	and.w	r1, r1, r0, lsr #2
 80003d2:	f020 30cc 	bic.w	r0, r0, #3435973836	; 0xcccccccc
 80003d6:	4408      	add	r0, r1
 80003d8:	eb00 1010 	add.w	r0, r0, r0, lsr #4
 80003dc:	f020 30f0 	bic.w	r0, r0, #4042322160	; 0xf0f0f0f0
 80003e0:	f04f 3101 	mov.w	r1, #16843009	; 0x1010101
 80003e4:	4348      	muls	r0, r1
 80003e6:	0e00      	lsrs	r0, r0, #24
 80003e8:	900e      	str	r0, [sp, #56]	; 0x38
 80003ea:	980e      	ldr	r0, [sp, #56]	; 0x38
 80003ec:	2801      	cmp	r0, #1
 80003ee:	d108      	bne.n	8000402 <_ZN4core10intrinsics11write_bytes18precondition_check17h1c495d6cd44e7aebE+0x62>
 80003f0:	e7ff      	b.n	80003f2 <_ZN4core10intrinsics11write_bytes18precondition_check17h1c495d6cd44e7aebE+0x52>
 80003f2:	9802      	ldr	r0, [sp, #8]
 80003f4:	9901      	ldr	r1, [sp, #4]
 80003f6:	4602      	mov	r2, r0
 80003f8:	9200      	str	r2, [sp, #0]
 80003fa:	3901      	subs	r1, #1
 80003fc:	4208      	tst	r0, r1
 80003fe:	d01a      	beq.n	8000436 <_ZN4core10intrinsics11write_bytes18precondition_check17h1c495d6cd44e7aebE+0x96>
 8000400:	e01d      	b.n	800043e <_ZN4core10intrinsics11write_bytes18precondition_check17h1c495d6cd44e7aebE+0x9e>
 8000402:	f249 40b0 	movw	r0, #38064	; 0x94b0
 8000406:	f6c0 0000 	movt	r0, #2048	; 0x800
 800040a:	9004      	str	r0, [sp, #16]
 800040c:	2001      	movs	r0, #1
 800040e:	9005      	str	r0, [sp, #20]
 8000410:	f249 5038 	movw	r0, #38200	; 0x9538
 8000414:	f6c0 0000 	movt	r0, #2048	; 0x800
 8000418:	6801      	ldr	r1, [r0, #0]
 800041a:	6840      	ldr	r0, [r0, #4]
 800041c:	9108      	str	r1, [sp, #32]
 800041e:	9009      	str	r0, [sp, #36]	; 0x24
 8000420:	2004      	movs	r0, #4
 8000422:	9006      	str	r0, [sp, #24]
 8000424:	2000      	movs	r0, #0
 8000426:	9007      	str	r0, [sp, #28]
 8000428:	f249 51c8 	movw	r1, #38344	; 0x95c8
 800042c:	f6c0 0100 	movt	r1, #2048	; 0x800
 8000430:	a804      	add	r0, sp, #16
 8000432:	f006 ff5a 	bl	80072ea <_ZN4core9panicking9panic_fmt17h9bd7242b2f9f3cdaE>
 8000436:	9803      	ldr	r0, [sp, #12]
 8000438:	07c0      	lsls	r0, r0, #31
 800043a:	b930      	cbnz	r0, 800044a <_ZN4core10intrinsics11write_bytes18precondition_check17h1c495d6cd44e7aebE+0xaa>
 800043c:	e000      	b.n	8000440 <_ZN4core10intrinsics11write_bytes18precondition_check17h1c495d6cd44e7aebE+0xa0>
 800043e:	e005      	b.n	800044c <_ZN4core10intrinsics11write_bytes18precondition_check17h1c495d6cd44e7aebE+0xac>
 8000440:	9800      	ldr	r0, [sp, #0]
 8000442:	9902      	ldr	r1, [sp, #8]
 8000444:	910f      	str	r1, [sp, #60]	; 0x3c
 8000446:	b940      	cbnz	r0, 800045a <_ZN4core10intrinsics11write_bytes18precondition_check17h1c495d6cd44e7aebE+0xba>
 8000448:	e000      	b.n	800044c <_ZN4core10intrinsics11write_bytes18precondition_check17h1c495d6cd44e7aebE+0xac>
 800044a:	e006      	b.n	800045a <_ZN4core10intrinsics11write_bytes18precondition_check17h1c495d6cd44e7aebE+0xba>
 800044c:	f249 40b8 	movw	r0, #38072	; 0x94b8
 8000450:	f6c0 0000 	movt	r0, #2048	; 0x800
 8000454:	216f      	movs	r1, #111	; 0x6f
 8000456:	f006 ff7a 	bl	800734e <_ZN4core9panicking14panic_nounwind17ha7168a7a4498f4fbE>
 800045a:	b010      	add	sp, #64	; 0x40
 800045c:	bd80      	pop	{r7, pc}

0800045e <_ZN4core10intrinsics19copy_nonoverlapping18precondition_check17h32f83d8f61b722f4E>:
 800045e:	b580      	push	{r7, lr}
 8000460:	466f      	mov	r7, sp
 8000462:	b0a6      	sub	sp, #152	; 0x98
 8000464:	9303      	str	r3, [sp, #12]
 8000466:	9204      	str	r2, [sp, #16]
 8000468:	9105      	str	r1, [sp, #20]
 800046a:	4684      	mov	ip, r0
 800046c:	f8cd c018 	str.w	ip, [sp, #24]
 8000470:	68b8      	ldr	r0, [r7, #8]
 8000472:	9007      	str	r0, [sp, #28]
 8000474:	f8cd c06c 	str.w	ip, [sp, #108]	; 0x6c
 8000478:	911c      	str	r1, [sp, #112]	; 0x70
 800047a:	921d      	str	r2, [sp, #116]	; 0x74
 800047c:	931e      	str	r3, [sp, #120]	; 0x78
 800047e:	f249 41b0 	movw	r1, #38064	; 0x94b0
 8000482:	f6c0 0100 	movt	r1, #2048	; 0x800
 8000486:	911f      	str	r1, [sp, #124]	; 0x7c
 8000488:	9120      	str	r1, [sp, #128]	; 0x80
 800048a:	bb20      	cbnz	r0, 80004d6 <_ZN4core10intrinsics19copy_nonoverlapping18precondition_check17h32f83d8f61b722f4E+0x78>
 800048c:	e7ff      	b.n	800048e <_ZN4core10intrinsics19copy_nonoverlapping18precondition_check17h32f83d8f61b722f4E+0x30>
 800048e:	9803      	ldr	r0, [sp, #12]
 8000490:	2101      	movs	r1, #1
 8000492:	f807 1c75 	strb.w	r1, [r7, #-117]
 8000496:	9009      	str	r0, [sp, #36]	; 0x24
 8000498:	f817 1c75 	ldrb.w	r1, [r7, #-117]
 800049c:	f001 0101 	and.w	r1, r1, #1
 80004a0:	f807 1c6d 	strb.w	r1, [r7, #-109]
 80004a4:	f04f 3155 	mov.w	r1, #1431655765	; 0x55555555
 80004a8:	ea01 0150 	and.w	r1, r1, r0, lsr #1
 80004ac:	1a40      	subs	r0, r0, r1
 80004ae:	f04f 3133 	mov.w	r1, #858993459	; 0x33333333
 80004b2:	ea01 0190 	and.w	r1, r1, r0, lsr #2
 80004b6:	f020 30cc 	bic.w	r0, r0, #3435973836	; 0xcccccccc
 80004ba:	4408      	add	r0, r1
 80004bc:	eb00 1010 	add.w	r0, r0, r0, lsr #4
 80004c0:	f020 30f0 	bic.w	r0, r0, #4042322160	; 0xf0f0f0f0
 80004c4:	f04f 3101 	mov.w	r1, #16843009	; 0x1010101
 80004c8:	4348      	muls	r0, r1
 80004ca:	0e00      	lsrs	r0, r0, #24
 80004cc:	9014      	str	r0, [sp, #80]	; 0x50
 80004ce:	9814      	ldr	r0, [sp, #80]	; 0x50
 80004d0:	2801      	cmp	r0, #1
 80004d2:	d027      	beq.n	8000524 <_ZN4core10intrinsics19copy_nonoverlapping18precondition_check17h32f83d8f61b722f4E+0xc6>
 80004d4:	e032      	b.n	800053c <_ZN4core10intrinsics19copy_nonoverlapping18precondition_check17h32f83d8f61b722f4E+0xde>
 80004d6:	9803      	ldr	r0, [sp, #12]
 80004d8:	9904      	ldr	r1, [sp, #16]
 80004da:	fab1 f181 	clz	r1, r1
 80004de:	0949      	lsrs	r1, r1, #5
 80004e0:	f807 1c75 	strb.w	r1, [r7, #-117]
 80004e4:	9009      	str	r0, [sp, #36]	; 0x24
 80004e6:	f817 1c75 	ldrb.w	r1, [r7, #-117]
 80004ea:	f001 0101 	and.w	r1, r1, #1
 80004ee:	f807 1c6d 	strb.w	r1, [r7, #-109]
 80004f2:	f04f 3155 	mov.w	r1, #1431655765	; 0x55555555
 80004f6:	ea01 0150 	and.w	r1, r1, r0, lsr #1
 80004fa:	1a40      	subs	r0, r0, r1
 80004fc:	f04f 3133 	mov.w	r1, #858993459	; 0x33333333
 8000500:	ea01 0190 	and.w	r1, r1, r0, lsr #2
 8000504:	f020 30cc 	bic.w	r0, r0, #3435973836	; 0xcccccccc
 8000508:	4408      	add	r0, r1
 800050a:	eb00 1010 	add.w	r0, r0, r0, lsr #4
 800050e:	f020 30f0 	bic.w	r0, r0, #4042322160	; 0xf0f0f0f0
 8000512:	f04f 3101 	mov.w	r1, #16843009	; 0x1010101
 8000516:	4348      	muls	r0, r1
 8000518:	0e00      	lsrs	r0, r0, #24
 800051a:	9014      	str	r0, [sp, #80]	; 0x50
 800051c:	9814      	ldr	r0, [sp, #80]	; 0x50
 800051e:	2801      	cmp	r0, #1
 8000520:	d029      	beq.n	8000576 <_ZN4core10intrinsics19copy_nonoverlapping18precondition_check17h32f83d8f61b722f4E+0x118>
 8000522:	e00b      	b.n	800053c <_ZN4core10intrinsics19copy_nonoverlapping18precondition_check17h32f83d8f61b722f4E+0xde>
 8000524:	9803      	ldr	r0, [sp, #12]
 8000526:	9906      	ldr	r1, [sp, #24]
 8000528:	9112      	str	r1, [sp, #72]	; 0x48
 800052a:	3801      	subs	r0, #1
 800052c:	9013      	str	r0, [sp, #76]	; 0x4c
 800052e:	9812      	ldr	r0, [sp, #72]	; 0x48
 8000530:	9913      	ldr	r1, [sp, #76]	; 0x4c
 8000532:	4008      	ands	r0, r1
 8000534:	9011      	str	r0, [sp, #68]	; 0x44
 8000536:	9811      	ldr	r0, [sp, #68]	; 0x44
 8000538:	b1d0      	cbz	r0, 8000570 <_ZN4core10intrinsics19copy_nonoverlapping18precondition_check17h32f83d8f61b722f4E+0x112>
 800053a:	e01a      	b.n	8000572 <_ZN4core10intrinsics19copy_nonoverlapping18precondition_check17h32f83d8f61b722f4E+0x114>
 800053c:	f249 40b0 	movw	r0, #38064	; 0x94b0
 8000540:	f6c0 0000 	movt	r0, #2048	; 0x800
 8000544:	900b      	str	r0, [sp, #44]	; 0x2c
 8000546:	2001      	movs	r0, #1
 8000548:	900c      	str	r0, [sp, #48]	; 0x30
 800054a:	f249 5038 	movw	r0, #38200	; 0x9538
 800054e:	f6c0 0000 	movt	r0, #2048	; 0x800
 8000552:	6801      	ldr	r1, [r0, #0]
 8000554:	6840      	ldr	r0, [r0, #4]
 8000556:	910f      	str	r1, [sp, #60]	; 0x3c
 8000558:	9010      	str	r0, [sp, #64]	; 0x40
 800055a:	2004      	movs	r0, #4
 800055c:	900d      	str	r0, [sp, #52]	; 0x34
 800055e:	2000      	movs	r0, #0
 8000560:	900e      	str	r0, [sp, #56]	; 0x38
 8000562:	f249 51c8 	movw	r1, #38344	; 0x95c8
 8000566:	f6c0 0100 	movt	r1, #2048	; 0x800
 800056a:	a80b      	add	r0, sp, #44	; 0x2c
 800056c:	f006 febd 	bl	80072ea <_ZN4core9panicking9panic_fmt17h9bd7242b2f9f3cdaE>
 8000570:	e000      	b.n	8000574 <_ZN4core10intrinsics19copy_nonoverlapping18precondition_check17h32f83d8f61b722f4E+0x116>
 8000572:	e018      	b.n	80005a6 <_ZN4core10intrinsics19copy_nonoverlapping18precondition_check17h32f83d8f61b722f4E+0x148>
 8000574:	e018      	b.n	80005a8 <_ZN4core10intrinsics19copy_nonoverlapping18precondition_check17h32f83d8f61b722f4E+0x14a>
 8000576:	9803      	ldr	r0, [sp, #12]
 8000578:	9906      	ldr	r1, [sp, #24]
 800057a:	9112      	str	r1, [sp, #72]	; 0x48
 800057c:	3801      	subs	r0, #1
 800057e:	9013      	str	r0, [sp, #76]	; 0x4c
 8000580:	9812      	ldr	r0, [sp, #72]	; 0x48
 8000582:	9913      	ldr	r1, [sp, #76]	; 0x4c
 8000584:	4008      	ands	r0, r1
 8000586:	9011      	str	r0, [sp, #68]	; 0x44
 8000588:	9811      	ldr	r0, [sp, #68]	; 0x44
 800058a:	2800      	cmp	r0, #0
 800058c:	d1f1      	bne.n	8000572 <_ZN4core10intrinsics19copy_nonoverlapping18precondition_check17h32f83d8f61b722f4E+0x114>
 800058e:	e7ff      	b.n	8000590 <_ZN4core10intrinsics19copy_nonoverlapping18precondition_check17h32f83d8f61b722f4E+0x132>
 8000590:	f817 0c6d 	ldrb.w	r0, [r7, #-109]
 8000594:	07c0      	lsls	r0, r0, #31
 8000596:	2800      	cmp	r0, #0
 8000598:	d1ec      	bne.n	8000574 <_ZN4core10intrinsics19copy_nonoverlapping18precondition_check17h32f83d8f61b722f4E+0x116>
 800059a:	e7ff      	b.n	800059c <_ZN4core10intrinsics19copy_nonoverlapping18precondition_check17h32f83d8f61b722f4E+0x13e>
 800059c:	9806      	ldr	r0, [sp, #24]
 800059e:	9021      	str	r0, [sp, #132]	; 0x84
 80005a0:	9812      	ldr	r0, [sp, #72]	; 0x48
 80005a2:	b908      	cbnz	r0, 80005a8 <_ZN4core10intrinsics19copy_nonoverlapping18precondition_check17h32f83d8f61b722f4E+0x14a>
 80005a4:	e7ff      	b.n	80005a6 <_ZN4core10intrinsics19copy_nonoverlapping18precondition_check17h32f83d8f61b722f4E+0x148>
 80005a6:	e061      	b.n	800066c <_ZN4core10intrinsics19copy_nonoverlapping18precondition_check17h32f83d8f61b722f4E+0x20e>
 80005a8:	9803      	ldr	r0, [sp, #12]
 80005aa:	9905      	ldr	r1, [sp, #20]
 80005ac:	9122      	str	r1, [sp, #136]	; 0x88
 80005ae:	f817 1c75 	ldrb.w	r1, [r7, #-117]
 80005b2:	460a      	mov	r2, r1
 80005b4:	9202      	str	r2, [sp, #8]
 80005b6:	f001 0101 	and.w	r1, r1, #1
 80005ba:	f807 1c09 	strb.w	r1, [r7, #-9]
 80005be:	f04f 3155 	mov.w	r1, #1431655765	; 0x55555555
 80005c2:	ea01 0150 	and.w	r1, r1, r0, lsr #1
 80005c6:	1a40      	subs	r0, r0, r1
 80005c8:	f04f 3133 	mov.w	r1, #858993459	; 0x33333333
 80005cc:	ea01 0190 	and.w	r1, r1, r0, lsr #2
 80005d0:	f020 30cc 	bic.w	r0, r0, #3435973836	; 0xcccccccc
 80005d4:	4408      	add	r0, r1
 80005d6:	eb00 1010 	add.w	r0, r0, r0, lsr #4
 80005da:	f020 30f0 	bic.w	r0, r0, #4042322160	; 0xf0f0f0f0
 80005de:	f04f 3101 	mov.w	r1, #16843009	; 0x1010101
 80005e2:	4348      	muls	r0, r1
 80005e4:	0e00      	lsrs	r0, r0, #24
 80005e6:	9024      	str	r0, [sp, #144]	; 0x90
 80005e8:	9824      	ldr	r0, [sp, #144]	; 0x90
 80005ea:	2801      	cmp	r0, #1
 80005ec:	d107      	bne.n	80005fe <_ZN4core10intrinsics19copy_nonoverlapping18precondition_check17h32f83d8f61b722f4E+0x1a0>
 80005ee:	e7ff      	b.n	80005f0 <_ZN4core10intrinsics19copy_nonoverlapping18precondition_check17h32f83d8f61b722f4E+0x192>
 80005f0:	9805      	ldr	r0, [sp, #20]
 80005f2:	4601      	mov	r1, r0
 80005f4:	9101      	str	r1, [sp, #4]
 80005f6:	9913      	ldr	r1, [sp, #76]	; 0x4c
 80005f8:	4208      	tst	r0, r1
 80005fa:	d01a      	beq.n	8000632 <_ZN4core10intrinsics19copy_nonoverlapping18precondition_check17h32f83d8f61b722f4E+0x1d4>
 80005fc:	e01d      	b.n	800063a <_ZN4core10intrinsics19copy_nonoverlapping18precondition_check17h32f83d8f61b722f4E+0x1dc>
 80005fe:	f249 40b0 	movw	r0, #38064	; 0x94b0
 8000602:	f6c0 0000 	movt	r0, #2048	; 0x800
 8000606:	9015      	str	r0, [sp, #84]	; 0x54
 8000608:	2001      	movs	r0, #1
 800060a:	9016      	str	r0, [sp, #88]	; 0x58
 800060c:	f249 5038 	movw	r0, #38200	; 0x9538
 8000610:	f6c0 0000 	movt	r0, #2048	; 0x800
 8000614:	6801      	ldr	r1, [r0, #0]
 8000616:	6840      	ldr	r0, [r0, #4]
 8000618:	9119      	str	r1, [sp, #100]	; 0x64
 800061a:	901a      	str	r0, [sp, #104]	; 0x68
 800061c:	2004      	movs	r0, #4
 800061e:	9017      	str	r0, [sp, #92]	; 0x5c
 8000620:	2000      	movs	r0, #0
 8000622:	9018      	str	r0, [sp, #96]	; 0x60
 8000624:	f249 51c8 	movw	r1, #38344	; 0x95c8
 8000628:	f6c0 0100 	movt	r1, #2048	; 0x800
 800062c:	a815      	add	r0, sp, #84	; 0x54
 800062e:	f006 fe5c 	bl	80072ea <_ZN4core9panicking9panic_fmt17h9bd7242b2f9f3cdaE>
 8000632:	9802      	ldr	r0, [sp, #8]
 8000634:	07c0      	lsls	r0, r0, #31
 8000636:	b930      	cbnz	r0, 8000646 <_ZN4core10intrinsics19copy_nonoverlapping18precondition_check17h32f83d8f61b722f4E+0x1e8>
 8000638:	e000      	b.n	800063c <_ZN4core10intrinsics19copy_nonoverlapping18precondition_check17h32f83d8f61b722f4E+0x1de>
 800063a:	e005      	b.n	8000648 <_ZN4core10intrinsics19copy_nonoverlapping18precondition_check17h32f83d8f61b722f4E+0x1ea>
 800063c:	9801      	ldr	r0, [sp, #4]
 800063e:	9905      	ldr	r1, [sp, #20]
 8000640:	9125      	str	r1, [sp, #148]	; 0x94
 8000642:	b910      	cbnz	r0, 800064a <_ZN4core10intrinsics19copy_nonoverlapping18precondition_check17h32f83d8f61b722f4E+0x1ec>
 8000644:	e000      	b.n	8000648 <_ZN4core10intrinsics19copy_nonoverlapping18precondition_check17h32f83d8f61b722f4E+0x1ea>
 8000646:	e000      	b.n	800064a <_ZN4core10intrinsics19copy_nonoverlapping18precondition_check17h32f83d8f61b722f4E+0x1ec>
 8000648:	e010      	b.n	800066c <_ZN4core10intrinsics19copy_nonoverlapping18precondition_check17h32f83d8f61b722f4E+0x20e>
 800064a:	9b07      	ldr	r3, [sp, #28]
 800064c:	9a04      	ldr	r2, [sp, #16]
 800064e:	9905      	ldr	r1, [sp, #20]
 8000650:	9806      	ldr	r0, [sp, #24]
 8000652:	f000 fe78 	bl	8001346 <_ZN4core9ub_checks17is_nonoverlapping7runtime17hd0dcb1bd2fd68f20E>
 8000656:	b938      	cbnz	r0, 8000668 <_ZN4core10intrinsics19copy_nonoverlapping18precondition_check17h32f83d8f61b722f4E+0x20a>
 8000658:	e7ff      	b.n	800065a <_ZN4core10intrinsics19copy_nonoverlapping18precondition_check17h32f83d8f61b722f4E+0x1fc>
 800065a:	f249 50d8 	movw	r0, #38360	; 0x95d8
 800065e:	f6c0 0000 	movt	r0, #2048	; 0x800
 8000662:	21a6      	movs	r1, #166	; 0xa6
 8000664:	f006 fe73 	bl	800734e <_ZN4core9panicking14panic_nounwind17ha7168a7a4498f4fbE>
 8000668:	b026      	add	sp, #152	; 0x98
 800066a:	bd80      	pop	{r7, pc}
 800066c:	e7f5      	b.n	800065a <_ZN4core10intrinsics19copy_nonoverlapping18precondition_check17h32f83d8f61b722f4E+0x1fc>

0800066e <_ZN22stm32_cortex_m4_f401re28MyDevice$LT$Button$C$LED$GT$3new17hbb1a86142ec8d342E>:
 800066e:	b081      	sub	sp, #4
 8000670:	b001      	add	sp, #4
 8000672:	4770      	bx	lr

08000674 <_ZN22stm32_cortex_m4_f401re14setup_hardware28_$u7b$$u7b$closure$u7d$$u7d$17h0d889faa55db53fbE>:
 8000674:	b087      	sub	sp, #28
 8000676:	9001      	str	r0, [sp, #4]
 8000678:	9102      	str	r1, [sp, #8]
 800067a:	9103      	str	r1, [sp, #12]
 800067c:	9104      	str	r1, [sp, #16]
 800067e:	9105      	str	r1, [sp, #20]
 8000680:	2001      	movs	r0, #1
 8000682:	f88d 001b 	strb.w	r0, [sp, #27]
 8000686:	9905      	ldr	r1, [sp, #20]
 8000688:	6808      	ldr	r0, [r1, #0]
 800068a:	f440 3080 	orr.w	r0, r0, #65536	; 0x10000
 800068e:	6008      	str	r0, [r1, #0]
 8000690:	9805      	ldr	r0, [sp, #20]
 8000692:	b007      	add	sp, #28
 8000694:	4770      	bx	lr

08000696 <_ZN22stm32_cortex_m4_f401re14setup_hardware28_$u7b$$u7b$closure$u7d$$u7d$17ha86ca7ec55373c5aE>:
 8000696:	b580      	push	{r7, lr}
 8000698:	466f      	mov	r7, sp
 800069a:	b08c      	sub	sp, #48	; 0x30
 800069c:	9101      	str	r1, [sp, #4]
 800069e:	9003      	str	r0, [sp, #12]
 80006a0:	9104      	str	r1, [sp, #16]
 80006a2:	9105      	str	r1, [sp, #20]
 80006a4:	9107      	str	r1, [sp, #28]
 80006a6:	2001      	movs	r0, #1
 80006a8:	f807 0c15 	strb.w	r0, [r7, #-21]
 80006ac:	f817 0c15 	ldrb.w	r0, [r7, #-21]
 80006b0:	9108      	str	r1, [sp, #32]
 80006b2:	f807 0c09 	strb.w	r0, [r7, #-9]
 80006b6:	f249 61ec 	movw	r1, #38636	; 0x96ec
 80006ba:	f6c0 0100 	movt	r1, #2048	; 0x800
 80006be:	f004 fa1c 	bl	8004afa <_ZN50_$LT$T$u20$as$u20$core..convert..Into$LT$U$GT$$GT$4into17h5d55044f6ecd8c13E>
 80006c2:	9901      	ldr	r1, [sp, #4]
 80006c4:	4602      	mov	r2, r0
 80006c6:	910a      	str	r1, [sp, #40]	; 0x28
 80006c8:	f807 2c01 	strb.w	r2, [r7, #-1]
 80006cc:	990a      	ldr	r1, [sp, #40]	; 0x28
 80006ce:	6808      	ldr	r0, [r1, #0]
 80006d0:	f362 0001 	bfi	r0, r2, #0, #2
 80006d4:	6008      	str	r0, [r1, #0]
 80006d6:	980a      	ldr	r0, [sp, #40]	; 0x28
 80006d8:	b00c      	add	sp, #48	; 0x30
 80006da:	bd80      	pop	{r7, pc}

080006dc <_ZN22stm32_cortex_m4_f401re14setup_hardware28_$u7b$$u7b$closure$u7d$$u7d$17h3a2a4525b70388cbE>:
 80006dc:	b580      	push	{r7, lr}
 80006de:	466f      	mov	r7, sp
 80006e0:	b094      	sub	sp, #80	; 0x50
 80006e2:	9101      	str	r1, [sp, #4]
 80006e4:	9005      	str	r0, [sp, #20]
 80006e6:	9106      	str	r1, [sp, #24]
 80006e8:	9107      	str	r1, [sp, #28]
 80006ea:	910a      	str	r1, [sp, #40]	; 0x28
 80006ec:	2001      	movs	r0, #1
 80006ee:	9002      	str	r0, [sp, #8]
 80006f0:	f807 0c29 	strb.w	r0, [r7, #-41]
 80006f4:	f817 0c29 	ldrb.w	r0, [r7, #-41]
 80006f8:	910b      	str	r1, [sp, #44]	; 0x2c
 80006fa:	f000 0001 	and.w	r0, r0, #1
 80006fe:	f807 0c1d 	strb.w	r0, [r7, #-29]
 8000702:	f249 716c 	movw	r1, #38764	; 0x976c
 8000706:	f6c0 0100 	movt	r1, #2048	; 0x800
 800070a:	f001 fa38 	bl	8001b7e <_ZN50_$LT$T$u20$as$u20$core..convert..Into$LT$U$GT$$GT$4into17h1aa803d9c081a83eE>
 800070e:	9901      	ldr	r1, [sp, #4]
 8000710:	4603      	mov	r3, r0
 8000712:	9802      	ldr	r0, [sp, #8]
 8000714:	910d      	str	r1, [sp, #52]	; 0x34
 8000716:	f807 3c16 	strb.w	r3, [r7, #-22]
 800071a:	9a0d      	ldr	r2, [sp, #52]	; 0x34
 800071c:	6811      	ldr	r1, [r2, #0]
 800071e:	f021 0101 	bic.w	r1, r1, #1
 8000722:	4419      	add	r1, r3
 8000724:	6011      	str	r1, [r2, #0]
 8000726:	990d      	ldr	r1, [sp, #52]	; 0x34
 8000728:	9103      	str	r1, [sp, #12]
 800072a:	9108      	str	r1, [sp, #32]
 800072c:	910f      	str	r1, [sp, #60]	; 0x3c
 800072e:	f807 0c15 	strb.w	r0, [r7, #-21]
 8000732:	f817 0c15 	ldrb.w	r0, [r7, #-21]
 8000736:	9110      	str	r1, [sp, #64]	; 0x40
 8000738:	f000 0001 	and.w	r0, r0, #1
 800073c:	f807 0c09 	strb.w	r0, [r7, #-9]
 8000740:	f249 717c 	movw	r1, #38780	; 0x977c
 8000744:	f6c0 0100 	movt	r1, #2048	; 0x800
 8000748:	f001 fa19 	bl	8001b7e <_ZN50_$LT$T$u20$as$u20$core..convert..Into$LT$U$GT$$GT$4into17h1aa803d9c081a83eE>
 800074c:	4602      	mov	r2, r0
 800074e:	9803      	ldr	r0, [sp, #12]
 8000750:	9012      	str	r0, [sp, #72]	; 0x48
 8000752:	f807 2c01 	strb.w	r2, [r7, #-1]
 8000756:	9912      	ldr	r1, [sp, #72]	; 0x48
 8000758:	6808      	ldr	r0, [r1, #0]
 800075a:	f020 0004 	bic.w	r0, r0, #4
 800075e:	ea40 0082 	orr.w	r0, r0, r2, lsl #2
 8000762:	6008      	str	r0, [r1, #0]
 8000764:	9812      	ldr	r0, [sp, #72]	; 0x48
 8000766:	b014      	add	sp, #80	; 0x50
 8000768:	bd80      	pop	{r7, pc}

0800076a <_ZN22stm32_cortex_m4_f401re14setup_hardware28_$u7b$$u7b$closure$u7d$$u7d$17h0716f431d4ddcfaaE>:
 800076a:	b580      	push	{r7, lr}
 800076c:	466f      	mov	r7, sp
 800076e:	b08c      	sub	sp, #48	; 0x30
 8000770:	9101      	str	r1, [sp, #4]
 8000772:	9003      	str	r0, [sp, #12]
 8000774:	9104      	str	r1, [sp, #16]
 8000776:	910b      	str	r1, [sp, #44]	; 0x2c
 8000778:	9106      	str	r1, [sp, #24]
 800077a:	2001      	movs	r0, #1
 800077c:	f807 0c19 	strb.w	r0, [r7, #-25]
 8000780:	f817 0c19 	ldrb.w	r0, [r7, #-25]
 8000784:	9107      	str	r1, [sp, #28]
 8000786:	f000 0001 	and.w	r0, r0, #1
 800078a:	f807 0c0d 	strb.w	r0, [r7, #-13]
 800078e:	f249 71fc 	movw	r1, #38908	; 0x97fc
 8000792:	f6c0 0100 	movt	r1, #2048	; 0x800
 8000796:	f000 f98d 	bl	8000ab4 <_ZN50_$LT$T$u20$as$u20$core..convert..Into$LT$U$GT$$GT$4into17hce011a28f5bd022bE>
 800079a:	9901      	ldr	r1, [sp, #4]
 800079c:	4602      	mov	r2, r0
 800079e:	9109      	str	r1, [sp, #36]	; 0x24
 80007a0:	f807 2c05 	strb.w	r2, [r7, #-5]
 80007a4:	9909      	ldr	r1, [sp, #36]	; 0x24
 80007a6:	6808      	ldr	r0, [r1, #0]
 80007a8:	f420 4080 	bic.w	r0, r0, #16384	; 0x4000
 80007ac:	ea40 3082 	orr.w	r0, r0, r2, lsl #14
 80007b0:	6008      	str	r0, [r1, #0]
 80007b2:	9809      	ldr	r0, [sp, #36]	; 0x24
 80007b4:	b00c      	add	sp, #48	; 0x30
 80007b6:	bd80      	pop	{r7, pc}

080007b8 <_ZN22stm32_cortex_m4_f401re14setup_hardware28_$u7b$$u7b$closure$u7d$$u7d$17h15b21cdf0ec32fbfE>:
 80007b8:	b086      	sub	sp, #24
 80007ba:	9001      	str	r0, [sp, #4]
 80007bc:	9102      	str	r1, [sp, #8]
 80007be:	9103      	str	r1, [sp, #12]
 80007c0:	9104      	str	r1, [sp, #16]
 80007c2:	2202      	movs	r2, #2
 80007c4:	f88d 2017 	strb.w	r2, [sp, #23]
 80007c8:	9904      	ldr	r1, [sp, #16]
 80007ca:	6808      	ldr	r0, [r1, #0]
 80007cc:	f362 1007 	bfi	r0, r2, #4, #4
 80007d0:	6008      	str	r0, [r1, #0]
 80007d2:	9804      	ldr	r0, [sp, #16]
 80007d4:	b006      	add	sp, #24
 80007d6:	4770      	bx	lr

080007d8 <_ZN22stm32_cortex_m4_f401re14setup_hardware28_$u7b$$u7b$closure$u7d$$u7d$17hc4fd8c3631beae73E>:
 80007d8:	b087      	sub	sp, #28
 80007da:	9001      	str	r0, [sp, #4]
 80007dc:	9102      	str	r1, [sp, #8]
 80007de:	9103      	str	r1, [sp, #12]
 80007e0:	9104      	str	r1, [sp, #16]
 80007e2:	9105      	str	r1, [sp, #20]
 80007e4:	2001      	movs	r0, #1
 80007e6:	f88d 001b 	strb.w	r0, [sp, #27]
 80007ea:	9905      	ldr	r1, [sp, #20]
 80007ec:	6808      	ldr	r0, [r1, #0]
 80007ee:	f440 5000 	orr.w	r0, r0, #8192	; 0x2000
 80007f2:	6008      	str	r0, [r1, #0]
 80007f4:	9805      	ldr	r0, [sp, #20]
 80007f6:	b007      	add	sp, #28
 80007f8:	4770      	bx	lr

080007fa <_ZN22stm32_cortex_m4_f401re14setup_hardware28_$u7b$$u7b$closure$u7d$$u7d$17hf8cc8906d4fc1170E>:
 80007fa:	b087      	sub	sp, #28
 80007fc:	9001      	str	r0, [sp, #4]
 80007fe:	9102      	str	r1, [sp, #8]
 8000800:	9103      	str	r1, [sp, #12]
 8000802:	9104      	str	r1, [sp, #16]
 8000804:	9105      	str	r1, [sp, #20]
 8000806:	2000      	movs	r0, #0
 8000808:	f88d 001b 	strb.w	r0, [sp, #27]
 800080c:	9905      	ldr	r1, [sp, #20]
 800080e:	6808      	ldr	r0, [r1, #0]
 8000810:	f420 5000 	bic.w	r0, r0, #8192	; 0x2000
 8000814:	6008      	str	r0, [r1, #0]
 8000816:	9805      	ldr	r0, [sp, #20]
 8000818:	b007      	add	sp, #28
 800081a:	4770      	bx	lr

0800081c <_ZN22stm32_cortex_m4_f401re14setup_hardware28_$u7b$$u7b$closure$u7d$$u7d$17h2a3f171c243a0376E>:
 800081c:	b087      	sub	sp, #28
 800081e:	9001      	str	r0, [sp, #4]
 8000820:	9102      	str	r1, [sp, #8]
 8000822:	9103      	str	r1, [sp, #12]
 8000824:	9104      	str	r1, [sp, #16]
 8000826:	9105      	str	r1, [sp, #20]
 8000828:	2001      	movs	r0, #1
 800082a:	f88d 001b 	strb.w	r0, [sp, #27]
 800082e:	9905      	ldr	r1, [sp, #20]
 8000830:	6808      	ldr	r0, [r1, #0]
 8000832:	f440 5000 	orr.w	r0, r0, #8192	; 0x2000
 8000836:	6008      	str	r0, [r1, #0]
 8000838:	9805      	ldr	r0, [sp, #20]
 800083a:	b007      	add	sp, #28
 800083c:	4770      	bx	lr

0800083e <_ZN22stm32_cortex_m4_f401re17task_button_check17h310f2ed485b3777bE>:
 800083e:	b580      	push	{r7, lr}
 8000840:	466f      	mov	r7, sp
 8000842:	b088      	sub	sp, #32
 8000844:	2000      	movs	r0, #0
 8000846:	f807 0c15 	strb.w	r0, [r7, #-21]
 800084a:	e7ff      	b.n	800084c <_ZN22stm32_cortex_m4_f401re17task_button_check17h310f2ed485b3777bE+0xe>
 800084c:	f240 010c 	movw	r1, #12
 8000850:	f2c2 0100 	movt	r1, #8192	; 0x2000
 8000854:	6808      	ldr	r0, [r1, #0]
 8000856:	6849      	ldr	r1, [r1, #4]
 8000858:	f649 025c 	movw	r2, #39004	; 0x985c
 800085c:	f6c0 0200 	movt	r2, #2048	; 0x800
 8000860:	466b      	mov	r3, sp
 8000862:	601a      	str	r2, [r3, #0]
 8000864:	f649 020c 	movw	r2, #38924	; 0x980c
 8000868:	f6c0 0200 	movt	r2, #2048	; 0x800
 800086c:	2306      	movs	r3, #6
 800086e:	f001 f96d 	bl	8001b4c <_ZN4core6option15Option$LT$T$GT$6expect17ha1162e6d21eeaf0fE>
 8000872:	f04f 31ff 	mov.w	r1, #4294967295
 8000876:	f001 f9b6 	bl	8001be6 <freertos_rs_take_semaphore>
 800087a:	2000      	movs	r0, #0
 800087c:	f44f 717a 	mov.w	r1, #1000	; 0x3e8
 8000880:	f004 f944 	bl	8004b0c <_ZN63_$LT$I$u20$as$u20$core..iter..traits..collect..IntoIterator$GT$9into_iter17hb3d919eba1be5437E>
 8000884:	9003      	str	r0, [sp, #12]
 8000886:	9104      	str	r1, [sp, #16]
 8000888:	e7ff      	b.n	800088a <_ZN22stm32_cortex_m4_f401re17task_button_check17h310f2ed485b3777bE+0x4c>
 800088a:	a803      	add	r0, sp, #12
 800088c:	f004 f92d 	bl	8004aea <_ZN4core4iter5range101_$LT$impl$u20$core..iter..traits..iterator..Iterator$u20$for$u20$core..ops..range..Range$LT$A$GT$$GT$4next17h7194ae6205ca4ad9E>
 8000890:	9005      	str	r0, [sp, #20]
 8000892:	9106      	str	r1, [sp, #24]
 8000894:	9805      	ldr	r0, [sp, #20]
 8000896:	2800      	cmp	r0, #0
 8000898:	d1f7      	bne.n	800088a <_ZN22stm32_cortex_m4_f401re17task_button_check17h310f2ed485b3777bE+0x4c>
 800089a:	e7ff      	b.n	800089c <_ZN22stm32_cortex_m4_f401re17task_button_check17h310f2ed485b3777bE+0x5e>
 800089c:	f1a7 0016 	sub.w	r0, r7, #22
 80008a0:	f000 faef 	bl	8000e82 <_ZN134_$LT$stm32f4xx_hal..gpio..gpioc..PC13$LT$stm32f4xx_hal..gpio..Input$LT$MODE$GT$$GT$$u20$as$u20$embedded_hal..digital..v2..InputPin$GT$6is_low17hc391dd1437612d18E>
 80008a4:	f807 0c02 	strb.w	r0, [r7, #-2]
 80008a8:	f817 0c02 	ldrb.w	r0, [r7, #-2]
 80008ac:	f000 0001 	and.w	r0, r0, #1
 80008b0:	f807 0c01 	strb.w	r0, [r7, #-1]
 80008b4:	f807 0c15 	strb.w	r0, [r7, #-21]
 80008b8:	f817 0c15 	ldrb.w	r0, [r7, #-21]
 80008bc:	07c0      	lsls	r0, r0, #31
 80008be:	2800      	cmp	r0, #0
 80008c0:	d0c4      	beq.n	800084c <_ZN22stm32_cortex_m4_f401re17task_button_check17h310f2ed485b3777bE+0xe>
 80008c2:	e7ff      	b.n	80008c4 <_ZN22stm32_cortex_m4_f401re17task_button_check17h310f2ed485b3777bE+0x86>
 80008c4:	f240 0114 	movw	r1, #20
 80008c8:	f2c2 0100 	movt	r1, #8192	; 0x2000
 80008cc:	6808      	ldr	r0, [r1, #0]
 80008ce:	6849      	ldr	r1, [r1, #4]
 80008d0:	f649 026c 	movw	r2, #39020	; 0x986c
 80008d4:	f6c0 0200 	movt	r2, #2048	; 0x800
 80008d8:	466b      	mov	r3, sp
 80008da:	601a      	str	r2, [r3, #0]
 80008dc:	f649 020c 	movw	r2, #38924	; 0x980c
 80008e0:	f6c0 0200 	movt	r2, #2048	; 0x800
 80008e4:	2306      	movs	r3, #6
 80008e6:	f001 f931 	bl	8001b4c <_ZN4core6option15Option$LT$T$GT$6expect17ha1162e6d21eeaf0fE>
 80008ea:	f001 f98f 	bl	8001c0c <freertos_rs_give_semaphore>
 80008ee:	e7ad      	b.n	800084c <_ZN22stm32_cortex_m4_f401re17task_button_check17h310f2ed485b3777bE+0xe>

080008f0 <_ZN22stm32_cortex_m4_f401re14task_led_blink17h9d66c4fcba53fc2eE>:
 80008f0:	b580      	push	{r7, lr}
 80008f2:	466f      	mov	r7, sp
 80008f4:	b082      	sub	sp, #8
 80008f6:	e7ff      	b.n	80008f8 <_ZN22stm32_cortex_m4_f401re14task_led_blink17h9d66c4fcba53fc2eE+0x8>
 80008f8:	f240 0114 	movw	r1, #20
 80008fc:	f2c2 0100 	movt	r1, #8192	; 0x2000
 8000900:	6808      	ldr	r0, [r1, #0]
 8000902:	6849      	ldr	r1, [r1, #4]
 8000904:	f649 027c 	movw	r2, #39036	; 0x987c
 8000908:	f6c0 0200 	movt	r2, #2048	; 0x800
 800090c:	466b      	mov	r3, sp
 800090e:	601a      	str	r2, [r3, #0]
 8000910:	f649 020c 	movw	r2, #38924	; 0x980c
 8000914:	f6c0 0200 	movt	r2, #2048	; 0x800
 8000918:	2306      	movs	r3, #6
 800091a:	f001 f917 	bl	8001b4c <_ZN4core6option15Option$LT$T$GT$6expect17ha1162e6d21eeaf0fE>
 800091e:	f04f 31ff 	mov.w	r1, #4294967295
 8000922:	f001 f960 	bl	8001be6 <freertos_rs_take_semaphore>
 8000926:	1e78      	subs	r0, r7, #1
 8000928:	f000 fb8a 	bl	8001040 <_ZN12embedded_hal7digital2v210toggleable78_$LT$impl$u20$embedded_hal..digital..v2..ToggleableOutputPin$u20$for$u20$P$GT$6toggle17h22a7964cde93528dE>
 800092c:	e7e4      	b.n	80008f8 <_ZN22stm32_cortex_m4_f401re14task_led_blink17h9d66c4fcba53fc2eE+0x8>

0800092e <_ZN22stm32_cortex_m4_f401re18__cortex_m_rt_main28_$u7b$$u7b$closure$u7d$$u7d$17h293765dd09e2fb25E>:
 800092e:	b580      	push	{r7, lr}
 8000930:	466f      	mov	r7, sp
 8000932:	b084      	sub	sp, #16
 8000934:	9002      	str	r0, [sp, #8]
 8000936:	f7ff ff82 	bl	800083e <_ZN22stm32_cortex_m4_f401re17task_button_check17h310f2ed485b3777bE>
 800093a:	b004      	add	sp, #16
 800093c:	bd80      	pop	{r7, pc}

0800093e <_ZN22stm32_cortex_m4_f401re18__cortex_m_rt_main28_$u7b$$u7b$closure$u7d$$u7d$17hb1438bd9d923544fE>:
 800093e:	b580      	push	{r7, lr}
 8000940:	466f      	mov	r7, sp
 8000942:	b084      	sub	sp, #16
 8000944:	9002      	str	r0, [sp, #8]
 8000946:	f7ff ffd3 	bl	80008f0 <_ZN22stm32_cortex_m4_f401re14task_led_blink17h9d66c4fcba53fc2eE>
 800094a:	b004      	add	sp, #16
 800094c:	bd80      	pop	{r7, pc}

0800094e <_ZN22stm32_cortex_m4_f401re23__cortex_m_rt_EXTI15_1028_$u7b$$u7b$closure$u7d$$u7d$17h4e47c657b6a120baE>:
 800094e:	b086      	sub	sp, #24
 8000950:	9001      	str	r0, [sp, #4]
 8000952:	9002      	str	r0, [sp, #8]
 8000954:	9003      	str	r0, [sp, #12]
 8000956:	9004      	str	r0, [sp, #16]
 8000958:	2001      	movs	r0, #1
 800095a:	f88d 0017 	strb.w	r0, [sp, #23]
 800095e:	9904      	ldr	r1, [sp, #16]
 8000960:	6808      	ldr	r0, [r1, #0]
 8000962:	f440 5000 	orr.w	r0, r0, #8192	; 0x2000
 8000966:	6008      	str	r0, [r1, #0]
 8000968:	9804      	ldr	r0, [sp, #16]
 800096a:	b006      	add	sp, #24
 800096c:	4770      	bx	lr

0800096e <_ZN4core5slice3raw14from_raw_parts18precondition_check17h87034b83b05e6045E>:
 800096e:	b580      	push	{r7, lr}
 8000970:	466f      	mov	r7, sp
 8000972:	b096      	sub	sp, #88	; 0x58
 8000974:	9302      	str	r3, [sp, #8]
 8000976:	9203      	str	r2, [sp, #12]
 8000978:	9104      	str	r1, [sp, #16]
 800097a:	9005      	str	r0, [sp, #20]
 800097c:	900d      	str	r0, [sp, #52]	; 0x34
 800097e:	910e      	str	r1, [sp, #56]	; 0x38
 8000980:	920f      	str	r2, [sp, #60]	; 0x3c
 8000982:	9310      	str	r3, [sp, #64]	; 0x40
 8000984:	2100      	movs	r1, #0
 8000986:	f807 1c12 	strb.w	r1, [r7, #-18]
 800098a:	f807 1c11 	strb.w	r1, [r7, #-17]
 800098e:	f649 01b8 	movw	r1, #39096	; 0x98b8
 8000992:	f6c0 0100 	movt	r1, #2048	; 0x800
 8000996:	9112      	str	r1, [sp, #72]	; 0x48
 8000998:	9013      	str	r0, [sp, #76]	; 0x4c
 800099a:	f04f 3055 	mov.w	r0, #1431655765	; 0x55555555
 800099e:	ea00 0052 	and.w	r0, r0, r2, lsr #1
 80009a2:	1a10      	subs	r0, r2, r0
 80009a4:	f04f 3133 	mov.w	r1, #858993459	; 0x33333333
 80009a8:	ea01 0190 	and.w	r1, r1, r0, lsr #2
 80009ac:	f020 30cc 	bic.w	r0, r0, #3435973836	; 0xcccccccc
 80009b0:	4408      	add	r0, r1
 80009b2:	eb00 1010 	add.w	r0, r0, r0, lsr #4
 80009b6:	f020 30f0 	bic.w	r0, r0, #4042322160	; 0xf0f0f0f0
 80009ba:	f04f 3101 	mov.w	r1, #16843009	; 0x1010101
 80009be:	4348      	muls	r0, r1
 80009c0:	0e00      	lsrs	r0, r0, #24
 80009c2:	9014      	str	r0, [sp, #80]	; 0x50
 80009c4:	9814      	ldr	r0, [sp, #80]	; 0x50
 80009c6:	2801      	cmp	r0, #1
 80009c8:	d108      	bne.n	80009dc <_ZN4core5slice3raw14from_raw_parts18precondition_check17h87034b83b05e6045E+0x6e>
 80009ca:	e7ff      	b.n	80009cc <_ZN4core5slice3raw14from_raw_parts18precondition_check17h87034b83b05e6045E+0x5e>
 80009cc:	9805      	ldr	r0, [sp, #20]
 80009ce:	9903      	ldr	r1, [sp, #12]
 80009d0:	4602      	mov	r2, r0
 80009d2:	9201      	str	r2, [sp, #4]
 80009d4:	3901      	subs	r1, #1
 80009d6:	4208      	tst	r0, r1
 80009d8:	d01a      	beq.n	8000a10 <_ZN4core5slice3raw14from_raw_parts18precondition_check17h87034b83b05e6045E+0xa2>
 80009da:	e01e      	b.n	8000a1a <_ZN4core5slice3raw14from_raw_parts18precondition_check17h87034b83b05e6045E+0xac>
 80009dc:	f649 00b8 	movw	r0, #39096	; 0x98b8
 80009e0:	f6c0 0000 	movt	r0, #2048	; 0x800
 80009e4:	9006      	str	r0, [sp, #24]
 80009e6:	2001      	movs	r0, #1
 80009e8:	9007      	str	r0, [sp, #28]
 80009ea:	f249 5038 	movw	r0, #38200	; 0x9538
 80009ee:	f6c0 0000 	movt	r0, #2048	; 0x800
 80009f2:	6801      	ldr	r1, [r0, #0]
 80009f4:	6840      	ldr	r0, [r0, #4]
 80009f6:	910a      	str	r1, [sp, #40]	; 0x28
 80009f8:	900b      	str	r0, [sp, #44]	; 0x2c
 80009fa:	2004      	movs	r0, #4
 80009fc:	9008      	str	r0, [sp, #32]
 80009fe:	2000      	movs	r0, #0
 8000a00:	9009      	str	r0, [sp, #36]	; 0x24
 8000a02:	f649 2160 	movw	r1, #39520	; 0x9a60
 8000a06:	f6c0 0100 	movt	r1, #2048	; 0x800
 8000a0a:	a806      	add	r0, sp, #24
 8000a0c:	f006 fc6d 	bl	80072ea <_ZN4core9panicking9panic_fmt17h9bd7242b2f9f3cdaE>
 8000a10:	9801      	ldr	r0, [sp, #4]
 8000a12:	9905      	ldr	r1, [sp, #20]
 8000a14:	9115      	str	r1, [sp, #84]	; 0x54
 8000a16:	b910      	cbnz	r0, 8000a1e <_ZN4core5slice3raw14from_raw_parts18precondition_check17h87034b83b05e6045E+0xb0>
 8000a18:	e000      	b.n	8000a1c <_ZN4core5slice3raw14from_raw_parts18precondition_check17h87034b83b05e6045E+0xae>
 8000a1a:	e7ff      	b.n	8000a1c <_ZN4core5slice3raw14from_raw_parts18precondition_check17h87034b83b05e6045E+0xae>
 8000a1c:	e023      	b.n	8000a66 <_ZN4core5slice3raw14from_raw_parts18precondition_check17h87034b83b05e6045E+0xf8>
 8000a1e:	9804      	ldr	r0, [sp, #16]
 8000a20:	fab0 f180 	clz	r1, r0
 8000a24:	0949      	lsrs	r1, r1, #5
 8000a26:	9100      	str	r1, [sp, #0]
 8000a28:	b920      	cbnz	r0, 8000a34 <_ZN4core5slice3raw14from_raw_parts18precondition_check17h87034b83b05e6045E+0xc6>
 8000a2a:	e7ff      	b.n	8000a2c <_ZN4core5slice3raw14from_raw_parts18precondition_check17h87034b83b05e6045E+0xbe>
 8000a2c:	f04f 30ff 	mov.w	r0, #4294967295
 8000a30:	900c      	str	r0, [sp, #48]	; 0x30
 8000a32:	e003      	b.n	8000a3c <_ZN4core5slice3raw14from_raw_parts18precondition_check17h87034b83b05e6045E+0xce>
 8000a34:	9800      	ldr	r0, [sp, #0]
 8000a36:	07c0      	lsls	r0, r0, #31
 8000a38:	b960      	cbnz	r0, 8000a54 <_ZN4core5slice3raw14from_raw_parts18precondition_check17h87034b83b05e6045E+0xe6>
 8000a3a:	e004      	b.n	8000a46 <_ZN4core5slice3raw14from_raw_parts18precondition_check17h87034b83b05e6045E+0xd8>
 8000a3c:	9802      	ldr	r0, [sp, #8]
 8000a3e:	990c      	ldr	r1, [sp, #48]	; 0x30
 8000a40:	4288      	cmp	r0, r1
 8000a42:	d90e      	bls.n	8000a62 <_ZN4core5slice3raw14from_raw_parts18precondition_check17h87034b83b05e6045E+0xf4>
 8000a44:	e00c      	b.n	8000a60 <_ZN4core5slice3raw14from_raw_parts18precondition_check17h87034b83b05e6045E+0xf2>
 8000a46:	9904      	ldr	r1, [sp, #16]
 8000a48:	f06f 4000 	mvn.w	r0, #2147483648	; 0x80000000
 8000a4c:	fbb0 f0f1 	udiv	r0, r0, r1
 8000a50:	900c      	str	r0, [sp, #48]	; 0x30
 8000a52:	e7f3      	b.n	8000a3c <_ZN4core5slice3raw14from_raw_parts18precondition_check17h87034b83b05e6045E+0xce>
 8000a54:	f649 1034 	movw	r0, #39220	; 0x9934
 8000a58:	f6c0 0000 	movt	r0, #2048	; 0x800
 8000a5c:	f007 ff81 	bl	8008962 <_ZN4core9panicking11panic_const23panic_const_div_by_zero17h8da6a53e5835dd9aE>
 8000a60:	e001      	b.n	8000a66 <_ZN4core5slice3raw14from_raw_parts18precondition_check17h87034b83b05e6045E+0xf8>
 8000a62:	b016      	add	sp, #88	; 0x58
 8000a64:	bd80      	pop	{r7, pc}
 8000a66:	f649 1044 	movw	r0, #39236	; 0x9944
 8000a6a:	f6c0 0000 	movt	r0, #2048	; 0x800
 8000a6e:	21a2      	movs	r1, #162	; 0xa2
 8000a70:	f006 fc6d 	bl	800734e <_ZN4core9panicking14panic_nounwind17ha7168a7a4498f4fbE>

08000a74 <_ZN79_$LT$core..result..Result$LT$T$C$E$GT$$u20$as$u20$core..ops..try_trait..Try$GT$6branch17hd0eb5f804fd8de1dE>:
 8000a74:	b082      	sub	sp, #8
 8000a76:	f88d 0003 	strb.w	r0, [sp, #3]
 8000a7a:	e7ff      	b.n	8000a7c <_ZN79_$LT$core..result..Result$LT$T$C$E$GT$$u20$as$u20$core..ops..try_trait..Try$GT$6branch17hd0eb5f804fd8de1dE+0x8>
 8000a7c:	f89d 0003 	ldrb.w	r0, [sp, #3]
 8000a80:	f000 0001 	and.w	r0, r0, #1
 8000a84:	f88d 0007 	strb.w	r0, [sp, #7]
 8000a88:	f88d 0004 	strb.w	r0, [sp, #4]
 8000a8c:	e7ff      	b.n	8000a8e <_ZN79_$LT$core..result..Result$LT$T$C$E$GT$$u20$as$u20$core..ops..try_trait..Try$GT$6branch17hd0eb5f804fd8de1dE+0x1a>
 8000a8e:	f89d 0004 	ldrb.w	r0, [sp, #4]
 8000a92:	f000 0001 	and.w	r0, r0, #1
 8000a96:	b002      	add	sp, #8
 8000a98:	4770      	bx	lr

08000a9a <_ZN42_$LT$$RF$T$u20$as$u20$core..fmt..Debug$GT$3fmt17ha5b7ab53e79d3d5aE>:
 8000a9a:	b580      	push	{r7, lr}
 8000a9c:	466f      	mov	r7, sp
 8000a9e:	b082      	sub	sp, #8
 8000aa0:	460a      	mov	r2, r1
 8000aa2:	4601      	mov	r1, r0
 8000aa4:	9100      	str	r1, [sp, #0]
 8000aa6:	9201      	str	r2, [sp, #4]
 8000aa8:	6808      	ldr	r0, [r1, #0]
 8000aaa:	6849      	ldr	r1, [r1, #4]
 8000aac:	f006 ff65 	bl	800797a <_ZN40_$LT$str$u20$as$u20$core..fmt..Debug$GT$3fmt17h738baae4fc87b105E>
 8000ab0:	b002      	add	sp, #8
 8000ab2:	bd80      	pop	{r7, pc}

08000ab4 <_ZN50_$LT$T$u20$as$u20$core..convert..Into$LT$U$GT$$GT$4into17hce011a28f5bd022bE>:
 8000ab4:	b081      	sub	sp, #4
 8000ab6:	f88d 0002 	strb.w	r0, [sp, #2]
 8000aba:	f88d 0003 	strb.w	r0, [sp, #3]
 8000abe:	f89d 0003 	ldrb.w	r0, [sp, #3]
 8000ac2:	f000 0001 	and.w	r0, r0, #1
 8000ac6:	b001      	add	sp, #4
 8000ac8:	4770      	bx	lr

08000aca <_ZN13freertos_rust4task11TaskBuilder5start17h2c156444757c3672E>:
 8000aca:	b580      	push	{r7, lr}
 8000acc:	466f      	mov	r7, sp
 8000ace:	b086      	sub	sp, #24
 8000ad0:	9101      	str	r1, [sp, #4]
 8000ad2:	4601      	mov	r1, r0
 8000ad4:	9801      	ldr	r0, [sp, #4]
 8000ad6:	9102      	str	r1, [sp, #8]
 8000ad8:	9004      	str	r0, [sp, #16]
 8000ada:	f7ff fc59 	bl	8000390 <_ZN65_$LT$alloc..string..String$u20$as$u20$core..ops..deref..Deref$GT$5deref17hcc747a64a952d52aE>
 8000ade:	f8dd c004 	ldr.w	ip, [sp, #4]
 8000ae2:	4602      	mov	r2, r0
 8000ae4:	9802      	ldr	r0, [sp, #8]
 8000ae6:	9203      	str	r2, [sp, #12]
 8000ae8:	460a      	mov	r2, r1
 8000aea:	9903      	ldr	r1, [sp, #12]
 8000aec:	f8bc 300c 	ldrh.w	r3, [ip, #12]
 8000af0:	f89c c00e 	ldrb.w	ip, [ip, #14]
 8000af4:	46ee      	mov	lr, sp
 8000af6:	f8ce c000 	str.w	ip, [lr]
 8000afa:	f000 f845 	bl	8000b88 <_ZN13freertos_rust4task4Task5spawn17h4d9d4176647059eeE>
 8000afe:	b006      	add	sp, #24
 8000b00:	bd80      	pop	{r7, pc}

08000b02 <_ZN13freertos_rust4task11TaskBuilder5start17hfed716f40437aa2dE>:
 8000b02:	b580      	push	{r7, lr}
 8000b04:	466f      	mov	r7, sp
 8000b06:	b086      	sub	sp, #24
 8000b08:	9101      	str	r1, [sp, #4]
 8000b0a:	4601      	mov	r1, r0
 8000b0c:	9801      	ldr	r0, [sp, #4]
 8000b0e:	9102      	str	r1, [sp, #8]
 8000b10:	9004      	str	r0, [sp, #16]
 8000b12:	f7ff fc3d 	bl	8000390 <_ZN65_$LT$alloc..string..String$u20$as$u20$core..ops..deref..Deref$GT$5deref17hcc747a64a952d52aE>
 8000b16:	f8dd c004 	ldr.w	ip, [sp, #4]
 8000b1a:	4602      	mov	r2, r0
 8000b1c:	9802      	ldr	r0, [sp, #8]
 8000b1e:	9203      	str	r2, [sp, #12]
 8000b20:	460a      	mov	r2, r1
 8000b22:	9903      	ldr	r1, [sp, #12]
 8000b24:	f8bc 300c 	ldrh.w	r3, [ip, #12]
 8000b28:	f89c c00e 	ldrb.w	ip, [ip, #14]
 8000b2c:	46ee      	mov	lr, sp
 8000b2e:	f8ce c000 	str.w	ip, [lr]
 8000b32:	f000 f802 	bl	8000b3a <_ZN13freertos_rust4task4Task5spawn17h2186968866003a46E>
 8000b36:	b006      	add	sp, #24
 8000b38:	bd80      	pop	{r7, pc}

08000b3a <_ZN13freertos_rust4task4Task5spawn17h2186968866003a46E>:
 8000b3a:	b5d0      	push	{r4, r6, r7, lr}
 8000b3c:	af02      	add	r7, sp, #8
 8000b3e:	b08a      	sub	sp, #40	; 0x28
 8000b40:	9305      	str	r3, [sp, #20]
 8000b42:	9203      	str	r2, [sp, #12]
 8000b44:	9104      	str	r1, [sp, #16]
 8000b46:	9006      	str	r0, [sp, #24]
 8000b48:	68bc      	ldr	r4, [r7, #8]
 8000b4a:	9107      	str	r1, [sp, #28]
 8000b4c:	9208      	str	r2, [sp, #32]
 8000b4e:	f8ad 3024 	strh.w	r3, [sp, #36]	; 0x24
 8000b52:	f807 4c0a 	strb.w	r4, [r7, #-10]
 8000b56:	2000      	movs	r0, #0
 8000b58:	2101      	movs	r1, #1
 8000b5a:	f000 f8cd 	bl	8000cf8 <_ZN5alloc5alloc15exchange_malloc17h57f89ab2740bf6c0E>
 8000b5e:	9a03      	ldr	r2, [sp, #12]
 8000b60:	9b04      	ldr	r3, [sp, #16]
 8000b62:	f8dd e014 	ldr.w	lr, [sp, #20]
 8000b66:	4601      	mov	r1, r0
 8000b68:	9806      	ldr	r0, [sp, #24]
 8000b6a:	46ec      	mov	ip, sp
 8000b6c:	f8cc 4008 	str.w	r4, [ip, #8]
 8000b70:	f8cc e004 	str.w	lr, [ip, #4]
 8000b74:	f8cc 2000 	str.w	r2, [ip]
 8000b78:	f649 2270 	movw	r2, #39536	; 0x9a70
 8000b7c:	f6c0 0200 	movt	r2, #2048	; 0x800
 8000b80:	f004 f8d5 	bl	8004d2e <_ZN13freertos_rust4task4Task11spawn_inner17h07a2245bf22ab263E>
 8000b84:	b00a      	add	sp, #40	; 0x28
 8000b86:	bdd0      	pop	{r4, r6, r7, pc}

08000b88 <_ZN13freertos_rust4task4Task5spawn17h4d9d4176647059eeE>:
 8000b88:	b5d0      	push	{r4, r6, r7, lr}
 8000b8a:	af02      	add	r7, sp, #8
 8000b8c:	b08a      	sub	sp, #40	; 0x28
 8000b8e:	9305      	str	r3, [sp, #20]
 8000b90:	9203      	str	r2, [sp, #12]
 8000b92:	9104      	str	r1, [sp, #16]
 8000b94:	9006      	str	r0, [sp, #24]
 8000b96:	68bc      	ldr	r4, [r7, #8]
 8000b98:	9107      	str	r1, [sp, #28]
 8000b9a:	9208      	str	r2, [sp, #32]
 8000b9c:	f8ad 3024 	strh.w	r3, [sp, #36]	; 0x24
 8000ba0:	f807 4c0a 	strb.w	r4, [r7, #-10]
 8000ba4:	2000      	movs	r0, #0
 8000ba6:	2101      	movs	r1, #1
 8000ba8:	f000 f8a6 	bl	8000cf8 <_ZN5alloc5alloc15exchange_malloc17h57f89ab2740bf6c0E>
 8000bac:	9a03      	ldr	r2, [sp, #12]
 8000bae:	9b04      	ldr	r3, [sp, #16]
 8000bb0:	f8dd e014 	ldr.w	lr, [sp, #20]
 8000bb4:	4601      	mov	r1, r0
 8000bb6:	9806      	ldr	r0, [sp, #24]
 8000bb8:	46ec      	mov	ip, sp
 8000bba:	f8cc 4008 	str.w	r4, [ip, #8]
 8000bbe:	f8cc e004 	str.w	lr, [ip, #4]
 8000bc2:	f8cc 2000 	str.w	r2, [ip]
 8000bc6:	f649 2280 	movw	r2, #39552	; 0x9a80
 8000bca:	f6c0 0200 	movt	r2, #2048	; 0x800
 8000bce:	f004 f8ae 	bl	8004d2e <_ZN13freertos_rust4task4Task11spawn_inner17h07a2245bf22ab263E>
 8000bd2:	b00a      	add	sp, #40	; 0x28
 8000bd4:	bdd0      	pop	{r4, r6, r7, pc}

08000bd6 <_ZN77_$LT$cortex_m..register..primask..Primask$u20$as$u20$core..cmp..PartialEq$GT$2eq17h3717542947f7a2edE>:
 8000bd6:	b084      	sub	sp, #16
 8000bd8:	9000      	str	r0, [sp, #0]
 8000bda:	9101      	str	r1, [sp, #4]
 8000bdc:	7800      	ldrb	r0, [r0, #0]
 8000bde:	f000 0001 	and.w	r0, r0, #1
 8000be2:	9002      	str	r0, [sp, #8]
 8000be4:	7809      	ldrb	r1, [r1, #0]
 8000be6:	f001 0101 	and.w	r1, r1, #1
 8000bea:	9103      	str	r1, [sp, #12]
 8000bec:	1a40      	subs	r0, r0, r1
 8000bee:	fab0 f080 	clz	r0, r0
 8000bf2:	0940      	lsrs	r0, r0, #5
 8000bf4:	b004      	add	sp, #16
 8000bf6:	4770      	bx	lr

08000bf8 <_ZN8cortex_m8register7primask4read17ha4c2f2ed71c07280E>:
 8000bf8:	b580      	push	{r7, lr}
 8000bfa:	466f      	mov	r7, sp
 8000bfc:	b082      	sub	sp, #8
 8000bfe:	f006 f976 	bl	8006eee <__primask_r>
 8000c02:	9001      	str	r0, [sp, #4]
 8000c04:	f000 0001 	and.w	r0, r0, #1
 8000c08:	2801      	cmp	r0, #1
 8000c0a:	d004      	beq.n	8000c16 <_ZN8cortex_m8register7primask4read17ha4c2f2ed71c07280E+0x1e>
 8000c0c:	e7ff      	b.n	8000c0e <_ZN8cortex_m8register7primask4read17ha4c2f2ed71c07280E+0x16>
 8000c0e:	2000      	movs	r0, #0
 8000c10:	f807 0c05 	strb.w	r0, [r7, #-5]
 8000c14:	e003      	b.n	8000c1e <_ZN8cortex_m8register7primask4read17ha4c2f2ed71c07280E+0x26>
 8000c16:	2001      	movs	r0, #1
 8000c18:	f807 0c05 	strb.w	r0, [r7, #-5]
 8000c1c:	e7ff      	b.n	8000c1e <_ZN8cortex_m8register7primask4read17ha4c2f2ed71c07280E+0x26>
 8000c1e:	f817 0c05 	ldrb.w	r0, [r7, #-5]
 8000c22:	f000 0001 	and.w	r0, r0, #1
 8000c26:	b002      	add	sp, #8
 8000c28:	bd80      	pop	{r7, pc}

08000c2a <_ZN8cortex_m8register7primask7Primask9is_active17hb761c6b432b02ba3E>:
 8000c2a:	b580      	push	{r7, lr}
 8000c2c:	466f      	mov	r7, sp
 8000c2e:	b082      	sub	sp, #8
 8000c30:	f807 0c01 	strb.w	r0, [r7, #-1]
 8000c34:	f649 2190 	movw	r1, #39568	; 0x9a90
 8000c38:	f6c0 0100 	movt	r1, #2048	; 0x800
 8000c3c:	1e78      	subs	r0, r7, #1
 8000c3e:	f7ff ffca 	bl	8000bd6 <_ZN77_$LT$cortex_m..register..primask..Primask$u20$as$u20$core..cmp..PartialEq$GT$2eq17h3717542947f7a2edE>
 8000c42:	b002      	add	sp, #8
 8000c44:	bd80      	pop	{r7, pc}

08000c46 <_ZN4core5alloc6layout6Layout25from_size_align_unchecked17he772e0b6996aba40E>:
 8000c46:	b580      	push	{r7, lr}
 8000c48:	466f      	mov	r7, sp
 8000c4a:	b084      	sub	sp, #16
 8000c4c:	9100      	str	r1, [sp, #0]
 8000c4e:	9001      	str	r0, [sp, #4]
 8000c50:	9002      	str	r0, [sp, #8]
 8000c52:	9103      	str	r1, [sp, #12]
 8000c54:	e7ff      	b.n	8000c56 <_ZN4core5alloc6layout6Layout25from_size_align_unchecked17he772e0b6996aba40E+0x10>
 8000c56:	9900      	ldr	r1, [sp, #0]
 8000c58:	9801      	ldr	r0, [sp, #4]
 8000c5a:	f000 f805 	bl	8000c68 <_ZN4core5alloc6layout6Layout25from_size_align_unchecked18precondition_check17h81ee6ad0488b2651E>
 8000c5e:	e7ff      	b.n	8000c60 <_ZN4core5alloc6layout6Layout25from_size_align_unchecked17he772e0b6996aba40E+0x1a>
 8000c60:	9901      	ldr	r1, [sp, #4]
 8000c62:	9800      	ldr	r0, [sp, #0]
 8000c64:	b004      	add	sp, #16
 8000c66:	bd80      	pop	{r7, pc}

08000c68 <_ZN4core5alloc6layout6Layout25from_size_align_unchecked18precondition_check17h81ee6ad0488b2651E>:
 8000c68:	b580      	push	{r7, lr}
 8000c6a:	466f      	mov	r7, sp
 8000c6c:	b082      	sub	sp, #8
 8000c6e:	9000      	str	r0, [sp, #0]
 8000c70:	9101      	str	r1, [sp, #4]
 8000c72:	f007 fe1c 	bl	80088ae <_ZN4core5alloc6layout6Layout19is_size_align_valid17h1d357ed88d42d87eE>
 8000c76:	b938      	cbnz	r0, 8000c88 <_ZN4core5alloc6layout6Layout25from_size_align_unchecked18precondition_check17h81ee6ad0488b2651E+0x20>
 8000c78:	e7ff      	b.n	8000c7a <_ZN4core5alloc6layout6Layout25from_size_align_unchecked18precondition_check17h81ee6ad0488b2651E+0x12>
 8000c7a:	f649 2091 	movw	r0, #39569	; 0x9a91
 8000c7e:	f6c0 0000 	movt	r0, #2048	; 0x800
 8000c82:	21a4      	movs	r1, #164	; 0xa4
 8000c84:	f006 fb63 	bl	800734e <_ZN4core9panicking14panic_nounwind17ha7168a7a4498f4fbE>
 8000c88:	b002      	add	sp, #8
 8000c8a:	bd80      	pop	{r7, pc}

08000c8c <_ZN4core3cmp5impls50_$LT$impl$u20$core..cmp..Ord$u20$for$u20$usize$GT$3cmp17h411eb5815f3eb637E>:
 8000c8c:	b082      	sub	sp, #8
 8000c8e:	9000      	str	r0, [sp, #0]
 8000c90:	9101      	str	r1, [sp, #4]
 8000c92:	6802      	ldr	r2, [r0, #0]
 8000c94:	680b      	ldr	r3, [r1, #0]
 8000c96:	2000      	movs	r0, #0
 8000c98:	429a      	cmp	r2, r3
 8000c9a:	bf88      	it	hi
 8000c9c:	2001      	movhi	r0, #1
 8000c9e:	1e41      	subs	r1, r0, #1
 8000ca0:	429a      	cmp	r2, r3
 8000ca2:	bf38      	it	cc
 8000ca4:	4608      	movcc	r0, r1
 8000ca6:	b002      	add	sp, #8
 8000ca8:	4770      	bx	lr

08000caa <_ZN5alloc5alloc12alloc_zeroed17h16e6e19db537b74fE>:
 8000caa:	b580      	push	{r7, lr}
 8000cac:	466f      	mov	r7, sp
 8000cae:	b088      	sub	sp, #32
 8000cb0:	9000      	str	r0, [sp, #0]
 8000cb2:	9101      	str	r1, [sp, #4]
 8000cb4:	f240 001c 	movw	r0, #28
 8000cb8:	f2c2 0000 	movt	r0, #8192	; 0x2000
 8000cbc:	9003      	str	r0, [sp, #12]
 8000cbe:	e7ff      	b.n	8000cc0 <_ZN5alloc5alloc12alloc_zeroed17h16e6e19db537b74fE+0x16>
 8000cc0:	f240 001c 	movw	r0, #28
 8000cc4:	f2c2 0000 	movt	r0, #8192	; 0x2000
 8000cc8:	2101      	movs	r1, #1
 8000cca:	2200      	movs	r2, #0
 8000ccc:	f000 fb9c 	bl	8001408 <_ZN4core3ptr13read_volatile18precondition_check17h4963e1a49c4c488fE>
 8000cd0:	e7ff      	b.n	8000cd2 <_ZN5alloc5alloc12alloc_zeroed17h16e6e19db537b74fE+0x28>
 8000cd2:	f240 001c 	movw	r0, #28
 8000cd6:	f2c2 0000 	movt	r0, #8192	; 0x2000
 8000cda:	7800      	ldrb	r0, [r0, #0]
 8000cdc:	f807 0c0d 	strb.w	r0, [r7, #-13]
 8000ce0:	4669      	mov	r1, sp
 8000ce2:	9105      	str	r1, [sp, #20]
 8000ce4:	9801      	ldr	r0, [sp, #4]
 8000ce6:	9106      	str	r1, [sp, #24]
 8000ce8:	9900      	ldr	r1, [sp, #0]
 8000cea:	9107      	str	r1, [sp, #28]
 8000cec:	9102      	str	r1, [sp, #8]
 8000cee:	9902      	ldr	r1, [sp, #8]
 8000cf0:	f000 fdfa 	bl	80018e8 <__rust_alloc_zeroed>
 8000cf4:	b008      	add	sp, #32
 8000cf6:	bd80      	pop	{r7, pc}

08000cf8 <_ZN5alloc5alloc15exchange_malloc17h57f89ab2740bf6c0E>:
 8000cf8:	b580      	push	{r7, lr}
 8000cfa:	466f      	mov	r7, sp
 8000cfc:	b08c      	sub	sp, #48	; 0x30
 8000cfe:	9100      	str	r1, [sp, #0]
 8000d00:	9001      	str	r0, [sp, #4]
 8000d02:	9004      	str	r0, [sp, #16]
 8000d04:	9105      	str	r1, [sp, #20]
 8000d06:	2001      	movs	r0, #1
 8000d08:	9006      	str	r0, [sp, #24]
 8000d0a:	e7ff      	b.n	8000d0c <_ZN5alloc5alloc15exchange_malloc17h57f89ab2740bf6c0E+0x14>
 8000d0c:	9900      	ldr	r1, [sp, #0]
 8000d0e:	9801      	ldr	r0, [sp, #4]
 8000d10:	f7ff ffaa 	bl	8000c68 <_ZN4core5alloc6layout6Layout25from_size_align_unchecked18precondition_check17h81ee6ad0488b2651E>
 8000d14:	e7ff      	b.n	8000d16 <_ZN5alloc5alloc15exchange_malloc17h57f89ab2740bf6c0E+0x1e>
 8000d16:	9a01      	ldr	r2, [sp, #4]
 8000d18:	9900      	ldr	r1, [sp, #0]
 8000d1a:	9107      	str	r1, [sp, #28]
 8000d1c:	9208      	str	r2, [sp, #32]
 8000d1e:	2001      	movs	r0, #1
 8000d20:	2300      	movs	r3, #0
 8000d22:	f000 f837 	bl	8000d94 <_ZN5alloc5alloc6Global10alloc_impl17he29260f2d8a5822cE>
 8000d26:	9002      	str	r0, [sp, #8]
 8000d28:	9103      	str	r1, [sp, #12]
 8000d2a:	9802      	ldr	r0, [sp, #8]
 8000d2c:	b138      	cbz	r0, 8000d3e <_ZN5alloc5alloc15exchange_malloc17h57f89ab2740bf6c0E+0x46>
 8000d2e:	e7ff      	b.n	8000d30 <_ZN5alloc5alloc15exchange_malloc17h57f89ab2740bf6c0E+0x38>
 8000d30:	9802      	ldr	r0, [sp, #8]
 8000d32:	9903      	ldr	r1, [sp, #12]
 8000d34:	9009      	str	r0, [sp, #36]	; 0x24
 8000d36:	910a      	str	r1, [sp, #40]	; 0x28
 8000d38:	900b      	str	r0, [sp, #44]	; 0x2c
 8000d3a:	b00c      	add	sp, #48	; 0x30
 8000d3c:	bd80      	pop	{r7, pc}
 8000d3e:	9901      	ldr	r1, [sp, #4]
 8000d40:	9800      	ldr	r0, [sp, #0]
 8000d42:	f006 f935 	bl	8006fb0 <_ZN5alloc5alloc18handle_alloc_error17h99b8bd8515900e0aE>

08000d46 <_ZN5alloc5alloc5alloc17h0fa6edf225269527E>:
 8000d46:	b580      	push	{r7, lr}
 8000d48:	466f      	mov	r7, sp
 8000d4a:	b088      	sub	sp, #32
 8000d4c:	9000      	str	r0, [sp, #0]
 8000d4e:	9101      	str	r1, [sp, #4]
 8000d50:	f240 001c 	movw	r0, #28
 8000d54:	f2c2 0000 	movt	r0, #8192	; 0x2000
 8000d58:	9003      	str	r0, [sp, #12]
 8000d5a:	e7ff      	b.n	8000d5c <_ZN5alloc5alloc5alloc17h0fa6edf225269527E+0x16>
 8000d5c:	f240 001c 	movw	r0, #28
 8000d60:	f2c2 0000 	movt	r0, #8192	; 0x2000
 8000d64:	2101      	movs	r1, #1
 8000d66:	2200      	movs	r2, #0
 8000d68:	f000 fb4e 	bl	8001408 <_ZN4core3ptr13read_volatile18precondition_check17h4963e1a49c4c488fE>
 8000d6c:	e7ff      	b.n	8000d6e <_ZN5alloc5alloc5alloc17h0fa6edf225269527E+0x28>
 8000d6e:	f240 001c 	movw	r0, #28
 8000d72:	f2c2 0000 	movt	r0, #8192	; 0x2000
 8000d76:	7800      	ldrb	r0, [r0, #0]
 8000d78:	f807 0c0d 	strb.w	r0, [r7, #-13]
 8000d7c:	4669      	mov	r1, sp
 8000d7e:	9105      	str	r1, [sp, #20]
 8000d80:	9801      	ldr	r0, [sp, #4]
 8000d82:	9106      	str	r1, [sp, #24]
 8000d84:	9900      	ldr	r1, [sp, #0]
 8000d86:	9107      	str	r1, [sp, #28]
 8000d88:	9102      	str	r1, [sp, #8]
 8000d8a:	9902      	ldr	r1, [sp, #8]
 8000d8c:	f000 fd60 	bl	8001850 <__rust_alloc>
 8000d90:	b008      	add	sp, #32
 8000d92:	bd80      	pop	{r7, pc}

08000d94 <_ZN5alloc5alloc6Global10alloc_impl17he29260f2d8a5822cE>:
 8000d94:	b580      	push	{r7, lr}
 8000d96:	466f      	mov	r7, sp
 8000d98:	b0a8      	sub	sp, #160	; 0xa0
 8000d9a:	469c      	mov	ip, r3
 8000d9c:	f8cd c010 	str.w	ip, [sp, #16]
 8000da0:	9106      	str	r1, [sp, #24]
 8000da2:	9207      	str	r2, [sp, #28]
 8000da4:	9011      	str	r0, [sp, #68]	; 0x44
 8000da6:	f807 3c56 	strb.w	r3, [r7, #-86]
 8000daa:	2000      	movs	r0, #0
 8000dac:	9013      	str	r0, [sp, #76]	; 0x4c
 8000dae:	9014      	str	r0, [sp, #80]	; 0x50
 8000db0:	9015      	str	r0, [sp, #84]	; 0x54
 8000db2:	a806      	add	r0, sp, #24
 8000db4:	9018      	str	r0, [sp, #96]	; 0x60
 8000db6:	9807      	ldr	r0, [sp, #28]
 8000db8:	9005      	str	r0, [sp, #20]
 8000dba:	9019      	str	r0, [sp, #100]	; 0x64
 8000dbc:	b950      	cbnz	r0, 8000dd4 <_ZN5alloc5alloc6Global10alloc_impl17he29260f2d8a5822cE+0x40>
 8000dbe:	e7ff      	b.n	8000dc0 <_ZN5alloc5alloc6Global10alloc_impl17he29260f2d8a5822cE+0x2c>
 8000dc0:	a806      	add	r0, sp, #24
 8000dc2:	901a      	str	r0, [sp, #104]	; 0x68
 8000dc4:	9806      	ldr	r0, [sp, #24]
 8000dc6:	901b      	str	r0, [sp, #108]	; 0x6c
 8000dc8:	900e      	str	r0, [sp, #56]	; 0x38
 8000dca:	980e      	ldr	r0, [sp, #56]	; 0x38
 8000dcc:	9003      	str	r0, [sp, #12]
 8000dce:	901c      	str	r0, [sp, #112]	; 0x70
 8000dd0:	901d      	str	r0, [sp, #116]	; 0x74
 8000dd2:	e003      	b.n	8000ddc <_ZN5alloc5alloc6Global10alloc_impl17he29260f2d8a5822cE+0x48>
 8000dd4:	9804      	ldr	r0, [sp, #16]
 8000dd6:	07c0      	lsls	r0, r0, #31
 8000dd8:	b9e8      	cbnz	r0, 8000e16 <_ZN5alloc5alloc6Global10alloc_impl17he29260f2d8a5822cE+0x82>
 8000dda:	e016      	b.n	8000e0a <_ZN5alloc5alloc6Global10alloc_impl17he29260f2d8a5822cE+0x76>
 8000ddc:	9803      	ldr	r0, [sp, #12]
 8000dde:	f000 faa1 	bl	8001324 <_ZN4core3ptr8non_null16NonNull$LT$T$GT$13new_unchecked18precondition_check17ha9feb91a6655eaeeE>
 8000de2:	9803      	ldr	r0, [sp, #12]
 8000de4:	901e      	str	r0, [sp, #120]	; 0x78
 8000de6:	901f      	str	r0, [sp, #124]	; 0x7c
 8000de8:	900f      	str	r0, [sp, #60]	; 0x3c
 8000dea:	2000      	movs	r0, #0
 8000dec:	9010      	str	r0, [sp, #64]	; 0x40
 8000dee:	e7ff      	b.n	8000df0 <_ZN5alloc5alloc6Global10alloc_impl17he29260f2d8a5822cE+0x5c>
 8000df0:	9803      	ldr	r0, [sp, #12]
 8000df2:	f000 fa97 	bl	8001324 <_ZN4core3ptr8non_null16NonNull$LT$T$GT$13new_unchecked18precondition_check17ha9feb91a6655eaeeE>
 8000df6:	e7ff      	b.n	8000df8 <_ZN5alloc5alloc6Global10alloc_impl17he29260f2d8a5822cE+0x64>
 8000df8:	990f      	ldr	r1, [sp, #60]	; 0x3c
 8000dfa:	9810      	ldr	r0, [sp, #64]	; 0x40
 8000dfc:	9108      	str	r1, [sp, #32]
 8000dfe:	9009      	str	r0, [sp, #36]	; 0x24
 8000e00:	e7ff      	b.n	8000e02 <_ZN5alloc5alloc6Global10alloc_impl17he29260f2d8a5822cE+0x6e>
 8000e02:	9808      	ldr	r0, [sp, #32]
 8000e04:	9909      	ldr	r1, [sp, #36]	; 0x24
 8000e06:	b028      	add	sp, #160	; 0xa0
 8000e08:	bd80      	pop	{r7, pc}
 8000e0a:	9806      	ldr	r0, [sp, #24]
 8000e0c:	9907      	ldr	r1, [sp, #28]
 8000e0e:	f7ff ff9a 	bl	8000d46 <_ZN5alloc5alloc5alloc17h0fa6edf225269527E>
 8000e12:	900a      	str	r0, [sp, #40]	; 0x28
 8000e14:	e005      	b.n	8000e22 <_ZN5alloc5alloc6Global10alloc_impl17he29260f2d8a5822cE+0x8e>
 8000e16:	9806      	ldr	r0, [sp, #24]
 8000e18:	9907      	ldr	r1, [sp, #28]
 8000e1a:	f7ff ff46 	bl	8000caa <_ZN5alloc5alloc12alloc_zeroed17h16e6e19db537b74fE>
 8000e1e:	900a      	str	r0, [sp, #40]	; 0x28
 8000e20:	e7ff      	b.n	8000e22 <_ZN5alloc5alloc6Global10alloc_impl17he29260f2d8a5822cE+0x8e>
 8000e22:	980a      	ldr	r0, [sp, #40]	; 0x28
 8000e24:	9002      	str	r0, [sp, #8]
 8000e26:	9020      	str	r0, [sp, #128]	; 0x80
 8000e28:	9021      	str	r0, [sp, #132]	; 0x84
 8000e2a:	b960      	cbnz	r0, 8000e46 <_ZN5alloc5alloc6Global10alloc_impl17he29260f2d8a5822cE+0xb2>
 8000e2c:	e7ff      	b.n	8000e2e <_ZN5alloc5alloc6Global10alloc_impl17he29260f2d8a5822cE+0x9a>
 8000e2e:	2000      	movs	r0, #0
 8000e30:	900d      	str	r0, [sp, #52]	; 0x34
 8000e32:	900c      	str	r0, [sp, #48]	; 0x30
 8000e34:	f249 5038 	movw	r0, #38200	; 0x9538
 8000e38:	f6c0 0000 	movt	r0, #2048	; 0x800
 8000e3c:	6801      	ldr	r1, [r0, #0]
 8000e3e:	6840      	ldr	r0, [r0, #4]
 8000e40:	9108      	str	r1, [sp, #32]
 8000e42:	9009      	str	r0, [sp, #36]	; 0x24
 8000e44:	e7dd      	b.n	8000e02 <_ZN5alloc5alloc6Global10alloc_impl17he29260f2d8a5822cE+0x6e>
 8000e46:	e7ff      	b.n	8000e48 <_ZN5alloc5alloc6Global10alloc_impl17he29260f2d8a5822cE+0xb4>
 8000e48:	9802      	ldr	r0, [sp, #8]
 8000e4a:	f000 fa6b 	bl	8001324 <_ZN4core3ptr8non_null16NonNull$LT$T$GT$13new_unchecked18precondition_check17ha9feb91a6655eaeeE>
 8000e4e:	e7ff      	b.n	8000e50 <_ZN5alloc5alloc6Global10alloc_impl17he29260f2d8a5822cE+0xbc>
 8000e50:	9805      	ldr	r0, [sp, #20]
 8000e52:	9902      	ldr	r1, [sp, #8]
 8000e54:	910d      	str	r1, [sp, #52]	; 0x34
 8000e56:	990d      	ldr	r1, [sp, #52]	; 0x34
 8000e58:	9122      	str	r1, [sp, #136]	; 0x88
 8000e5a:	910c      	str	r1, [sp, #48]	; 0x30
 8000e5c:	990c      	ldr	r1, [sp, #48]	; 0x30
 8000e5e:	9123      	str	r1, [sp, #140]	; 0x8c
 8000e60:	910b      	str	r1, [sp, #44]	; 0x2c
 8000e62:	990b      	ldr	r1, [sp, #44]	; 0x2c
 8000e64:	9101      	str	r1, [sp, #4]
 8000e66:	9124      	str	r1, [sp, #144]	; 0x90
 8000e68:	9125      	str	r1, [sp, #148]	; 0x94
 8000e6a:	9126      	str	r1, [sp, #152]	; 0x98
 8000e6c:	9027      	str	r0, [sp, #156]	; 0x9c
 8000e6e:	e7ff      	b.n	8000e70 <_ZN5alloc5alloc6Global10alloc_impl17he29260f2d8a5822cE+0xdc>
 8000e70:	9801      	ldr	r0, [sp, #4]
 8000e72:	f000 fa57 	bl	8001324 <_ZN4core3ptr8non_null16NonNull$LT$T$GT$13new_unchecked18precondition_check17ha9feb91a6655eaeeE>
 8000e76:	e7ff      	b.n	8000e78 <_ZN5alloc5alloc6Global10alloc_impl17he29260f2d8a5822cE+0xe4>
 8000e78:	9805      	ldr	r0, [sp, #20]
 8000e7a:	9901      	ldr	r1, [sp, #4]
 8000e7c:	9108      	str	r1, [sp, #32]
 8000e7e:	9009      	str	r0, [sp, #36]	; 0x24
 8000e80:	e7bf      	b.n	8000e02 <_ZN5alloc5alloc6Global10alloc_impl17he29260f2d8a5822cE+0x6e>

08000e82 <_ZN134_$LT$stm32f4xx_hal..gpio..gpioc..PC13$LT$stm32f4xx_hal..gpio..Input$LT$MODE$GT$$GT$$u20$as$u20$embedded_hal..digital..v2..InputPin$GT$6is_low17hc391dd1437612d18E>:
 8000e82:	b580      	push	{r7, lr}
 8000e84:	466f      	mov	r7, sp
 8000e86:	b088      	sub	sp, #32
 8000e88:	9003      	str	r0, [sp, #12]
 8000e8a:	f640 0010 	movw	r0, #2064	; 0x810
 8000e8e:	f2c4 0002 	movt	r0, #16386	; 0x4002
 8000e92:	9005      	str	r0, [sp, #20]
 8000e94:	9006      	str	r0, [sp, #24]
 8000e96:	9007      	str	r0, [sp, #28]
 8000e98:	f005 ff3d 	bl	8006d16 <_ZN4core3ptr13read_volatile17h9bc3363220c5f51bE>
 8000e9c:	9002      	str	r0, [sp, #8]
 8000e9e:	a802      	add	r0, sp, #8
 8000ea0:	9004      	str	r0, [sp, #16]
 8000ea2:	9802      	ldr	r0, [sp, #8]
 8000ea4:	f400 5100 	and.w	r1, r0, #8192	; 0x2000
 8000ea8:	2001      	movs	r0, #1
 8000eaa:	ea80 3051 	eor.w	r0, r0, r1, lsr #13
 8000eae:	f807 0c19 	strb.w	r0, [r7, #-25]
 8000eb2:	f817 0c19 	ldrb.w	r0, [r7, #-25]
 8000eb6:	f000 0001 	and.w	r0, r0, #1
 8000eba:	b008      	add	sp, #32
 8000ebc:	bd80      	pop	{r7, pc}

08000ebe <_ZN13stm32f4xx_hal4gpio5gpioc16PC13$LT$MODE$GT$18into_pull_up_input17h63ab878e4ee1ada1E>:
 8000ebe:	b580      	push	{r7, lr}
 8000ec0:	466f      	mov	r7, sp
 8000ec2:	b09a      	sub	sp, #104	; 0x68
 8000ec4:	201a      	movs	r0, #26
 8000ec6:	9003      	str	r0, [sp, #12]
 8000ec8:	2000      	movs	r0, #0
 8000eca:	2800      	cmp	r0, #0
 8000ecc:	d13f      	bne.n	8000f4e <_ZN13stm32f4xx_hal4gpio5gpioc16PC13$LT$MODE$GT$18into_pull_up_input17h63ab878e4ee1ada1E+0x90>
 8000ece:	e7ff      	b.n	8000ed0 <_ZN13stm32f4xx_hal4gpio5gpioc16PC13$LT$MODE$GT$18into_pull_up_input17h63ab878e4ee1ada1E+0x12>
 8000ed0:	9803      	ldr	r0, [sp, #12]
 8000ed2:	9004      	str	r0, [sp, #16]
 8000ed4:	f640 000c 	movw	r0, #2060	; 0x80c
 8000ed8:	f2c4 0002 	movt	r0, #16386	; 0x4002
 8000edc:	9000      	str	r0, [sp, #0]
 8000ede:	9008      	str	r0, [sp, #32]
 8000ee0:	a904      	add	r1, sp, #16
 8000ee2:	9101      	str	r1, [sp, #4]
 8000ee4:	9109      	str	r1, [sp, #36]	; 0x24
 8000ee6:	900b      	str	r0, [sp, #44]	; 0x2c
 8000ee8:	900c      	str	r0, [sp, #48]	; 0x30
 8000eea:	f005 ff14 	bl	8006d16 <_ZN4core3ptr13read_volatile17h9bc3363220c5f51bE>
 8000eee:	4601      	mov	r1, r0
 8000ef0:	9801      	ldr	r0, [sp, #4]
 8000ef2:	910a      	str	r1, [sp, #40]	; 0x28
 8000ef4:	9106      	str	r1, [sp, #24]
 8000ef6:	9107      	str	r1, [sp, #28]
 8000ef8:	a906      	add	r1, sp, #24
 8000efa:	aa07      	add	r2, sp, #28
 8000efc:	f000 f82d 	bl	8000f5a <_ZN13stm32f4xx_hal4gpio5gpioc16PC13$LT$MODE$GT$18into_pull_up_input28_$u7b$$u7b$closure$u7d$$u7d$17h143b3992335f1fa2E>
 8000f00:	4601      	mov	r1, r0
 8000f02:	9800      	ldr	r0, [sp, #0]
 8000f04:	6809      	ldr	r1, [r1, #0]
 8000f06:	900d      	str	r0, [sp, #52]	; 0x34
 8000f08:	910e      	str	r1, [sp, #56]	; 0x38
 8000f0a:	900f      	str	r0, [sp, #60]	; 0x3c
 8000f0c:	f005 fdc2 	bl	8006a94 <_ZN4core3ptr14write_volatile17hd6de69c464e82e6cE>
 8000f10:	9901      	ldr	r1, [sp, #4]
 8000f12:	f640 0000 	movw	r0, #2048	; 0x800
 8000f16:	f2c4 0002 	movt	r0, #16386	; 0x4002
 8000f1a:	9002      	str	r0, [sp, #8]
 8000f1c:	9012      	str	r0, [sp, #72]	; 0x48
 8000f1e:	9113      	str	r1, [sp, #76]	; 0x4c
 8000f20:	9015      	str	r0, [sp, #84]	; 0x54
 8000f22:	9016      	str	r0, [sp, #88]	; 0x58
 8000f24:	f005 fef7 	bl	8006d16 <_ZN4core3ptr13read_volatile17h9bc3363220c5f51bE>
 8000f28:	4601      	mov	r1, r0
 8000f2a:	9801      	ldr	r0, [sp, #4]
 8000f2c:	9114      	str	r1, [sp, #80]	; 0x50
 8000f2e:	9110      	str	r1, [sp, #64]	; 0x40
 8000f30:	9111      	str	r1, [sp, #68]	; 0x44
 8000f32:	a910      	add	r1, sp, #64	; 0x40
 8000f34:	aa11      	add	r2, sp, #68	; 0x44
 8000f36:	f000 f847 	bl	8000fc8 <_ZN13stm32f4xx_hal4gpio5gpioc16PC13$LT$MODE$GT$18into_pull_up_input28_$u7b$$u7b$closure$u7d$$u7d$17h59b01d4daa99a21dE>
 8000f3a:	4601      	mov	r1, r0
 8000f3c:	9802      	ldr	r0, [sp, #8]
 8000f3e:	6809      	ldr	r1, [r1, #0]
 8000f40:	9017      	str	r0, [sp, #92]	; 0x5c
 8000f42:	9118      	str	r1, [sp, #96]	; 0x60
 8000f44:	9019      	str	r0, [sp, #100]	; 0x64
 8000f46:	f005 fda5 	bl	8006a94 <_ZN4core3ptr14write_volatile17hd6de69c464e82e6cE>
 8000f4a:	b01a      	add	sp, #104	; 0x68
 8000f4c:	bd80      	pop	{r7, pc}
 8000f4e:	f649 3098 	movw	r0, #39832	; 0x9b98
 8000f52:	f6c0 0000 	movt	r0, #2048	; 0x800
 8000f56:	f007 fcde 	bl	8008916 <_ZN4core9panicking11panic_const24panic_const_mul_overflow17hd3d29f8f054ee19bE>

08000f5a <_ZN13stm32f4xx_hal4gpio5gpioc16PC13$LT$MODE$GT$18into_pull_up_input28_$u7b$$u7b$closure$u7d$$u7d$17h143b3992335f1fa2E>:
 8000f5a:	b580      	push	{r7, lr}
 8000f5c:	466f      	mov	r7, sp
 8000f5e:	b08c      	sub	sp, #48	; 0x30
 8000f60:	9203      	str	r2, [sp, #12]
 8000f62:	9006      	str	r0, [sp, #24]
 8000f64:	9107      	str	r1, [sp, #28]
 8000f66:	9208      	str	r2, [sp, #32]
 8000f68:	9109      	str	r1, [sp, #36]	; 0x24
 8000f6a:	6808      	ldr	r0, [r1, #0]
 8000f6c:	9004      	str	r0, [sp, #16]
 8000f6e:	9806      	ldr	r0, [sp, #24]
 8000f70:	6800      	ldr	r0, [r0, #0]
 8000f72:	9005      	str	r0, [sp, #20]
 8000f74:	281f      	cmp	r0, #31
 8000f76:	d80e      	bhi.n	8000f96 <_ZN13stm32f4xx_hal4gpio5gpioc16PC13$LT$MODE$GT$18into_pull_up_input28_$u7b$$u7b$closure$u7d$$u7d$17h143b3992335f1fa2E+0x3c>
 8000f78:	e7ff      	b.n	8000f7a <_ZN13stm32f4xx_hal4gpio5gpioc16PC13$LT$MODE$GT$18into_pull_up_input28_$u7b$$u7b$closure$u7d$$u7d$17h143b3992335f1fa2E+0x20>
 8000f7a:	9804      	ldr	r0, [sp, #16]
 8000f7c:	9905      	ldr	r1, [sp, #20]
 8000f7e:	f001 021f 	and.w	r2, r1, #31
 8000f82:	2103      	movs	r1, #3
 8000f84:	4091      	lsls	r1, r2
 8000f86:	4388      	bics	r0, r1
 8000f88:	9001      	str	r0, [sp, #4]
 8000f8a:	9806      	ldr	r0, [sp, #24]
 8000f8c:	6800      	ldr	r0, [r0, #0]
 8000f8e:	9002      	str	r0, [sp, #8]
 8000f90:	2820      	cmp	r0, #32
 8000f92:	d306      	bcc.n	8000fa2 <_ZN13stm32f4xx_hal4gpio5gpioc16PC13$LT$MODE$GT$18into_pull_up_input28_$u7b$$u7b$closure$u7d$$u7d$17h143b3992335f1fa2E+0x48>
 8000f94:	e012      	b.n	8000fbc <_ZN13stm32f4xx_hal4gpio5gpioc16PC13$LT$MODE$GT$18into_pull_up_input28_$u7b$$u7b$closure$u7d$$u7d$17h143b3992335f1fa2E+0x62>
 8000f96:	f649 3098 	movw	r0, #39832	; 0x9b98
 8000f9a:	f6c0 0000 	movt	r0, #2048	; 0x800
 8000f9e:	f007 fccd 	bl	800893c <_ZN4core9panicking11panic_const24panic_const_shl_overflow17h7d1dfb79ee113705E>
 8000fa2:	9803      	ldr	r0, [sp, #12]
 8000fa4:	9901      	ldr	r1, [sp, #4]
 8000fa6:	9a02      	ldr	r2, [sp, #8]
 8000fa8:	f002 031f 	and.w	r3, r2, #31
 8000fac:	2201      	movs	r2, #1
 8000fae:	409a      	lsls	r2, r3
 8000fb0:	4311      	orrs	r1, r2
 8000fb2:	900a      	str	r0, [sp, #40]	; 0x28
 8000fb4:	910b      	str	r1, [sp, #44]	; 0x2c
 8000fb6:	6001      	str	r1, [r0, #0]
 8000fb8:	b00c      	add	sp, #48	; 0x30
 8000fba:	bd80      	pop	{r7, pc}
 8000fbc:	f649 3098 	movw	r0, #39832	; 0x9b98
 8000fc0:	f6c0 0000 	movt	r0, #2048	; 0x800
 8000fc4:	f007 fcba 	bl	800893c <_ZN4core9panicking11panic_const24panic_const_shl_overflow17h7d1dfb79ee113705E>

08000fc8 <_ZN13stm32f4xx_hal4gpio5gpioc16PC13$LT$MODE$GT$18into_pull_up_input28_$u7b$$u7b$closure$u7d$$u7d$17h59b01d4daa99a21dE>:
 8000fc8:	b580      	push	{r7, lr}
 8000fca:	466f      	mov	r7, sp
 8000fcc:	b08a      	sub	sp, #40	; 0x28
 8000fce:	9201      	str	r2, [sp, #4]
 8000fd0:	9004      	str	r0, [sp, #16]
 8000fd2:	9105      	str	r1, [sp, #20]
 8000fd4:	9206      	str	r2, [sp, #24]
 8000fd6:	9107      	str	r1, [sp, #28]
 8000fd8:	6808      	ldr	r0, [r1, #0]
 8000fda:	9002      	str	r0, [sp, #8]
 8000fdc:	9804      	ldr	r0, [sp, #16]
 8000fde:	6800      	ldr	r0, [r0, #0]
 8000fe0:	9003      	str	r0, [sp, #12]
 8000fe2:	281f      	cmp	r0, #31
 8000fe4:	d80d      	bhi.n	8001002 <_ZN13stm32f4xx_hal4gpio5gpioc16PC13$LT$MODE$GT$18into_pull_up_input28_$u7b$$u7b$closure$u7d$$u7d$17h59b01d4daa99a21dE+0x3a>
 8000fe6:	e7ff      	b.n	8000fe8 <_ZN13stm32f4xx_hal4gpio5gpioc16PC13$LT$MODE$GT$18into_pull_up_input28_$u7b$$u7b$closure$u7d$$u7d$17h59b01d4daa99a21dE+0x20>
 8000fe8:	9802      	ldr	r0, [sp, #8]
 8000fea:	9903      	ldr	r1, [sp, #12]
 8000fec:	f001 021f 	and.w	r2, r1, #31
 8000ff0:	2103      	movs	r1, #3
 8000ff2:	4091      	lsls	r1, r2
 8000ff4:	4388      	bics	r0, r1
 8000ff6:	9000      	str	r0, [sp, #0]
 8000ff8:	9804      	ldr	r0, [sp, #16]
 8000ffa:	6800      	ldr	r0, [r0, #0]
 8000ffc:	2820      	cmp	r0, #32
 8000ffe:	d306      	bcc.n	800100e <_ZN13stm32f4xx_hal4gpio5gpioc16PC13$LT$MODE$GT$18into_pull_up_input28_$u7b$$u7b$closure$u7d$$u7d$17h59b01d4daa99a21dE+0x46>
 8001000:	e00c      	b.n	800101c <_ZN13stm32f4xx_hal4gpio5gpioc16PC13$LT$MODE$GT$18into_pull_up_input28_$u7b$$u7b$closure$u7d$$u7d$17h59b01d4daa99a21dE+0x54>
 8001002:	f649 3098 	movw	r0, #39832	; 0x9b98
 8001006:	f6c0 0000 	movt	r0, #2048	; 0x800
 800100a:	f007 fc97 	bl	800893c <_ZN4core9panicking11panic_const24panic_const_shl_overflow17h7d1dfb79ee113705E>
 800100e:	9801      	ldr	r0, [sp, #4]
 8001010:	9900      	ldr	r1, [sp, #0]
 8001012:	9008      	str	r0, [sp, #32]
 8001014:	9109      	str	r1, [sp, #36]	; 0x24
 8001016:	6001      	str	r1, [r0, #0]
 8001018:	b00a      	add	sp, #40	; 0x28
 800101a:	bd80      	pop	{r7, pc}
 800101c:	f649 3098 	movw	r0, #39832	; 0x9b98
 8001020:	f6c0 0000 	movt	r0, #2048	; 0x800
 8001024:	f007 fc8a 	bl	800893c <_ZN4core9panicking11panic_const24panic_const_shl_overflow17h7d1dfb79ee113705E>

08001028 <_ZN7stm32f49stm32f40111Peripherals4take17h525c16e5f29fdbf3E>:
 8001028:	b580      	push	{r7, lr}
 800102a:	466f      	mov	r7, sp
 800102c:	f000 fa80 	bl	8001530 <_ZN8cortex_m9interrupt4free17h9715c56e0f6e370cE>
 8001030:	bd80      	pop	{r7, pc}

08001032 <_ZN7stm32f49stm32f40111Peripherals5steal17h205b901a632fcd49E>:
 8001032:	f643 51ac 	movw	r1, #15788	; 0x3dac
 8001036:	f2c2 0100 	movt	r1, #8192	; 0x2000
 800103a:	2001      	movs	r0, #1
 800103c:	7008      	strb	r0, [r1, #0]
 800103e:	4770      	bx	lr

08001040 <_ZN12embedded_hal7digital2v210toggleable78_$LT$impl$u20$embedded_hal..digital..v2..ToggleableOutputPin$u20$for$u20$P$GT$6toggle17h22a7964cde93528dE>:
 8001040:	b580      	push	{r7, lr}
 8001042:	466f      	mov	r7, sp
 8001044:	b084      	sub	sp, #16
 8001046:	9000      	str	r0, [sp, #0]
 8001048:	9002      	str	r0, [sp, #8]
 800104a:	f000 f94e 	bl	80012ea <_ZN143_$LT$stm32f4xx_hal..gpio..gpioa..PA5$LT$stm32f4xx_hal..gpio..Output$LT$MODE$GT$$GT$$u20$as$u20$embedded_hal..digital..v2..StatefulOutputPin$GT$10is_set_low17hf52837eccaf49b3eE>
 800104e:	f7ff fd11 	bl	8000a74 <_ZN79_$LT$core..result..Result$LT$T$C$E$GT$$u20$as$u20$core..ops..try_trait..Try$GT$6branch17hd0eb5f804fd8de1dE>
 8001052:	f807 0c09 	strb.w	r0, [r7, #-9]
 8001056:	e7ff      	b.n	8001058 <_ZN12embedded_hal7digital2v210toggleable78_$LT$impl$u20$embedded_hal..digital..v2..ToggleableOutputPin$u20$for$u20$P$GT$6toggle17h22a7964cde93528dE+0x18>
 8001058:	f817 0c09 	ldrb.w	r0, [r7, #-9]
 800105c:	f000 0001 	and.w	r0, r0, #1
 8001060:	f807 0c01 	strb.w	r0, [r7, #-1]
 8001064:	b920      	cbnz	r0, 8001070 <_ZN12embedded_hal7digital2v210toggleable78_$LT$impl$u20$embedded_hal..digital..v2..ToggleableOutputPin$u20$for$u20$P$GT$6toggle17h22a7964cde93528dE+0x30>
 8001066:	e7ff      	b.n	8001068 <_ZN12embedded_hal7digital2v210toggleable78_$LT$impl$u20$embedded_hal..digital..v2..ToggleableOutputPin$u20$for$u20$P$GT$6toggle17h22a7964cde93528dE+0x28>
 8001068:	9800      	ldr	r0, [sp, #0]
 800106a:	f000 f807 	bl	800107c <_ZN135_$LT$stm32f4xx_hal..gpio..gpioa..PA5$LT$stm32f4xx_hal..gpio..Output$LT$MODE$GT$$GT$$u20$as$u20$embedded_hal..digital..v2..OutputPin$GT$7set_low17ha571bce3bda35d88E>
 800106e:	e003      	b.n	8001078 <_ZN12embedded_hal7digital2v210toggleable78_$LT$impl$u20$embedded_hal..digital..v2..ToggleableOutputPin$u20$for$u20$P$GT$6toggle17h22a7964cde93528dE+0x38>
 8001070:	9800      	ldr	r0, [sp, #0]
 8001072:	f000 f840 	bl	80010f6 <_ZN135_$LT$stm32f4xx_hal..gpio..gpioa..PA5$LT$stm32f4xx_hal..gpio..Output$LT$MODE$GT$$GT$$u20$as$u20$embedded_hal..digital..v2..OutputPin$GT$8set_high17hab613d658415d608E>
 8001076:	e7ff      	b.n	8001078 <_ZN12embedded_hal7digital2v210toggleable78_$LT$impl$u20$embedded_hal..digital..v2..ToggleableOutputPin$u20$for$u20$P$GT$6toggle17h22a7964cde93528dE+0x38>
 8001078:	b004      	add	sp, #16
 800107a:	bd80      	pop	{r7, pc}

0800107c <_ZN135_$LT$stm32f4xx_hal..gpio..gpioa..PA5$LT$stm32f4xx_hal..gpio..Output$LT$MODE$GT$$GT$$u20$as$u20$embedded_hal..digital..v2..OutputPin$GT$7set_low17ha571bce3bda35d88E>:
 800107c:	b580      	push	{r7, lr}
 800107e:	466f      	mov	r7, sp
 8001080:	b088      	sub	sp, #32
 8001082:	9002      	str	r0, [sp, #8]
 8001084:	2018      	movs	r0, #24
 8001086:	f2c4 0002 	movt	r0, #16386	; 0x4002
 800108a:	9001      	str	r0, [sp, #4]
 800108c:	9004      	str	r0, [sp, #16]
 800108e:	2000      	movs	r0, #0
 8001090:	9003      	str	r0, [sp, #12]
 8001092:	a803      	add	r0, sp, #12
 8001094:	f000 f80a 	bl	80010ac <_ZN135_$LT$stm32f4xx_hal..gpio..gpioa..PA5$LT$stm32f4xx_hal..gpio..Output$LT$MODE$GT$$GT$$u20$as$u20$embedded_hal..digital..v2..OutputPin$GT$7set_low28_$u7b$$u7b$closure$u7d$$u7d$17hb8c13203c675ffc4E>
 8001098:	4601      	mov	r1, r0
 800109a:	9801      	ldr	r0, [sp, #4]
 800109c:	6809      	ldr	r1, [r1, #0]
 800109e:	9005      	str	r0, [sp, #20]
 80010a0:	9106      	str	r1, [sp, #24]
 80010a2:	9007      	str	r0, [sp, #28]
 80010a4:	f005 fcf6 	bl	8006a94 <_ZN4core3ptr14write_volatile17hd6de69c464e82e6cE>
 80010a8:	b008      	add	sp, #32
 80010aa:	bd80      	pop	{r7, pc}

080010ac <_ZN135_$LT$stm32f4xx_hal..gpio..gpioa..PA5$LT$stm32f4xx_hal..gpio..Output$LT$MODE$GT$$GT$$u20$as$u20$embedded_hal..digital..v2..OutputPin$GT$7set_low28_$u7b$$u7b$closure$u7d$$u7d$17hb8c13203c675ffc4E>:
 80010ac:	b580      	push	{r7, lr}
 80010ae:	466f      	mov	r7, sp
 80010b0:	b086      	sub	sp, #24
 80010b2:	9000      	str	r0, [sp, #0]
 80010b4:	9003      	str	r0, [sp, #12]
 80010b6:	2015      	movs	r0, #21
 80010b8:	9001      	str	r0, [sp, #4]
 80010ba:	2000      	movs	r0, #0
 80010bc:	b920      	cbnz	r0, 80010c8 <_ZN135_$LT$stm32f4xx_hal..gpio..gpioa..PA5$LT$stm32f4xx_hal..gpio..Output$LT$MODE$GT$$GT$$u20$as$u20$embedded_hal..digital..v2..OutputPin$GT$7set_low28_$u7b$$u7b$closure$u7d$$u7d$17hb8c13203c675ffc4E+0x1c>
 80010be:	e7ff      	b.n	80010c0 <_ZN135_$LT$stm32f4xx_hal..gpio..gpioa..PA5$LT$stm32f4xx_hal..gpio..Output$LT$MODE$GT$$GT$$u20$as$u20$embedded_hal..digital..v2..OutputPin$GT$7set_low28_$u7b$$u7b$closure$u7d$$u7d$17hb8c13203c675ffc4E+0x14>
 80010c0:	9801      	ldr	r0, [sp, #4]
 80010c2:	2820      	cmp	r0, #32
 80010c4:	d306      	bcc.n	80010d4 <_ZN135_$LT$stm32f4xx_hal..gpio..gpioa..PA5$LT$stm32f4xx_hal..gpio..Output$LT$MODE$GT$$GT$$u20$as$u20$embedded_hal..digital..v2..OutputPin$GT$7set_low28_$u7b$$u7b$closure$u7d$$u7d$17hb8c13203c675ffc4E+0x28>
 80010c6:	e010      	b.n	80010ea <_ZN135_$LT$stm32f4xx_hal..gpio..gpioa..PA5$LT$stm32f4xx_hal..gpio..Output$LT$MODE$GT$$GT$$u20$as$u20$embedded_hal..digital..v2..OutputPin$GT$7set_low28_$u7b$$u7b$closure$u7d$$u7d$17hb8c13203c675ffc4E+0x3e>
 80010c8:	f649 400c 	movw	r0, #39948	; 0x9c0c
 80010cc:	f6c0 0000 	movt	r0, #2048	; 0x800
 80010d0:	f007 fbfb 	bl	80088ca <_ZN4core9panicking11panic_const24panic_const_add_overflow17h8e8a2d960805aa64E>
 80010d4:	9800      	ldr	r0, [sp, #0]
 80010d6:	9901      	ldr	r1, [sp, #4]
 80010d8:	f001 021f 	and.w	r2, r1, #31
 80010dc:	2101      	movs	r1, #1
 80010de:	4091      	lsls	r1, r2
 80010e0:	9004      	str	r0, [sp, #16]
 80010e2:	9105      	str	r1, [sp, #20]
 80010e4:	6001      	str	r1, [r0, #0]
 80010e6:	b006      	add	sp, #24
 80010e8:	bd80      	pop	{r7, pc}
 80010ea:	f649 400c 	movw	r0, #39948	; 0x9c0c
 80010ee:	f6c0 0000 	movt	r0, #2048	; 0x800
 80010f2:	f007 fc23 	bl	800893c <_ZN4core9panicking11panic_const24panic_const_shl_overflow17h7d1dfb79ee113705E>

080010f6 <_ZN135_$LT$stm32f4xx_hal..gpio..gpioa..PA5$LT$stm32f4xx_hal..gpio..Output$LT$MODE$GT$$GT$$u20$as$u20$embedded_hal..digital..v2..OutputPin$GT$8set_high17hab613d658415d608E>:
 80010f6:	b580      	push	{r7, lr}
 80010f8:	466f      	mov	r7, sp
 80010fa:	b088      	sub	sp, #32
 80010fc:	9002      	str	r0, [sp, #8]
 80010fe:	2018      	movs	r0, #24
 8001100:	f2c4 0002 	movt	r0, #16386	; 0x4002
 8001104:	9001      	str	r0, [sp, #4]
 8001106:	9004      	str	r0, [sp, #16]
 8001108:	2000      	movs	r0, #0
 800110a:	9003      	str	r0, [sp, #12]
 800110c:	a803      	add	r0, sp, #12
 800110e:	f000 f80a 	bl	8001126 <_ZN135_$LT$stm32f4xx_hal..gpio..gpioa..PA5$LT$stm32f4xx_hal..gpio..Output$LT$MODE$GT$$GT$$u20$as$u20$embedded_hal..digital..v2..OutputPin$GT$8set_high28_$u7b$$u7b$closure$u7d$$u7d$17h05aad1c357b7215bE>
 8001112:	4601      	mov	r1, r0
 8001114:	9801      	ldr	r0, [sp, #4]
 8001116:	6809      	ldr	r1, [r1, #0]
 8001118:	9005      	str	r0, [sp, #20]
 800111a:	9106      	str	r1, [sp, #24]
 800111c:	9007      	str	r0, [sp, #28]
 800111e:	f005 fcb9 	bl	8006a94 <_ZN4core3ptr14write_volatile17hd6de69c464e82e6cE>
 8001122:	b008      	add	sp, #32
 8001124:	bd80      	pop	{r7, pc}

08001126 <_ZN135_$LT$stm32f4xx_hal..gpio..gpioa..PA5$LT$stm32f4xx_hal..gpio..Output$LT$MODE$GT$$GT$$u20$as$u20$embedded_hal..digital..v2..OutputPin$GT$8set_high28_$u7b$$u7b$closure$u7d$$u7d$17h05aad1c357b7215bE>:
 8001126:	b084      	sub	sp, #16
 8001128:	9001      	str	r0, [sp, #4]
 800112a:	9002      	str	r0, [sp, #8]
 800112c:	2120      	movs	r1, #32
 800112e:	9103      	str	r1, [sp, #12]
 8001130:	6001      	str	r1, [r0, #0]
 8001132:	b004      	add	sp, #16
 8001134:	4770      	bx	lr

08001136 <_ZN13stm32f4xx_hal4gpio5gpioa15PA5$LT$MODE$GT$21into_push_pull_output17hd67b22113e931f26E>:
 8001136:	b580      	push	{r7, lr}
 8001138:	466f      	mov	r7, sp
 800113a:	b0a4      	sub	sp, #144	; 0x90
 800113c:	200a      	movs	r0, #10
 800113e:	9004      	str	r0, [sp, #16]
 8001140:	2000      	movs	r0, #0
 8001142:	2800      	cmp	r0, #0
 8001144:	d155      	bne.n	80011f2 <_ZN13stm32f4xx_hal4gpio5gpioa15PA5$LT$MODE$GT$21into_push_pull_output17hd67b22113e931f26E+0xbc>
 8001146:	e7ff      	b.n	8001148 <_ZN13stm32f4xx_hal4gpio5gpioa15PA5$LT$MODE$GT$21into_push_pull_output17hd67b22113e931f26E+0x12>
 8001148:	9804      	ldr	r0, [sp, #16]
 800114a:	9005      	str	r0, [sp, #20]
 800114c:	200c      	movs	r0, #12
 800114e:	f2c4 0002 	movt	r0, #16386	; 0x4002
 8001152:	9000      	str	r0, [sp, #0]
 8001154:	9012      	str	r0, [sp, #72]	; 0x48
 8001156:	a905      	add	r1, sp, #20
 8001158:	9102      	str	r1, [sp, #8]
 800115a:	9113      	str	r1, [sp, #76]	; 0x4c
 800115c:	9015      	str	r0, [sp, #84]	; 0x54
 800115e:	9016      	str	r0, [sp, #88]	; 0x58
 8001160:	f005 fdd9 	bl	8006d16 <_ZN4core3ptr13read_volatile17h9bc3363220c5f51bE>
 8001164:	4601      	mov	r1, r0
 8001166:	9802      	ldr	r0, [sp, #8]
 8001168:	9114      	str	r1, [sp, #80]	; 0x50
 800116a:	9110      	str	r1, [sp, #64]	; 0x40
 800116c:	9111      	str	r1, [sp, #68]	; 0x44
 800116e:	a910      	add	r1, sp, #64	; 0x40
 8001170:	aa11      	add	r2, sp, #68	; 0x44
 8001172:	f000 f88a 	bl	800128a <_ZN13stm32f4xx_hal4gpio5gpioa15PA5$LT$MODE$GT$21into_push_pull_output28_$u7b$$u7b$closure$u7d$$u7d$17hfc0a7349fa47c146E>
 8001176:	4601      	mov	r1, r0
 8001178:	9800      	ldr	r0, [sp, #0]
 800117a:	6809      	ldr	r1, [r1, #0]
 800117c:	9017      	str	r0, [sp, #92]	; 0x5c
 800117e:	9118      	str	r1, [sp, #96]	; 0x60
 8001180:	9019      	str	r0, [sp, #100]	; 0x64
 8001182:	f005 fc87 	bl	8006a94 <_ZN4core3ptr14write_volatile17hd6de69c464e82e6cE>
 8001186:	2004      	movs	r0, #4
 8001188:	f2c4 0002 	movt	r0, #16386	; 0x4002
 800118c:	9001      	str	r0, [sp, #4]
 800118e:	9009      	str	r0, [sp, #36]	; 0x24
 8001190:	900b      	str	r0, [sp, #44]	; 0x2c
 8001192:	900c      	str	r0, [sp, #48]	; 0x30
 8001194:	f005 fdbf 	bl	8006d16 <_ZN4core3ptr13read_volatile17h9bc3363220c5f51bE>
 8001198:	900a      	str	r0, [sp, #40]	; 0x28
 800119a:	9007      	str	r0, [sp, #28]
 800119c:	9008      	str	r0, [sp, #32]
 800119e:	a807      	add	r0, sp, #28
 80011a0:	a908      	add	r1, sp, #32
 80011a2:	f000 f863 	bl	800126c <_ZN13stm32f4xx_hal4gpio5gpioa15PA5$LT$MODE$GT$21into_push_pull_output28_$u7b$$u7b$closure$u7d$$u7d$17h592d8ef091b6c87dE>
 80011a6:	4601      	mov	r1, r0
 80011a8:	9801      	ldr	r0, [sp, #4]
 80011aa:	6809      	ldr	r1, [r1, #0]
 80011ac:	900d      	str	r0, [sp, #52]	; 0x34
 80011ae:	910e      	str	r1, [sp, #56]	; 0x38
 80011b0:	900f      	str	r0, [sp, #60]	; 0x3c
 80011b2:	f005 fc6f 	bl	8006a94 <_ZN4core3ptr14write_volatile17hd6de69c464e82e6cE>
 80011b6:	9902      	ldr	r1, [sp, #8]
 80011b8:	2000      	movs	r0, #0
 80011ba:	f2c4 0002 	movt	r0, #16386	; 0x4002
 80011be:	9003      	str	r0, [sp, #12]
 80011c0:	901c      	str	r0, [sp, #112]	; 0x70
 80011c2:	911d      	str	r1, [sp, #116]	; 0x74
 80011c4:	901f      	str	r0, [sp, #124]	; 0x7c
 80011c6:	9020      	str	r0, [sp, #128]	; 0x80
 80011c8:	f005 fda5 	bl	8006d16 <_ZN4core3ptr13read_volatile17h9bc3363220c5f51bE>
 80011cc:	4601      	mov	r1, r0
 80011ce:	9802      	ldr	r0, [sp, #8]
 80011d0:	911e      	str	r1, [sp, #120]	; 0x78
 80011d2:	911a      	str	r1, [sp, #104]	; 0x68
 80011d4:	911b      	str	r1, [sp, #108]	; 0x6c
 80011d6:	a91a      	add	r1, sp, #104	; 0x68
 80011d8:	aa1b      	add	r2, sp, #108	; 0x6c
 80011da:	f000 f810 	bl	80011fe <_ZN13stm32f4xx_hal4gpio5gpioa15PA5$LT$MODE$GT$21into_push_pull_output28_$u7b$$u7b$closure$u7d$$u7d$17h49bdebcf5f49cbf6E>
 80011de:	4601      	mov	r1, r0
 80011e0:	9803      	ldr	r0, [sp, #12]
 80011e2:	6809      	ldr	r1, [r1, #0]
 80011e4:	9021      	str	r0, [sp, #132]	; 0x84
 80011e6:	9122      	str	r1, [sp, #136]	; 0x88
 80011e8:	9023      	str	r0, [sp, #140]	; 0x8c
 80011ea:	f005 fc53 	bl	8006a94 <_ZN4core3ptr14write_volatile17hd6de69c464e82e6cE>
 80011ee:	b024      	add	sp, #144	; 0x90
 80011f0:	bd80      	pop	{r7, pc}
 80011f2:	f649 400c 	movw	r0, #39948	; 0x9c0c
 80011f6:	f6c0 0000 	movt	r0, #2048	; 0x800
 80011fa:	f007 fb8c 	bl	8008916 <_ZN4core9panicking11panic_const24panic_const_mul_overflow17hd3d29f8f054ee19bE>

080011fe <_ZN13stm32f4xx_hal4gpio5gpioa15PA5$LT$MODE$GT$21into_push_pull_output28_$u7b$$u7b$closure$u7d$$u7d$17h49bdebcf5f49cbf6E>:
 80011fe:	b580      	push	{r7, lr}
 8001200:	466f      	mov	r7, sp
 8001202:	b08c      	sub	sp, #48	; 0x30
 8001204:	9203      	str	r2, [sp, #12]
 8001206:	9006      	str	r0, [sp, #24]
 8001208:	9107      	str	r1, [sp, #28]
 800120a:	9208      	str	r2, [sp, #32]
 800120c:	9109      	str	r1, [sp, #36]	; 0x24
 800120e:	6808      	ldr	r0, [r1, #0]
 8001210:	9004      	str	r0, [sp, #16]
 8001212:	9806      	ldr	r0, [sp, #24]
 8001214:	6800      	ldr	r0, [r0, #0]
 8001216:	9005      	str	r0, [sp, #20]
 8001218:	281f      	cmp	r0, #31
 800121a:	d80e      	bhi.n	800123a <_ZN13stm32f4xx_hal4gpio5gpioa15PA5$LT$MODE$GT$21into_push_pull_output28_$u7b$$u7b$closure$u7d$$u7d$17h49bdebcf5f49cbf6E+0x3c>
 800121c:	e7ff      	b.n	800121e <_ZN13stm32f4xx_hal4gpio5gpioa15PA5$LT$MODE$GT$21into_push_pull_output28_$u7b$$u7b$closure$u7d$$u7d$17h49bdebcf5f49cbf6E+0x20>
 800121e:	9804      	ldr	r0, [sp, #16]
 8001220:	9905      	ldr	r1, [sp, #20]
 8001222:	f001 021f 	and.w	r2, r1, #31
 8001226:	2103      	movs	r1, #3
 8001228:	4091      	lsls	r1, r2
 800122a:	4388      	bics	r0, r1
 800122c:	9001      	str	r0, [sp, #4]
 800122e:	9806      	ldr	r0, [sp, #24]
 8001230:	6800      	ldr	r0, [r0, #0]
 8001232:	9002      	str	r0, [sp, #8]
 8001234:	2820      	cmp	r0, #32
 8001236:	d306      	bcc.n	8001246 <_ZN13stm32f4xx_hal4gpio5gpioa15PA5$LT$MODE$GT$21into_push_pull_output28_$u7b$$u7b$closure$u7d$$u7d$17h49bdebcf5f49cbf6E+0x48>
 8001238:	e012      	b.n	8001260 <_ZN13stm32f4xx_hal4gpio5gpioa15PA5$LT$MODE$GT$21into_push_pull_output28_$u7b$$u7b$closure$u7d$$u7d$17h49bdebcf5f49cbf6E+0x62>
 800123a:	f649 400c 	movw	r0, #39948	; 0x9c0c
 800123e:	f6c0 0000 	movt	r0, #2048	; 0x800
 8001242:	f007 fb7b 	bl	800893c <_ZN4core9panicking11panic_const24panic_const_shl_overflow17h7d1dfb79ee113705E>
 8001246:	9803      	ldr	r0, [sp, #12]
 8001248:	9901      	ldr	r1, [sp, #4]
 800124a:	9a02      	ldr	r2, [sp, #8]
 800124c:	f002 031f 	and.w	r3, r2, #31
 8001250:	2201      	movs	r2, #1
 8001252:	409a      	lsls	r2, r3
 8001254:	4311      	orrs	r1, r2
 8001256:	900a      	str	r0, [sp, #40]	; 0x28
 8001258:	910b      	str	r1, [sp, #44]	; 0x2c
 800125a:	6001      	str	r1, [r0, #0]
 800125c:	b00c      	add	sp, #48	; 0x30
 800125e:	bd80      	pop	{r7, pc}
 8001260:	f649 400c 	movw	r0, #39948	; 0x9c0c
 8001264:	f6c0 0000 	movt	r0, #2048	; 0x800
 8001268:	f007 fb68 	bl	800893c <_ZN4core9panicking11panic_const24panic_const_shl_overflow17h7d1dfb79ee113705E>

0800126c <_ZN13stm32f4xx_hal4gpio5gpioa15PA5$LT$MODE$GT$21into_push_pull_output28_$u7b$$u7b$closure$u7d$$u7d$17h592d8ef091b6c87dE>:
 800126c:	b087      	sub	sp, #28
 800126e:	9100      	str	r1, [sp, #0]
 8001270:	4601      	mov	r1, r0
 8001272:	9800      	ldr	r0, [sp, #0]
 8001274:	9102      	str	r1, [sp, #8]
 8001276:	9003      	str	r0, [sp, #12]
 8001278:	9104      	str	r1, [sp, #16]
 800127a:	6809      	ldr	r1, [r1, #0]
 800127c:	f021 0120 	bic.w	r1, r1, #32
 8001280:	9005      	str	r0, [sp, #20]
 8001282:	9106      	str	r1, [sp, #24]
 8001284:	6001      	str	r1, [r0, #0]
 8001286:	b007      	add	sp, #28
 8001288:	4770      	bx	lr

0800128a <_ZN13stm32f4xx_hal4gpio5gpioa15PA5$LT$MODE$GT$21into_push_pull_output28_$u7b$$u7b$closure$u7d$$u7d$17hfc0a7349fa47c146E>:
 800128a:	b580      	push	{r7, lr}
 800128c:	466f      	mov	r7, sp
 800128e:	b08a      	sub	sp, #40	; 0x28
 8001290:	9201      	str	r2, [sp, #4]
 8001292:	9004      	str	r0, [sp, #16]
 8001294:	9105      	str	r1, [sp, #20]
 8001296:	9206      	str	r2, [sp, #24]
 8001298:	9107      	str	r1, [sp, #28]
 800129a:	6808      	ldr	r0, [r1, #0]
 800129c:	9002      	str	r0, [sp, #8]
 800129e:	9804      	ldr	r0, [sp, #16]
 80012a0:	6800      	ldr	r0, [r0, #0]
 80012a2:	9003      	str	r0, [sp, #12]
 80012a4:	281f      	cmp	r0, #31
 80012a6:	d80d      	bhi.n	80012c4 <_ZN13stm32f4xx_hal4gpio5gpioa15PA5$LT$MODE$GT$21into_push_pull_output28_$u7b$$u7b$closure$u7d$$u7d$17hfc0a7349fa47c146E+0x3a>
 80012a8:	e7ff      	b.n	80012aa <_ZN13stm32f4xx_hal4gpio5gpioa15PA5$LT$MODE$GT$21into_push_pull_output28_$u7b$$u7b$closure$u7d$$u7d$17hfc0a7349fa47c146E+0x20>
 80012aa:	9802      	ldr	r0, [sp, #8]
 80012ac:	9903      	ldr	r1, [sp, #12]
 80012ae:	f001 021f 	and.w	r2, r1, #31
 80012b2:	2103      	movs	r1, #3
 80012b4:	4091      	lsls	r1, r2
 80012b6:	4388      	bics	r0, r1
 80012b8:	9000      	str	r0, [sp, #0]
 80012ba:	9804      	ldr	r0, [sp, #16]
 80012bc:	6800      	ldr	r0, [r0, #0]
 80012be:	2820      	cmp	r0, #32
 80012c0:	d306      	bcc.n	80012d0 <_ZN13stm32f4xx_hal4gpio5gpioa15PA5$LT$MODE$GT$21into_push_pull_output28_$u7b$$u7b$closure$u7d$$u7d$17hfc0a7349fa47c146E+0x46>
 80012c2:	e00c      	b.n	80012de <_ZN13stm32f4xx_hal4gpio5gpioa15PA5$LT$MODE$GT$21into_push_pull_output28_$u7b$$u7b$closure$u7d$$u7d$17hfc0a7349fa47c146E+0x54>
 80012c4:	f649 400c 	movw	r0, #39948	; 0x9c0c
 80012c8:	f6c0 0000 	movt	r0, #2048	; 0x800
 80012cc:	f007 fb36 	bl	800893c <_ZN4core9panicking11panic_const24panic_const_shl_overflow17h7d1dfb79ee113705E>
 80012d0:	9801      	ldr	r0, [sp, #4]
 80012d2:	9900      	ldr	r1, [sp, #0]
 80012d4:	9008      	str	r0, [sp, #32]
 80012d6:	9109      	str	r1, [sp, #36]	; 0x24
 80012d8:	6001      	str	r1, [r0, #0]
 80012da:	b00a      	add	sp, #40	; 0x28
 80012dc:	bd80      	pop	{r7, pc}
 80012de:	f649 400c 	movw	r0, #39948	; 0x9c0c
 80012e2:	f6c0 0000 	movt	r0, #2048	; 0x800
 80012e6:	f007 fb29 	bl	800893c <_ZN4core9panicking11panic_const24panic_const_shl_overflow17h7d1dfb79ee113705E>

080012ea <_ZN143_$LT$stm32f4xx_hal..gpio..gpioa..PA5$LT$stm32f4xx_hal..gpio..Output$LT$MODE$GT$$GT$$u20$as$u20$embedded_hal..digital..v2..StatefulOutputPin$GT$10is_set_low17hf52837eccaf49b3eE>:
 80012ea:	b580      	push	{r7, lr}
 80012ec:	466f      	mov	r7, sp
 80012ee:	b088      	sub	sp, #32
 80012f0:	9003      	str	r0, [sp, #12]
 80012f2:	2014      	movs	r0, #20
 80012f4:	f2c4 0002 	movt	r0, #16386	; 0x4002
 80012f8:	9005      	str	r0, [sp, #20]
 80012fa:	9006      	str	r0, [sp, #24]
 80012fc:	9007      	str	r0, [sp, #28]
 80012fe:	f005 fd0a 	bl	8006d16 <_ZN4core3ptr13read_volatile17h9bc3363220c5f51bE>
 8001302:	9002      	str	r0, [sp, #8]
 8001304:	a802      	add	r0, sp, #8
 8001306:	9004      	str	r0, [sp, #16]
 8001308:	9802      	ldr	r0, [sp, #8]
 800130a:	f000 0120 	and.w	r1, r0, #32
 800130e:	2001      	movs	r0, #1
 8001310:	ea80 1051 	eor.w	r0, r0, r1, lsr #5
 8001314:	f807 0c19 	strb.w	r0, [r7, #-25]
 8001318:	f817 0c19 	ldrb.w	r0, [r7, #-25]
 800131c:	f000 0001 	and.w	r0, r0, #1
 8001320:	b008      	add	sp, #32
 8001322:	bd80      	pop	{r7, pc}

08001324 <_ZN4core3ptr8non_null16NonNull$LT$T$GT$13new_unchecked18precondition_check17ha9feb91a6655eaeeE>:
 8001324:	b580      	push	{r7, lr}
 8001326:	466f      	mov	r7, sp
 8001328:	b084      	sub	sp, #16
 800132a:	9001      	str	r0, [sp, #4]
 800132c:	9002      	str	r0, [sp, #8]
 800132e:	9003      	str	r0, [sp, #12]
 8001330:	b938      	cbnz	r0, 8001342 <_ZN4core3ptr8non_null16NonNull$LT$T$GT$13new_unchecked18precondition_check17ha9feb91a6655eaeeE+0x1e>
 8001332:	e7ff      	b.n	8001334 <_ZN4core3ptr8non_null16NonNull$LT$T$GT$13new_unchecked18precondition_check17ha9feb91a6655eaeeE+0x10>
 8001334:	f649 401c 	movw	r0, #39964	; 0x9c1c
 8001338:	f6c0 0000 	movt	r0, #2048	; 0x800
 800133c:	215d      	movs	r1, #93	; 0x5d
 800133e:	f006 f806 	bl	800734e <_ZN4core9panicking14panic_nounwind17ha7168a7a4498f4fbE>
 8001342:	b004      	add	sp, #16
 8001344:	bd80      	pop	{r7, pc}

08001346 <_ZN4core9ub_checks17is_nonoverlapping7runtime17hd0dcb1bd2fd68f20E>:
 8001346:	b580      	push	{r7, lr}
 8001348:	466f      	mov	r7, sp
 800134a:	b092      	sub	sp, #72	; 0x48
 800134c:	9007      	str	r0, [sp, #28]
 800134e:	9108      	str	r1, [sp, #32]
 8001350:	9209      	str	r2, [sp, #36]	; 0x24
 8001352:	930a      	str	r3, [sp, #40]	; 0x28
 8001354:	4684      	mov	ip, r0
 8001356:	f8cd c004 	str.w	ip, [sp, #4]
 800135a:	900b      	str	r0, [sp, #44]	; 0x2c
 800135c:	4608      	mov	r0, r1
 800135e:	9002      	str	r0, [sp, #8]
 8001360:	910c      	str	r1, [sp, #48]	; 0x30
 8001362:	fba2 1003 	umull	r1, r0, r2, r3
 8001366:	2800      	cmp	r0, #0
 8001368:	bf18      	it	ne
 800136a:	2001      	movne	r0, #1
 800136c:	460a      	mov	r2, r1
 800136e:	9203      	str	r2, [sp, #12]
 8001370:	910d      	str	r1, [sp, #52]	; 0x34
 8001372:	f807 0c0d 	strb.w	r0, [r7, #-13]
 8001376:	910f      	str	r1, [sp, #60]	; 0x3c
 8001378:	f807 0c05 	strb.w	r0, [r7, #-5]
 800137c:	f817 0c05 	ldrb.w	r0, [r7, #-5]
 8001380:	07c0      	lsls	r0, r0, #31
 8001382:	b960      	cbnz	r0, 800139e <_ZN4core9ub_checks17is_nonoverlapping7runtime17hd0dcb1bd2fd68f20E+0x58>
 8001384:	e7ff      	b.n	8001386 <_ZN4core9ub_checks17is_nonoverlapping7runtime17hd0dcb1bd2fd68f20E+0x40>
 8001386:	9801      	ldr	r0, [sp, #4]
 8001388:	9902      	ldr	r1, [sp, #8]
 800138a:	9a03      	ldr	r2, [sp, #12]
 800138c:	9205      	str	r2, [sp, #20]
 800138e:	2201      	movs	r2, #1
 8001390:	9204      	str	r2, [sp, #16]
 8001392:	9a05      	ldr	r2, [sp, #20]
 8001394:	9200      	str	r2, [sp, #0]
 8001396:	9211      	str	r2, [sp, #68]	; 0x44
 8001398:	4288      	cmp	r0, r1
 800139a:	d30c      	bcc.n	80013b6 <_ZN4core9ub_checks17is_nonoverlapping7runtime17hd0dcb1bd2fd68f20E+0x70>
 800139c:	e006      	b.n	80013ac <_ZN4core9ub_checks17is_nonoverlapping7runtime17hd0dcb1bd2fd68f20E+0x66>
 800139e:	f649 4079 	movw	r0, #40057	; 0x9c79
 80013a2:	f6c0 0000 	movt	r0, #2048	; 0x800
 80013a6:	213d      	movs	r1, #61	; 0x3d
 80013a8:	f005 ffd1 	bl	800734e <_ZN4core9panicking14panic_nounwind17ha7168a7a4498f4fbE>
 80013ac:	9801      	ldr	r0, [sp, #4]
 80013ae:	9902      	ldr	r1, [sp, #8]
 80013b0:	1a40      	subs	r0, r0, r1
 80013b2:	9006      	str	r0, [sp, #24]
 80013b4:	e004      	b.n	80013c0 <_ZN4core9ub_checks17is_nonoverlapping7runtime17hd0dcb1bd2fd68f20E+0x7a>
 80013b6:	9802      	ldr	r0, [sp, #8]
 80013b8:	9901      	ldr	r1, [sp, #4]
 80013ba:	1a40      	subs	r0, r0, r1
 80013bc:	9006      	str	r0, [sp, #24]
 80013be:	e7ff      	b.n	80013c0 <_ZN4core9ub_checks17is_nonoverlapping7runtime17hd0dcb1bd2fd68f20E+0x7a>
 80013c0:	9a00      	ldr	r2, [sp, #0]
 80013c2:	9906      	ldr	r1, [sp, #24]
 80013c4:	2000      	movs	r0, #0
 80013c6:	4291      	cmp	r1, r2
 80013c8:	bf28      	it	cs
 80013ca:	2001      	movcs	r0, #1
 80013cc:	b012      	add	sp, #72	; 0x48
 80013ce:	bd80      	pop	{r7, pc}

080013d0 <_ZN7stm32f49stm32f40111Peripherals4take28_$u7b$$u7b$closure$u7d$$u7d$17hb4628e90c7815124E>:
 80013d0:	b580      	push	{r7, lr}
 80013d2:	466f      	mov	r7, sp
 80013d4:	b082      	sub	sp, #8
 80013d6:	9001      	str	r0, [sp, #4]
 80013d8:	f643 50ac 	movw	r0, #15788	; 0x3dac
 80013dc:	f2c2 0000 	movt	r0, #8192	; 0x2000
 80013e0:	7800      	ldrb	r0, [r0, #0]
 80013e2:	07c0      	lsls	r0, r0, #31
 80013e4:	b930      	cbnz	r0, 80013f4 <_ZN7stm32f49stm32f40111Peripherals4take28_$u7b$$u7b$closure$u7d$$u7d$17hb4628e90c7815124E+0x24>
 80013e6:	e7ff      	b.n	80013e8 <_ZN7stm32f49stm32f40111Peripherals4take28_$u7b$$u7b$closure$u7d$$u7d$17hb4628e90c7815124E+0x18>
 80013e8:	f7ff fe23 	bl	8001032 <_ZN7stm32f49stm32f40111Peripherals5steal17h205b901a632fcd49E>
 80013ec:	2001      	movs	r0, #1
 80013ee:	f807 0c06 	strb.w	r0, [r7, #-6]
 80013f2:	e003      	b.n	80013fc <_ZN7stm32f49stm32f40111Peripherals4take28_$u7b$$u7b$closure$u7d$$u7d$17hb4628e90c7815124E+0x2c>
 80013f4:	2000      	movs	r0, #0
 80013f6:	f807 0c06 	strb.w	r0, [r7, #-6]
 80013fa:	e7ff      	b.n	80013fc <_ZN7stm32f49stm32f40111Peripherals4take28_$u7b$$u7b$closure$u7d$$u7d$17hb4628e90c7815124E+0x2c>
 80013fc:	f817 0c06 	ldrb.w	r0, [r7, #-6]
 8001400:	f000 0001 	and.w	r0, r0, #1
 8001404:	b002      	add	sp, #8
 8001406:	bd80      	pop	{r7, pc}

08001408 <_ZN4core3ptr13read_volatile18precondition_check17h4963e1a49c4c488fE>:
 8001408:	b580      	push	{r7, lr}
 800140a:	466f      	mov	r7, sp
 800140c:	b090      	sub	sp, #64	; 0x40
 800140e:	9101      	str	r1, [sp, #4]
 8001410:	9002      	str	r0, [sp, #8]
 8001412:	4613      	mov	r3, r2
 8001414:	9303      	str	r3, [sp, #12]
 8001416:	900a      	str	r0, [sp, #40]	; 0x28
 8001418:	910b      	str	r1, [sp, #44]	; 0x2c
 800141a:	f807 2c0d 	strb.w	r2, [r7, #-13]
 800141e:	f649 40e0 	movw	r0, #40160	; 0x9ce0
 8001422:	f6c0 0000 	movt	r0, #2048	; 0x800
 8001426:	900d      	str	r0, [sp, #52]	; 0x34
 8001428:	f04f 3055 	mov.w	r0, #1431655765	; 0x55555555
 800142c:	ea00 0051 	and.w	r0, r0, r1, lsr #1
 8001430:	1a08      	subs	r0, r1, r0
 8001432:	f04f 3133 	mov.w	r1, #858993459	; 0x33333333
 8001436:	ea01 0190 	and.w	r1, r1, r0, lsr #2
 800143a:	f020 30cc 	bic.w	r0, r0, #3435973836	; 0xcccccccc
 800143e:	4408      	add	r0, r1
 8001440:	eb00 1010 	add.w	r0, r0, r0, lsr #4
 8001444:	f020 30f0 	bic.w	r0, r0, #4042322160	; 0xf0f0f0f0
 8001448:	f04f 3101 	mov.w	r1, #16843009	; 0x1010101
 800144c:	4348      	muls	r0, r1
 800144e:	0e00      	lsrs	r0, r0, #24
 8001450:	900e      	str	r0, [sp, #56]	; 0x38
 8001452:	980e      	ldr	r0, [sp, #56]	; 0x38
 8001454:	2801      	cmp	r0, #1
 8001456:	d108      	bne.n	800146a <_ZN4core3ptr13read_volatile18precondition_check17h4963e1a49c4c488fE+0x62>
 8001458:	e7ff      	b.n	800145a <_ZN4core3ptr13read_volatile18precondition_check17h4963e1a49c4c488fE+0x52>
 800145a:	9802      	ldr	r0, [sp, #8]
 800145c:	9901      	ldr	r1, [sp, #4]
 800145e:	4602      	mov	r2, r0
 8001460:	9200      	str	r2, [sp, #0]
 8001462:	3901      	subs	r1, #1
 8001464:	4208      	tst	r0, r1
 8001466:	d01a      	beq.n	800149e <_ZN4core3ptr13read_volatile18precondition_check17h4963e1a49c4c488fE+0x96>
 8001468:	e01d      	b.n	80014a6 <_ZN4core3ptr13read_volatile18precondition_check17h4963e1a49c4c488fE+0x9e>
 800146a:	f649 40e0 	movw	r0, #40160	; 0x9ce0
 800146e:	f6c0 0000 	movt	r0, #2048	; 0x800
 8001472:	9004      	str	r0, [sp, #16]
 8001474:	2001      	movs	r0, #1
 8001476:	9005      	str	r0, [sp, #20]
 8001478:	f249 5038 	movw	r0, #38200	; 0x9538
 800147c:	f6c0 0000 	movt	r0, #2048	; 0x800
 8001480:	6801      	ldr	r1, [r0, #0]
 8001482:	6840      	ldr	r0, [r0, #4]
 8001484:	9108      	str	r1, [sp, #32]
 8001486:	9009      	str	r0, [sp, #36]	; 0x24
 8001488:	2004      	movs	r0, #4
 800148a:	9006      	str	r0, [sp, #24]
 800148c:	2000      	movs	r0, #0
 800148e:	9007      	str	r0, [sp, #28]
 8001490:	f649 51d0 	movw	r1, #40400	; 0x9dd0
 8001494:	f6c0 0100 	movt	r1, #2048	; 0x800
 8001498:	a804      	add	r0, sp, #16
 800149a:	f005 ff26 	bl	80072ea <_ZN4core9panicking9panic_fmt17h9bd7242b2f9f3cdaE>
 800149e:	9803      	ldr	r0, [sp, #12]
 80014a0:	07c0      	lsls	r0, r0, #31
 80014a2:	b930      	cbnz	r0, 80014b2 <_ZN4core3ptr13read_volatile18precondition_check17h4963e1a49c4c488fE+0xaa>
 80014a4:	e000      	b.n	80014a8 <_ZN4core3ptr13read_volatile18precondition_check17h4963e1a49c4c488fE+0xa0>
 80014a6:	e005      	b.n	80014b4 <_ZN4core3ptr13read_volatile18precondition_check17h4963e1a49c4c488fE+0xac>
 80014a8:	9800      	ldr	r0, [sp, #0]
 80014aa:	9902      	ldr	r1, [sp, #8]
 80014ac:	910f      	str	r1, [sp, #60]	; 0x3c
 80014ae:	b940      	cbnz	r0, 80014c2 <_ZN4core3ptr13read_volatile18precondition_check17h4963e1a49c4c488fE+0xba>
 80014b0:	e000      	b.n	80014b4 <_ZN4core3ptr13read_volatile18precondition_check17h4963e1a49c4c488fE+0xac>
 80014b2:	e006      	b.n	80014c2 <_ZN4core3ptr13read_volatile18precondition_check17h4963e1a49c4c488fE+0xba>
 80014b4:	f649 40e8 	movw	r0, #40168	; 0x9ce8
 80014b8:	f6c0 0000 	movt	r0, #2048	; 0x800
 80014bc:	216e      	movs	r1, #110	; 0x6e
 80014be:	f005 ff46 	bl	800734e <_ZN4core9panicking14panic_nounwind17ha7168a7a4498f4fbE>
 80014c2:	b010      	add	sp, #64	; 0x40
 80014c4:	bd80      	pop	{r7, pc}
 80014c6:	d4d4      	bmi.n	8001472 <_ZN4core3ptr13read_volatile18precondition_check17h4963e1a49c4c488fE+0x6a>

080014c8 <_ZN4core4sync6atomic14compiler_fence17h73af8730b5d411e1E>:
 80014c8:	b580      	push	{r7, lr}
 80014ca:	466f      	mov	r7, sp
 80014cc:	b08a      	sub	sp, #40	; 0x28
 80014ce:	f807 0c1d 	strb.w	r0, [r7, #-29]
 80014d2:	f649 6014 	movw	r0, #40468	; 0x9e14
 80014d6:	f6c0 0000 	movt	r0, #2048	; 0x800
 80014da:	9009      	str	r0, [sp, #36]	; 0x24
 80014dc:	f817 0c1d 	ldrb.w	r0, [r7, #-29]
 80014e0:	9001      	str	r0, [sp, #4]
 80014e2:	9901      	ldr	r1, [sp, #4]
 80014e4:	e8df f001 	tbb	[pc, r1]
 80014e8:	201f1e04 	.word	0x201f1e04
 80014ec:	0021      	.short	0x0021
 80014ee:	defe      	udf	#254	; 0xfe
 80014f0:	f649 6014 	movw	r0, #40468	; 0x9e14
 80014f4:	f6c0 0000 	movt	r0, #2048	; 0x800
 80014f8:	9003      	str	r0, [sp, #12]
 80014fa:	2001      	movs	r0, #1
 80014fc:	9004      	str	r0, [sp, #16]
 80014fe:	f249 5038 	movw	r0, #38200	; 0x9538
 8001502:	f6c0 0000 	movt	r0, #2048	; 0x800
 8001506:	6801      	ldr	r1, [r0, #0]
 8001508:	6840      	ldr	r0, [r0, #4]
 800150a:	9107      	str	r1, [sp, #28]
 800150c:	9008      	str	r0, [sp, #32]
 800150e:	2004      	movs	r0, #4
 8001510:	9005      	str	r0, [sp, #20]
 8001512:	2000      	movs	r0, #0
 8001514:	9006      	str	r0, [sp, #24]
 8001516:	f649 6194 	movw	r1, #40596	; 0x9e94
 800151a:	f6c0 0100 	movt	r1, #2048	; 0x800
 800151e:	a803      	add	r0, sp, #12
 8001520:	f005 fee3 	bl	80072ea <_ZN4core9panicking9panic_fmt17h9bd7242b2f9f3cdaE>
 8001524:	e002      	b.n	800152c <_ZN4core4sync6atomic14compiler_fence17h73af8730b5d411e1E+0x64>
 8001526:	e001      	b.n	800152c <_ZN4core4sync6atomic14compiler_fence17h73af8730b5d411e1E+0x64>
 8001528:	e000      	b.n	800152c <_ZN4core4sync6atomic14compiler_fence17h73af8730b5d411e1E+0x64>
 800152a:	e7ff      	b.n	800152c <_ZN4core4sync6atomic14compiler_fence17h73af8730b5d411e1E+0x64>
 800152c:	b00a      	add	sp, #40	; 0x28
 800152e:	bd80      	pop	{r7, pc}

08001530 <_ZN8cortex_m9interrupt4free17h9715c56e0f6e370cE>:
 8001530:	b580      	push	{r7, lr}
 8001532:	466f      	mov	r7, sp
 8001534:	b084      	sub	sp, #16
 8001536:	f7ff fb5f 	bl	8000bf8 <_ZN8cortex_m8register7primask4read17ha4c2f2ed71c07280E>
 800153a:	9001      	str	r0, [sp, #4]
 800153c:	f807 0c02 	strb.w	r0, [r7, #-2]
 8001540:	f000 faff 	bl	8001b42 <_ZN8cortex_m9interrupt7disable17hb7494494f0860066E>
 8001544:	f005 fcd6 	bl	8006ef4 <_ZN10bare_metal15CriticalSection3new17h1e47e708cc669354E>
 8001548:	a803      	add	r0, sp, #12
 800154a:	f7ff ff41 	bl	80013d0 <_ZN7stm32f49stm32f40111Peripherals4take28_$u7b$$u7b$closure$u7d$$u7d$17hb4628e90c7815124E>
 800154e:	4601      	mov	r1, r0
 8001550:	9801      	ldr	r0, [sp, #4]
 8001552:	460a      	mov	r2, r1
 8001554:	9202      	str	r2, [sp, #8]
 8001556:	f807 1c01 	strb.w	r1, [r7, #-1]
 800155a:	f7ff fb66 	bl	8000c2a <_ZN8cortex_m8register7primask7Primask9is_active17hb761c6b432b02ba3E>
 800155e:	b928      	cbnz	r0, 800156c <_ZN8cortex_m9interrupt4free17h9715c56e0f6e370cE+0x3c>
 8001560:	e7ff      	b.n	8001562 <_ZN8cortex_m9interrupt4free17h9715c56e0f6e370cE+0x32>
 8001562:	9802      	ldr	r0, [sp, #8]
 8001564:	f000 0001 	and.w	r0, r0, #1
 8001568:	b004      	add	sp, #16
 800156a:	bd80      	pop	{r7, pc}
 800156c:	f000 fae4 	bl	8001b38 <_ZN8cortex_m9interrupt6enable17h61d2f63e4fb1e3b3E>
 8001570:	e7f7      	b.n	8001562 <_ZN8cortex_m9interrupt4free17h9715c56e0f6e370cE+0x32>

08001572 <_ZN22stm32_cortex_m4_f401re14setup_hardware17h6322972d0839d01fE>:
 8001572:	b580      	push	{r7, lr}
 8001574:	466f      	mov	r7, sp
 8001576:	b0f2      	sub	sp, #456	; 0x1c8
 8001578:	f7ff fd56 	bl	8001028 <_ZN7stm32f49stm32f40111Peripherals4take17h525c16e5f29fdbf3E>
 800157c:	f88d 006f 	strb.w	r0, [sp, #111]	; 0x6f
 8001580:	f89d 006f 	ldrb.w	r0, [sp, #111]	; 0x6f
 8001584:	07c0      	lsls	r0, r0, #31
 8001586:	b930      	cbnz	r0, 8001596 <_ZN22stm32_cortex_m4_f401re14setup_hardware17h6322972d0839d01fE+0x24>
 8001588:	e7ff      	b.n	800158a <_ZN22stm32_cortex_m4_f401re14setup_hardware17h6322972d0839d01fE+0x18>
 800158a:	f649 7028 	movw	r0, #40744	; 0x9f28
 800158e:	f6c0 0000 	movt	r0, #2048	; 0x800
 8001592:	f005 fe84 	bl	800729e <_ZN4core6option13unwrap_failed17he8f5396282508463E>
 8001596:	f10d 0042 	add.w	r0, sp, #66	; 0x42
 800159a:	900b      	str	r0, [sp, #44]	; 0x2c
 800159c:	9025      	str	r0, [sp, #148]	; 0x94
 800159e:	f643 0000 	movw	r0, #14336	; 0x3800
 80015a2:	f2c4 0002 	movt	r0, #16386	; 0x4002
 80015a6:	9004      	str	r0, [sp, #16]
 80015a8:	9035      	str	r0, [sp, #212]	; 0xd4
 80015aa:	9037      	str	r0, [sp, #220]	; 0xdc
 80015ac:	9038      	str	r0, [sp, #224]	; 0xe0
 80015ae:	f005 fbb2 	bl	8006d16 <_ZN4core3ptr13read_volatile17h9bc3363220c5f51bE>
 80015b2:	9036      	str	r0, [sp, #216]	; 0xd8
 80015b4:	9033      	str	r0, [sp, #204]	; 0xcc
 80015b6:	9034      	str	r0, [sp, #208]	; 0xd0
 80015b8:	a833      	add	r0, sp, #204	; 0xcc
 80015ba:	a934      	add	r1, sp, #208	; 0xd0
 80015bc:	f7ff f85a 	bl	8000674 <_ZN22stm32_cortex_m4_f401re14setup_hardware28_$u7b$$u7b$closure$u7d$$u7d$17h0d889faa55db53fbE>
 80015c0:	4601      	mov	r1, r0
 80015c2:	9804      	ldr	r0, [sp, #16]
 80015c4:	6809      	ldr	r1, [r1, #0]
 80015c6:	9039      	str	r0, [sp, #228]	; 0xe4
 80015c8:	913a      	str	r1, [sp, #232]	; 0xe8
 80015ca:	903b      	str	r0, [sp, #236]	; 0xec
 80015cc:	f005 fa62 	bl	8006a94 <_ZN4core3ptr14write_volatile17hd6de69c464e82e6cE>
 80015d0:	980b      	ldr	r0, [sp, #44]	; 0x2c
 80015d2:	9024      	str	r0, [sp, #144]	; 0x90
 80015d4:	f643 0008 	movw	r0, #14344	; 0x3808
 80015d8:	f2c4 0002 	movt	r0, #16386	; 0x4002
 80015dc:	9005      	str	r0, [sp, #20]
 80015de:	9059      	str	r0, [sp, #356]	; 0x164
 80015e0:	905b      	str	r0, [sp, #364]	; 0x16c
 80015e2:	905c      	str	r0, [sp, #368]	; 0x170
 80015e4:	f005 fb97 	bl	8006d16 <_ZN4core3ptr13read_volatile17h9bc3363220c5f51bE>
 80015e8:	905a      	str	r0, [sp, #360]	; 0x168
 80015ea:	9057      	str	r0, [sp, #348]	; 0x15c
 80015ec:	9058      	str	r0, [sp, #352]	; 0x160
 80015ee:	a857      	add	r0, sp, #348	; 0x15c
 80015f0:	a958      	add	r1, sp, #352	; 0x160
 80015f2:	f7ff f850 	bl	8000696 <_ZN22stm32_cortex_m4_f401re14setup_hardware28_$u7b$$u7b$closure$u7d$$u7d$17ha86ca7ec55373c5aE>
 80015f6:	4601      	mov	r1, r0
 80015f8:	9805      	ldr	r0, [sp, #20]
 80015fa:	6809      	ldr	r1, [r1, #0]
 80015fc:	905d      	str	r0, [sp, #372]	; 0x174
 80015fe:	915e      	str	r1, [sp, #376]	; 0x178
 8001600:	905f      	str	r0, [sp, #380]	; 0x17c
 8001602:	f005 fa47 	bl	8006a94 <_ZN4core3ptr14write_volatile17hd6de69c464e82e6cE>
 8001606:	980b      	ldr	r0, [sp, #44]	; 0x2c
 8001608:	9023      	str	r0, [sp, #140]	; 0x8c
 800160a:	f643 0030 	movw	r0, #14384	; 0x3830
 800160e:	f2c4 0002 	movt	r0, #16386	; 0x4002
 8001612:	9006      	str	r0, [sp, #24]
 8001614:	903e      	str	r0, [sp, #248]	; 0xf8
 8001616:	9040      	str	r0, [sp, #256]	; 0x100
 8001618:	9041      	str	r0, [sp, #260]	; 0x104
 800161a:	f005 fb7c 	bl	8006d16 <_ZN4core3ptr13read_volatile17h9bc3363220c5f51bE>
 800161e:	903f      	str	r0, [sp, #252]	; 0xfc
 8001620:	903c      	str	r0, [sp, #240]	; 0xf0
 8001622:	903d      	str	r0, [sp, #244]	; 0xf4
 8001624:	a83c      	add	r0, sp, #240	; 0xf0
 8001626:	a93d      	add	r1, sp, #244	; 0xf4
 8001628:	f7ff f858 	bl	80006dc <_ZN22stm32_cortex_m4_f401re14setup_hardware28_$u7b$$u7b$closure$u7d$$u7d$17h3a2a4525b70388cbE>
 800162c:	4601      	mov	r1, r0
 800162e:	9806      	ldr	r0, [sp, #24]
 8001630:	6809      	ldr	r1, [r1, #0]
 8001632:	9042      	str	r0, [sp, #264]	; 0x108
 8001634:	9143      	str	r1, [sp, #268]	; 0x10c
 8001636:	9044      	str	r0, [sp, #272]	; 0x110
 8001638:	f005 fa2c 	bl	8006a94 <_ZN4core3ptr14write_volatile17hd6de69c464e82e6cE>
 800163c:	980b      	ldr	r0, [sp, #44]	; 0x2c
 800163e:	9022      	str	r0, [sp, #136]	; 0x88
 8001640:	f643 0044 	movw	r0, #14404	; 0x3844
 8001644:	f2c4 0002 	movt	r0, #16386	; 0x4002
 8001648:	9007      	str	r0, [sp, #28]
 800164a:	9047      	str	r0, [sp, #284]	; 0x11c
 800164c:	9049      	str	r0, [sp, #292]	; 0x124
 800164e:	904a      	str	r0, [sp, #296]	; 0x128
 8001650:	f005 fb61 	bl	8006d16 <_ZN4core3ptr13read_volatile17h9bc3363220c5f51bE>
 8001654:	9048      	str	r0, [sp, #288]	; 0x120
 8001656:	9045      	str	r0, [sp, #276]	; 0x114
 8001658:	9046      	str	r0, [sp, #280]	; 0x118
 800165a:	a845      	add	r0, sp, #276	; 0x114
 800165c:	a946      	add	r1, sp, #280	; 0x118
 800165e:	f7ff f884 	bl	800076a <_ZN22stm32_cortex_m4_f401re14setup_hardware28_$u7b$$u7b$closure$u7d$$u7d$17h0716f431d4ddcfaaE>
 8001662:	4601      	mov	r1, r0
 8001664:	9807      	ldr	r0, [sp, #28]
 8001666:	6809      	ldr	r1, [r1, #0]
 8001668:	904b      	str	r0, [sp, #300]	; 0x12c
 800166a:	914c      	str	r1, [sp, #304]	; 0x130
 800166c:	904d      	str	r0, [sp, #308]	; 0x134
 800166e:	f005 fa11 	bl	8006a94 <_ZN4core3ptr14write_volatile17hd6de69c464e82e6cE>
 8001672:	f003 fa75 	bl	8004b60 <_ZN13stm32f4xx_hal4gpio5gpioa84_$LT$impl$u20$stm32f4xx_hal..gpio..GpioExt$u20$for$u20$stm32f4..stm32f401..GPIOA$GT$5split17h849fa236ce594f6bE>
 8001676:	f7ff fd5e 	bl	8001136 <_ZN13stm32f4xx_hal4gpio5gpioa15PA5$LT$MODE$GT$21into_push_pull_output17hd67b22113e931f26E>
 800167a:	f003 fa94 	bl	8004ba6 <_ZN13stm32f4xx_hal4gpio5gpioc84_$LT$impl$u20$stm32f4xx_hal..gpio..GpioExt$u20$for$u20$stm32f4..stm32f401..GPIOC$GT$5split17h1a97a5526dff3ff9E>
 800167e:	f7ff fc1e 	bl	8000ebe <_ZN13stm32f4xx_hal4gpio5gpioc16PC13$LT$MODE$GT$18into_pull_up_input17h63ab878e4ee1ada1E>
 8001682:	980b      	ldr	r0, [sp, #44]	; 0x2c
 8001684:	9029      	str	r0, [sp, #164]	; 0xa4
 8001686:	f643 0014 	movw	r0, #14356	; 0x3814
 800168a:	f2c4 0001 	movt	r0, #16385	; 0x4001
 800168e:	9008      	str	r0, [sp, #32]
 8001690:	906b      	str	r0, [sp, #428]	; 0x1ac
 8001692:	906d      	str	r0, [sp, #436]	; 0x1b4
 8001694:	906e      	str	r0, [sp, #440]	; 0x1b8
 8001696:	f005 fb3e 	bl	8006d16 <_ZN4core3ptr13read_volatile17h9bc3363220c5f51bE>
 800169a:	906c      	str	r0, [sp, #432]	; 0x1b0
 800169c:	9069      	str	r0, [sp, #420]	; 0x1a4
 800169e:	906a      	str	r0, [sp, #424]	; 0x1a8
 80016a0:	a869      	add	r0, sp, #420	; 0x1a4
 80016a2:	a96a      	add	r1, sp, #424	; 0x1a8
 80016a4:	f7ff f888 	bl	80007b8 <_ZN22stm32_cortex_m4_f401re14setup_hardware28_$u7b$$u7b$closure$u7d$$u7d$17h15b21cdf0ec32fbfE>
 80016a8:	4601      	mov	r1, r0
 80016aa:	9808      	ldr	r0, [sp, #32]
 80016ac:	6809      	ldr	r1, [r1, #0]
 80016ae:	906f      	str	r0, [sp, #444]	; 0x1bc
 80016b0:	9170      	str	r1, [sp, #448]	; 0x1c0
 80016b2:	9071      	str	r0, [sp, #452]	; 0x1c4
 80016b4:	f005 f9ee 	bl	8006a94 <_ZN4core3ptr14write_volatile17hd6de69c464e82e6cE>
 80016b8:	980b      	ldr	r0, [sp, #44]	; 0x2c
 80016ba:	9028      	str	r0, [sp, #160]	; 0xa0
 80016bc:	f643 400c 	movw	r0, #15372	; 0x3c0c
 80016c0:	f2c4 0001 	movt	r0, #16385	; 0x4001
 80016c4:	9009      	str	r0, [sp, #36]	; 0x24
 80016c6:	9062      	str	r0, [sp, #392]	; 0x188
 80016c8:	9064      	str	r0, [sp, #400]	; 0x190
 80016ca:	9065      	str	r0, [sp, #404]	; 0x194
 80016cc:	f005 fb23 	bl	8006d16 <_ZN4core3ptr13read_volatile17h9bc3363220c5f51bE>
 80016d0:	9063      	str	r0, [sp, #396]	; 0x18c
 80016d2:	9060      	str	r0, [sp, #384]	; 0x180
 80016d4:	9061      	str	r0, [sp, #388]	; 0x184
 80016d6:	a860      	add	r0, sp, #384	; 0x180
 80016d8:	a961      	add	r1, sp, #388	; 0x184
 80016da:	f7ff f87d 	bl	80007d8 <_ZN22stm32_cortex_m4_f401re14setup_hardware28_$u7b$$u7b$closure$u7d$$u7d$17hc4fd8c3631beae73E>
 80016de:	4601      	mov	r1, r0
 80016e0:	9809      	ldr	r0, [sp, #36]	; 0x24
 80016e2:	6809      	ldr	r1, [r1, #0]
 80016e4:	9066      	str	r0, [sp, #408]	; 0x198
 80016e6:	9167      	str	r1, [sp, #412]	; 0x19c
 80016e8:	9068      	str	r0, [sp, #416]	; 0x1a0
 80016ea:	f005 f9d3 	bl	8006a94 <_ZN4core3ptr14write_volatile17hd6de69c464e82e6cE>
 80016ee:	980b      	ldr	r0, [sp, #44]	; 0x2c
 80016f0:	9027      	str	r0, [sp, #156]	; 0x9c
 80016f2:	f643 4008 	movw	r0, #15368	; 0x3c08
 80016f6:	f2c4 0001 	movt	r0, #16385	; 0x4001
 80016fa:	900a      	str	r0, [sp, #40]	; 0x28
 80016fc:	9050      	str	r0, [sp, #320]	; 0x140
 80016fe:	9052      	str	r0, [sp, #328]	; 0x148
 8001700:	9053      	str	r0, [sp, #332]	; 0x14c
 8001702:	f005 fb08 	bl	8006d16 <_ZN4core3ptr13read_volatile17h9bc3363220c5f51bE>
 8001706:	9051      	str	r0, [sp, #324]	; 0x144
 8001708:	904e      	str	r0, [sp, #312]	; 0x138
 800170a:	904f      	str	r0, [sp, #316]	; 0x13c
 800170c:	a84e      	add	r0, sp, #312	; 0x138
 800170e:	a94f      	add	r1, sp, #316	; 0x13c
 8001710:	f7ff f873 	bl	80007fa <_ZN22stm32_cortex_m4_f401re14setup_hardware28_$u7b$$u7b$closure$u7d$$u7d$17hf8cc8906d4fc1170E>
 8001714:	4601      	mov	r1, r0
 8001716:	980a      	ldr	r0, [sp, #40]	; 0x28
 8001718:	6809      	ldr	r1, [r1, #0]
 800171a:	9054      	str	r0, [sp, #336]	; 0x150
 800171c:	9155      	str	r1, [sp, #340]	; 0x154
 800171e:	9056      	str	r0, [sp, #344]	; 0x158
 8001720:	f005 f9b8 	bl	8006a94 <_ZN4core3ptr14write_volatile17hd6de69c464e82e6cE>
 8001724:	980b      	ldr	r0, [sp, #44]	; 0x2c
 8001726:	9026      	str	r0, [sp, #152]	; 0x98
 8001728:	f643 4000 	movw	r0, #15360	; 0x3c00
 800172c:	f2c4 0001 	movt	r0, #16385	; 0x4001
 8001730:	900c      	str	r0, [sp, #48]	; 0x30
 8001732:	902c      	str	r0, [sp, #176]	; 0xb0
 8001734:	902e      	str	r0, [sp, #184]	; 0xb8
 8001736:	902f      	str	r0, [sp, #188]	; 0xbc
 8001738:	f005 faed 	bl	8006d16 <_ZN4core3ptr13read_volatile17h9bc3363220c5f51bE>
 800173c:	902d      	str	r0, [sp, #180]	; 0xb4
 800173e:	902a      	str	r0, [sp, #168]	; 0xa8
 8001740:	902b      	str	r0, [sp, #172]	; 0xac
 8001742:	a82a      	add	r0, sp, #168	; 0xa8
 8001744:	a92b      	add	r1, sp, #172	; 0xac
 8001746:	f7ff f869 	bl	800081c <_ZN22stm32_cortex_m4_f401re14setup_hardware28_$u7b$$u7b$closure$u7d$$u7d$17h2a3f171c243a0376E>
 800174a:	4601      	mov	r1, r0
 800174c:	980c      	ldr	r0, [sp, #48]	; 0x30
 800174e:	6809      	ldr	r1, [r1, #0]
 8001750:	9030      	str	r0, [sp, #192]	; 0xc0
 8001752:	9131      	str	r1, [sp, #196]	; 0xc4
 8001754:	9032      	str	r0, [sp, #200]	; 0xc8
 8001756:	f005 f99d 	bl	8006a94 <_ZN4core3ptr14write_volatile17hd6de69c464e82e6cE>
 800175a:	f24e 1000 	movw	r0, #57600	; 0xe100
 800175e:	f2ce 0000 	movt	r0, #57344	; 0xe000
 8001762:	9012      	str	r0, [sp, #72]	; 0x48
 8001764:	2050      	movs	r0, #80	; 0x50
 8001766:	f88d 004f 	strb.w	r0, [sp, #79]	; 0x4f
 800176a:	2028      	movs	r0, #40	; 0x28
 800176c:	900d      	str	r0, [sp, #52]	; 0x34
 800176e:	2000      	movs	r0, #0
 8001770:	b948      	cbnz	r0, 8001786 <_ZN22stm32_cortex_m4_f401re14setup_hardware17h6322972d0839d01fE+0x214>
 8001772:	e7ff      	b.n	8001774 <_ZN22stm32_cortex_m4_f401re14setup_hardware17h6322972d0839d01fE+0x202>
 8001774:	980d      	ldr	r0, [sp, #52]	; 0x34
 8001776:	b2c0      	uxtb	r0, r0
 8001778:	4601      	mov	r1, r0
 800177a:	9103      	str	r1, [sp, #12]
 800177c:	9014      	str	r0, [sp, #80]	; 0x50
 800177e:	f5b0 7ff8 	cmp.w	r0, #496	; 0x1f0
 8001782:	d306      	bcc.n	8001792 <_ZN22stm32_cortex_m4_f401re14setup_hardware17h6322972d0839d01fE+0x220>
 8001784:	e021      	b.n	80017ca <_ZN22stm32_cortex_m4_f401re14setup_hardware17h6322972d0839d01fE+0x258>
 8001786:	f649 7038 	movw	r0, #40760	; 0x9f38
 800178a:	f6c0 0000 	movt	r0, #2048	; 0x800
 800178e:	f007 f89c 	bl	80088ca <_ZN4core9panicking11panic_const24panic_const_add_overflow17h8e8a2d960805aa64E>
 8001792:	9803      	ldr	r0, [sp, #12]
 8001794:	f24e 4100 	movw	r1, #58368	; 0xe400
 8001798:	f2ce 0100 	movt	r1, #57344	; 0xe000
 800179c:	4408      	add	r0, r1
 800179e:	9017      	str	r0, [sp, #92]	; 0x5c
 80017a0:	2150      	movs	r1, #80	; 0x50
 80017a2:	f88d 1063 	strb.w	r1, [sp, #99]	; 0x63
 80017a6:	901f      	str	r0, [sp, #124]	; 0x7c
 80017a8:	f88d 1083 	strb.w	r1, [sp, #131]	; 0x83
 80017ac:	9021      	str	r0, [sp, #132]	; 0x84
 80017ae:	f005 fb23 	bl	8006df8 <_ZN4core3ptr14write_volatile17h95f0c23d25d35e43E>
 80017b2:	9803      	ldr	r0, [sp, #12]
 80017b4:	0941      	lsrs	r1, r0, #5
 80017b6:	460a      	mov	r2, r1
 80017b8:	9201      	str	r2, [sp, #4]
 80017ba:	9115      	str	r1, [sp, #84]	; 0x54
 80017bc:	f000 001f 	and.w	r0, r0, #31
 80017c0:	4601      	mov	r1, r0
 80017c2:	9102      	str	r1, [sp, #8]
 80017c4:	2820      	cmp	r0, #32
 80017c6:	d309      	bcc.n	80017dc <_ZN22stm32_cortex_m4_f401re14setup_hardware17h6322972d0839d01fE+0x26a>
 80017c8:	e014      	b.n	80017f4 <_ZN22stm32_cortex_m4_f401re14setup_hardware17h6322972d0839d01fE+0x282>
 80017ca:	9803      	ldr	r0, [sp, #12]
 80017cc:	f649 7248 	movw	r2, #40776	; 0x9f48
 80017d0:	f6c0 0200 	movt	r2, #2048	; 0x800
 80017d4:	f44f 71f8 	mov.w	r1, #496	; 0x1f0
 80017d8:	f005 fdd0 	bl	800737c <_ZN4core9panicking18panic_bounds_check17h533996232d7df350E>
 80017dc:	9801      	ldr	r0, [sp, #4]
 80017de:	9902      	ldr	r1, [sp, #8]
 80017e0:	f001 021f 	and.w	r2, r1, #31
 80017e4:	2101      	movs	r1, #1
 80017e6:	4091      	lsls	r1, r2
 80017e8:	460a      	mov	r2, r1
 80017ea:	9200      	str	r2, [sp, #0]
 80017ec:	9116      	str	r1, [sp, #88]	; 0x58
 80017ee:	2810      	cmp	r0, #16
 80017f0:	d306      	bcc.n	8001800 <_ZN22stm32_cortex_m4_f401re14setup_hardware17h6322972d0839d01fE+0x28e>
 80017f2:	e01c      	b.n	800182e <_ZN22stm32_cortex_m4_f401re14setup_hardware17h6322972d0839d01fE+0x2bc>
 80017f4:	f649 7058 	movw	r0, #40792	; 0x9f58
 80017f8:	f6c0 0000 	movt	r0, #2048	; 0x800
 80017fc:	f007 f89e 	bl	800893c <_ZN4core9panicking11panic_const24panic_const_shl_overflow17h7d1dfb79ee113705E>
 8001800:	9900      	ldr	r1, [sp, #0]
 8001802:	9a01      	ldr	r2, [sp, #4]
 8001804:	f24e 1000 	movw	r0, #57600	; 0xe100
 8001808:	f2ce 0000 	movt	r0, #57344	; 0xe000
 800180c:	eb00 0082 	add.w	r0, r0, r2, lsl #2
 8001810:	9019      	str	r0, [sp, #100]	; 0x64
 8001812:	911a      	str	r1, [sp, #104]	; 0x68
 8001814:	901c      	str	r0, [sp, #112]	; 0x70
 8001816:	911d      	str	r1, [sp, #116]	; 0x74
 8001818:	901e      	str	r0, [sp, #120]	; 0x78
 800181a:	f005 f93b 	bl	8006a94 <_ZN4core3ptr14write_volatile17hd6de69c464e82e6cE>
 800181e:	f7fe ff26 	bl	800066e <_ZN22stm32_cortex_m4_f401re28MyDevice$LT$Button$C$LED$GT$3new17hbb1a86142ec8d342E>
 8001822:	2000      	movs	r0, #0
 8001824:	900e      	str	r0, [sp, #56]	; 0x38
 8001826:	980e      	ldr	r0, [sp, #56]	; 0x38
 8001828:	990f      	ldr	r1, [sp, #60]	; 0x3c
 800182a:	b072      	add	sp, #456	; 0x1c8
 800182c:	bd80      	pop	{r7, pc}
 800182e:	9801      	ldr	r0, [sp, #4]
 8001830:	f649 7268 	movw	r2, #40808	; 0x9f68
 8001834:	f6c0 0200 	movt	r2, #2048	; 0x800
 8001838:	2110      	movs	r1, #16
 800183a:	f005 fd9f 	bl	800737c <_ZN4core9panicking18panic_bounds_check17h533996232d7df350E>

0800183e <vApplicationStackOverflowHook>:
 800183e:	b580      	push	{r7, lr}
 8001840:	466f      	mov	r7, sp
 8001842:	b082      	sub	sp, #8
 8001844:	9000      	str	r0, [sp, #0]
 8001846:	9101      	str	r1, [sp, #4]
 8001848:	f005 fb4b 	bl	8006ee2 <__bkpt>
 800184c:	b002      	add	sp, #8
 800184e:	bd80      	pop	{r7, pc}

08001850 <__rust_alloc>:
 8001850:	b580      	push	{r7, lr}
 8001852:	466f      	mov	r7, sp
 8001854:	b084      	sub	sp, #16
 8001856:	9002      	str	r0, [sp, #8]
 8001858:	9103      	str	r1, [sp, #12]
 800185a:	f7ff f9f4 	bl	8000c46 <_ZN4core5alloc6layout6Layout25from_size_align_unchecked17he772e0b6996aba40E>
 800185e:	9001      	str	r0, [sp, #4]
 8001860:	460a      	mov	r2, r1
 8001862:	9901      	ldr	r1, [sp, #4]
 8001864:	f649 7078 	movw	r0, #40824	; 0x9f78
 8001868:	f6c0 0000 	movt	r0, #2048	; 0x800
 800186c:	f003 feba 	bl	80055e4 <_ZN96_$LT$freertos_rust..allocator..FreeRtosAllocator$u20$as$u20$core..alloc..global..GlobalAlloc$GT$5alloc17ha2faf5168b77887cE>
 8001870:	b004      	add	sp, #16
 8001872:	bd80      	pop	{r7, pc}

08001874 <__rust_dealloc>:
 8001874:	b580      	push	{r7, lr}
 8001876:	466f      	mov	r7, sp
 8001878:	b086      	sub	sp, #24
 800187a:	9200      	str	r2, [sp, #0]
 800187c:	460a      	mov	r2, r1
 800187e:	9900      	ldr	r1, [sp, #0]
 8001880:	9201      	str	r2, [sp, #4]
 8001882:	4602      	mov	r2, r0
 8001884:	9801      	ldr	r0, [sp, #4]
 8001886:	9202      	str	r2, [sp, #8]
 8001888:	9203      	str	r2, [sp, #12]
 800188a:	9004      	str	r0, [sp, #16]
 800188c:	9105      	str	r1, [sp, #20]
 800188e:	f7ff f9da 	bl	8000c46 <_ZN4core5alloc6layout6Layout25from_size_align_unchecked17he772e0b6996aba40E>
 8001892:	4602      	mov	r2, r0
 8001894:	460b      	mov	r3, r1
 8001896:	9902      	ldr	r1, [sp, #8]
 8001898:	f649 7078 	movw	r0, #40824	; 0x9f78
 800189c:	f6c0 0000 	movt	r0, #2048	; 0x800
 80018a0:	f003 feae 	bl	8005600 <_ZN96_$LT$freertos_rust..allocator..FreeRtosAllocator$u20$as$u20$core..alloc..global..GlobalAlloc$GT$7dealloc17h6e23447d1b01d97dE>
 80018a4:	b006      	add	sp, #24
 80018a6:	bd80      	pop	{r7, pc}

080018a8 <__rust_realloc>:
 80018a8:	b580      	push	{r7, lr}
 80018aa:	466f      	mov	r7, sp
 80018ac:	b08a      	sub	sp, #40	; 0x28
 80018ae:	9304      	str	r3, [sp, #16]
 80018b0:	9202      	str	r2, [sp, #8]
 80018b2:	460a      	mov	r2, r1
 80018b4:	9902      	ldr	r1, [sp, #8]
 80018b6:	9203      	str	r2, [sp, #12]
 80018b8:	4602      	mov	r2, r0
 80018ba:	9803      	ldr	r0, [sp, #12]
 80018bc:	9205      	str	r2, [sp, #20]
 80018be:	9206      	str	r2, [sp, #24]
 80018c0:	9007      	str	r0, [sp, #28]
 80018c2:	9108      	str	r1, [sp, #32]
 80018c4:	9309      	str	r3, [sp, #36]	; 0x24
 80018c6:	f7ff f9be 	bl	8000c46 <_ZN4core5alloc6layout6Layout25from_size_align_unchecked17he772e0b6996aba40E>
 80018ca:	4602      	mov	r2, r0
 80018cc:	9804      	ldr	r0, [sp, #16]
 80018ce:	460b      	mov	r3, r1
 80018d0:	9905      	ldr	r1, [sp, #20]
 80018d2:	46ec      	mov	ip, sp
 80018d4:	f8cc 0000 	str.w	r0, [ip]
 80018d8:	f649 7078 	movw	r0, #40824	; 0x9f78
 80018dc:	f6c0 0000 	movt	r0, #2048	; 0x800
 80018e0:	f7fe fcaa 	bl	8000238 <_ZN4core5alloc6global11GlobalAlloc7realloc17h425afe912a14999aE>
 80018e4:	b00a      	add	sp, #40	; 0x28
 80018e6:	bd80      	pop	{r7, pc}

080018e8 <__rust_alloc_zeroed>:
 80018e8:	b580      	push	{r7, lr}
 80018ea:	466f      	mov	r7, sp
 80018ec:	b084      	sub	sp, #16
 80018ee:	9002      	str	r0, [sp, #8]
 80018f0:	9103      	str	r1, [sp, #12]
 80018f2:	f7ff f9a8 	bl	8000c46 <_ZN4core5alloc6layout6Layout25from_size_align_unchecked17he772e0b6996aba40E>
 80018f6:	9001      	str	r0, [sp, #4]
 80018f8:	460a      	mov	r2, r1
 80018fa:	9901      	ldr	r1, [sp, #4]
 80018fc:	f649 7078 	movw	r0, #40824	; 0x9f78
 8001900:	f6c0 0000 	movt	r0, #2048	; 0x800
 8001904:	f7fe fc6d 	bl	80001e2 <_ZN4core5alloc6global11GlobalAlloc12alloc_zeroed17h9bccd744b704324fE>
 8001908:	b004      	add	sp, #16
 800190a:	bd80      	pop	{r7, pc}

0800190c <main>:
 800190c:	b580      	push	{r7, lr}
 800190e:	466f      	mov	r7, sp
 8001910:	f000 f800 	bl	8001914 <_ZN22stm32_cortex_m4_f401re18__cortex_m_rt_main17h7952627e30790f7fE>

08001914 <_ZN22stm32_cortex_m4_f401re18__cortex_m_rt_main17h7952627e30790f7fE>:
 8001914:	b580      	push	{r7, lr}
 8001916:	466f      	mov	r7, sp
 8001918:	b09a      	sub	sp, #104	; 0x68
 800191a:	2001      	movs	r0, #1
 800191c:	f807 0c55 	strb.w	r0, [r7, #-85]
 8001920:	f817 0c55 	ldrb.w	r0, [r7, #-85]
 8001924:	f7ff fdd0 	bl	80014c8 <_ZN4core4sync6atomic14compiler_fence17h73af8730b5d411e1E>
 8001928:	f7ff fe23 	bl	8001572 <_ZN22stm32_cortex_m4_f401re14setup_hardware17h6322972d0839d01fE>
 800192c:	9016      	str	r0, [sp, #88]	; 0x58
 800192e:	9117      	str	r1, [sp, #92]	; 0x5c
 8001930:	9816      	ldr	r0, [sp, #88]	; 0x58
 8001932:	b1b0      	cbz	r0, 8001962 <_ZN22stm32_cortex_m4_f401re18__cortex_m_rt_main17h7952627e30790f7fE+0x4e>
 8001934:	e7ff      	b.n	8001936 <_ZN22stm32_cortex_m4_f401re18__cortex_m_rt_main17h7952627e30790f7fE+0x22>
 8001936:	9916      	ldr	r1, [sp, #88]	; 0x58
 8001938:	9817      	ldr	r0, [sp, #92]	; 0x5c
 800193a:	9118      	str	r1, [sp, #96]	; 0x60
 800193c:	9019      	str	r0, [sp, #100]	; 0x64
 800193e:	f649 7078 	movw	r0, #40824	; 0x9f78
 8001942:	f6c0 0000 	movt	r0, #2048	; 0x800
 8001946:	4669      	mov	r1, sp
 8001948:	6008      	str	r0, [r1, #0]
 800194a:	f649 60b4 	movw	r0, #40628	; 0x9eb4
 800194e:	f6c0 0000 	movt	r0, #2048	; 0x800
 8001952:	f649 63a4 	movw	r3, #40612	; 0x9ea4
 8001956:	f6c0 0300 	movt	r3, #2048	; 0x800
 800195a:	212b      	movs	r1, #43	; 0x2b
 800195c:	aa18      	add	r2, sp, #96	; 0x60
 800195e:	f005 fd5b 	bl	8007418 <_ZN4core6result13unwrap_failed17h155735d8bdfe0abbE>
 8001962:	f000 f936 	bl	8001bd2 <freertos_rs_create_binary_semaphore>
 8001966:	9006      	str	r0, [sp, #24]
 8001968:	2001      	movs	r0, #1
 800196a:	9003      	str	r0, [sp, #12]
 800196c:	9005      	str	r0, [sp, #20]
 800196e:	9a05      	ldr	r2, [sp, #20]
 8001970:	9806      	ldr	r0, [sp, #24]
 8001972:	f240 010c 	movw	r1, #12
 8001976:	f2c2 0100 	movt	r1, #8192	; 0x2000
 800197a:	600a      	str	r2, [r1, #0]
 800197c:	6048      	str	r0, [r1, #4]
 800197e:	f000 f928 	bl	8001bd2 <freertos_rs_create_binary_semaphore>
 8001982:	4601      	mov	r1, r0
 8001984:	9803      	ldr	r0, [sp, #12]
 8001986:	9108      	str	r1, [sp, #32]
 8001988:	9007      	str	r0, [sp, #28]
 800198a:	9a07      	ldr	r2, [sp, #28]
 800198c:	9808      	ldr	r0, [sp, #32]
 800198e:	f240 0114 	movw	r1, #20
 8001992:	f2c2 0100 	movt	r1, #8192	; 0x2000
 8001996:	600a      	str	r2, [r1, #0]
 8001998:	6048      	str	r0, [r1, #4]
 800199a:	a80b      	add	r0, sp, #44	; 0x2c
 800199c:	9002      	str	r0, [sp, #8]
 800199e:	f003 f9a8 	bl	8004cf2 <_ZN13freertos_rust4task4Task3new17h33edd1fd51b4415bE>
 80019a2:	9802      	ldr	r0, [sp, #8]
 80019a4:	f649 7188 	movw	r1, #40840	; 0x9f88
 80019a8:	f6c0 0100 	movt	r1, #2048	; 0x800
 80019ac:	220b      	movs	r2, #11
 80019ae:	f003 f978 	bl	8004ca2 <_ZN13freertos_rust4task11TaskBuilder4name17h16e85d43a7f8f533E>
 80019b2:	2180      	movs	r1, #128	; 0x80
 80019b4:	f003 f98f 	bl	8004cd6 <_ZN13freertos_rust4task11TaskBuilder10stack_size17h475a693cac9c5503E>
 80019b8:	9903      	ldr	r1, [sp, #12]
 80019ba:	f003 f993 	bl	8004ce4 <_ZN13freertos_rust4task11TaskBuilder8priority17h6f7384862bd8e8e4E>
 80019be:	4601      	mov	r1, r0
 80019c0:	a809      	add	r0, sp, #36	; 0x24
 80019c2:	f7ff f882 	bl	8000aca <_ZN13freertos_rust4task11TaskBuilder5start17h2c156444757c3672E>
 80019c6:	f89d 0024 	ldrb.w	r0, [sp, #36]	; 0x24
 80019ca:	07c0      	lsls	r0, r0, #31
 80019cc:	b9f0      	cbnz	r0, 8001a0c <_ZN22stm32_cortex_m4_f401re18__cortex_m_rt_main17h7952627e30790f7fE+0xf8>
 80019ce:	e7ff      	b.n	80019d0 <_ZN22stm32_cortex_m4_f401re18__cortex_m_rt_main17h7952627e30790f7fE+0xbc>
 80019d0:	a80b      	add	r0, sp, #44	; 0x2c
 80019d2:	f7fe fcb0 	bl	8000336 <_ZN4core3ptr53drop_in_place$LT$freertos_rust..task..TaskBuilder$GT$17hdc43521a99eab5f5E>
 80019d6:	a811      	add	r0, sp, #68	; 0x44
 80019d8:	9001      	str	r0, [sp, #4]
 80019da:	f003 f98a 	bl	8004cf2 <_ZN13freertos_rust4task4Task3new17h33edd1fd51b4415bE>
 80019de:	9801      	ldr	r0, [sp, #4]
 80019e0:	f649 7193 	movw	r1, #40851	; 0x9f93
 80019e4:	f6c0 0100 	movt	r1, #2048	; 0x800
 80019e8:	220e      	movs	r2, #14
 80019ea:	f003 f95a 	bl	8004ca2 <_ZN13freertos_rust4task11TaskBuilder4name17h16e85d43a7f8f533E>
 80019ee:	2180      	movs	r1, #128	; 0x80
 80019f0:	f003 f971 	bl	8004cd6 <_ZN13freertos_rust4task11TaskBuilder10stack_size17h475a693cac9c5503E>
 80019f4:	2102      	movs	r1, #2
 80019f6:	f003 f975 	bl	8004ce4 <_ZN13freertos_rust4task11TaskBuilder8priority17h6f7384862bd8e8e4E>
 80019fa:	4601      	mov	r1, r0
 80019fc:	a80f      	add	r0, sp, #60	; 0x3c
 80019fe:	f7ff f880 	bl	8000b02 <_ZN13freertos_rust4task11TaskBuilder5start17hfed716f40437aa2dE>
 8001a02:	f89d 003c 	ldrb.w	r0, [sp, #60]	; 0x3c
 8001a06:	07c0      	lsls	r0, r0, #31
 8001a08:	b108      	cbz	r0, 8001a0e <_ZN22stm32_cortex_m4_f401re18__cortex_m_rt_main17h7952627e30790f7fE+0xfa>
 8001a0a:	e005      	b.n	8001a18 <_ZN22stm32_cortex_m4_f401re18__cortex_m_rt_main17h7952627e30790f7fE+0x104>
 8001a0c:	e7fe      	b.n	8001a0c <_ZN22stm32_cortex_m4_f401re18__cortex_m_rt_main17h7952627e30790f7fE+0xf8>
 8001a0e:	a811      	add	r0, sp, #68	; 0x44
 8001a10:	f7fe fc91 	bl	8000336 <_ZN4core3ptr53drop_in_place$LT$freertos_rust..task..TaskBuilder$GT$17hdc43521a99eab5f5E>
 8001a14:	f003 fa12 	bl	8004e3c <_ZN13freertos_rust4task13FreeRtosUtils15start_scheduler17h65affe9e8aeed2d9E>
 8001a18:	e7fe      	b.n	8001a18 <_ZN22stm32_cortex_m4_f401re18__cortex_m_rt_main17h7952627e30790f7fE+0x104>

08001a1a <EXTI15_10>:
 8001a1a:	b580      	push	{r7, lr}
 8001a1c:	466f      	mov	r7, sp
 8001a1e:	f000 f801 	bl	8001a24 <_ZN22stm32_cortex_m4_f401re23__cortex_m_rt_EXTI15_1017h1a18105a0112ae30E>
 8001a22:	bd80      	pop	{r7, pc}

08001a24 <_ZN22stm32_cortex_m4_f401re23__cortex_m_rt_EXTI15_1017h1a18105a0112ae30E>:
 8001a24:	b580      	push	{r7, lr}
 8001a26:	466f      	mov	r7, sp
 8001a28:	b08e      	sub	sp, #56	; 0x38
 8001a2a:	f003 fdd5 	bl	80055d8 <_ZN13freertos_rust3isr16InterruptContext3new17h63adac5d4bd5d6adE>
 8001a2e:	9006      	str	r0, [sp, #24]
 8001a30:	a806      	add	r0, sp, #24
 8001a32:	9003      	str	r0, [sp, #12]
 8001a34:	9007      	str	r0, [sp, #28]
 8001a36:	f240 010c 	movw	r1, #12
 8001a3a:	f2c2 0100 	movt	r1, #8192	; 0x2000
 8001a3e:	6808      	ldr	r0, [r1, #0]
 8001a40:	6849      	ldr	r1, [r1, #4]
 8001a42:	f649 72a8 	movw	r2, #40872	; 0x9fa8
 8001a46:	f6c0 0200 	movt	r2, #2048	; 0x800
 8001a4a:	466b      	mov	r3, sp
 8001a4c:	601a      	str	r2, [r3, #0]
 8001a4e:	f649 72a1 	movw	r2, #40865	; 0x9fa1
 8001a52:	f6c0 0200 	movt	r2, #2048	; 0x800
 8001a56:	2306      	movs	r3, #6
 8001a58:	f000 f878 	bl	8001b4c <_ZN4core6option15Option$LT$T$GT$6expect17ha1162e6d21eeaf0fE>
 8001a5c:	9903      	ldr	r1, [sp, #12]
 8001a5e:	f000 f8e9 	bl	8001c34 <freertos_rs_give_semaphore_isr>
 8001a62:	9803      	ldr	r0, [sp, #12]
 8001a64:	f003 fdba 	bl	80055dc <_ZN13freertos_rust3isr16InterruptContext18get_task_field_mut17h9b5ec0a6e9b691edE>
 8001a68:	4601      	mov	r1, r0
 8001a6a:	9104      	str	r1, [sp, #16]
 8001a6c:	4601      	mov	r1, r0
 8001a6e:	9105      	str	r1, [sp, #20]
 8001a70:	0780      	lsls	r0, r0, #30
 8001a72:	bb08      	cbnz	r0, 8001ab8 <_ZN22stm32_cortex_m4_f401re23__cortex_m_rt_EXTI15_1017h1a18105a0112ae30E+0x94>
 8001a74:	e7ff      	b.n	8001a76 <_ZN22stm32_cortex_m4_f401re23__cortex_m_rt_EXTI15_1017h1a18105a0112ae30E+0x52>
 8001a76:	9804      	ldr	r0, [sp, #16]
 8001a78:	6800      	ldr	r0, [r0, #0]
 8001a7a:	f000 f943 	bl	8001d04 <freertos_rs_isr_yield>
 8001a7e:	f643 4000 	movw	r0, #15360	; 0x3c00
 8001a82:	f2c4 0001 	movt	r0, #16385	; 0x4001
 8001a86:	9008      	str	r0, [sp, #32]
 8001a88:	f643 4014 	movw	r0, #15380	; 0x3c14
 8001a8c:	f2c4 0001 	movt	r0, #16385	; 0x4001
 8001a90:	9002      	str	r0, [sp, #8]
 8001a92:	900a      	str	r0, [sp, #40]	; 0x28
 8001a94:	2000      	movs	r0, #0
 8001a96:	9009      	str	r0, [sp, #36]	; 0x24
 8001a98:	a809      	add	r0, sp, #36	; 0x24
 8001a9a:	f7fe ff58 	bl	800094e <_ZN22stm32_cortex_m4_f401re23__cortex_m_rt_EXTI15_1028_$u7b$$u7b$closure$u7d$$u7d$17h4e47c657b6a120baE>
 8001a9e:	4601      	mov	r1, r0
 8001aa0:	9802      	ldr	r0, [sp, #8]
 8001aa2:	6809      	ldr	r1, [r1, #0]
 8001aa4:	900b      	str	r0, [sp, #44]	; 0x2c
 8001aa6:	910c      	str	r1, [sp, #48]	; 0x30
 8001aa8:	900d      	str	r0, [sp, #52]	; 0x34
 8001aaa:	f004 fff3 	bl	8006a94 <_ZN4core3ptr14write_volatile17hd6de69c464e82e6cE>
 8001aae:	a806      	add	r0, sp, #24
 8001ab0:	f7fe fc49 	bl	8000346 <_ZN4core3ptr57drop_in_place$LT$freertos_rust..isr..InterruptContext$GT$17heee32578ee263f0aE>
 8001ab4:	b00e      	add	sp, #56	; 0x38
 8001ab6:	bd80      	pop	{r7, pc}
 8001ab8:	9905      	ldr	r1, [sp, #20]
 8001aba:	f649 72b8 	movw	r2, #40888	; 0x9fb8
 8001abe:	f6c0 0200 	movt	r2, #2048	; 0x800
 8001ac2:	2004      	movs	r0, #4
 8001ac4:	f005 fc78 	bl	80073b8 <_ZN4core9panicking36panic_misaligned_pointer_dereference17h10ed728bfca2432fE>

08001ac8 <DefaultHandler>:
 8001ac8:	b580      	push	{r7, lr}
 8001aca:	466f      	mov	r7, sp
 8001acc:	b082      	sub	sp, #8
 8001ace:	f64e 5004 	movw	r0, #60676	; 0xed04
 8001ad2:	f2ce 0000 	movt	r0, #57344	; 0xe000
 8001ad6:	f005 f91e 	bl	8006d16 <_ZN4core3ptr13read_volatile17h9bc3363220c5f51bE>
 8001ada:	f36f 205f 	bfc	r0, #9, #23
 8001ade:	3810      	subs	r0, #16
 8001ae0:	9000      	str	r0, [sp, #0]
 8001ae2:	2000      	movs	r0, #0
 8001ae4:	b938      	cbnz	r0, 8001af6 <DefaultHandler+0x2e>
 8001ae6:	e7ff      	b.n	8001ae8 <DefaultHandler+0x20>
 8001ae8:	9800      	ldr	r0, [sp, #0]
 8001aea:	f827 0c02 	strh.w	r0, [r7, #-2]
 8001aee:	f000 f808 	bl	8001b02 <_ZN22stm32_cortex_m4_f401re28__cortex_m_rt_DefaultHandler17hb397d06c94ae46afE>
 8001af2:	b002      	add	sp, #8
 8001af4:	bd80      	pop	{r7, pc}
 8001af6:	f649 70c8 	movw	r0, #40904	; 0x9fc8
 8001afa:	f6c0 0000 	movt	r0, #2048	; 0x800
 8001afe:	f006 fef7 	bl	80088f0 <_ZN4core9panicking11panic_const24panic_const_sub_overflow17h655aa7502feebde5E>

08001b02 <_ZN22stm32_cortex_m4_f401re28__cortex_m_rt_DefaultHandler17hb397d06c94ae46afE>:
 8001b02:	b081      	sub	sp, #4
 8001b04:	f8ad 0002 	strh.w	r0, [sp, #2]
 8001b08:	b001      	add	sp, #4
 8001b0a:	4770      	bx	lr

08001b0c <_ZN22stm32_cortex_m4_f401re23__cortex_m_rt_HardFault17hf09e3039fd4fb78cE>:
 8001b0c:	b081      	sub	sp, #4
 8001b0e:	9000      	str	r0, [sp, #0]
 8001b10:	e7ff      	b.n	8001b12 <_ZN22stm32_cortex_m4_f401re23__cortex_m_rt_HardFault17hf09e3039fd4fb78cE+0x6>
 8001b12:	e7fe      	b.n	8001b12 <_ZN22stm32_cortex_m4_f401re23__cortex_m_rt_HardFault17hf09e3039fd4fb78cE+0x6>

08001b14 <_ZN22stm32_cortex_m4_f401re11alloc_error17haf3f60eb9789f0cfE>:
 8001b14:	b580      	push	{r7, lr}
 8001b16:	466f      	mov	r7, sp
 8001b18:	b082      	sub	sp, #8
 8001b1a:	9000      	str	r0, [sp, #0]
 8001b1c:	9101      	str	r1, [sp, #4]
 8001b1e:	f005 f9e0 	bl	8006ee2 <__bkpt>
 8001b22:	e7ff      	b.n	8001b24 <_ZN22stm32_cortex_m4_f401re11alloc_error17haf3f60eb9789f0cfE+0x10>
 8001b24:	e7fe      	b.n	8001b24 <_ZN22stm32_cortex_m4_f401re11alloc_error17haf3f60eb9789f0cfE+0x10>

08001b26 <__rg_oom>:
 8001b26:	b580      	push	{r7, lr}
 8001b28:	466f      	mov	r7, sp
 8001b2a:	b082      	sub	sp, #8
 8001b2c:	9000      	str	r0, [sp, #0]
 8001b2e:	9101      	str	r1, [sp, #4]
 8001b30:	f7ff f889 	bl	8000c46 <_ZN4core5alloc6layout6Layout25from_size_align_unchecked17he772e0b6996aba40E>
 8001b34:	f7ff ffee 	bl	8001b14 <_ZN22stm32_cortex_m4_f401re11alloc_error17haf3f60eb9789f0cfE>

08001b38 <_ZN8cortex_m9interrupt6enable17h61d2f63e4fb1e3b3E>:
 8001b38:	b580      	push	{r7, lr}
 8001b3a:	466f      	mov	r7, sp
 8001b3c:	f005 f9d5 	bl	8006eea <__cpsie>
 8001b40:	bd80      	pop	{r7, pc}

08001b42 <_ZN8cortex_m9interrupt7disable17hb7494494f0860066E>:
 8001b42:	b580      	push	{r7, lr}
 8001b44:	466f      	mov	r7, sp
 8001b46:	f005 f9ce 	bl	8006ee6 <__cpsid>
 8001b4a:	bd80      	pop	{r7, pc}

08001b4c <_ZN4core6option15Option$LT$T$GT$6expect17ha1162e6d21eeaf0fE>:
 8001b4c:	b580      	push	{r7, lr}
 8001b4e:	466f      	mov	r7, sp
 8001b50:	b088      	sub	sp, #32
 8001b52:	9300      	str	r3, [sp, #0]
 8001b54:	9201      	str	r2, [sp, #4]
 8001b56:	f8d7 c008 	ldr.w	ip, [r7, #8]
 8001b5a:	f8cd c008 	str.w	ip, [sp, #8]
 8001b5e:	9003      	str	r0, [sp, #12]
 8001b60:	9104      	str	r1, [sp, #16]
 8001b62:	9205      	str	r2, [sp, #20]
 8001b64:	9306      	str	r3, [sp, #24]
 8001b66:	9803      	ldr	r0, [sp, #12]
 8001b68:	b928      	cbnz	r0, 8001b76 <_ZN4core6option15Option$LT$T$GT$6expect17ha1162e6d21eeaf0fE+0x2a>
 8001b6a:	e7ff      	b.n	8001b6c <_ZN4core6option15Option$LT$T$GT$6expect17ha1162e6d21eeaf0fE+0x20>
 8001b6c:	9a02      	ldr	r2, [sp, #8]
 8001b6e:	9900      	ldr	r1, [sp, #0]
 8001b70:	9801      	ldr	r0, [sp, #4]
 8001b72:	f005 fb9e 	bl	80072b2 <_ZN4core6option13expect_failed17hb8cbd1cd2662a847E>
 8001b76:	9804      	ldr	r0, [sp, #16]
 8001b78:	9007      	str	r0, [sp, #28]
 8001b7a:	b008      	add	sp, #32
 8001b7c:	bd80      	pop	{r7, pc}

08001b7e <_ZN50_$LT$T$u20$as$u20$core..convert..Into$LT$U$GT$$GT$4into17h1aa803d9c081a83eE>:
 8001b7e:	b081      	sub	sp, #4
 8001b80:	f88d 0002 	strb.w	r0, [sp, #2]
 8001b84:	f88d 0003 	strb.w	r0, [sp, #3]
 8001b88:	f89d 0003 	ldrb.w	r0, [sp, #3]
 8001b8c:	f000 0001 	and.w	r0, r0, #1
 8001b90:	b001      	add	sp, #4
 8001b92:	4770      	bx	lr

08001b94 <__rust_alloc_error_handler>:
 8001b94:	f7ff bfc7 	b.w	8001b26 <__rg_oom>

08001b98 <freertos_rs_vTaskStartScheduler>:
 8001b98:	b580      	push	{r7, lr}
 8001b9a:	af00      	add	r7, sp, #0
 8001b9c:	f000 fac2 	bl	8002124 <vTaskStartScheduler>
 8001ba0:	bf00      	nop
 8001ba2:	bd80      	pop	{r7, pc}

08001ba4 <freertos_rs_pvPortMalloc>:
 8001ba4:	b580      	push	{r7, lr}
 8001ba6:	b082      	sub	sp, #8
 8001ba8:	af00      	add	r7, sp, #0
 8001baa:	6078      	str	r0, [r7, #4]
 8001bac:	6878      	ldr	r0, [r7, #4]
 8001bae:	f002 fddd 	bl	800476c <pvPortMalloc>
 8001bb2:	4603      	mov	r3, r0
 8001bb4:	4618      	mov	r0, r3
 8001bb6:	3708      	adds	r7, #8
 8001bb8:	46bd      	mov	sp, r7
 8001bba:	bd80      	pop	{r7, pc}

08001bbc <freertos_rs_vPortFree>:
 8001bbc:	b580      	push	{r7, lr}
 8001bbe:	b082      	sub	sp, #8
 8001bc0:	af00      	add	r7, sp, #0
 8001bc2:	6078      	str	r0, [r7, #4]
 8001bc4:	6878      	ldr	r0, [r7, #4]
 8001bc6:	f002 fe7f 	bl	80048c8 <vPortFree>
 8001bca:	bf00      	nop
 8001bcc:	3708      	adds	r7, #8
 8001bce:	46bd      	mov	sp, r7
 8001bd0:	bd80      	pop	{r7, pc}

08001bd2 <freertos_rs_create_binary_semaphore>:
 8001bd2:	b580      	push	{r7, lr}
 8001bd4:	af00      	add	r7, sp, #0
 8001bd6:	2203      	movs	r2, #3
 8001bd8:	2100      	movs	r1, #0
 8001bda:	2001      	movs	r0, #1
 8001bdc:	f002 f87a 	bl	8003cd4 <xQueueGenericCreate>
 8001be0:	4603      	mov	r3, r0
 8001be2:	4618      	mov	r0, r3
 8001be4:	bd80      	pop	{r7, pc}

08001be6 <freertos_rs_take_semaphore>:
 8001be6:	b580      	push	{r7, lr}
 8001be8:	b082      	sub	sp, #8
 8001bea:	af00      	add	r7, sp, #0
 8001bec:	6078      	str	r0, [r7, #4]
 8001bee:	6039      	str	r1, [r7, #0]
 8001bf0:	6839      	ldr	r1, [r7, #0]
 8001bf2:	6878      	ldr	r0, [r7, #4]
 8001bf4:	f002 fb20 	bl	8004238 <xQueueSemaphoreTake>
 8001bf8:	4603      	mov	r3, r0
 8001bfa:	2b01      	cmp	r3, #1
 8001bfc:	d101      	bne.n	8001c02 <freertos_rs_take_semaphore+0x1c>
 8001bfe:	2300      	movs	r3, #0
 8001c00:	e000      	b.n	8001c04 <freertos_rs_take_semaphore+0x1e>
 8001c02:	2301      	movs	r3, #1
 8001c04:	4618      	mov	r0, r3
 8001c06:	3708      	adds	r7, #8
 8001c08:	46bd      	mov	sp, r7
 8001c0a:	bd80      	pop	{r7, pc}

08001c0c <freertos_rs_give_semaphore>:
 8001c0c:	b580      	push	{r7, lr}
 8001c0e:	b082      	sub	sp, #8
 8001c10:	af00      	add	r7, sp, #0
 8001c12:	6078      	str	r0, [r7, #4]
 8001c14:	2300      	movs	r3, #0
 8001c16:	2200      	movs	r2, #0
 8001c18:	2100      	movs	r1, #0
 8001c1a:	6878      	ldr	r0, [r7, #4]
 8001c1c:	f002 f8c8 	bl	8003db0 <xQueueGenericSend>
 8001c20:	4603      	mov	r3, r0
 8001c22:	2b01      	cmp	r3, #1
 8001c24:	d101      	bne.n	8001c2a <freertos_rs_give_semaphore+0x1e>
 8001c26:	2300      	movs	r3, #0
 8001c28:	e000      	b.n	8001c2c <freertos_rs_give_semaphore+0x20>
 8001c2a:	2301      	movs	r3, #1
 8001c2c:	4618      	mov	r0, r3
 8001c2e:	3708      	adds	r7, #8
 8001c30:	46bd      	mov	sp, r7
 8001c32:	bd80      	pop	{r7, pc}

08001c34 <freertos_rs_give_semaphore_isr>:
 8001c34:	b580      	push	{r7, lr}
 8001c36:	b082      	sub	sp, #8
 8001c38:	af00      	add	r7, sp, #0
 8001c3a:	6078      	str	r0, [r7, #4]
 8001c3c:	6039      	str	r1, [r7, #0]
 8001c3e:	6839      	ldr	r1, [r7, #0]
 8001c40:	6878      	ldr	r0, [r7, #4]
 8001c42:	f002 f99d 	bl	8003f80 <xQueueGiveFromISR>
 8001c46:	4603      	mov	r3, r0
 8001c48:	2b01      	cmp	r3, #1
 8001c4a:	d101      	bne.n	8001c50 <freertos_rs_give_semaphore_isr+0x1c>
 8001c4c:	2300      	movs	r3, #0
 8001c4e:	e000      	b.n	8001c52 <freertos_rs_give_semaphore_isr+0x1e>
 8001c50:	2301      	movs	r3, #1
 8001c52:	4618      	mov	r0, r3
 8001c54:	3708      	adds	r7, #8
 8001c56:	46bd      	mov	sp, r7
 8001c58:	bd80      	pop	{r7, pc}
 8001c5a:	d4d4      	bmi.n	8001c06 <freertos_rs_take_semaphore+0x20>

08001c5c <freertos_rs_spawn_task>:
 8001c5c:	b580      	push	{r7, lr}
 8001c5e:	b08c      	sub	sp, #48	; 0x30
 8001c60:	af02      	add	r7, sp, #8
 8001c62:	60f8      	str	r0, [r7, #12]
 8001c64:	60b9      	str	r1, [r7, #8]
 8001c66:	607a      	str	r2, [r7, #4]
 8001c68:	70fb      	strb	r3, [r7, #3]
 8001c6a:	2300      	movs	r3, #0
 8001c6c:	613b      	str	r3, [r7, #16]
 8001c6e:	f107 0314 	add.w	r3, r7, #20
 8001c72:	2200      	movs	r2, #0
 8001c74:	601a      	str	r2, [r3, #0]
 8001c76:	605a      	str	r2, [r3, #4]
 8001c78:	609a      	str	r2, [r3, #8]
 8001c7a:	2300      	movs	r3, #0
 8001c7c:	627b      	str	r3, [r7, #36]	; 0x24
 8001c7e:	e00f      	b.n	8001ca0 <freertos_rs_spawn_task+0x44>
 8001c80:	6a7b      	ldr	r3, [r7, #36]	; 0x24
 8001c82:	687a      	ldr	r2, [r7, #4]
 8001c84:	4413      	add	r3, r2
 8001c86:	7819      	ldrb	r1, [r3, #0]
 8001c88:	f107 0210 	add.w	r2, r7, #16
 8001c8c:	6a7b      	ldr	r3, [r7, #36]	; 0x24
 8001c8e:	4413      	add	r3, r2
 8001c90:	460a      	mov	r2, r1
 8001c92:	701a      	strb	r2, [r3, #0]
 8001c94:	6a7b      	ldr	r3, [r7, #36]	; 0x24
 8001c96:	2b0f      	cmp	r3, #15
 8001c98:	d007      	beq.n	8001caa <freertos_rs_spawn_task+0x4e>
 8001c9a:	6a7b      	ldr	r3, [r7, #36]	; 0x24
 8001c9c:	3301      	adds	r3, #1
 8001c9e:	627b      	str	r3, [r7, #36]	; 0x24
 8001ca0:	78fb      	ldrb	r3, [r7, #3]
 8001ca2:	6a7a      	ldr	r2, [r7, #36]	; 0x24
 8001ca4:	429a      	cmp	r2, r3
 8001ca6:	dbeb      	blt.n	8001c80 <freertos_rs_spawn_task+0x24>
 8001ca8:	e000      	b.n	8001cac <freertos_rs_spawn_task+0x50>
 8001caa:	bf00      	nop
 8001cac:	8e3a      	ldrh	r2, [r7, #48]	; 0x30
 8001cae:	f107 0110 	add.w	r1, r7, #16
 8001cb2:	6bbb      	ldr	r3, [r7, #56]	; 0x38
 8001cb4:	9301      	str	r3, [sp, #4]
 8001cb6:	6b7b      	ldr	r3, [r7, #52]	; 0x34
 8001cb8:	9300      	str	r3, [sp, #0]
 8001cba:	68bb      	ldr	r3, [r7, #8]
 8001cbc:	68f8      	ldr	r0, [r7, #12]
 8001cbe:	f000 f840 	bl	8001d42 <xTaskCreate>
 8001cc2:	6238      	str	r0, [r7, #32]
 8001cc4:	6a3b      	ldr	r3, [r7, #32]
 8001cc6:	2b01      	cmp	r3, #1
 8001cc8:	d001      	beq.n	8001cce <freertos_rs_spawn_task+0x72>
 8001cca:	2301      	movs	r3, #1
 8001ccc:	e007      	b.n	8001cde <freertos_rs_spawn_task+0x82>
 8001cce:	6bbb      	ldr	r3, [r7, #56]	; 0x38
 8001cd0:	2b00      	cmp	r3, #0
 8001cd2:	d103      	bne.n	8001cdc <freertos_rs_spawn_task+0x80>
 8001cd4:	4904      	ldr	r1, [pc, #16]	; (8001ce8 <freertos_rs_spawn_task+0x8c>)
 8001cd6:	20da      	movs	r0, #218	; 0xda
 8001cd8:	f004 f8f5 	bl	8005ec6 <vAssertCalled>
 8001cdc:	2300      	movs	r3, #0
 8001cde:	4618      	mov	r0, r3
 8001ce0:	3728      	adds	r7, #40	; 0x28
 8001ce2:	46bd      	mov	sp, r7
 8001ce4:	bd80      	pop	{r7, pc}
 8001ce6:	bf00      	nop
 8001ce8:	08009fd8 	.word	0x08009fd8

08001cec <freertos_rs_delete_task>:
 8001cec:	b580      	push	{r7, lr}
 8001cee:	b082      	sub	sp, #8
 8001cf0:	af00      	add	r7, sp, #0
 8001cf2:	6078      	str	r0, [r7, #4]
 8001cf4:	6878      	ldr	r0, [r7, #4]
 8001cf6:	f000 f985 	bl	8002004 <vTaskDelete>
 8001cfa:	bf00      	nop
 8001cfc:	3708      	adds	r7, #8
 8001cfe:	46bd      	mov	sp, r7
 8001d00:	bd80      	pop	{r7, pc}
 8001d02:	d4d4      	bmi.n	8001cae <freertos_rs_spawn_task+0x52>

08001d04 <freertos_rs_isr_yield>:
 8001d04:	b480      	push	{r7}
 8001d06:	b083      	sub	sp, #12
 8001d08:	af00      	add	r7, sp, #0
 8001d0a:	6078      	str	r0, [r7, #4]
 8001d0c:	687b      	ldr	r3, [r7, #4]
 8001d0e:	2b00      	cmp	r3, #0
 8001d10:	d007      	beq.n	8001d22 <freertos_rs_isr_yield+0x1e>
 8001d12:	4b07      	ldr	r3, [pc, #28]	; (8001d30 <freertos_rs_isr_yield+0x2c>)
 8001d14:	f04f 5280 	mov.w	r2, #268435456	; 0x10000000
 8001d18:	601a      	str	r2, [r3, #0]
 8001d1a:	f3bf 8f4f 	dsb	sy
 8001d1e:	f3bf 8f6f 	isb	sy
 8001d22:	bf00      	nop
 8001d24:	370c      	adds	r7, #12
 8001d26:	46bd      	mov	sp, r7
 8001d28:	f85d 7b04 	ldr.w	r7, [sp], #4
 8001d2c:	4770      	bx	lr
 8001d2e:	bf00      	nop
 8001d30:	e000ed04 	.word	0xe000ed04

08001d34 <freertos_rs_get_current_task>:
 8001d34:	b580      	push	{r7, lr}
 8001d36:	af00      	add	r7, sp, #0
 8001d38:	f000 ff54 	bl	8002be4 <xTaskGetCurrentTaskHandle>
 8001d3c:	4603      	mov	r3, r0
 8001d3e:	4618      	mov	r0, r3
 8001d40:	bd80      	pop	{r7, pc}

08001d42 <xTaskCreate>:
 8001d42:	b580      	push	{r7, lr}
 8001d44:	b08c      	sub	sp, #48	; 0x30
 8001d46:	af04      	add	r7, sp, #16
 8001d48:	60f8      	str	r0, [r7, #12]
 8001d4a:	60b9      	str	r1, [r7, #8]
 8001d4c:	603b      	str	r3, [r7, #0]
 8001d4e:	4613      	mov	r3, r2
 8001d50:	80fb      	strh	r3, [r7, #6]
 8001d52:	88fb      	ldrh	r3, [r7, #6]
 8001d54:	009b      	lsls	r3, r3, #2
 8001d56:	4618      	mov	r0, r3
 8001d58:	f002 fd08 	bl	800476c <pvPortMalloc>
 8001d5c:	6178      	str	r0, [r7, #20]
 8001d5e:	697b      	ldr	r3, [r7, #20]
 8001d60:	2b00      	cmp	r3, #0
 8001d62:	d013      	beq.n	8001d8c <xTaskCreate+0x4a>
 8001d64:	205c      	movs	r0, #92	; 0x5c
 8001d66:	f002 fd01 	bl	800476c <pvPortMalloc>
 8001d6a:	61f8      	str	r0, [r7, #28]
 8001d6c:	69fb      	ldr	r3, [r7, #28]
 8001d6e:	2b00      	cmp	r3, #0
 8001d70:	d008      	beq.n	8001d84 <xTaskCreate+0x42>
 8001d72:	225c      	movs	r2, #92	; 0x5c
 8001d74:	2100      	movs	r1, #0
 8001d76:	69f8      	ldr	r0, [r7, #28]
 8001d78:	f007 f8bf 	bl	8008efa <memset>
 8001d7c:	69fb      	ldr	r3, [r7, #28]
 8001d7e:	697a      	ldr	r2, [r7, #20]
 8001d80:	631a      	str	r2, [r3, #48]	; 0x30
 8001d82:	e005      	b.n	8001d90 <xTaskCreate+0x4e>
 8001d84:	6978      	ldr	r0, [r7, #20]
 8001d86:	f002 fd9f 	bl	80048c8 <vPortFree>
 8001d8a:	e001      	b.n	8001d90 <xTaskCreate+0x4e>
 8001d8c:	2300      	movs	r3, #0
 8001d8e:	61fb      	str	r3, [r7, #28]
 8001d90:	69fb      	ldr	r3, [r7, #28]
 8001d92:	2b00      	cmp	r3, #0
 8001d94:	d013      	beq.n	8001dbe <xTaskCreate+0x7c>
 8001d96:	88fa      	ldrh	r2, [r7, #6]
 8001d98:	2300      	movs	r3, #0
 8001d9a:	9303      	str	r3, [sp, #12]
 8001d9c:	69fb      	ldr	r3, [r7, #28]
 8001d9e:	9302      	str	r3, [sp, #8]
 8001da0:	6afb      	ldr	r3, [r7, #44]	; 0x2c
 8001da2:	9301      	str	r3, [sp, #4]
 8001da4:	6abb      	ldr	r3, [r7, #40]	; 0x28
 8001da6:	9300      	str	r3, [sp, #0]
 8001da8:	683b      	ldr	r3, [r7, #0]
 8001daa:	68b9      	ldr	r1, [r7, #8]
 8001dac:	68f8      	ldr	r0, [r7, #12]
 8001dae:	f000 f80f 	bl	8001dd0 <prvInitialiseNewTask>
 8001db2:	69f8      	ldr	r0, [r7, #28]
 8001db4:	f000 f890 	bl	8001ed8 <prvAddNewTaskToReadyList>
 8001db8:	2301      	movs	r3, #1
 8001dba:	61bb      	str	r3, [r7, #24]
 8001dbc:	e002      	b.n	8001dc4 <xTaskCreate+0x82>
 8001dbe:	f04f 33ff 	mov.w	r3, #4294967295
 8001dc2:	61bb      	str	r3, [r7, #24]
 8001dc4:	69bb      	ldr	r3, [r7, #24]
 8001dc6:	4618      	mov	r0, r3
 8001dc8:	3720      	adds	r7, #32
 8001dca:	46bd      	mov	sp, r7
 8001dcc:	bd80      	pop	{r7, pc}
 8001dce:	d4d4      	bmi.n	8001d7a <xTaskCreate+0x38>

08001dd0 <prvInitialiseNewTask>:
 8001dd0:	b580      	push	{r7, lr}
 8001dd2:	b086      	sub	sp, #24
 8001dd4:	af00      	add	r7, sp, #0
 8001dd6:	60f8      	str	r0, [r7, #12]
 8001dd8:	60b9      	str	r1, [r7, #8]
 8001dda:	607a      	str	r2, [r7, #4]
 8001ddc:	603b      	str	r3, [r7, #0]
 8001dde:	6abb      	ldr	r3, [r7, #40]	; 0x28
 8001de0:	6b18      	ldr	r0, [r3, #48]	; 0x30
 8001de2:	687b      	ldr	r3, [r7, #4]
 8001de4:	009b      	lsls	r3, r3, #2
 8001de6:	461a      	mov	r2, r3
 8001de8:	21a5      	movs	r1, #165	; 0xa5
 8001dea:	f007 f886 	bl	8008efa <memset>
 8001dee:	6abb      	ldr	r3, [r7, #40]	; 0x28
 8001df0:	6b1a      	ldr	r2, [r3, #48]	; 0x30
 8001df2:	687b      	ldr	r3, [r7, #4]
 8001df4:	f103 4380 	add.w	r3, r3, #1073741824	; 0x40000000
 8001df8:	3b01      	subs	r3, #1
 8001dfa:	009b      	lsls	r3, r3, #2
 8001dfc:	4413      	add	r3, r2
 8001dfe:	613b      	str	r3, [r7, #16]
 8001e00:	693b      	ldr	r3, [r7, #16]
 8001e02:	f023 0307 	bic.w	r3, r3, #7
 8001e06:	613b      	str	r3, [r7, #16]
 8001e08:	693b      	ldr	r3, [r7, #16]
 8001e0a:	f003 0307 	and.w	r3, r3, #7
 8001e0e:	2b00      	cmp	r3, #0
 8001e10:	d004      	beq.n	8001e1c <prvInitialiseNewTask+0x4c>
 8001e12:	4930      	ldr	r1, [pc, #192]	; (8001ed4 <prvInitialiseNewTask+0x104>)
 8001e14:	f240 305d 	movw	r0, #861	; 0x35d
 8001e18:	f004 f855 	bl	8005ec6 <vAssertCalled>
 8001e1c:	68bb      	ldr	r3, [r7, #8]
 8001e1e:	2b00      	cmp	r3, #0
 8001e20:	d01e      	beq.n	8001e60 <prvInitialiseNewTask+0x90>
 8001e22:	2300      	movs	r3, #0
 8001e24:	617b      	str	r3, [r7, #20]
 8001e26:	e012      	b.n	8001e4e <prvInitialiseNewTask+0x7e>
 8001e28:	68ba      	ldr	r2, [r7, #8]
 8001e2a:	697b      	ldr	r3, [r7, #20]
 8001e2c:	4413      	add	r3, r2
 8001e2e:	7819      	ldrb	r1, [r3, #0]
 8001e30:	6aba      	ldr	r2, [r7, #40]	; 0x28
 8001e32:	697b      	ldr	r3, [r7, #20]
 8001e34:	4413      	add	r3, r2
 8001e36:	3334      	adds	r3, #52	; 0x34
 8001e38:	460a      	mov	r2, r1
 8001e3a:	701a      	strb	r2, [r3, #0]
 8001e3c:	68ba      	ldr	r2, [r7, #8]
 8001e3e:	697b      	ldr	r3, [r7, #20]
 8001e40:	4413      	add	r3, r2
 8001e42:	781b      	ldrb	r3, [r3, #0]
 8001e44:	2b00      	cmp	r3, #0
 8001e46:	d006      	beq.n	8001e56 <prvInitialiseNewTask+0x86>
 8001e48:	697b      	ldr	r3, [r7, #20]
 8001e4a:	3301      	adds	r3, #1
 8001e4c:	617b      	str	r3, [r7, #20]
 8001e4e:	697b      	ldr	r3, [r7, #20]
 8001e50:	2b0f      	cmp	r3, #15
 8001e52:	d9e9      	bls.n	8001e28 <prvInitialiseNewTask+0x58>
 8001e54:	e000      	b.n	8001e58 <prvInitialiseNewTask+0x88>
 8001e56:	bf00      	nop
 8001e58:	6abb      	ldr	r3, [r7, #40]	; 0x28
 8001e5a:	2200      	movs	r2, #0
 8001e5c:	f883 2043 	strb.w	r2, [r3, #67]	; 0x43
 8001e60:	6a3b      	ldr	r3, [r7, #32]
 8001e62:	2b04      	cmp	r3, #4
 8001e64:	d904      	bls.n	8001e70 <prvInitialiseNewTask+0xa0>
 8001e66:	491b      	ldr	r1, [pc, #108]	; (8001ed4 <prvInitialiseNewTask+0x104>)
 8001e68:	f240 3092 	movw	r0, #914	; 0x392
 8001e6c:	f004 f82b 	bl	8005ec6 <vAssertCalled>
 8001e70:	6a3b      	ldr	r3, [r7, #32]
 8001e72:	2b04      	cmp	r3, #4
 8001e74:	d901      	bls.n	8001e7a <prvInitialiseNewTask+0xaa>
 8001e76:	2304      	movs	r3, #4
 8001e78:	623b      	str	r3, [r7, #32]
 8001e7a:	6abb      	ldr	r3, [r7, #40]	; 0x28
 8001e7c:	6a3a      	ldr	r2, [r7, #32]
 8001e7e:	62da      	str	r2, [r3, #44]	; 0x2c
 8001e80:	6abb      	ldr	r3, [r7, #40]	; 0x28
 8001e82:	6a3a      	ldr	r2, [r7, #32]
 8001e84:	64da      	str	r2, [r3, #76]	; 0x4c
 8001e86:	6abb      	ldr	r3, [r7, #40]	; 0x28
 8001e88:	3304      	adds	r3, #4
 8001e8a:	4618      	mov	r0, r3
 8001e8c:	f001 f970 	bl	8003170 <vListInitialiseItem>
 8001e90:	6abb      	ldr	r3, [r7, #40]	; 0x28
 8001e92:	3318      	adds	r3, #24
 8001e94:	4618      	mov	r0, r3
 8001e96:	f001 f96b 	bl	8003170 <vListInitialiseItem>
 8001e9a:	6abb      	ldr	r3, [r7, #40]	; 0x28
 8001e9c:	6aba      	ldr	r2, [r7, #40]	; 0x28
 8001e9e:	611a      	str	r2, [r3, #16]
 8001ea0:	6a3b      	ldr	r3, [r7, #32]
 8001ea2:	f1c3 0205 	rsb	r2, r3, #5
 8001ea6:	6abb      	ldr	r3, [r7, #40]	; 0x28
 8001ea8:	619a      	str	r2, [r3, #24]
 8001eaa:	6abb      	ldr	r3, [r7, #40]	; 0x28
 8001eac:	6aba      	ldr	r2, [r7, #40]	; 0x28
 8001eae:	625a      	str	r2, [r3, #36]	; 0x24
 8001eb0:	683a      	ldr	r2, [r7, #0]
 8001eb2:	68f9      	ldr	r1, [r7, #12]
 8001eb4:	6938      	ldr	r0, [r7, #16]
 8001eb6:	f001 f9ef 	bl	8003298 <pxPortInitialiseStack>
 8001eba:	4602      	mov	r2, r0
 8001ebc:	6abb      	ldr	r3, [r7, #40]	; 0x28
 8001ebe:	601a      	str	r2, [r3, #0]
 8001ec0:	6a7b      	ldr	r3, [r7, #36]	; 0x24
 8001ec2:	2b00      	cmp	r3, #0
 8001ec4:	d002      	beq.n	8001ecc <prvInitialiseNewTask+0xfc>
 8001ec6:	6a7b      	ldr	r3, [r7, #36]	; 0x24
 8001ec8:	6aba      	ldr	r2, [r7, #40]	; 0x28
 8001eca:	601a      	str	r2, [r3, #0]
 8001ecc:	bf00      	nop
 8001ece:	3718      	adds	r7, #24
 8001ed0:	46bd      	mov	sp, r7
 8001ed2:	bd80      	pop	{r7, pc}
 8001ed4:	0800a028 	.word	0x0800a028

08001ed8 <prvAddNewTaskToReadyList>:
 8001ed8:	b580      	push	{r7, lr}
 8001eda:	b084      	sub	sp, #16
 8001edc:	af00      	add	r7, sp, #0
 8001ede:	6078      	str	r0, [r7, #4]
 8001ee0:	f001 faf2 	bl	80034c8 <vPortEnterCritical>
 8001ee4:	4b40      	ldr	r3, [pc, #256]	; (8001fe8 <prvAddNewTaskToReadyList+0x110>)
 8001ee6:	681b      	ldr	r3, [r3, #0]
 8001ee8:	3301      	adds	r3, #1
 8001eea:	4a3f      	ldr	r2, [pc, #252]	; (8001fe8 <prvAddNewTaskToReadyList+0x110>)
 8001eec:	6013      	str	r3, [r2, #0]
 8001eee:	4b3f      	ldr	r3, [pc, #252]	; (8001fec <prvAddNewTaskToReadyList+0x114>)
 8001ef0:	681b      	ldr	r3, [r3, #0]
 8001ef2:	2b00      	cmp	r3, #0
 8001ef4:	d109      	bne.n	8001f0a <prvAddNewTaskToReadyList+0x32>
 8001ef6:	4a3d      	ldr	r2, [pc, #244]	; (8001fec <prvAddNewTaskToReadyList+0x114>)
 8001ef8:	687b      	ldr	r3, [r7, #4]
 8001efa:	6013      	str	r3, [r2, #0]
 8001efc:	4b3a      	ldr	r3, [pc, #232]	; (8001fe8 <prvAddNewTaskToReadyList+0x110>)
 8001efe:	681b      	ldr	r3, [r3, #0]
 8001f00:	2b01      	cmp	r3, #1
 8001f02:	d110      	bne.n	8001f26 <prvAddNewTaskToReadyList+0x4e>
 8001f04:	f000 fdd4 	bl	8002ab0 <prvInitialiseTaskLists>
 8001f08:	e00d      	b.n	8001f26 <prvAddNewTaskToReadyList+0x4e>
 8001f0a:	4b39      	ldr	r3, [pc, #228]	; (8001ff0 <prvAddNewTaskToReadyList+0x118>)
 8001f0c:	681b      	ldr	r3, [r3, #0]
 8001f0e:	2b00      	cmp	r3, #0
 8001f10:	d109      	bne.n	8001f26 <prvAddNewTaskToReadyList+0x4e>
 8001f12:	4b36      	ldr	r3, [pc, #216]	; (8001fec <prvAddNewTaskToReadyList+0x114>)
 8001f14:	681b      	ldr	r3, [r3, #0]
 8001f16:	6ada      	ldr	r2, [r3, #44]	; 0x2c
 8001f18:	687b      	ldr	r3, [r7, #4]
 8001f1a:	6adb      	ldr	r3, [r3, #44]	; 0x2c
 8001f1c:	429a      	cmp	r2, r3
 8001f1e:	d802      	bhi.n	8001f26 <prvAddNewTaskToReadyList+0x4e>
 8001f20:	4a32      	ldr	r2, [pc, #200]	; (8001fec <prvAddNewTaskToReadyList+0x114>)
 8001f22:	687b      	ldr	r3, [r7, #4]
 8001f24:	6013      	str	r3, [r2, #0]
 8001f26:	4b33      	ldr	r3, [pc, #204]	; (8001ff4 <prvAddNewTaskToReadyList+0x11c>)
 8001f28:	681b      	ldr	r3, [r3, #0]
 8001f2a:	3301      	adds	r3, #1
 8001f2c:	4a31      	ldr	r2, [pc, #196]	; (8001ff4 <prvAddNewTaskToReadyList+0x11c>)
 8001f2e:	6013      	str	r3, [r2, #0]
 8001f30:	4b30      	ldr	r3, [pc, #192]	; (8001ff4 <prvAddNewTaskToReadyList+0x11c>)
 8001f32:	681a      	ldr	r2, [r3, #0]
 8001f34:	687b      	ldr	r3, [r7, #4]
 8001f36:	645a      	str	r2, [r3, #68]	; 0x44
 8001f38:	687b      	ldr	r3, [r7, #4]
 8001f3a:	6adb      	ldr	r3, [r3, #44]	; 0x2c
 8001f3c:	2201      	movs	r2, #1
 8001f3e:	409a      	lsls	r2, r3
 8001f40:	4b2d      	ldr	r3, [pc, #180]	; (8001ff8 <prvAddNewTaskToReadyList+0x120>)
 8001f42:	681b      	ldr	r3, [r3, #0]
 8001f44:	4313      	orrs	r3, r2
 8001f46:	4a2c      	ldr	r2, [pc, #176]	; (8001ff8 <prvAddNewTaskToReadyList+0x120>)
 8001f48:	6013      	str	r3, [r2, #0]
 8001f4a:	687b      	ldr	r3, [r7, #4]
 8001f4c:	6ada      	ldr	r2, [r3, #44]	; 0x2c
 8001f4e:	492b      	ldr	r1, [pc, #172]	; (8001ffc <prvAddNewTaskToReadyList+0x124>)
 8001f50:	4613      	mov	r3, r2
 8001f52:	009b      	lsls	r3, r3, #2
 8001f54:	4413      	add	r3, r2
 8001f56:	009b      	lsls	r3, r3, #2
 8001f58:	440b      	add	r3, r1
 8001f5a:	3304      	adds	r3, #4
 8001f5c:	681b      	ldr	r3, [r3, #0]
 8001f5e:	60fb      	str	r3, [r7, #12]
 8001f60:	687b      	ldr	r3, [r7, #4]
 8001f62:	68fa      	ldr	r2, [r7, #12]
 8001f64:	609a      	str	r2, [r3, #8]
 8001f66:	68fb      	ldr	r3, [r7, #12]
 8001f68:	689a      	ldr	r2, [r3, #8]
 8001f6a:	687b      	ldr	r3, [r7, #4]
 8001f6c:	60da      	str	r2, [r3, #12]
 8001f6e:	68fb      	ldr	r3, [r7, #12]
 8001f70:	689b      	ldr	r3, [r3, #8]
 8001f72:	687a      	ldr	r2, [r7, #4]
 8001f74:	3204      	adds	r2, #4
 8001f76:	605a      	str	r2, [r3, #4]
 8001f78:	687b      	ldr	r3, [r7, #4]
 8001f7a:	1d1a      	adds	r2, r3, #4
 8001f7c:	68fb      	ldr	r3, [r7, #12]
 8001f7e:	609a      	str	r2, [r3, #8]
 8001f80:	687b      	ldr	r3, [r7, #4]
 8001f82:	6ada      	ldr	r2, [r3, #44]	; 0x2c
 8001f84:	4613      	mov	r3, r2
 8001f86:	009b      	lsls	r3, r3, #2
 8001f88:	4413      	add	r3, r2
 8001f8a:	009b      	lsls	r3, r3, #2
 8001f8c:	4a1b      	ldr	r2, [pc, #108]	; (8001ffc <prvAddNewTaskToReadyList+0x124>)
 8001f8e:	441a      	add	r2, r3
 8001f90:	687b      	ldr	r3, [r7, #4]
 8001f92:	615a      	str	r2, [r3, #20]
 8001f94:	687b      	ldr	r3, [r7, #4]
 8001f96:	6ada      	ldr	r2, [r3, #44]	; 0x2c
 8001f98:	4918      	ldr	r1, [pc, #96]	; (8001ffc <prvAddNewTaskToReadyList+0x124>)
 8001f9a:	4613      	mov	r3, r2
 8001f9c:	009b      	lsls	r3, r3, #2
 8001f9e:	4413      	add	r3, r2
 8001fa0:	009b      	lsls	r3, r3, #2
 8001fa2:	440b      	add	r3, r1
 8001fa4:	681b      	ldr	r3, [r3, #0]
 8001fa6:	1c59      	adds	r1, r3, #1
 8001fa8:	4814      	ldr	r0, [pc, #80]	; (8001ffc <prvAddNewTaskToReadyList+0x124>)
 8001faa:	4613      	mov	r3, r2
 8001fac:	009b      	lsls	r3, r3, #2
 8001fae:	4413      	add	r3, r2
 8001fb0:	009b      	lsls	r3, r3, #2
 8001fb2:	4403      	add	r3, r0
 8001fb4:	6019      	str	r1, [r3, #0]
 8001fb6:	f001 fab1 	bl	800351c <vPortExitCritical>
 8001fba:	4b0d      	ldr	r3, [pc, #52]	; (8001ff0 <prvAddNewTaskToReadyList+0x118>)
 8001fbc:	681b      	ldr	r3, [r3, #0]
 8001fbe:	2b00      	cmp	r3, #0
 8001fc0:	d00e      	beq.n	8001fe0 <prvAddNewTaskToReadyList+0x108>
 8001fc2:	4b0a      	ldr	r3, [pc, #40]	; (8001fec <prvAddNewTaskToReadyList+0x114>)
 8001fc4:	681b      	ldr	r3, [r3, #0]
 8001fc6:	6ada      	ldr	r2, [r3, #44]	; 0x2c
 8001fc8:	687b      	ldr	r3, [r7, #4]
 8001fca:	6adb      	ldr	r3, [r3, #44]	; 0x2c
 8001fcc:	429a      	cmp	r2, r3
 8001fce:	d207      	bcs.n	8001fe0 <prvAddNewTaskToReadyList+0x108>
 8001fd0:	4b0b      	ldr	r3, [pc, #44]	; (8002000 <prvAddNewTaskToReadyList+0x128>)
 8001fd2:	f04f 5280 	mov.w	r2, #268435456	; 0x10000000
 8001fd6:	601a      	str	r2, [r3, #0]
 8001fd8:	f3bf 8f4f 	dsb	sy
 8001fdc:	f3bf 8f6f 	isb	sy
 8001fe0:	bf00      	nop
 8001fe2:	3710      	adds	r7, #16
 8001fe4:	46bd      	mov	sp, r7
 8001fe6:	bd80      	pop	{r7, pc}
 8001fe8:	200000f8 	.word	0x200000f8
 8001fec:	20000020 	.word	0x20000020
 8001ff0:	20000104 	.word	0x20000104
 8001ff4:	20000114 	.word	0x20000114
 8001ff8:	20000100 	.word	0x20000100
 8001ffc:	20000024 	.word	0x20000024
 8002000:	e000ed04 	.word	0xe000ed04

08002004 <vTaskDelete>:
 8002004:	b580      	push	{r7, lr}
 8002006:	b084      	sub	sp, #16
 8002008:	af00      	add	r7, sp, #0
 800200a:	6078      	str	r0, [r7, #4]
 800200c:	f001 fa5c 	bl	80034c8 <vPortEnterCritical>
 8002010:	687b      	ldr	r3, [r7, #4]
 8002012:	2b00      	cmp	r3, #0
 8002014:	d102      	bne.n	800201c <vTaskDelete+0x18>
 8002016:	4b38      	ldr	r3, [pc, #224]	; (80020f8 <vTaskDelete+0xf4>)
 8002018:	681b      	ldr	r3, [r3, #0]
 800201a:	e000      	b.n	800201e <vTaskDelete+0x1a>
 800201c:	687b      	ldr	r3, [r7, #4]
 800201e:	60fb      	str	r3, [r7, #12]
 8002020:	68fb      	ldr	r3, [r7, #12]
 8002022:	3304      	adds	r3, #4
 8002024:	4618      	mov	r0, r3
 8002026:	f001 f90d 	bl	8003244 <uxListRemove>
 800202a:	4603      	mov	r3, r0
 800202c:	2b00      	cmp	r3, #0
 800202e:	d115      	bne.n	800205c <vTaskDelete+0x58>
 8002030:	68fb      	ldr	r3, [r7, #12]
 8002032:	6ada      	ldr	r2, [r3, #44]	; 0x2c
 8002034:	4931      	ldr	r1, [pc, #196]	; (80020fc <vTaskDelete+0xf8>)
 8002036:	4613      	mov	r3, r2
 8002038:	009b      	lsls	r3, r3, #2
 800203a:	4413      	add	r3, r2
 800203c:	009b      	lsls	r3, r3, #2
 800203e:	440b      	add	r3, r1
 8002040:	681b      	ldr	r3, [r3, #0]
 8002042:	2b00      	cmp	r3, #0
 8002044:	d10a      	bne.n	800205c <vTaskDelete+0x58>
 8002046:	68fb      	ldr	r3, [r7, #12]
 8002048:	6adb      	ldr	r3, [r3, #44]	; 0x2c
 800204a:	2201      	movs	r2, #1
 800204c:	fa02 f303 	lsl.w	r3, r2, r3
 8002050:	43da      	mvns	r2, r3
 8002052:	4b2b      	ldr	r3, [pc, #172]	; (8002100 <vTaskDelete+0xfc>)
 8002054:	681b      	ldr	r3, [r3, #0]
 8002056:	4013      	ands	r3, r2
 8002058:	4a29      	ldr	r2, [pc, #164]	; (8002100 <vTaskDelete+0xfc>)
 800205a:	6013      	str	r3, [r2, #0]
 800205c:	68fb      	ldr	r3, [r7, #12]
 800205e:	6a9b      	ldr	r3, [r3, #40]	; 0x28
 8002060:	2b00      	cmp	r3, #0
 8002062:	d004      	beq.n	800206e <vTaskDelete+0x6a>
 8002064:	68fb      	ldr	r3, [r7, #12]
 8002066:	3318      	adds	r3, #24
 8002068:	4618      	mov	r0, r3
 800206a:	f001 f8eb 	bl	8003244 <uxListRemove>
 800206e:	4b25      	ldr	r3, [pc, #148]	; (8002104 <vTaskDelete+0x100>)
 8002070:	681b      	ldr	r3, [r3, #0]
 8002072:	3301      	adds	r3, #1
 8002074:	4a23      	ldr	r2, [pc, #140]	; (8002104 <vTaskDelete+0x100>)
 8002076:	6013      	str	r3, [r2, #0]
 8002078:	4b1f      	ldr	r3, [pc, #124]	; (80020f8 <vTaskDelete+0xf4>)
 800207a:	681b      	ldr	r3, [r3, #0]
 800207c:	68fa      	ldr	r2, [r7, #12]
 800207e:	429a      	cmp	r2, r3
 8002080:	d10b      	bne.n	800209a <vTaskDelete+0x96>
 8002082:	68fb      	ldr	r3, [r7, #12]
 8002084:	3304      	adds	r3, #4
 8002086:	4619      	mov	r1, r3
 8002088:	481f      	ldr	r0, [pc, #124]	; (8002108 <vTaskDelete+0x104>)
 800208a:	f001 f87e 	bl	800318a <vListInsertEnd>
 800208e:	4b1f      	ldr	r3, [pc, #124]	; (800210c <vTaskDelete+0x108>)
 8002090:	681b      	ldr	r3, [r3, #0]
 8002092:	3301      	adds	r3, #1
 8002094:	4a1d      	ldr	r2, [pc, #116]	; (800210c <vTaskDelete+0x108>)
 8002096:	6013      	str	r3, [r2, #0]
 8002098:	e006      	b.n	80020a8 <vTaskDelete+0xa4>
 800209a:	4b1d      	ldr	r3, [pc, #116]	; (8002110 <vTaskDelete+0x10c>)
 800209c:	681b      	ldr	r3, [r3, #0]
 800209e:	3b01      	subs	r3, #1
 80020a0:	4a1b      	ldr	r2, [pc, #108]	; (8002110 <vTaskDelete+0x10c>)
 80020a2:	6013      	str	r3, [r2, #0]
 80020a4:	f000 fd82 	bl	8002bac <prvResetNextTaskUnblockTime>
 80020a8:	f001 fa38 	bl	800351c <vPortExitCritical>
 80020ac:	4b12      	ldr	r3, [pc, #72]	; (80020f8 <vTaskDelete+0xf4>)
 80020ae:	681b      	ldr	r3, [r3, #0]
 80020b0:	68fa      	ldr	r2, [r7, #12]
 80020b2:	429a      	cmp	r2, r3
 80020b4:	d002      	beq.n	80020bc <vTaskDelete+0xb8>
 80020b6:	68f8      	ldr	r0, [r7, #12]
 80020b8:	f000 fd68 	bl	8002b8c <prvDeleteTCB>
 80020bc:	4b15      	ldr	r3, [pc, #84]	; (8002114 <vTaskDelete+0x110>)
 80020be:	681b      	ldr	r3, [r3, #0]
 80020c0:	2b00      	cmp	r3, #0
 80020c2:	d015      	beq.n	80020f0 <vTaskDelete+0xec>
 80020c4:	4b0c      	ldr	r3, [pc, #48]	; (80020f8 <vTaskDelete+0xf4>)
 80020c6:	681b      	ldr	r3, [r3, #0]
 80020c8:	68fa      	ldr	r2, [r7, #12]
 80020ca:	429a      	cmp	r2, r3
 80020cc:	d110      	bne.n	80020f0 <vTaskDelete+0xec>
 80020ce:	4b12      	ldr	r3, [pc, #72]	; (8002118 <vTaskDelete+0x114>)
 80020d0:	681b      	ldr	r3, [r3, #0]
 80020d2:	2b00      	cmp	r3, #0
 80020d4:	d004      	beq.n	80020e0 <vTaskDelete+0xdc>
 80020d6:	4911      	ldr	r1, [pc, #68]	; (800211c <vTaskDelete+0x118>)
 80020d8:	f240 40af 	movw	r0, #1199	; 0x4af
 80020dc:	f003 fef3 	bl	8005ec6 <vAssertCalled>
 80020e0:	4b0f      	ldr	r3, [pc, #60]	; (8002120 <vTaskDelete+0x11c>)
 80020e2:	f04f 5280 	mov.w	r2, #268435456	; 0x10000000
 80020e6:	601a      	str	r2, [r3, #0]
 80020e8:	f3bf 8f4f 	dsb	sy
 80020ec:	f3bf 8f6f 	isb	sy
 80020f0:	bf00      	nop
 80020f2:	3710      	adds	r7, #16
 80020f4:	46bd      	mov	sp, r7
 80020f6:	bd80      	pop	{r7, pc}
 80020f8:	20000020 	.word	0x20000020
 80020fc:	20000024 	.word	0x20000024
 8002100:	20000100 	.word	0x20000100
 8002104:	20000114 	.word	0x20000114
 8002108:	200000cc 	.word	0x200000cc
 800210c:	200000e0 	.word	0x200000e0
 8002110:	200000f8 	.word	0x200000f8
 8002114:	20000104 	.word	0x20000104
 8002118:	20000120 	.word	0x20000120
 800211c:	0800a028 	.word	0x0800a028
 8002120:	e000ed04 	.word	0xe000ed04

08002124 <vTaskStartScheduler>:
 8002124:	b580      	push	{r7, lr}
 8002126:	b084      	sub	sp, #16
 8002128:	af02      	add	r7, sp, #8
 800212a:	4b1d      	ldr	r3, [pc, #116]	; (80021a0 <vTaskStartScheduler+0x7c>)
 800212c:	9301      	str	r3, [sp, #4]
 800212e:	2300      	movs	r3, #0
 8002130:	9300      	str	r3, [sp, #0]
 8002132:	2300      	movs	r3, #0
 8002134:	2250      	movs	r2, #80	; 0x50
 8002136:	491b      	ldr	r1, [pc, #108]	; (80021a4 <vTaskStartScheduler+0x80>)
 8002138:	481b      	ldr	r0, [pc, #108]	; (80021a8 <vTaskStartScheduler+0x84>)
 800213a:	f7ff fe02 	bl	8001d42 <xTaskCreate>
 800213e:	6078      	str	r0, [r7, #4]
 8002140:	687b      	ldr	r3, [r7, #4]
 8002142:	2b01      	cmp	r3, #1
 8002144:	d102      	bne.n	800214c <vTaskStartScheduler+0x28>
 8002146:	f001 fac3 	bl	80036d0 <xTimerCreateTimerTask>
 800214a:	6078      	str	r0, [r7, #4]
 800214c:	687b      	ldr	r3, [r7, #4]
 800214e:	2b01      	cmp	r3, #1
 8002150:	d116      	bne.n	8002180 <vTaskStartScheduler+0x5c>
 8002152:	f04f 0350 	mov.w	r3, #80	; 0x50
 8002156:	f383 8811 	msr	BASEPRI, r3
 800215a:	f3bf 8f6f 	isb	sy
 800215e:	f3bf 8f4f 	dsb	sy
 8002162:	603b      	str	r3, [r7, #0]
 8002164:	bf00      	nop
 8002166:	4b11      	ldr	r3, [pc, #68]	; (80021ac <vTaskStartScheduler+0x88>)
 8002168:	f04f 32ff 	mov.w	r2, #4294967295
 800216c:	601a      	str	r2, [r3, #0]
 800216e:	4b10      	ldr	r3, [pc, #64]	; (80021b0 <vTaskStartScheduler+0x8c>)
 8002170:	2201      	movs	r2, #1
 8002172:	601a      	str	r2, [r3, #0]
 8002174:	4b0f      	ldr	r3, [pc, #60]	; (80021b4 <vTaskStartScheduler+0x90>)
 8002176:	2200      	movs	r2, #0
 8002178:	601a      	str	r2, [r3, #0]
 800217a:	f001 f913 	bl	80033a4 <xPortStartScheduler>
 800217e:	e008      	b.n	8002192 <vTaskStartScheduler+0x6e>
 8002180:	687b      	ldr	r3, [r7, #4]
 8002182:	f1b3 3fff 	cmp.w	r3, #4294967295
 8002186:	d104      	bne.n	8002192 <vTaskStartScheduler+0x6e>
 8002188:	490b      	ldr	r1, [pc, #44]	; (80021b8 <vTaskStartScheduler+0x94>)
 800218a:	f44f 6001 	mov.w	r0, #2064	; 0x810
 800218e:	f003 fe9a 	bl	8005ec6 <vAssertCalled>
 8002192:	4b0a      	ldr	r3, [pc, #40]	; (80021bc <vTaskStartScheduler+0x98>)
 8002194:	681b      	ldr	r3, [r3, #0]
 8002196:	bf00      	nop
 8002198:	3708      	adds	r7, #8
 800219a:	46bd      	mov	sp, r7
 800219c:	bd80      	pop	{r7, pc}
 800219e:	bf00      	nop
 80021a0:	2000011c 	.word	0x2000011c
 80021a4:	0800a040 	.word	0x0800a040
 80021a8:	08002a81 	.word	0x08002a81
 80021ac:	20000118 	.word	0x20000118
 80021b0:	20000104 	.word	0x20000104
 80021b4:	200000fc 	.word	0x200000fc
 80021b8:	0800a028 	.word	0x0800a028
 80021bc:	20000000 	.word	0x20000000

080021c0 <vTaskSuspendAll>:
 80021c0:	b480      	push	{r7}
 80021c2:	af00      	add	r7, sp, #0
 80021c4:	4b04      	ldr	r3, [pc, #16]	; (80021d8 <vTaskSuspendAll+0x18>)
 80021c6:	681b      	ldr	r3, [r3, #0]
 80021c8:	3301      	adds	r3, #1
 80021ca:	4a03      	ldr	r2, [pc, #12]	; (80021d8 <vTaskSuspendAll+0x18>)
 80021cc:	6013      	str	r3, [r2, #0]
 80021ce:	bf00      	nop
 80021d0:	46bd      	mov	sp, r7
 80021d2:	f85d 7b04 	ldr.w	r7, [sp], #4
 80021d6:	4770      	bx	lr
 80021d8:	20000120 	.word	0x20000120

080021dc <xTaskResumeAll>:
 80021dc:	b580      	push	{r7, lr}
 80021de:	b086      	sub	sp, #24
 80021e0:	af00      	add	r7, sp, #0
 80021e2:	2300      	movs	r3, #0
 80021e4:	617b      	str	r3, [r7, #20]
 80021e6:	2300      	movs	r3, #0
 80021e8:	613b      	str	r3, [r7, #16]
 80021ea:	4b6e      	ldr	r3, [pc, #440]	; (80023a4 <xTaskResumeAll+0x1c8>)
 80021ec:	681b      	ldr	r3, [r3, #0]
 80021ee:	2b00      	cmp	r3, #0
 80021f0:	d104      	bne.n	80021fc <xTaskResumeAll+0x20>
 80021f2:	496d      	ldr	r1, [pc, #436]	; (80023a8 <xTaskResumeAll+0x1cc>)
 80021f4:	f640 0083 	movw	r0, #2179	; 0x883
 80021f8:	f003 fe65 	bl	8005ec6 <vAssertCalled>
 80021fc:	f001 f964 	bl	80034c8 <vPortEnterCritical>
 8002200:	4b68      	ldr	r3, [pc, #416]	; (80023a4 <xTaskResumeAll+0x1c8>)
 8002202:	681b      	ldr	r3, [r3, #0]
 8002204:	3b01      	subs	r3, #1
 8002206:	4a67      	ldr	r2, [pc, #412]	; (80023a4 <xTaskResumeAll+0x1c8>)
 8002208:	6013      	str	r3, [r2, #0]
 800220a:	4b66      	ldr	r3, [pc, #408]	; (80023a4 <xTaskResumeAll+0x1c8>)
 800220c:	681b      	ldr	r3, [r3, #0]
 800220e:	2b00      	cmp	r3, #0
 8002210:	f040 80c0 	bne.w	8002394 <xTaskResumeAll+0x1b8>
 8002214:	4b65      	ldr	r3, [pc, #404]	; (80023ac <xTaskResumeAll+0x1d0>)
 8002216:	681b      	ldr	r3, [r3, #0]
 8002218:	2b00      	cmp	r3, #0
 800221a:	f000 80bb 	beq.w	8002394 <xTaskResumeAll+0x1b8>
 800221e:	e08a      	b.n	8002336 <xTaskResumeAll+0x15a>
 8002220:	4b63      	ldr	r3, [pc, #396]	; (80023b0 <xTaskResumeAll+0x1d4>)
 8002222:	68db      	ldr	r3, [r3, #12]
 8002224:	68db      	ldr	r3, [r3, #12]
 8002226:	617b      	str	r3, [r7, #20]
 8002228:	697b      	ldr	r3, [r7, #20]
 800222a:	6a9b      	ldr	r3, [r3, #40]	; 0x28
 800222c:	60bb      	str	r3, [r7, #8]
 800222e:	697b      	ldr	r3, [r7, #20]
 8002230:	69db      	ldr	r3, [r3, #28]
 8002232:	697a      	ldr	r2, [r7, #20]
 8002234:	6a12      	ldr	r2, [r2, #32]
 8002236:	609a      	str	r2, [r3, #8]
 8002238:	697b      	ldr	r3, [r7, #20]
 800223a:	6a1b      	ldr	r3, [r3, #32]
 800223c:	697a      	ldr	r2, [r7, #20]
 800223e:	69d2      	ldr	r2, [r2, #28]
 8002240:	605a      	str	r2, [r3, #4]
 8002242:	68bb      	ldr	r3, [r7, #8]
 8002244:	685a      	ldr	r2, [r3, #4]
 8002246:	697b      	ldr	r3, [r7, #20]
 8002248:	3318      	adds	r3, #24
 800224a:	429a      	cmp	r2, r3
 800224c:	d103      	bne.n	8002256 <xTaskResumeAll+0x7a>
 800224e:	697b      	ldr	r3, [r7, #20]
 8002250:	6a1a      	ldr	r2, [r3, #32]
 8002252:	68bb      	ldr	r3, [r7, #8]
 8002254:	605a      	str	r2, [r3, #4]
 8002256:	697b      	ldr	r3, [r7, #20]
 8002258:	2200      	movs	r2, #0
 800225a:	629a      	str	r2, [r3, #40]	; 0x28
 800225c:	68bb      	ldr	r3, [r7, #8]
 800225e:	681b      	ldr	r3, [r3, #0]
 8002260:	1e5a      	subs	r2, r3, #1
 8002262:	68bb      	ldr	r3, [r7, #8]
 8002264:	601a      	str	r2, [r3, #0]
 8002266:	697b      	ldr	r3, [r7, #20]
 8002268:	695b      	ldr	r3, [r3, #20]
 800226a:	607b      	str	r3, [r7, #4]
 800226c:	697b      	ldr	r3, [r7, #20]
 800226e:	689b      	ldr	r3, [r3, #8]
 8002270:	697a      	ldr	r2, [r7, #20]
 8002272:	68d2      	ldr	r2, [r2, #12]
 8002274:	609a      	str	r2, [r3, #8]
 8002276:	697b      	ldr	r3, [r7, #20]
 8002278:	68db      	ldr	r3, [r3, #12]
 800227a:	697a      	ldr	r2, [r7, #20]
 800227c:	6892      	ldr	r2, [r2, #8]
 800227e:	605a      	str	r2, [r3, #4]
 8002280:	687b      	ldr	r3, [r7, #4]
 8002282:	685a      	ldr	r2, [r3, #4]
 8002284:	697b      	ldr	r3, [r7, #20]
 8002286:	3304      	adds	r3, #4
 8002288:	429a      	cmp	r2, r3
 800228a:	d103      	bne.n	8002294 <xTaskResumeAll+0xb8>
 800228c:	697b      	ldr	r3, [r7, #20]
 800228e:	68da      	ldr	r2, [r3, #12]
 8002290:	687b      	ldr	r3, [r7, #4]
 8002292:	605a      	str	r2, [r3, #4]
 8002294:	697b      	ldr	r3, [r7, #20]
 8002296:	2200      	movs	r2, #0
 8002298:	615a      	str	r2, [r3, #20]
 800229a:	687b      	ldr	r3, [r7, #4]
 800229c:	681b      	ldr	r3, [r3, #0]
 800229e:	1e5a      	subs	r2, r3, #1
 80022a0:	687b      	ldr	r3, [r7, #4]
 80022a2:	601a      	str	r2, [r3, #0]
 80022a4:	697b      	ldr	r3, [r7, #20]
 80022a6:	6adb      	ldr	r3, [r3, #44]	; 0x2c
 80022a8:	2201      	movs	r2, #1
 80022aa:	409a      	lsls	r2, r3
 80022ac:	4b41      	ldr	r3, [pc, #260]	; (80023b4 <xTaskResumeAll+0x1d8>)
 80022ae:	681b      	ldr	r3, [r3, #0]
 80022b0:	4313      	orrs	r3, r2
 80022b2:	4a40      	ldr	r2, [pc, #256]	; (80023b4 <xTaskResumeAll+0x1d8>)
 80022b4:	6013      	str	r3, [r2, #0]
 80022b6:	697b      	ldr	r3, [r7, #20]
 80022b8:	6ada      	ldr	r2, [r3, #44]	; 0x2c
 80022ba:	493f      	ldr	r1, [pc, #252]	; (80023b8 <xTaskResumeAll+0x1dc>)
 80022bc:	4613      	mov	r3, r2
 80022be:	009b      	lsls	r3, r3, #2
 80022c0:	4413      	add	r3, r2
 80022c2:	009b      	lsls	r3, r3, #2
 80022c4:	440b      	add	r3, r1
 80022c6:	3304      	adds	r3, #4
 80022c8:	681b      	ldr	r3, [r3, #0]
 80022ca:	603b      	str	r3, [r7, #0]
 80022cc:	697b      	ldr	r3, [r7, #20]
 80022ce:	683a      	ldr	r2, [r7, #0]
 80022d0:	609a      	str	r2, [r3, #8]
 80022d2:	683b      	ldr	r3, [r7, #0]
 80022d4:	689a      	ldr	r2, [r3, #8]
 80022d6:	697b      	ldr	r3, [r7, #20]
 80022d8:	60da      	str	r2, [r3, #12]
 80022da:	683b      	ldr	r3, [r7, #0]
 80022dc:	689b      	ldr	r3, [r3, #8]
 80022de:	697a      	ldr	r2, [r7, #20]
 80022e0:	3204      	adds	r2, #4
 80022e2:	605a      	str	r2, [r3, #4]
 80022e4:	697b      	ldr	r3, [r7, #20]
 80022e6:	1d1a      	adds	r2, r3, #4
 80022e8:	683b      	ldr	r3, [r7, #0]
 80022ea:	609a      	str	r2, [r3, #8]
 80022ec:	697b      	ldr	r3, [r7, #20]
 80022ee:	6ada      	ldr	r2, [r3, #44]	; 0x2c
 80022f0:	4613      	mov	r3, r2
 80022f2:	009b      	lsls	r3, r3, #2
 80022f4:	4413      	add	r3, r2
 80022f6:	009b      	lsls	r3, r3, #2
 80022f8:	4a2f      	ldr	r2, [pc, #188]	; (80023b8 <xTaskResumeAll+0x1dc>)
 80022fa:	441a      	add	r2, r3
 80022fc:	697b      	ldr	r3, [r7, #20]
 80022fe:	615a      	str	r2, [r3, #20]
 8002300:	697b      	ldr	r3, [r7, #20]
 8002302:	6ada      	ldr	r2, [r3, #44]	; 0x2c
 8002304:	492c      	ldr	r1, [pc, #176]	; (80023b8 <xTaskResumeAll+0x1dc>)
 8002306:	4613      	mov	r3, r2
 8002308:	009b      	lsls	r3, r3, #2
 800230a:	4413      	add	r3, r2
 800230c:	009b      	lsls	r3, r3, #2
 800230e:	440b      	add	r3, r1
 8002310:	681b      	ldr	r3, [r3, #0]
 8002312:	1c59      	adds	r1, r3, #1
 8002314:	4828      	ldr	r0, [pc, #160]	; (80023b8 <xTaskResumeAll+0x1dc>)
 8002316:	4613      	mov	r3, r2
 8002318:	009b      	lsls	r3, r3, #2
 800231a:	4413      	add	r3, r2
 800231c:	009b      	lsls	r3, r3, #2
 800231e:	4403      	add	r3, r0
 8002320:	6019      	str	r1, [r3, #0]
 8002322:	697b      	ldr	r3, [r7, #20]
 8002324:	6ada      	ldr	r2, [r3, #44]	; 0x2c
 8002326:	4b25      	ldr	r3, [pc, #148]	; (80023bc <xTaskResumeAll+0x1e0>)
 8002328:	681b      	ldr	r3, [r3, #0]
 800232a:	6adb      	ldr	r3, [r3, #44]	; 0x2c
 800232c:	429a      	cmp	r2, r3
 800232e:	d302      	bcc.n	8002336 <xTaskResumeAll+0x15a>
 8002330:	4b23      	ldr	r3, [pc, #140]	; (80023c0 <xTaskResumeAll+0x1e4>)
 8002332:	2201      	movs	r2, #1
 8002334:	601a      	str	r2, [r3, #0]
 8002336:	4b1e      	ldr	r3, [pc, #120]	; (80023b0 <xTaskResumeAll+0x1d4>)
 8002338:	681b      	ldr	r3, [r3, #0]
 800233a:	2b00      	cmp	r3, #0
 800233c:	f47f af70 	bne.w	8002220 <xTaskResumeAll+0x44>
 8002340:	697b      	ldr	r3, [r7, #20]
 8002342:	2b00      	cmp	r3, #0
 8002344:	d001      	beq.n	800234a <xTaskResumeAll+0x16e>
 8002346:	f000 fc31 	bl	8002bac <prvResetNextTaskUnblockTime>
 800234a:	4b1e      	ldr	r3, [pc, #120]	; (80023c4 <xTaskResumeAll+0x1e8>)
 800234c:	681b      	ldr	r3, [r3, #0]
 800234e:	60fb      	str	r3, [r7, #12]
 8002350:	68fb      	ldr	r3, [r7, #12]
 8002352:	2b00      	cmp	r3, #0
 8002354:	d010      	beq.n	8002378 <xTaskResumeAll+0x19c>
 8002356:	f000 f855 	bl	8002404 <xTaskIncrementTick>
 800235a:	4603      	mov	r3, r0
 800235c:	2b00      	cmp	r3, #0
 800235e:	d002      	beq.n	8002366 <xTaskResumeAll+0x18a>
 8002360:	4b17      	ldr	r3, [pc, #92]	; (80023c0 <xTaskResumeAll+0x1e4>)
 8002362:	2201      	movs	r2, #1
 8002364:	601a      	str	r2, [r3, #0]
 8002366:	68fb      	ldr	r3, [r7, #12]
 8002368:	3b01      	subs	r3, #1
 800236a:	60fb      	str	r3, [r7, #12]
 800236c:	68fb      	ldr	r3, [r7, #12]
 800236e:	2b00      	cmp	r3, #0
 8002370:	d1f1      	bne.n	8002356 <xTaskResumeAll+0x17a>
 8002372:	4b14      	ldr	r3, [pc, #80]	; (80023c4 <xTaskResumeAll+0x1e8>)
 8002374:	2200      	movs	r2, #0
 8002376:	601a      	str	r2, [r3, #0]
 8002378:	4b11      	ldr	r3, [pc, #68]	; (80023c0 <xTaskResumeAll+0x1e4>)
 800237a:	681b      	ldr	r3, [r3, #0]
 800237c:	2b00      	cmp	r3, #0
 800237e:	d009      	beq.n	8002394 <xTaskResumeAll+0x1b8>
 8002380:	2301      	movs	r3, #1
 8002382:	613b      	str	r3, [r7, #16]
 8002384:	4b10      	ldr	r3, [pc, #64]	; (80023c8 <xTaskResumeAll+0x1ec>)
 8002386:	f04f 5280 	mov.w	r2, #268435456	; 0x10000000
 800238a:	601a      	str	r2, [r3, #0]
 800238c:	f3bf 8f4f 	dsb	sy
 8002390:	f3bf 8f6f 	isb	sy
 8002394:	f001 f8c2 	bl	800351c <vPortExitCritical>
 8002398:	693b      	ldr	r3, [r7, #16]
 800239a:	4618      	mov	r0, r3
 800239c:	3718      	adds	r7, #24
 800239e:	46bd      	mov	sp, r7
 80023a0:	bd80      	pop	{r7, pc}
 80023a2:	bf00      	nop
 80023a4:	20000120 	.word	0x20000120
 80023a8:	0800a028 	.word	0x0800a028
 80023ac:	200000f8 	.word	0x200000f8
 80023b0:	200000b8 	.word	0x200000b8
 80023b4:	20000100 	.word	0x20000100
 80023b8:	20000024 	.word	0x20000024
 80023bc:	20000020 	.word	0x20000020
 80023c0:	2000010c 	.word	0x2000010c
 80023c4:	20000108 	.word	0x20000108
 80023c8:	e000ed04 	.word	0xe000ed04

080023cc <xTaskGetTickCount>:
 80023cc:	b480      	push	{r7}
 80023ce:	b083      	sub	sp, #12
 80023d0:	af00      	add	r7, sp, #0
 80023d2:	4b05      	ldr	r3, [pc, #20]	; (80023e8 <xTaskGetTickCount+0x1c>)
 80023d4:	681b      	ldr	r3, [r3, #0]
 80023d6:	607b      	str	r3, [r7, #4]
 80023d8:	687b      	ldr	r3, [r7, #4]
 80023da:	4618      	mov	r0, r3
 80023dc:	370c      	adds	r7, #12
 80023de:	46bd      	mov	sp, r7
 80023e0:	f85d 7b04 	ldr.w	r7, [sp], #4
 80023e4:	4770      	bx	lr
 80023e6:	bf00      	nop
 80023e8:	200000fc 	.word	0x200000fc

080023ec <uxTaskGetNumberOfTasks>:
 80023ec:	b480      	push	{r7}
 80023ee:	af00      	add	r7, sp, #0
 80023f0:	4b03      	ldr	r3, [pc, #12]	; (8002400 <uxTaskGetNumberOfTasks+0x14>)
 80023f2:	681b      	ldr	r3, [r3, #0]
 80023f4:	4618      	mov	r0, r3
 80023f6:	46bd      	mov	sp, r7
 80023f8:	f85d 7b04 	ldr.w	r7, [sp], #4
 80023fc:	4770      	bx	lr
 80023fe:	bf00      	nop
 8002400:	200000f8 	.word	0x200000f8

08002404 <xTaskIncrementTick>:
 8002404:	b580      	push	{r7, lr}
 8002406:	b088      	sub	sp, #32
 8002408:	af00      	add	r7, sp, #0
 800240a:	2300      	movs	r3, #0
 800240c:	61fb      	str	r3, [r7, #28]
 800240e:	4b7a      	ldr	r3, [pc, #488]	; (80025f8 <xTaskIncrementTick+0x1f4>)
 8002410:	681b      	ldr	r3, [r3, #0]
 8002412:	2b00      	cmp	r3, #0
 8002414:	f040 80e6 	bne.w	80025e4 <xTaskIncrementTick+0x1e0>
 8002418:	4b78      	ldr	r3, [pc, #480]	; (80025fc <xTaskIncrementTick+0x1f8>)
 800241a:	681b      	ldr	r3, [r3, #0]
 800241c:	3301      	adds	r3, #1
 800241e:	61bb      	str	r3, [r7, #24]
 8002420:	4a76      	ldr	r2, [pc, #472]	; (80025fc <xTaskIncrementTick+0x1f8>)
 8002422:	69bb      	ldr	r3, [r7, #24]
 8002424:	6013      	str	r3, [r2, #0]
 8002426:	69bb      	ldr	r3, [r7, #24]
 8002428:	2b00      	cmp	r3, #0
 800242a:	d11a      	bne.n	8002462 <xTaskIncrementTick+0x5e>
 800242c:	4b74      	ldr	r3, [pc, #464]	; (8002600 <xTaskIncrementTick+0x1fc>)
 800242e:	681b      	ldr	r3, [r3, #0]
 8002430:	681b      	ldr	r3, [r3, #0]
 8002432:	2b00      	cmp	r3, #0
 8002434:	d004      	beq.n	8002440 <xTaskIncrementTick+0x3c>
 8002436:	4973      	ldr	r1, [pc, #460]	; (8002604 <xTaskIncrementTick+0x200>)
 8002438:	f640 20b3 	movw	r0, #2739	; 0xab3
 800243c:	f003 fd43 	bl	8005ec6 <vAssertCalled>
 8002440:	4b6f      	ldr	r3, [pc, #444]	; (8002600 <xTaskIncrementTick+0x1fc>)
 8002442:	681b      	ldr	r3, [r3, #0]
 8002444:	617b      	str	r3, [r7, #20]
 8002446:	4b70      	ldr	r3, [pc, #448]	; (8002608 <xTaskIncrementTick+0x204>)
 8002448:	681b      	ldr	r3, [r3, #0]
 800244a:	4a6d      	ldr	r2, [pc, #436]	; (8002600 <xTaskIncrementTick+0x1fc>)
 800244c:	6013      	str	r3, [r2, #0]
 800244e:	4a6e      	ldr	r2, [pc, #440]	; (8002608 <xTaskIncrementTick+0x204>)
 8002450:	697b      	ldr	r3, [r7, #20]
 8002452:	6013      	str	r3, [r2, #0]
 8002454:	4b6d      	ldr	r3, [pc, #436]	; (800260c <xTaskIncrementTick+0x208>)
 8002456:	681b      	ldr	r3, [r3, #0]
 8002458:	3301      	adds	r3, #1
 800245a:	4a6c      	ldr	r2, [pc, #432]	; (800260c <xTaskIncrementTick+0x208>)
 800245c:	6013      	str	r3, [r2, #0]
 800245e:	f000 fba5 	bl	8002bac <prvResetNextTaskUnblockTime>
 8002462:	4b6b      	ldr	r3, [pc, #428]	; (8002610 <xTaskIncrementTick+0x20c>)
 8002464:	681b      	ldr	r3, [r3, #0]
 8002466:	69ba      	ldr	r2, [r7, #24]
 8002468:	429a      	cmp	r2, r3
 800246a:	f0c0 80a6 	bcc.w	80025ba <xTaskIncrementTick+0x1b6>
 800246e:	4b64      	ldr	r3, [pc, #400]	; (8002600 <xTaskIncrementTick+0x1fc>)
 8002470:	681b      	ldr	r3, [r3, #0]
 8002472:	681b      	ldr	r3, [r3, #0]
 8002474:	2b00      	cmp	r3, #0
 8002476:	d104      	bne.n	8002482 <xTaskIncrementTick+0x7e>
 8002478:	4b65      	ldr	r3, [pc, #404]	; (8002610 <xTaskIncrementTick+0x20c>)
 800247a:	f04f 32ff 	mov.w	r2, #4294967295
 800247e:	601a      	str	r2, [r3, #0]
 8002480:	e09b      	b.n	80025ba <xTaskIncrementTick+0x1b6>
 8002482:	4b5f      	ldr	r3, [pc, #380]	; (8002600 <xTaskIncrementTick+0x1fc>)
 8002484:	681b      	ldr	r3, [r3, #0]
 8002486:	68db      	ldr	r3, [r3, #12]
 8002488:	68db      	ldr	r3, [r3, #12]
 800248a:	613b      	str	r3, [r7, #16]
 800248c:	693b      	ldr	r3, [r7, #16]
 800248e:	685b      	ldr	r3, [r3, #4]
 8002490:	60fb      	str	r3, [r7, #12]
 8002492:	69ba      	ldr	r2, [r7, #24]
 8002494:	68fb      	ldr	r3, [r7, #12]
 8002496:	429a      	cmp	r2, r3
 8002498:	d203      	bcs.n	80024a2 <xTaskIncrementTick+0x9e>
 800249a:	4a5d      	ldr	r2, [pc, #372]	; (8002610 <xTaskIncrementTick+0x20c>)
 800249c:	68fb      	ldr	r3, [r7, #12]
 800249e:	6013      	str	r3, [r2, #0]
 80024a0:	e08b      	b.n	80025ba <xTaskIncrementTick+0x1b6>
 80024a2:	693b      	ldr	r3, [r7, #16]
 80024a4:	695b      	ldr	r3, [r3, #20]
 80024a6:	60bb      	str	r3, [r7, #8]
 80024a8:	693b      	ldr	r3, [r7, #16]
 80024aa:	689b      	ldr	r3, [r3, #8]
 80024ac:	693a      	ldr	r2, [r7, #16]
 80024ae:	68d2      	ldr	r2, [r2, #12]
 80024b0:	609a      	str	r2, [r3, #8]
 80024b2:	693b      	ldr	r3, [r7, #16]
 80024b4:	68db      	ldr	r3, [r3, #12]
 80024b6:	693a      	ldr	r2, [r7, #16]
 80024b8:	6892      	ldr	r2, [r2, #8]
 80024ba:	605a      	str	r2, [r3, #4]
 80024bc:	68bb      	ldr	r3, [r7, #8]
 80024be:	685a      	ldr	r2, [r3, #4]
 80024c0:	693b      	ldr	r3, [r7, #16]
 80024c2:	3304      	adds	r3, #4
 80024c4:	429a      	cmp	r2, r3
 80024c6:	d103      	bne.n	80024d0 <xTaskIncrementTick+0xcc>
 80024c8:	693b      	ldr	r3, [r7, #16]
 80024ca:	68da      	ldr	r2, [r3, #12]
 80024cc:	68bb      	ldr	r3, [r7, #8]
 80024ce:	605a      	str	r2, [r3, #4]
 80024d0:	693b      	ldr	r3, [r7, #16]
 80024d2:	2200      	movs	r2, #0
 80024d4:	615a      	str	r2, [r3, #20]
 80024d6:	68bb      	ldr	r3, [r7, #8]
 80024d8:	681b      	ldr	r3, [r3, #0]
 80024da:	1e5a      	subs	r2, r3, #1
 80024dc:	68bb      	ldr	r3, [r7, #8]
 80024de:	601a      	str	r2, [r3, #0]
 80024e0:	693b      	ldr	r3, [r7, #16]
 80024e2:	6a9b      	ldr	r3, [r3, #40]	; 0x28
 80024e4:	2b00      	cmp	r3, #0
 80024e6:	d01e      	beq.n	8002526 <xTaskIncrementTick+0x122>
 80024e8:	693b      	ldr	r3, [r7, #16]
 80024ea:	6a9b      	ldr	r3, [r3, #40]	; 0x28
 80024ec:	607b      	str	r3, [r7, #4]
 80024ee:	693b      	ldr	r3, [r7, #16]
 80024f0:	69db      	ldr	r3, [r3, #28]
 80024f2:	693a      	ldr	r2, [r7, #16]
 80024f4:	6a12      	ldr	r2, [r2, #32]
 80024f6:	609a      	str	r2, [r3, #8]
 80024f8:	693b      	ldr	r3, [r7, #16]
 80024fa:	6a1b      	ldr	r3, [r3, #32]
 80024fc:	693a      	ldr	r2, [r7, #16]
 80024fe:	69d2      	ldr	r2, [r2, #28]
 8002500:	605a      	str	r2, [r3, #4]
 8002502:	687b      	ldr	r3, [r7, #4]
 8002504:	685a      	ldr	r2, [r3, #4]
 8002506:	693b      	ldr	r3, [r7, #16]
 8002508:	3318      	adds	r3, #24
 800250a:	429a      	cmp	r2, r3
 800250c:	d103      	bne.n	8002516 <xTaskIncrementTick+0x112>
 800250e:	693b      	ldr	r3, [r7, #16]
 8002510:	6a1a      	ldr	r2, [r3, #32]
 8002512:	687b      	ldr	r3, [r7, #4]
 8002514:	605a      	str	r2, [r3, #4]
 8002516:	693b      	ldr	r3, [r7, #16]
 8002518:	2200      	movs	r2, #0
 800251a:	629a      	str	r2, [r3, #40]	; 0x28
 800251c:	687b      	ldr	r3, [r7, #4]
 800251e:	681b      	ldr	r3, [r3, #0]
 8002520:	1e5a      	subs	r2, r3, #1
 8002522:	687b      	ldr	r3, [r7, #4]
 8002524:	601a      	str	r2, [r3, #0]
 8002526:	693b      	ldr	r3, [r7, #16]
 8002528:	6adb      	ldr	r3, [r3, #44]	; 0x2c
 800252a:	2201      	movs	r2, #1
 800252c:	409a      	lsls	r2, r3
 800252e:	4b39      	ldr	r3, [pc, #228]	; (8002614 <xTaskIncrementTick+0x210>)
 8002530:	681b      	ldr	r3, [r3, #0]
 8002532:	4313      	orrs	r3, r2
 8002534:	4a37      	ldr	r2, [pc, #220]	; (8002614 <xTaskIncrementTick+0x210>)
 8002536:	6013      	str	r3, [r2, #0]
 8002538:	693b      	ldr	r3, [r7, #16]
 800253a:	6ada      	ldr	r2, [r3, #44]	; 0x2c
 800253c:	4936      	ldr	r1, [pc, #216]	; (8002618 <xTaskIncrementTick+0x214>)
 800253e:	4613      	mov	r3, r2
 8002540:	009b      	lsls	r3, r3, #2
 8002542:	4413      	add	r3, r2
 8002544:	009b      	lsls	r3, r3, #2
 8002546:	440b      	add	r3, r1
 8002548:	3304      	adds	r3, #4
 800254a:	681b      	ldr	r3, [r3, #0]
 800254c:	603b      	str	r3, [r7, #0]
 800254e:	693b      	ldr	r3, [r7, #16]
 8002550:	683a      	ldr	r2, [r7, #0]
 8002552:	609a      	str	r2, [r3, #8]
 8002554:	683b      	ldr	r3, [r7, #0]
 8002556:	689a      	ldr	r2, [r3, #8]
 8002558:	693b      	ldr	r3, [r7, #16]
 800255a:	60da      	str	r2, [r3, #12]
 800255c:	683b      	ldr	r3, [r7, #0]
 800255e:	689b      	ldr	r3, [r3, #8]
 8002560:	693a      	ldr	r2, [r7, #16]
 8002562:	3204      	adds	r2, #4
 8002564:	605a      	str	r2, [r3, #4]
 8002566:	693b      	ldr	r3, [r7, #16]
 8002568:	1d1a      	adds	r2, r3, #4
 800256a:	683b      	ldr	r3, [r7, #0]
 800256c:	609a      	str	r2, [r3, #8]
 800256e:	693b      	ldr	r3, [r7, #16]
 8002570:	6ada      	ldr	r2, [r3, #44]	; 0x2c
 8002572:	4613      	mov	r3, r2
 8002574:	009b      	lsls	r3, r3, #2
 8002576:	4413      	add	r3, r2
 8002578:	009b      	lsls	r3, r3, #2
 800257a:	4a27      	ldr	r2, [pc, #156]	; (8002618 <xTaskIncrementTick+0x214>)
 800257c:	441a      	add	r2, r3
 800257e:	693b      	ldr	r3, [r7, #16]
 8002580:	615a      	str	r2, [r3, #20]
 8002582:	693b      	ldr	r3, [r7, #16]
 8002584:	6ada      	ldr	r2, [r3, #44]	; 0x2c
 8002586:	4924      	ldr	r1, [pc, #144]	; (8002618 <xTaskIncrementTick+0x214>)
 8002588:	4613      	mov	r3, r2
 800258a:	009b      	lsls	r3, r3, #2
 800258c:	4413      	add	r3, r2
 800258e:	009b      	lsls	r3, r3, #2
 8002590:	440b      	add	r3, r1
 8002592:	681b      	ldr	r3, [r3, #0]
 8002594:	1c59      	adds	r1, r3, #1
 8002596:	4820      	ldr	r0, [pc, #128]	; (8002618 <xTaskIncrementTick+0x214>)
 8002598:	4613      	mov	r3, r2
 800259a:	009b      	lsls	r3, r3, #2
 800259c:	4413      	add	r3, r2
 800259e:	009b      	lsls	r3, r3, #2
 80025a0:	4403      	add	r3, r0
 80025a2:	6019      	str	r1, [r3, #0]
 80025a4:	693b      	ldr	r3, [r7, #16]
 80025a6:	6ada      	ldr	r2, [r3, #44]	; 0x2c
 80025a8:	4b1c      	ldr	r3, [pc, #112]	; (800261c <xTaskIncrementTick+0x218>)
 80025aa:	681b      	ldr	r3, [r3, #0]
 80025ac:	6adb      	ldr	r3, [r3, #44]	; 0x2c
 80025ae:	429a      	cmp	r2, r3
 80025b0:	f4ff af5d 	bcc.w	800246e <xTaskIncrementTick+0x6a>
 80025b4:	2301      	movs	r3, #1
 80025b6:	61fb      	str	r3, [r7, #28]
 80025b8:	e759      	b.n	800246e <xTaskIncrementTick+0x6a>
 80025ba:	4b18      	ldr	r3, [pc, #96]	; (800261c <xTaskIncrementTick+0x218>)
 80025bc:	681b      	ldr	r3, [r3, #0]
 80025be:	6ada      	ldr	r2, [r3, #44]	; 0x2c
 80025c0:	4915      	ldr	r1, [pc, #84]	; (8002618 <xTaskIncrementTick+0x214>)
 80025c2:	4613      	mov	r3, r2
 80025c4:	009b      	lsls	r3, r3, #2
 80025c6:	4413      	add	r3, r2
 80025c8:	009b      	lsls	r3, r3, #2
 80025ca:	440b      	add	r3, r1
 80025cc:	681b      	ldr	r3, [r3, #0]
 80025ce:	2b01      	cmp	r3, #1
 80025d0:	d901      	bls.n	80025d6 <xTaskIncrementTick+0x1d2>
 80025d2:	2301      	movs	r3, #1
 80025d4:	61fb      	str	r3, [r7, #28]
 80025d6:	4b12      	ldr	r3, [pc, #72]	; (8002620 <xTaskIncrementTick+0x21c>)
 80025d8:	681b      	ldr	r3, [r3, #0]
 80025da:	2b00      	cmp	r3, #0
 80025dc:	d007      	beq.n	80025ee <xTaskIncrementTick+0x1ea>
 80025de:	2301      	movs	r3, #1
 80025e0:	61fb      	str	r3, [r7, #28]
 80025e2:	e004      	b.n	80025ee <xTaskIncrementTick+0x1ea>
 80025e4:	4b0f      	ldr	r3, [pc, #60]	; (8002624 <xTaskIncrementTick+0x220>)
 80025e6:	681b      	ldr	r3, [r3, #0]
 80025e8:	3301      	adds	r3, #1
 80025ea:	4a0e      	ldr	r2, [pc, #56]	; (8002624 <xTaskIncrementTick+0x220>)
 80025ec:	6013      	str	r3, [r2, #0]
 80025ee:	69fb      	ldr	r3, [r7, #28]
 80025f0:	4618      	mov	r0, r3
 80025f2:	3720      	adds	r7, #32
 80025f4:	46bd      	mov	sp, r7
 80025f6:	bd80      	pop	{r7, pc}
 80025f8:	20000120 	.word	0x20000120
 80025fc:	200000fc 	.word	0x200000fc
 8002600:	200000b0 	.word	0x200000b0
 8002604:	0800a028 	.word	0x0800a028
 8002608:	200000b4 	.word	0x200000b4
 800260c:	20000110 	.word	0x20000110
 8002610:	20000118 	.word	0x20000118
 8002614:	20000100 	.word	0x20000100
 8002618:	20000024 	.word	0x20000024
 800261c:	20000020 	.word	0x20000020
 8002620:	2000010c 	.word	0x2000010c
 8002624:	20000108 	.word	0x20000108

08002628 <vTaskSwitchContext>:
 8002628:	b580      	push	{r7, lr}
 800262a:	b086      	sub	sp, #24
 800262c:	af00      	add	r7, sp, #0
 800262e:	4b36      	ldr	r3, [pc, #216]	; (8002708 <vTaskSwitchContext+0xe0>)
 8002630:	681b      	ldr	r3, [r3, #0]
 8002632:	2b00      	cmp	r3, #0
 8002634:	d003      	beq.n	800263e <vTaskSwitchContext+0x16>
 8002636:	4b35      	ldr	r3, [pc, #212]	; (800270c <vTaskSwitchContext+0xe4>)
 8002638:	2201      	movs	r2, #1
 800263a:	601a      	str	r2, [r3, #0]
 800263c:	e060      	b.n	8002700 <vTaskSwitchContext+0xd8>
 800263e:	4b33      	ldr	r3, [pc, #204]	; (800270c <vTaskSwitchContext+0xe4>)
 8002640:	2200      	movs	r2, #0
 8002642:	601a      	str	r2, [r3, #0]
 8002644:	4b32      	ldr	r3, [pc, #200]	; (8002710 <vTaskSwitchContext+0xe8>)
 8002646:	681b      	ldr	r3, [r3, #0]
 8002648:	6b1b      	ldr	r3, [r3, #48]	; 0x30
 800264a:	617b      	str	r3, [r7, #20]
 800264c:	f04f 33a5 	mov.w	r3, #2779096485	; 0xa5a5a5a5
 8002650:	613b      	str	r3, [r7, #16]
 8002652:	697b      	ldr	r3, [r7, #20]
 8002654:	681b      	ldr	r3, [r3, #0]
 8002656:	693a      	ldr	r2, [r7, #16]
 8002658:	429a      	cmp	r2, r3
 800265a:	d111      	bne.n	8002680 <vTaskSwitchContext+0x58>
 800265c:	697b      	ldr	r3, [r7, #20]
 800265e:	3304      	adds	r3, #4
 8002660:	681b      	ldr	r3, [r3, #0]
 8002662:	693a      	ldr	r2, [r7, #16]
 8002664:	429a      	cmp	r2, r3
 8002666:	d10b      	bne.n	8002680 <vTaskSwitchContext+0x58>
 8002668:	697b      	ldr	r3, [r7, #20]
 800266a:	3308      	adds	r3, #8
 800266c:	681b      	ldr	r3, [r3, #0]
 800266e:	693a      	ldr	r2, [r7, #16]
 8002670:	429a      	cmp	r2, r3
 8002672:	d105      	bne.n	8002680 <vTaskSwitchContext+0x58>
 8002674:	697b      	ldr	r3, [r7, #20]
 8002676:	330c      	adds	r3, #12
 8002678:	681b      	ldr	r3, [r3, #0]
 800267a:	693a      	ldr	r2, [r7, #16]
 800267c:	429a      	cmp	r2, r3
 800267e:	d008      	beq.n	8002692 <vTaskSwitchContext+0x6a>
 8002680:	4b23      	ldr	r3, [pc, #140]	; (8002710 <vTaskSwitchContext+0xe8>)
 8002682:	681a      	ldr	r2, [r3, #0]
 8002684:	4b22      	ldr	r3, [pc, #136]	; (8002710 <vTaskSwitchContext+0xe8>)
 8002686:	681b      	ldr	r3, [r3, #0]
 8002688:	3334      	adds	r3, #52	; 0x34
 800268a:	4619      	mov	r1, r3
 800268c:	4610      	mov	r0, r2
 800268e:	f7ff f8d6 	bl	800183e <vApplicationStackOverflowHook>
 8002692:	4b20      	ldr	r3, [pc, #128]	; (8002714 <vTaskSwitchContext+0xec>)
 8002694:	681b      	ldr	r3, [r3, #0]
 8002696:	607b      	str	r3, [r7, #4]
 8002698:	687b      	ldr	r3, [r7, #4]
 800269a:	fab3 f383 	clz	r3, r3
 800269e:	70fb      	strb	r3, [r7, #3]
 80026a0:	78fb      	ldrb	r3, [r7, #3]
 80026a2:	f1c3 031f 	rsb	r3, r3, #31
 80026a6:	60fb      	str	r3, [r7, #12]
 80026a8:	491b      	ldr	r1, [pc, #108]	; (8002718 <vTaskSwitchContext+0xf0>)
 80026aa:	68fa      	ldr	r2, [r7, #12]
 80026ac:	4613      	mov	r3, r2
 80026ae:	009b      	lsls	r3, r3, #2
 80026b0:	4413      	add	r3, r2
 80026b2:	009b      	lsls	r3, r3, #2
 80026b4:	440b      	add	r3, r1
 80026b6:	681b      	ldr	r3, [r3, #0]
 80026b8:	2b00      	cmp	r3, #0
 80026ba:	d104      	bne.n	80026c6 <vTaskSwitchContext+0x9e>
 80026bc:	4917      	ldr	r1, [pc, #92]	; (800271c <vTaskSwitchContext+0xf4>)
 80026be:	f640 30ee 	movw	r0, #3054	; 0xbee
 80026c2:	f003 fc00 	bl	8005ec6 <vAssertCalled>
 80026c6:	68fa      	ldr	r2, [r7, #12]
 80026c8:	4613      	mov	r3, r2
 80026ca:	009b      	lsls	r3, r3, #2
 80026cc:	4413      	add	r3, r2
 80026ce:	009b      	lsls	r3, r3, #2
 80026d0:	4a11      	ldr	r2, [pc, #68]	; (8002718 <vTaskSwitchContext+0xf0>)
 80026d2:	4413      	add	r3, r2
 80026d4:	60bb      	str	r3, [r7, #8]
 80026d6:	68bb      	ldr	r3, [r7, #8]
 80026d8:	685b      	ldr	r3, [r3, #4]
 80026da:	685a      	ldr	r2, [r3, #4]
 80026dc:	68bb      	ldr	r3, [r7, #8]
 80026de:	605a      	str	r2, [r3, #4]
 80026e0:	68bb      	ldr	r3, [r7, #8]
 80026e2:	685a      	ldr	r2, [r3, #4]
 80026e4:	68bb      	ldr	r3, [r7, #8]
 80026e6:	3308      	adds	r3, #8
 80026e8:	429a      	cmp	r2, r3
 80026ea:	d104      	bne.n	80026f6 <vTaskSwitchContext+0xce>
 80026ec:	68bb      	ldr	r3, [r7, #8]
 80026ee:	685b      	ldr	r3, [r3, #4]
 80026f0:	685a      	ldr	r2, [r3, #4]
 80026f2:	68bb      	ldr	r3, [r7, #8]
 80026f4:	605a      	str	r2, [r3, #4]
 80026f6:	68bb      	ldr	r3, [r7, #8]
 80026f8:	685b      	ldr	r3, [r3, #4]
 80026fa:	68db      	ldr	r3, [r3, #12]
 80026fc:	4a04      	ldr	r2, [pc, #16]	; (8002710 <vTaskSwitchContext+0xe8>)
 80026fe:	6013      	str	r3, [r2, #0]
 8002700:	bf00      	nop
 8002702:	3718      	adds	r7, #24
 8002704:	46bd      	mov	sp, r7
 8002706:	bd80      	pop	{r7, pc}
 8002708:	20000120 	.word	0x20000120
 800270c:	2000010c 	.word	0x2000010c
 8002710:	20000020 	.word	0x20000020
 8002714:	20000100 	.word	0x20000100
 8002718:	20000024 	.word	0x20000024
 800271c:	0800a028 	.word	0x0800a028

08002720 <vTaskPlaceOnEventList>:
 8002720:	b580      	push	{r7, lr}
 8002722:	b082      	sub	sp, #8
 8002724:	af00      	add	r7, sp, #0
 8002726:	6078      	str	r0, [r7, #4]
 8002728:	6039      	str	r1, [r7, #0]
 800272a:	687b      	ldr	r3, [r7, #4]
 800272c:	2b00      	cmp	r3, #0
 800272e:	d104      	bne.n	800273a <vTaskPlaceOnEventList+0x1a>
 8002730:	4909      	ldr	r1, [pc, #36]	; (8002758 <vTaskPlaceOnEventList+0x38>)
 8002732:	f640 4006 	movw	r0, #3078	; 0xc06
 8002736:	f003 fbc6 	bl	8005ec6 <vAssertCalled>
 800273a:	4b08      	ldr	r3, [pc, #32]	; (800275c <vTaskPlaceOnEventList+0x3c>)
 800273c:	681b      	ldr	r3, [r3, #0]
 800273e:	3318      	adds	r3, #24
 8002740:	4619      	mov	r1, r3
 8002742:	6878      	ldr	r0, [r7, #4]
 8002744:	f000 fd45 	bl	80031d2 <vListInsert>
 8002748:	2101      	movs	r1, #1
 800274a:	6838      	ldr	r0, [r7, #0]
 800274c:	f000 fc70 	bl	8003030 <prvAddCurrentTaskToDelayedList>
 8002750:	bf00      	nop
 8002752:	3708      	adds	r7, #8
 8002754:	46bd      	mov	sp, r7
 8002756:	bd80      	pop	{r7, pc}
 8002758:	0800a028 	.word	0x0800a028
 800275c:	20000020 	.word	0x20000020

08002760 <vTaskPlaceOnEventListRestricted>:
 8002760:	b580      	push	{r7, lr}
 8002762:	b086      	sub	sp, #24
 8002764:	af00      	add	r7, sp, #0
 8002766:	60f8      	str	r0, [r7, #12]
 8002768:	60b9      	str	r1, [r7, #8]
 800276a:	607a      	str	r2, [r7, #4]
 800276c:	68fb      	ldr	r3, [r7, #12]
 800276e:	2b00      	cmp	r3, #0
 8002770:	d104      	bne.n	800277c <vTaskPlaceOnEventListRestricted+0x1c>
 8002772:	491a      	ldr	r1, [pc, #104]	; (80027dc <vTaskPlaceOnEventListRestricted+0x7c>)
 8002774:	f640 403c 	movw	r0, #3132	; 0xc3c
 8002778:	f003 fba5 	bl	8005ec6 <vAssertCalled>
 800277c:	68fb      	ldr	r3, [r7, #12]
 800277e:	685b      	ldr	r3, [r3, #4]
 8002780:	617b      	str	r3, [r7, #20]
 8002782:	4b17      	ldr	r3, [pc, #92]	; (80027e0 <vTaskPlaceOnEventListRestricted+0x80>)
 8002784:	681b      	ldr	r3, [r3, #0]
 8002786:	697a      	ldr	r2, [r7, #20]
 8002788:	61da      	str	r2, [r3, #28]
 800278a:	4b15      	ldr	r3, [pc, #84]	; (80027e0 <vTaskPlaceOnEventListRestricted+0x80>)
 800278c:	681b      	ldr	r3, [r3, #0]
 800278e:	697a      	ldr	r2, [r7, #20]
 8002790:	6892      	ldr	r2, [r2, #8]
 8002792:	621a      	str	r2, [r3, #32]
 8002794:	4b12      	ldr	r3, [pc, #72]	; (80027e0 <vTaskPlaceOnEventListRestricted+0x80>)
 8002796:	681a      	ldr	r2, [r3, #0]
 8002798:	697b      	ldr	r3, [r7, #20]
 800279a:	689b      	ldr	r3, [r3, #8]
 800279c:	3218      	adds	r2, #24
 800279e:	605a      	str	r2, [r3, #4]
 80027a0:	4b0f      	ldr	r3, [pc, #60]	; (80027e0 <vTaskPlaceOnEventListRestricted+0x80>)
 80027a2:	681b      	ldr	r3, [r3, #0]
 80027a4:	f103 0218 	add.w	r2, r3, #24
 80027a8:	697b      	ldr	r3, [r7, #20]
 80027aa:	609a      	str	r2, [r3, #8]
 80027ac:	4b0c      	ldr	r3, [pc, #48]	; (80027e0 <vTaskPlaceOnEventListRestricted+0x80>)
 80027ae:	681b      	ldr	r3, [r3, #0]
 80027b0:	68fa      	ldr	r2, [r7, #12]
 80027b2:	629a      	str	r2, [r3, #40]	; 0x28
 80027b4:	68fb      	ldr	r3, [r7, #12]
 80027b6:	681b      	ldr	r3, [r3, #0]
 80027b8:	1c5a      	adds	r2, r3, #1
 80027ba:	68fb      	ldr	r3, [r7, #12]
 80027bc:	601a      	str	r2, [r3, #0]
 80027be:	687b      	ldr	r3, [r7, #4]
 80027c0:	2b00      	cmp	r3, #0
 80027c2:	d002      	beq.n	80027ca <vTaskPlaceOnEventListRestricted+0x6a>
 80027c4:	f04f 33ff 	mov.w	r3, #4294967295
 80027c8:	60bb      	str	r3, [r7, #8]
 80027ca:	6879      	ldr	r1, [r7, #4]
 80027cc:	68b8      	ldr	r0, [r7, #8]
 80027ce:	f000 fc2f 	bl	8003030 <prvAddCurrentTaskToDelayedList>
 80027d2:	bf00      	nop
 80027d4:	3718      	adds	r7, #24
 80027d6:	46bd      	mov	sp, r7
 80027d8:	bd80      	pop	{r7, pc}
 80027da:	bf00      	nop
 80027dc:	0800a028 	.word	0x0800a028
 80027e0:	20000020 	.word	0x20000020

080027e4 <xTaskRemoveFromEventList>:
 80027e4:	b580      	push	{r7, lr}
 80027e6:	b088      	sub	sp, #32
 80027e8:	af00      	add	r7, sp, #0
 80027ea:	6078      	str	r0, [r7, #4]
 80027ec:	687b      	ldr	r3, [r7, #4]
 80027ee:	68db      	ldr	r3, [r3, #12]
 80027f0:	68db      	ldr	r3, [r3, #12]
 80027f2:	61bb      	str	r3, [r7, #24]
 80027f4:	69bb      	ldr	r3, [r7, #24]
 80027f6:	2b00      	cmp	r3, #0
 80027f8:	d104      	bne.n	8002804 <xTaskRemoveFromEventList+0x20>
 80027fa:	495b      	ldr	r1, [pc, #364]	; (8002968 <xTaskRemoveFromEventList+0x184>)
 80027fc:	f640 406c 	movw	r0, #3180	; 0xc6c
 8002800:	f003 fb61 	bl	8005ec6 <vAssertCalled>
 8002804:	69bb      	ldr	r3, [r7, #24]
 8002806:	6a9b      	ldr	r3, [r3, #40]	; 0x28
 8002808:	617b      	str	r3, [r7, #20]
 800280a:	69bb      	ldr	r3, [r7, #24]
 800280c:	69db      	ldr	r3, [r3, #28]
 800280e:	69ba      	ldr	r2, [r7, #24]
 8002810:	6a12      	ldr	r2, [r2, #32]
 8002812:	609a      	str	r2, [r3, #8]
 8002814:	69bb      	ldr	r3, [r7, #24]
 8002816:	6a1b      	ldr	r3, [r3, #32]
 8002818:	69ba      	ldr	r2, [r7, #24]
 800281a:	69d2      	ldr	r2, [r2, #28]
 800281c:	605a      	str	r2, [r3, #4]
 800281e:	697b      	ldr	r3, [r7, #20]
 8002820:	685a      	ldr	r2, [r3, #4]
 8002822:	69bb      	ldr	r3, [r7, #24]
 8002824:	3318      	adds	r3, #24
 8002826:	429a      	cmp	r2, r3
 8002828:	d103      	bne.n	8002832 <xTaskRemoveFromEventList+0x4e>
 800282a:	69bb      	ldr	r3, [r7, #24]
 800282c:	6a1a      	ldr	r2, [r3, #32]
 800282e:	697b      	ldr	r3, [r7, #20]
 8002830:	605a      	str	r2, [r3, #4]
 8002832:	69bb      	ldr	r3, [r7, #24]
 8002834:	2200      	movs	r2, #0
 8002836:	629a      	str	r2, [r3, #40]	; 0x28
 8002838:	697b      	ldr	r3, [r7, #20]
 800283a:	681b      	ldr	r3, [r3, #0]
 800283c:	1e5a      	subs	r2, r3, #1
 800283e:	697b      	ldr	r3, [r7, #20]
 8002840:	601a      	str	r2, [r3, #0]
 8002842:	4b4a      	ldr	r3, [pc, #296]	; (800296c <xTaskRemoveFromEventList+0x188>)
 8002844:	681b      	ldr	r3, [r3, #0]
 8002846:	2b00      	cmp	r3, #0
 8002848:	d15e      	bne.n	8002908 <xTaskRemoveFromEventList+0x124>
 800284a:	69bb      	ldr	r3, [r7, #24]
 800284c:	695b      	ldr	r3, [r3, #20]
 800284e:	60fb      	str	r3, [r7, #12]
 8002850:	69bb      	ldr	r3, [r7, #24]
 8002852:	689b      	ldr	r3, [r3, #8]
 8002854:	69ba      	ldr	r2, [r7, #24]
 8002856:	68d2      	ldr	r2, [r2, #12]
 8002858:	609a      	str	r2, [r3, #8]
 800285a:	69bb      	ldr	r3, [r7, #24]
 800285c:	68db      	ldr	r3, [r3, #12]
 800285e:	69ba      	ldr	r2, [r7, #24]
 8002860:	6892      	ldr	r2, [r2, #8]
 8002862:	605a      	str	r2, [r3, #4]
 8002864:	68fb      	ldr	r3, [r7, #12]
 8002866:	685a      	ldr	r2, [r3, #4]
 8002868:	69bb      	ldr	r3, [r7, #24]
 800286a:	3304      	adds	r3, #4
 800286c:	429a      	cmp	r2, r3
 800286e:	d103      	bne.n	8002878 <xTaskRemoveFromEventList+0x94>
 8002870:	69bb      	ldr	r3, [r7, #24]
 8002872:	68da      	ldr	r2, [r3, #12]
 8002874:	68fb      	ldr	r3, [r7, #12]
 8002876:	605a      	str	r2, [r3, #4]
 8002878:	69bb      	ldr	r3, [r7, #24]
 800287a:	2200      	movs	r2, #0
 800287c:	615a      	str	r2, [r3, #20]
 800287e:	68fb      	ldr	r3, [r7, #12]
 8002880:	681b      	ldr	r3, [r3, #0]
 8002882:	1e5a      	subs	r2, r3, #1
 8002884:	68fb      	ldr	r3, [r7, #12]
 8002886:	601a      	str	r2, [r3, #0]
 8002888:	69bb      	ldr	r3, [r7, #24]
 800288a:	6adb      	ldr	r3, [r3, #44]	; 0x2c
 800288c:	2201      	movs	r2, #1
 800288e:	409a      	lsls	r2, r3
 8002890:	4b37      	ldr	r3, [pc, #220]	; (8002970 <xTaskRemoveFromEventList+0x18c>)
 8002892:	681b      	ldr	r3, [r3, #0]
 8002894:	4313      	orrs	r3, r2
 8002896:	4a36      	ldr	r2, [pc, #216]	; (8002970 <xTaskRemoveFromEventList+0x18c>)
 8002898:	6013      	str	r3, [r2, #0]
 800289a:	69bb      	ldr	r3, [r7, #24]
 800289c:	6ada      	ldr	r2, [r3, #44]	; 0x2c
 800289e:	4935      	ldr	r1, [pc, #212]	; (8002974 <xTaskRemoveFromEventList+0x190>)
 80028a0:	4613      	mov	r3, r2
 80028a2:	009b      	lsls	r3, r3, #2
 80028a4:	4413      	add	r3, r2
 80028a6:	009b      	lsls	r3, r3, #2
 80028a8:	440b      	add	r3, r1
 80028aa:	3304      	adds	r3, #4
 80028ac:	681b      	ldr	r3, [r3, #0]
 80028ae:	60bb      	str	r3, [r7, #8]
 80028b0:	69bb      	ldr	r3, [r7, #24]
 80028b2:	68ba      	ldr	r2, [r7, #8]
 80028b4:	609a      	str	r2, [r3, #8]
 80028b6:	68bb      	ldr	r3, [r7, #8]
 80028b8:	689a      	ldr	r2, [r3, #8]
 80028ba:	69bb      	ldr	r3, [r7, #24]
 80028bc:	60da      	str	r2, [r3, #12]
 80028be:	68bb      	ldr	r3, [r7, #8]
 80028c0:	689b      	ldr	r3, [r3, #8]
 80028c2:	69ba      	ldr	r2, [r7, #24]
 80028c4:	3204      	adds	r2, #4
 80028c6:	605a      	str	r2, [r3, #4]
 80028c8:	69bb      	ldr	r3, [r7, #24]
 80028ca:	1d1a      	adds	r2, r3, #4
 80028cc:	68bb      	ldr	r3, [r7, #8]
 80028ce:	609a      	str	r2, [r3, #8]
 80028d0:	69bb      	ldr	r3, [r7, #24]
 80028d2:	6ada      	ldr	r2, [r3, #44]	; 0x2c
 80028d4:	4613      	mov	r3, r2
 80028d6:	009b      	lsls	r3, r3, #2
 80028d8:	4413      	add	r3, r2
 80028da:	009b      	lsls	r3, r3, #2
 80028dc:	4a25      	ldr	r2, [pc, #148]	; (8002974 <xTaskRemoveFromEventList+0x190>)
 80028de:	441a      	add	r2, r3
 80028e0:	69bb      	ldr	r3, [r7, #24]
 80028e2:	615a      	str	r2, [r3, #20]
 80028e4:	69bb      	ldr	r3, [r7, #24]
 80028e6:	6ada      	ldr	r2, [r3, #44]	; 0x2c
 80028e8:	4922      	ldr	r1, [pc, #136]	; (8002974 <xTaskRemoveFromEventList+0x190>)
 80028ea:	4613      	mov	r3, r2
 80028ec:	009b      	lsls	r3, r3, #2
 80028ee:	4413      	add	r3, r2
 80028f0:	009b      	lsls	r3, r3, #2
 80028f2:	440b      	add	r3, r1
 80028f4:	681b      	ldr	r3, [r3, #0]
 80028f6:	1c59      	adds	r1, r3, #1
 80028f8:	481e      	ldr	r0, [pc, #120]	; (8002974 <xTaskRemoveFromEventList+0x190>)
 80028fa:	4613      	mov	r3, r2
 80028fc:	009b      	lsls	r3, r3, #2
 80028fe:	4413      	add	r3, r2
 8002900:	009b      	lsls	r3, r3, #2
 8002902:	4403      	add	r3, r0
 8002904:	6019      	str	r1, [r3, #0]
 8002906:	e01b      	b.n	8002940 <xTaskRemoveFromEventList+0x15c>
 8002908:	4b1b      	ldr	r3, [pc, #108]	; (8002978 <xTaskRemoveFromEventList+0x194>)
 800290a:	685b      	ldr	r3, [r3, #4]
 800290c:	613b      	str	r3, [r7, #16]
 800290e:	69bb      	ldr	r3, [r7, #24]
 8002910:	693a      	ldr	r2, [r7, #16]
 8002912:	61da      	str	r2, [r3, #28]
 8002914:	693b      	ldr	r3, [r7, #16]
 8002916:	689a      	ldr	r2, [r3, #8]
 8002918:	69bb      	ldr	r3, [r7, #24]
 800291a:	621a      	str	r2, [r3, #32]
 800291c:	693b      	ldr	r3, [r7, #16]
 800291e:	689b      	ldr	r3, [r3, #8]
 8002920:	69ba      	ldr	r2, [r7, #24]
 8002922:	3218      	adds	r2, #24
 8002924:	605a      	str	r2, [r3, #4]
 8002926:	69bb      	ldr	r3, [r7, #24]
 8002928:	f103 0218 	add.w	r2, r3, #24
 800292c:	693b      	ldr	r3, [r7, #16]
 800292e:	609a      	str	r2, [r3, #8]
 8002930:	69bb      	ldr	r3, [r7, #24]
 8002932:	4a11      	ldr	r2, [pc, #68]	; (8002978 <xTaskRemoveFromEventList+0x194>)
 8002934:	629a      	str	r2, [r3, #40]	; 0x28
 8002936:	4b10      	ldr	r3, [pc, #64]	; (8002978 <xTaskRemoveFromEventList+0x194>)
 8002938:	681b      	ldr	r3, [r3, #0]
 800293a:	3301      	adds	r3, #1
 800293c:	4a0e      	ldr	r2, [pc, #56]	; (8002978 <xTaskRemoveFromEventList+0x194>)
 800293e:	6013      	str	r3, [r2, #0]
 8002940:	69bb      	ldr	r3, [r7, #24]
 8002942:	6ada      	ldr	r2, [r3, #44]	; 0x2c
 8002944:	4b0d      	ldr	r3, [pc, #52]	; (800297c <xTaskRemoveFromEventList+0x198>)
 8002946:	681b      	ldr	r3, [r3, #0]
 8002948:	6adb      	ldr	r3, [r3, #44]	; 0x2c
 800294a:	429a      	cmp	r2, r3
 800294c:	d905      	bls.n	800295a <xTaskRemoveFromEventList+0x176>
 800294e:	2301      	movs	r3, #1
 8002950:	61fb      	str	r3, [r7, #28]
 8002952:	4b0b      	ldr	r3, [pc, #44]	; (8002980 <xTaskRemoveFromEventList+0x19c>)
 8002954:	2201      	movs	r2, #1
 8002956:	601a      	str	r2, [r3, #0]
 8002958:	e001      	b.n	800295e <xTaskRemoveFromEventList+0x17a>
 800295a:	2300      	movs	r3, #0
 800295c:	61fb      	str	r3, [r7, #28]
 800295e:	69fb      	ldr	r3, [r7, #28]
 8002960:	4618      	mov	r0, r3
 8002962:	3720      	adds	r7, #32
 8002964:	46bd      	mov	sp, r7
 8002966:	bd80      	pop	{r7, pc}
 8002968:	0800a028 	.word	0x0800a028
 800296c:	20000120 	.word	0x20000120
 8002970:	20000100 	.word	0x20000100
 8002974:	20000024 	.word	0x20000024
 8002978:	200000b8 	.word	0x200000b8
 800297c:	20000020 	.word	0x20000020
 8002980:	2000010c 	.word	0x2000010c

08002984 <vTaskInternalSetTimeOutState>:
 8002984:	b480      	push	{r7}
 8002986:	b083      	sub	sp, #12
 8002988:	af00      	add	r7, sp, #0
 800298a:	6078      	str	r0, [r7, #4]
 800298c:	4b06      	ldr	r3, [pc, #24]	; (80029a8 <vTaskInternalSetTimeOutState+0x24>)
 800298e:	681a      	ldr	r2, [r3, #0]
 8002990:	687b      	ldr	r3, [r7, #4]
 8002992:	601a      	str	r2, [r3, #0]
 8002994:	4b05      	ldr	r3, [pc, #20]	; (80029ac <vTaskInternalSetTimeOutState+0x28>)
 8002996:	681a      	ldr	r2, [r3, #0]
 8002998:	687b      	ldr	r3, [r7, #4]
 800299a:	605a      	str	r2, [r3, #4]
 800299c:	bf00      	nop
 800299e:	370c      	adds	r7, #12
 80029a0:	46bd      	mov	sp, r7
 80029a2:	f85d 7b04 	ldr.w	r7, [sp], #4
 80029a6:	4770      	bx	lr
 80029a8:	20000110 	.word	0x20000110
 80029ac:	200000fc 	.word	0x200000fc

080029b0 <xTaskCheckForTimeOut>:
 80029b0:	b580      	push	{r7, lr}
 80029b2:	b086      	sub	sp, #24
 80029b4:	af00      	add	r7, sp, #0
 80029b6:	6078      	str	r0, [r7, #4]
 80029b8:	6039      	str	r1, [r7, #0]
 80029ba:	687b      	ldr	r3, [r7, #4]
 80029bc:	2b00      	cmp	r3, #0
 80029be:	d104      	bne.n	80029ca <xTaskCheckForTimeOut+0x1a>
 80029c0:	4926      	ldr	r1, [pc, #152]	; (8002a5c <xTaskCheckForTimeOut+0xac>)
 80029c2:	f640 40e7 	movw	r0, #3303	; 0xce7
 80029c6:	f003 fa7e 	bl	8005ec6 <vAssertCalled>
 80029ca:	683b      	ldr	r3, [r7, #0]
 80029cc:	2b00      	cmp	r3, #0
 80029ce:	d104      	bne.n	80029da <xTaskCheckForTimeOut+0x2a>
 80029d0:	4922      	ldr	r1, [pc, #136]	; (8002a5c <xTaskCheckForTimeOut+0xac>)
 80029d2:	f640 40e8 	movw	r0, #3304	; 0xce8
 80029d6:	f003 fa76 	bl	8005ec6 <vAssertCalled>
 80029da:	f000 fd75 	bl	80034c8 <vPortEnterCritical>
 80029de:	4b20      	ldr	r3, [pc, #128]	; (8002a60 <xTaskCheckForTimeOut+0xb0>)
 80029e0:	681b      	ldr	r3, [r3, #0]
 80029e2:	613b      	str	r3, [r7, #16]
 80029e4:	687b      	ldr	r3, [r7, #4]
 80029e6:	685b      	ldr	r3, [r3, #4]
 80029e8:	693a      	ldr	r2, [r7, #16]
 80029ea:	1ad3      	subs	r3, r2, r3
 80029ec:	60fb      	str	r3, [r7, #12]
 80029ee:	683b      	ldr	r3, [r7, #0]
 80029f0:	681b      	ldr	r3, [r3, #0]
 80029f2:	f1b3 3fff 	cmp.w	r3, #4294967295
 80029f6:	d102      	bne.n	80029fe <xTaskCheckForTimeOut+0x4e>
 80029f8:	2300      	movs	r3, #0
 80029fa:	617b      	str	r3, [r7, #20]
 80029fc:	e026      	b.n	8002a4c <xTaskCheckForTimeOut+0x9c>
 80029fe:	687b      	ldr	r3, [r7, #4]
 8002a00:	681a      	ldr	r2, [r3, #0]
 8002a02:	4b18      	ldr	r3, [pc, #96]	; (8002a64 <xTaskCheckForTimeOut+0xb4>)
 8002a04:	681b      	ldr	r3, [r3, #0]
 8002a06:	429a      	cmp	r2, r3
 8002a08:	d00a      	beq.n	8002a20 <xTaskCheckForTimeOut+0x70>
 8002a0a:	687b      	ldr	r3, [r7, #4]
 8002a0c:	685b      	ldr	r3, [r3, #4]
 8002a0e:	693a      	ldr	r2, [r7, #16]
 8002a10:	429a      	cmp	r2, r3
 8002a12:	d305      	bcc.n	8002a20 <xTaskCheckForTimeOut+0x70>
 8002a14:	2301      	movs	r3, #1
 8002a16:	617b      	str	r3, [r7, #20]
 8002a18:	683b      	ldr	r3, [r7, #0]
 8002a1a:	2200      	movs	r2, #0
 8002a1c:	601a      	str	r2, [r3, #0]
 8002a1e:	e015      	b.n	8002a4c <xTaskCheckForTimeOut+0x9c>
 8002a20:	683b      	ldr	r3, [r7, #0]
 8002a22:	681b      	ldr	r3, [r3, #0]
 8002a24:	68fa      	ldr	r2, [r7, #12]
 8002a26:	429a      	cmp	r2, r3
 8002a28:	d20b      	bcs.n	8002a42 <xTaskCheckForTimeOut+0x92>
 8002a2a:	683b      	ldr	r3, [r7, #0]
 8002a2c:	681a      	ldr	r2, [r3, #0]
 8002a2e:	68fb      	ldr	r3, [r7, #12]
 8002a30:	1ad2      	subs	r2, r2, r3
 8002a32:	683b      	ldr	r3, [r7, #0]
 8002a34:	601a      	str	r2, [r3, #0]
 8002a36:	6878      	ldr	r0, [r7, #4]
 8002a38:	f7ff ffa4 	bl	8002984 <vTaskInternalSetTimeOutState>
 8002a3c:	2300      	movs	r3, #0
 8002a3e:	617b      	str	r3, [r7, #20]
 8002a40:	e004      	b.n	8002a4c <xTaskCheckForTimeOut+0x9c>
 8002a42:	683b      	ldr	r3, [r7, #0]
 8002a44:	2200      	movs	r2, #0
 8002a46:	601a      	str	r2, [r3, #0]
 8002a48:	2301      	movs	r3, #1
 8002a4a:	617b      	str	r3, [r7, #20]
 8002a4c:	f000 fd66 	bl	800351c <vPortExitCritical>
 8002a50:	697b      	ldr	r3, [r7, #20]
 8002a52:	4618      	mov	r0, r3
 8002a54:	3718      	adds	r7, #24
 8002a56:	46bd      	mov	sp, r7
 8002a58:	bd80      	pop	{r7, pc}
 8002a5a:	bf00      	nop
 8002a5c:	0800a028 	.word	0x0800a028
 8002a60:	200000fc 	.word	0x200000fc
 8002a64:	20000110 	.word	0x20000110

08002a68 <vTaskMissedYield>:
 8002a68:	b480      	push	{r7}
 8002a6a:	af00      	add	r7, sp, #0
 8002a6c:	4b03      	ldr	r3, [pc, #12]	; (8002a7c <vTaskMissedYield+0x14>)
 8002a6e:	2201      	movs	r2, #1
 8002a70:	601a      	str	r2, [r3, #0]
 8002a72:	bf00      	nop
 8002a74:	46bd      	mov	sp, r7
 8002a76:	f85d 7b04 	ldr.w	r7, [sp], #4
 8002a7a:	4770      	bx	lr
 8002a7c:	2000010c 	.word	0x2000010c

08002a80 <prvIdleTask>:
 8002a80:	b580      	push	{r7, lr}
 8002a82:	b082      	sub	sp, #8
 8002a84:	af00      	add	r7, sp, #0
 8002a86:	6078      	str	r0, [r7, #4]
 8002a88:	f000 f852 	bl	8002b30 <prvCheckTasksWaitingTermination>
 8002a8c:	4b06      	ldr	r3, [pc, #24]	; (8002aa8 <prvIdleTask+0x28>)
 8002a8e:	681b      	ldr	r3, [r3, #0]
 8002a90:	2b01      	cmp	r3, #1
 8002a92:	d9f9      	bls.n	8002a88 <prvIdleTask+0x8>
 8002a94:	4b05      	ldr	r3, [pc, #20]	; (8002aac <prvIdleTask+0x2c>)
 8002a96:	f04f 5280 	mov.w	r2, #268435456	; 0x10000000
 8002a9a:	601a      	str	r2, [r3, #0]
 8002a9c:	f3bf 8f4f 	dsb	sy
 8002aa0:	f3bf 8f6f 	isb	sy
 8002aa4:	e7f0      	b.n	8002a88 <prvIdleTask+0x8>
 8002aa6:	bf00      	nop
 8002aa8:	20000024 	.word	0x20000024
 8002aac:	e000ed04 	.word	0xe000ed04

08002ab0 <prvInitialiseTaskLists>:
 8002ab0:	b580      	push	{r7, lr}
 8002ab2:	b082      	sub	sp, #8
 8002ab4:	af00      	add	r7, sp, #0
 8002ab6:	2300      	movs	r3, #0
 8002ab8:	607b      	str	r3, [r7, #4]
 8002aba:	e00c      	b.n	8002ad6 <prvInitialiseTaskLists+0x26>
 8002abc:	687a      	ldr	r2, [r7, #4]
 8002abe:	4613      	mov	r3, r2
 8002ac0:	009b      	lsls	r3, r3, #2
 8002ac2:	4413      	add	r3, r2
 8002ac4:	009b      	lsls	r3, r3, #2
 8002ac6:	4a12      	ldr	r2, [pc, #72]	; (8002b10 <prvInitialiseTaskLists+0x60>)
 8002ac8:	4413      	add	r3, r2
 8002aca:	4618      	mov	r0, r3
 8002acc:	f000 fb30 	bl	8003130 <vListInitialise>
 8002ad0:	687b      	ldr	r3, [r7, #4]
 8002ad2:	3301      	adds	r3, #1
 8002ad4:	607b      	str	r3, [r7, #4]
 8002ad6:	687b      	ldr	r3, [r7, #4]
 8002ad8:	2b04      	cmp	r3, #4
 8002ada:	d9ef      	bls.n	8002abc <prvInitialiseTaskLists+0xc>
 8002adc:	480d      	ldr	r0, [pc, #52]	; (8002b14 <prvInitialiseTaskLists+0x64>)
 8002ade:	f000 fb27 	bl	8003130 <vListInitialise>
 8002ae2:	480d      	ldr	r0, [pc, #52]	; (8002b18 <prvInitialiseTaskLists+0x68>)
 8002ae4:	f000 fb24 	bl	8003130 <vListInitialise>
 8002ae8:	480c      	ldr	r0, [pc, #48]	; (8002b1c <prvInitialiseTaskLists+0x6c>)
 8002aea:	f000 fb21 	bl	8003130 <vListInitialise>
 8002aee:	480c      	ldr	r0, [pc, #48]	; (8002b20 <prvInitialiseTaskLists+0x70>)
 8002af0:	f000 fb1e 	bl	8003130 <vListInitialise>
 8002af4:	480b      	ldr	r0, [pc, #44]	; (8002b24 <prvInitialiseTaskLists+0x74>)
 8002af6:	f000 fb1b 	bl	8003130 <vListInitialise>
 8002afa:	4b0b      	ldr	r3, [pc, #44]	; (8002b28 <prvInitialiseTaskLists+0x78>)
 8002afc:	4a05      	ldr	r2, [pc, #20]	; (8002b14 <prvInitialiseTaskLists+0x64>)
 8002afe:	601a      	str	r2, [r3, #0]
 8002b00:	4b0a      	ldr	r3, [pc, #40]	; (8002b2c <prvInitialiseTaskLists+0x7c>)
 8002b02:	4a05      	ldr	r2, [pc, #20]	; (8002b18 <prvInitialiseTaskLists+0x68>)
 8002b04:	601a      	str	r2, [r3, #0]
 8002b06:	bf00      	nop
 8002b08:	3708      	adds	r7, #8
 8002b0a:	46bd      	mov	sp, r7
 8002b0c:	bd80      	pop	{r7, pc}
 8002b0e:	bf00      	nop
 8002b10:	20000024 	.word	0x20000024
 8002b14:	20000088 	.word	0x20000088
 8002b18:	2000009c 	.word	0x2000009c
 8002b1c:	200000b8 	.word	0x200000b8
 8002b20:	200000cc 	.word	0x200000cc
 8002b24:	200000e4 	.word	0x200000e4
 8002b28:	200000b0 	.word	0x200000b0
 8002b2c:	200000b4 	.word	0x200000b4

08002b30 <prvCheckTasksWaitingTermination>:
 8002b30:	b580      	push	{r7, lr}
 8002b32:	b082      	sub	sp, #8
 8002b34:	af00      	add	r7, sp, #0
 8002b36:	e019      	b.n	8002b6c <prvCheckTasksWaitingTermination+0x3c>
 8002b38:	f000 fcc6 	bl	80034c8 <vPortEnterCritical>
 8002b3c:	4b10      	ldr	r3, [pc, #64]	; (8002b80 <prvCheckTasksWaitingTermination+0x50>)
 8002b3e:	68db      	ldr	r3, [r3, #12]
 8002b40:	68db      	ldr	r3, [r3, #12]
 8002b42:	607b      	str	r3, [r7, #4]
 8002b44:	687b      	ldr	r3, [r7, #4]
 8002b46:	3304      	adds	r3, #4
 8002b48:	4618      	mov	r0, r3
 8002b4a:	f000 fb7b 	bl	8003244 <uxListRemove>
 8002b4e:	4b0d      	ldr	r3, [pc, #52]	; (8002b84 <prvCheckTasksWaitingTermination+0x54>)
 8002b50:	681b      	ldr	r3, [r3, #0]
 8002b52:	3b01      	subs	r3, #1
 8002b54:	4a0b      	ldr	r2, [pc, #44]	; (8002b84 <prvCheckTasksWaitingTermination+0x54>)
 8002b56:	6013      	str	r3, [r2, #0]
 8002b58:	4b0b      	ldr	r3, [pc, #44]	; (8002b88 <prvCheckTasksWaitingTermination+0x58>)
 8002b5a:	681b      	ldr	r3, [r3, #0]
 8002b5c:	3b01      	subs	r3, #1
 8002b5e:	4a0a      	ldr	r2, [pc, #40]	; (8002b88 <prvCheckTasksWaitingTermination+0x58>)
 8002b60:	6013      	str	r3, [r2, #0]
 8002b62:	f000 fcdb 	bl	800351c <vPortExitCritical>
 8002b66:	6878      	ldr	r0, [r7, #4]
 8002b68:	f000 f810 	bl	8002b8c <prvDeleteTCB>
 8002b6c:	4b06      	ldr	r3, [pc, #24]	; (8002b88 <prvCheckTasksWaitingTermination+0x58>)
 8002b6e:	681b      	ldr	r3, [r3, #0]
 8002b70:	2b00      	cmp	r3, #0
 8002b72:	d1e1      	bne.n	8002b38 <prvCheckTasksWaitingTermination+0x8>
 8002b74:	bf00      	nop
 8002b76:	bf00      	nop
 8002b78:	3708      	adds	r7, #8
 8002b7a:	46bd      	mov	sp, r7
 8002b7c:	bd80      	pop	{r7, pc}
 8002b7e:	bf00      	nop
 8002b80:	200000cc 	.word	0x200000cc
 8002b84:	200000f8 	.word	0x200000f8
 8002b88:	200000e0 	.word	0x200000e0

08002b8c <prvDeleteTCB>:
 8002b8c:	b580      	push	{r7, lr}
 8002b8e:	b082      	sub	sp, #8
 8002b90:	af00      	add	r7, sp, #0
 8002b92:	6078      	str	r0, [r7, #4]
 8002b94:	687b      	ldr	r3, [r7, #4]
 8002b96:	6b1b      	ldr	r3, [r3, #48]	; 0x30
 8002b98:	4618      	mov	r0, r3
 8002b9a:	f001 fe95 	bl	80048c8 <vPortFree>
 8002b9e:	6878      	ldr	r0, [r7, #4]
 8002ba0:	f001 fe92 	bl	80048c8 <vPortFree>
 8002ba4:	bf00      	nop
 8002ba6:	3708      	adds	r7, #8
 8002ba8:	46bd      	mov	sp, r7
 8002baa:	bd80      	pop	{r7, pc}

08002bac <prvResetNextTaskUnblockTime>:
 8002bac:	b480      	push	{r7}
 8002bae:	af00      	add	r7, sp, #0
 8002bb0:	4b0a      	ldr	r3, [pc, #40]	; (8002bdc <prvResetNextTaskUnblockTime+0x30>)
 8002bb2:	681b      	ldr	r3, [r3, #0]
 8002bb4:	681b      	ldr	r3, [r3, #0]
 8002bb6:	2b00      	cmp	r3, #0
 8002bb8:	d104      	bne.n	8002bc4 <prvResetNextTaskUnblockTime+0x18>
 8002bba:	4b09      	ldr	r3, [pc, #36]	; (8002be0 <prvResetNextTaskUnblockTime+0x34>)
 8002bbc:	f04f 32ff 	mov.w	r2, #4294967295
 8002bc0:	601a      	str	r2, [r3, #0]
 8002bc2:	e005      	b.n	8002bd0 <prvResetNextTaskUnblockTime+0x24>
 8002bc4:	4b05      	ldr	r3, [pc, #20]	; (8002bdc <prvResetNextTaskUnblockTime+0x30>)
 8002bc6:	681b      	ldr	r3, [r3, #0]
 8002bc8:	68db      	ldr	r3, [r3, #12]
 8002bca:	681b      	ldr	r3, [r3, #0]
 8002bcc:	4a04      	ldr	r2, [pc, #16]	; (8002be0 <prvResetNextTaskUnblockTime+0x34>)
 8002bce:	6013      	str	r3, [r2, #0]
 8002bd0:	bf00      	nop
 8002bd2:	46bd      	mov	sp, r7
 8002bd4:	f85d 7b04 	ldr.w	r7, [sp], #4
 8002bd8:	4770      	bx	lr
 8002bda:	bf00      	nop
 8002bdc:	200000b0 	.word	0x200000b0
 8002be0:	20000118 	.word	0x20000118

08002be4 <xTaskGetCurrentTaskHandle>:
 8002be4:	b480      	push	{r7}
 8002be6:	b083      	sub	sp, #12
 8002be8:	af00      	add	r7, sp, #0
 8002bea:	4b05      	ldr	r3, [pc, #20]	; (8002c00 <xTaskGetCurrentTaskHandle+0x1c>)
 8002bec:	681b      	ldr	r3, [r3, #0]
 8002bee:	607b      	str	r3, [r7, #4]
 8002bf0:	687b      	ldr	r3, [r7, #4]
 8002bf2:	4618      	mov	r0, r3
 8002bf4:	370c      	adds	r7, #12
 8002bf6:	46bd      	mov	sp, r7
 8002bf8:	f85d 7b04 	ldr.w	r7, [sp], #4
 8002bfc:	4770      	bx	lr
 8002bfe:	bf00      	nop
 8002c00:	20000020 	.word	0x20000020

08002c04 <xTaskGetSchedulerState>:
 8002c04:	b480      	push	{r7}
 8002c06:	b083      	sub	sp, #12
 8002c08:	af00      	add	r7, sp, #0
 8002c0a:	4b0b      	ldr	r3, [pc, #44]	; (8002c38 <xTaskGetSchedulerState+0x34>)
 8002c0c:	681b      	ldr	r3, [r3, #0]
 8002c0e:	2b00      	cmp	r3, #0
 8002c10:	d102      	bne.n	8002c18 <xTaskGetSchedulerState+0x14>
 8002c12:	2301      	movs	r3, #1
 8002c14:	607b      	str	r3, [r7, #4]
 8002c16:	e008      	b.n	8002c2a <xTaskGetSchedulerState+0x26>
 8002c18:	4b08      	ldr	r3, [pc, #32]	; (8002c3c <xTaskGetSchedulerState+0x38>)
 8002c1a:	681b      	ldr	r3, [r3, #0]
 8002c1c:	2b00      	cmp	r3, #0
 8002c1e:	d102      	bne.n	8002c26 <xTaskGetSchedulerState+0x22>
 8002c20:	2302      	movs	r3, #2
 8002c22:	607b      	str	r3, [r7, #4]
 8002c24:	e001      	b.n	8002c2a <xTaskGetSchedulerState+0x26>
 8002c26:	2300      	movs	r3, #0
 8002c28:	607b      	str	r3, [r7, #4]
 8002c2a:	687b      	ldr	r3, [r7, #4]
 8002c2c:	4618      	mov	r0, r3
 8002c2e:	370c      	adds	r7, #12
 8002c30:	46bd      	mov	sp, r7
 8002c32:	f85d 7b04 	ldr.w	r7, [sp], #4
 8002c36:	4770      	bx	lr
 8002c38:	20000104 	.word	0x20000104
 8002c3c:	20000120 	.word	0x20000120

08002c40 <xTaskPriorityInherit>:
 8002c40:	b580      	push	{r7, lr}
 8002c42:	b086      	sub	sp, #24
 8002c44:	af00      	add	r7, sp, #0
 8002c46:	6078      	str	r0, [r7, #4]
 8002c48:	687b      	ldr	r3, [r7, #4]
 8002c4a:	613b      	str	r3, [r7, #16]
 8002c4c:	2300      	movs	r3, #0
 8002c4e:	617b      	str	r3, [r7, #20]
 8002c50:	687b      	ldr	r3, [r7, #4]
 8002c52:	2b00      	cmp	r3, #0
 8002c54:	f000 8087 	beq.w	8002d66 <xTaskPriorityInherit+0x126>
 8002c58:	693b      	ldr	r3, [r7, #16]
 8002c5a:	6ada      	ldr	r2, [r3, #44]	; 0x2c
 8002c5c:	4b44      	ldr	r3, [pc, #272]	; (8002d70 <xTaskPriorityInherit+0x130>)
 8002c5e:	681b      	ldr	r3, [r3, #0]
 8002c60:	6adb      	ldr	r3, [r3, #44]	; 0x2c
 8002c62:	429a      	cmp	r2, r3
 8002c64:	d276      	bcs.n	8002d54 <xTaskPriorityInherit+0x114>
 8002c66:	693b      	ldr	r3, [r7, #16]
 8002c68:	699b      	ldr	r3, [r3, #24]
 8002c6a:	2b00      	cmp	r3, #0
 8002c6c:	db06      	blt.n	8002c7c <xTaskPriorityInherit+0x3c>
 8002c6e:	4b40      	ldr	r3, [pc, #256]	; (8002d70 <xTaskPriorityInherit+0x130>)
 8002c70:	681b      	ldr	r3, [r3, #0]
 8002c72:	6adb      	ldr	r3, [r3, #44]	; 0x2c
 8002c74:	f1c3 0205 	rsb	r2, r3, #5
 8002c78:	693b      	ldr	r3, [r7, #16]
 8002c7a:	619a      	str	r2, [r3, #24]
 8002c7c:	693b      	ldr	r3, [r7, #16]
 8002c7e:	6959      	ldr	r1, [r3, #20]
 8002c80:	693b      	ldr	r3, [r7, #16]
 8002c82:	6ada      	ldr	r2, [r3, #44]	; 0x2c
 8002c84:	4613      	mov	r3, r2
 8002c86:	009b      	lsls	r3, r3, #2
 8002c88:	4413      	add	r3, r2
 8002c8a:	009b      	lsls	r3, r3, #2
 8002c8c:	4a39      	ldr	r2, [pc, #228]	; (8002d74 <xTaskPriorityInherit+0x134>)
 8002c8e:	4413      	add	r3, r2
 8002c90:	4299      	cmp	r1, r3
 8002c92:	d157      	bne.n	8002d44 <xTaskPriorityInherit+0x104>
 8002c94:	693b      	ldr	r3, [r7, #16]
 8002c96:	3304      	adds	r3, #4
 8002c98:	4618      	mov	r0, r3
 8002c9a:	f000 fad3 	bl	8003244 <uxListRemove>
 8002c9e:	4603      	mov	r3, r0
 8002ca0:	2b00      	cmp	r3, #0
 8002ca2:	d10a      	bne.n	8002cba <xTaskPriorityInherit+0x7a>
 8002ca4:	693b      	ldr	r3, [r7, #16]
 8002ca6:	6adb      	ldr	r3, [r3, #44]	; 0x2c
 8002ca8:	2201      	movs	r2, #1
 8002caa:	fa02 f303 	lsl.w	r3, r2, r3
 8002cae:	43da      	mvns	r2, r3
 8002cb0:	4b31      	ldr	r3, [pc, #196]	; (8002d78 <xTaskPriorityInherit+0x138>)
 8002cb2:	681b      	ldr	r3, [r3, #0]
 8002cb4:	4013      	ands	r3, r2
 8002cb6:	4a30      	ldr	r2, [pc, #192]	; (8002d78 <xTaskPriorityInherit+0x138>)
 8002cb8:	6013      	str	r3, [r2, #0]
 8002cba:	4b2d      	ldr	r3, [pc, #180]	; (8002d70 <xTaskPriorityInherit+0x130>)
 8002cbc:	681b      	ldr	r3, [r3, #0]
 8002cbe:	6ada      	ldr	r2, [r3, #44]	; 0x2c
 8002cc0:	693b      	ldr	r3, [r7, #16]
 8002cc2:	62da      	str	r2, [r3, #44]	; 0x2c
 8002cc4:	693b      	ldr	r3, [r7, #16]
 8002cc6:	6adb      	ldr	r3, [r3, #44]	; 0x2c
 8002cc8:	2201      	movs	r2, #1
 8002cca:	409a      	lsls	r2, r3
 8002ccc:	4b2a      	ldr	r3, [pc, #168]	; (8002d78 <xTaskPriorityInherit+0x138>)
 8002cce:	681b      	ldr	r3, [r3, #0]
 8002cd0:	4313      	orrs	r3, r2
 8002cd2:	4a29      	ldr	r2, [pc, #164]	; (8002d78 <xTaskPriorityInherit+0x138>)
 8002cd4:	6013      	str	r3, [r2, #0]
 8002cd6:	693b      	ldr	r3, [r7, #16]
 8002cd8:	6ada      	ldr	r2, [r3, #44]	; 0x2c
 8002cda:	4926      	ldr	r1, [pc, #152]	; (8002d74 <xTaskPriorityInherit+0x134>)
 8002cdc:	4613      	mov	r3, r2
 8002cde:	009b      	lsls	r3, r3, #2
 8002ce0:	4413      	add	r3, r2
 8002ce2:	009b      	lsls	r3, r3, #2
 8002ce4:	440b      	add	r3, r1
 8002ce6:	3304      	adds	r3, #4
 8002ce8:	681b      	ldr	r3, [r3, #0]
 8002cea:	60fb      	str	r3, [r7, #12]
 8002cec:	693b      	ldr	r3, [r7, #16]
 8002cee:	68fa      	ldr	r2, [r7, #12]
 8002cf0:	609a      	str	r2, [r3, #8]
 8002cf2:	68fb      	ldr	r3, [r7, #12]
 8002cf4:	689a      	ldr	r2, [r3, #8]
 8002cf6:	693b      	ldr	r3, [r7, #16]
 8002cf8:	60da      	str	r2, [r3, #12]
 8002cfa:	68fb      	ldr	r3, [r7, #12]
 8002cfc:	689b      	ldr	r3, [r3, #8]
 8002cfe:	693a      	ldr	r2, [r7, #16]
 8002d00:	3204      	adds	r2, #4
 8002d02:	605a      	str	r2, [r3, #4]
 8002d04:	693b      	ldr	r3, [r7, #16]
 8002d06:	1d1a      	adds	r2, r3, #4
 8002d08:	68fb      	ldr	r3, [r7, #12]
 8002d0a:	609a      	str	r2, [r3, #8]
 8002d0c:	693b      	ldr	r3, [r7, #16]
 8002d0e:	6ada      	ldr	r2, [r3, #44]	; 0x2c
 8002d10:	4613      	mov	r3, r2
 8002d12:	009b      	lsls	r3, r3, #2
 8002d14:	4413      	add	r3, r2
 8002d16:	009b      	lsls	r3, r3, #2
 8002d18:	4a16      	ldr	r2, [pc, #88]	; (8002d74 <xTaskPriorityInherit+0x134>)
 8002d1a:	441a      	add	r2, r3
 8002d1c:	693b      	ldr	r3, [r7, #16]
 8002d1e:	615a      	str	r2, [r3, #20]
 8002d20:	693b      	ldr	r3, [r7, #16]
 8002d22:	6ada      	ldr	r2, [r3, #44]	; 0x2c
 8002d24:	4913      	ldr	r1, [pc, #76]	; (8002d74 <xTaskPriorityInherit+0x134>)
 8002d26:	4613      	mov	r3, r2
 8002d28:	009b      	lsls	r3, r3, #2
 8002d2a:	4413      	add	r3, r2
 8002d2c:	009b      	lsls	r3, r3, #2
 8002d2e:	440b      	add	r3, r1
 8002d30:	681b      	ldr	r3, [r3, #0]
 8002d32:	1c59      	adds	r1, r3, #1
 8002d34:	480f      	ldr	r0, [pc, #60]	; (8002d74 <xTaskPriorityInherit+0x134>)
 8002d36:	4613      	mov	r3, r2
 8002d38:	009b      	lsls	r3, r3, #2
 8002d3a:	4413      	add	r3, r2
 8002d3c:	009b      	lsls	r3, r3, #2
 8002d3e:	4403      	add	r3, r0
 8002d40:	6019      	str	r1, [r3, #0]
 8002d42:	e004      	b.n	8002d4e <xTaskPriorityInherit+0x10e>
 8002d44:	4b0a      	ldr	r3, [pc, #40]	; (8002d70 <xTaskPriorityInherit+0x130>)
 8002d46:	681b      	ldr	r3, [r3, #0]
 8002d48:	6ada      	ldr	r2, [r3, #44]	; 0x2c
 8002d4a:	693b      	ldr	r3, [r7, #16]
 8002d4c:	62da      	str	r2, [r3, #44]	; 0x2c
 8002d4e:	2301      	movs	r3, #1
 8002d50:	617b      	str	r3, [r7, #20]
 8002d52:	e008      	b.n	8002d66 <xTaskPriorityInherit+0x126>
 8002d54:	693b      	ldr	r3, [r7, #16]
 8002d56:	6cda      	ldr	r2, [r3, #76]	; 0x4c
 8002d58:	4b05      	ldr	r3, [pc, #20]	; (8002d70 <xTaskPriorityInherit+0x130>)
 8002d5a:	681b      	ldr	r3, [r3, #0]
 8002d5c:	6adb      	ldr	r3, [r3, #44]	; 0x2c
 8002d5e:	429a      	cmp	r2, r3
 8002d60:	d201      	bcs.n	8002d66 <xTaskPriorityInherit+0x126>
 8002d62:	2301      	movs	r3, #1
 8002d64:	617b      	str	r3, [r7, #20]
 8002d66:	697b      	ldr	r3, [r7, #20]
 8002d68:	4618      	mov	r0, r3
 8002d6a:	3718      	adds	r7, #24
 8002d6c:	46bd      	mov	sp, r7
 8002d6e:	bd80      	pop	{r7, pc}
 8002d70:	20000020 	.word	0x20000020
 8002d74:	20000024 	.word	0x20000024
 8002d78:	20000100 	.word	0x20000100

08002d7c <xTaskPriorityDisinherit>:
 8002d7c:	b580      	push	{r7, lr}
 8002d7e:	b086      	sub	sp, #24
 8002d80:	af00      	add	r7, sp, #0
 8002d82:	6078      	str	r0, [r7, #4]
 8002d84:	687b      	ldr	r3, [r7, #4]
 8002d86:	613b      	str	r3, [r7, #16]
 8002d88:	2300      	movs	r3, #0
 8002d8a:	617b      	str	r3, [r7, #20]
 8002d8c:	687b      	ldr	r3, [r7, #4]
 8002d8e:	2b00      	cmp	r3, #0
 8002d90:	d07f      	beq.n	8002e92 <xTaskPriorityDisinherit+0x116>
 8002d92:	4b42      	ldr	r3, [pc, #264]	; (8002e9c <xTaskPriorityDisinherit+0x120>)
 8002d94:	681b      	ldr	r3, [r3, #0]
 8002d96:	693a      	ldr	r2, [r7, #16]
 8002d98:	429a      	cmp	r2, r3
 8002d9a:	d004      	beq.n	8002da6 <xTaskPriorityDisinherit+0x2a>
 8002d9c:	4940      	ldr	r1, [pc, #256]	; (8002ea0 <xTaskPriorityDisinherit+0x124>)
 8002d9e:	f241 003f 	movw	r0, #4159	; 0x103f
 8002da2:	f003 f890 	bl	8005ec6 <vAssertCalled>
 8002da6:	693b      	ldr	r3, [r7, #16]
 8002da8:	6d1b      	ldr	r3, [r3, #80]	; 0x50
 8002daa:	2b00      	cmp	r3, #0
 8002dac:	d104      	bne.n	8002db8 <xTaskPriorityDisinherit+0x3c>
 8002dae:	493c      	ldr	r1, [pc, #240]	; (8002ea0 <xTaskPriorityDisinherit+0x124>)
 8002db0:	f44f 5082 	mov.w	r0, #4160	; 0x1040
 8002db4:	f003 f887 	bl	8005ec6 <vAssertCalled>
 8002db8:	693b      	ldr	r3, [r7, #16]
 8002dba:	6d1b      	ldr	r3, [r3, #80]	; 0x50
 8002dbc:	1e5a      	subs	r2, r3, #1
 8002dbe:	693b      	ldr	r3, [r7, #16]
 8002dc0:	651a      	str	r2, [r3, #80]	; 0x50
 8002dc2:	693b      	ldr	r3, [r7, #16]
 8002dc4:	6ada      	ldr	r2, [r3, #44]	; 0x2c
 8002dc6:	693b      	ldr	r3, [r7, #16]
 8002dc8:	6cdb      	ldr	r3, [r3, #76]	; 0x4c
 8002dca:	429a      	cmp	r2, r3
 8002dcc:	d061      	beq.n	8002e92 <xTaskPriorityDisinherit+0x116>
 8002dce:	693b      	ldr	r3, [r7, #16]
 8002dd0:	6d1b      	ldr	r3, [r3, #80]	; 0x50
 8002dd2:	2b00      	cmp	r3, #0
 8002dd4:	d15d      	bne.n	8002e92 <xTaskPriorityDisinherit+0x116>
 8002dd6:	693b      	ldr	r3, [r7, #16]
 8002dd8:	3304      	adds	r3, #4
 8002dda:	4618      	mov	r0, r3
 8002ddc:	f000 fa32 	bl	8003244 <uxListRemove>
 8002de0:	4603      	mov	r3, r0
 8002de2:	2b00      	cmp	r3, #0
 8002de4:	d10a      	bne.n	8002dfc <xTaskPriorityDisinherit+0x80>
 8002de6:	693b      	ldr	r3, [r7, #16]
 8002de8:	6adb      	ldr	r3, [r3, #44]	; 0x2c
 8002dea:	2201      	movs	r2, #1
 8002dec:	fa02 f303 	lsl.w	r3, r2, r3
 8002df0:	43da      	mvns	r2, r3
 8002df2:	4b2c      	ldr	r3, [pc, #176]	; (8002ea4 <xTaskPriorityDisinherit+0x128>)
 8002df4:	681b      	ldr	r3, [r3, #0]
 8002df6:	4013      	ands	r3, r2
 8002df8:	4a2a      	ldr	r2, [pc, #168]	; (8002ea4 <xTaskPriorityDisinherit+0x128>)
 8002dfa:	6013      	str	r3, [r2, #0]
 8002dfc:	693b      	ldr	r3, [r7, #16]
 8002dfe:	6cda      	ldr	r2, [r3, #76]	; 0x4c
 8002e00:	693b      	ldr	r3, [r7, #16]
 8002e02:	62da      	str	r2, [r3, #44]	; 0x2c
 8002e04:	693b      	ldr	r3, [r7, #16]
 8002e06:	6adb      	ldr	r3, [r3, #44]	; 0x2c
 8002e08:	f1c3 0205 	rsb	r2, r3, #5
 8002e0c:	693b      	ldr	r3, [r7, #16]
 8002e0e:	619a      	str	r2, [r3, #24]
 8002e10:	693b      	ldr	r3, [r7, #16]
 8002e12:	6adb      	ldr	r3, [r3, #44]	; 0x2c
 8002e14:	2201      	movs	r2, #1
 8002e16:	409a      	lsls	r2, r3
 8002e18:	4b22      	ldr	r3, [pc, #136]	; (8002ea4 <xTaskPriorityDisinherit+0x128>)
 8002e1a:	681b      	ldr	r3, [r3, #0]
 8002e1c:	4313      	orrs	r3, r2
 8002e1e:	4a21      	ldr	r2, [pc, #132]	; (8002ea4 <xTaskPriorityDisinherit+0x128>)
 8002e20:	6013      	str	r3, [r2, #0]
 8002e22:	693b      	ldr	r3, [r7, #16]
 8002e24:	6ada      	ldr	r2, [r3, #44]	; 0x2c
 8002e26:	4920      	ldr	r1, [pc, #128]	; (8002ea8 <xTaskPriorityDisinherit+0x12c>)
 8002e28:	4613      	mov	r3, r2
 8002e2a:	009b      	lsls	r3, r3, #2
 8002e2c:	4413      	add	r3, r2
 8002e2e:	009b      	lsls	r3, r3, #2
 8002e30:	440b      	add	r3, r1
 8002e32:	3304      	adds	r3, #4
 8002e34:	681b      	ldr	r3, [r3, #0]
 8002e36:	60fb      	str	r3, [r7, #12]
 8002e38:	693b      	ldr	r3, [r7, #16]
 8002e3a:	68fa      	ldr	r2, [r7, #12]
 8002e3c:	609a      	str	r2, [r3, #8]
 8002e3e:	68fb      	ldr	r3, [r7, #12]
 8002e40:	689a      	ldr	r2, [r3, #8]
 8002e42:	693b      	ldr	r3, [r7, #16]
 8002e44:	60da      	str	r2, [r3, #12]
 8002e46:	68fb      	ldr	r3, [r7, #12]
 8002e48:	689b      	ldr	r3, [r3, #8]
 8002e4a:	693a      	ldr	r2, [r7, #16]
 8002e4c:	3204      	adds	r2, #4
 8002e4e:	605a      	str	r2, [r3, #4]
 8002e50:	693b      	ldr	r3, [r7, #16]
 8002e52:	1d1a      	adds	r2, r3, #4
 8002e54:	68fb      	ldr	r3, [r7, #12]
 8002e56:	609a      	str	r2, [r3, #8]
 8002e58:	693b      	ldr	r3, [r7, #16]
 8002e5a:	6ada      	ldr	r2, [r3, #44]	; 0x2c
 8002e5c:	4613      	mov	r3, r2
 8002e5e:	009b      	lsls	r3, r3, #2
 8002e60:	4413      	add	r3, r2
 8002e62:	009b      	lsls	r3, r3, #2
 8002e64:	4a10      	ldr	r2, [pc, #64]	; (8002ea8 <xTaskPriorityDisinherit+0x12c>)
 8002e66:	441a      	add	r2, r3
 8002e68:	693b      	ldr	r3, [r7, #16]
 8002e6a:	615a      	str	r2, [r3, #20]
 8002e6c:	693b      	ldr	r3, [r7, #16]
 8002e6e:	6ada      	ldr	r2, [r3, #44]	; 0x2c
 8002e70:	490d      	ldr	r1, [pc, #52]	; (8002ea8 <xTaskPriorityDisinherit+0x12c>)
 8002e72:	4613      	mov	r3, r2
 8002e74:	009b      	lsls	r3, r3, #2
 8002e76:	4413      	add	r3, r2
 8002e78:	009b      	lsls	r3, r3, #2
 8002e7a:	440b      	add	r3, r1
 8002e7c:	681b      	ldr	r3, [r3, #0]
 8002e7e:	1c59      	adds	r1, r3, #1
 8002e80:	4809      	ldr	r0, [pc, #36]	; (8002ea8 <xTaskPriorityDisinherit+0x12c>)
 8002e82:	4613      	mov	r3, r2
 8002e84:	009b      	lsls	r3, r3, #2
 8002e86:	4413      	add	r3, r2
 8002e88:	009b      	lsls	r3, r3, #2
 8002e8a:	4403      	add	r3, r0
 8002e8c:	6019      	str	r1, [r3, #0]
 8002e8e:	2301      	movs	r3, #1
 8002e90:	617b      	str	r3, [r7, #20]
 8002e92:	697b      	ldr	r3, [r7, #20]
 8002e94:	4618      	mov	r0, r3
 8002e96:	3718      	adds	r7, #24
 8002e98:	46bd      	mov	sp, r7
 8002e9a:	bd80      	pop	{r7, pc}
 8002e9c:	20000020 	.word	0x20000020
 8002ea0:	0800a028 	.word	0x0800a028
 8002ea4:	20000100 	.word	0x20000100
 8002ea8:	20000024 	.word	0x20000024

08002eac <vTaskPriorityDisinheritAfterTimeout>:
 8002eac:	b580      	push	{r7, lr}
 8002eae:	b088      	sub	sp, #32
 8002eb0:	af00      	add	r7, sp, #0
 8002eb2:	6078      	str	r0, [r7, #4]
 8002eb4:	6039      	str	r1, [r7, #0]
 8002eb6:	687b      	ldr	r3, [r7, #4]
 8002eb8:	61bb      	str	r3, [r7, #24]
 8002eba:	2301      	movs	r3, #1
 8002ebc:	617b      	str	r3, [r7, #20]
 8002ebe:	687b      	ldr	r3, [r7, #4]
 8002ec0:	2b00      	cmp	r3, #0
 8002ec2:	f000 8094 	beq.w	8002fee <vTaskPriorityDisinheritAfterTimeout+0x142>
 8002ec6:	69bb      	ldr	r3, [r7, #24]
 8002ec8:	6d1b      	ldr	r3, [r3, #80]	; 0x50
 8002eca:	2b00      	cmp	r3, #0
 8002ecc:	d104      	bne.n	8002ed8 <vTaskPriorityDisinheritAfterTimeout+0x2c>
 8002ece:	494a      	ldr	r1, [pc, #296]	; (8002ff8 <vTaskPriorityDisinheritAfterTimeout+0x14c>)
 8002ed0:	f241 008f 	movw	r0, #4239	; 0x108f
 8002ed4:	f002 fff7 	bl	8005ec6 <vAssertCalled>
 8002ed8:	69bb      	ldr	r3, [r7, #24]
 8002eda:	6cdb      	ldr	r3, [r3, #76]	; 0x4c
 8002edc:	683a      	ldr	r2, [r7, #0]
 8002ede:	429a      	cmp	r2, r3
 8002ee0:	d902      	bls.n	8002ee8 <vTaskPriorityDisinheritAfterTimeout+0x3c>
 8002ee2:	683b      	ldr	r3, [r7, #0]
 8002ee4:	61fb      	str	r3, [r7, #28]
 8002ee6:	e002      	b.n	8002eee <vTaskPriorityDisinheritAfterTimeout+0x42>
 8002ee8:	69bb      	ldr	r3, [r7, #24]
 8002eea:	6cdb      	ldr	r3, [r3, #76]	; 0x4c
 8002eec:	61fb      	str	r3, [r7, #28]
 8002eee:	69bb      	ldr	r3, [r7, #24]
 8002ef0:	6adb      	ldr	r3, [r3, #44]	; 0x2c
 8002ef2:	69fa      	ldr	r2, [r7, #28]
 8002ef4:	429a      	cmp	r2, r3
 8002ef6:	d07a      	beq.n	8002fee <vTaskPriorityDisinheritAfterTimeout+0x142>
 8002ef8:	69bb      	ldr	r3, [r7, #24]
 8002efa:	6d1b      	ldr	r3, [r3, #80]	; 0x50
 8002efc:	697a      	ldr	r2, [r7, #20]
 8002efe:	429a      	cmp	r2, r3
 8002f00:	d175      	bne.n	8002fee <vTaskPriorityDisinheritAfterTimeout+0x142>
 8002f02:	4b3e      	ldr	r3, [pc, #248]	; (8002ffc <vTaskPriorityDisinheritAfterTimeout+0x150>)
 8002f04:	681b      	ldr	r3, [r3, #0]
 8002f06:	69ba      	ldr	r2, [r7, #24]
 8002f08:	429a      	cmp	r2, r3
 8002f0a:	d104      	bne.n	8002f16 <vTaskPriorityDisinheritAfterTimeout+0x6a>
 8002f0c:	493a      	ldr	r1, [pc, #232]	; (8002ff8 <vTaskPriorityDisinheritAfterTimeout+0x14c>)
 8002f0e:	f241 00aa 	movw	r0, #4266	; 0x10aa
 8002f12:	f002 ffd8 	bl	8005ec6 <vAssertCalled>
 8002f16:	69bb      	ldr	r3, [r7, #24]
 8002f18:	6adb      	ldr	r3, [r3, #44]	; 0x2c
 8002f1a:	613b      	str	r3, [r7, #16]
 8002f1c:	69bb      	ldr	r3, [r7, #24]
 8002f1e:	69fa      	ldr	r2, [r7, #28]
 8002f20:	62da      	str	r2, [r3, #44]	; 0x2c
 8002f22:	69bb      	ldr	r3, [r7, #24]
 8002f24:	699b      	ldr	r3, [r3, #24]
 8002f26:	2b00      	cmp	r3, #0
 8002f28:	db04      	blt.n	8002f34 <vTaskPriorityDisinheritAfterTimeout+0x88>
 8002f2a:	69fb      	ldr	r3, [r7, #28]
 8002f2c:	f1c3 0205 	rsb	r2, r3, #5
 8002f30:	69bb      	ldr	r3, [r7, #24]
 8002f32:	619a      	str	r2, [r3, #24]
 8002f34:	69bb      	ldr	r3, [r7, #24]
 8002f36:	6959      	ldr	r1, [r3, #20]
 8002f38:	693a      	ldr	r2, [r7, #16]
 8002f3a:	4613      	mov	r3, r2
 8002f3c:	009b      	lsls	r3, r3, #2
 8002f3e:	4413      	add	r3, r2
 8002f40:	009b      	lsls	r3, r3, #2
 8002f42:	4a2f      	ldr	r2, [pc, #188]	; (8003000 <vTaskPriorityDisinheritAfterTimeout+0x154>)
 8002f44:	4413      	add	r3, r2
 8002f46:	4299      	cmp	r1, r3
 8002f48:	d151      	bne.n	8002fee <vTaskPriorityDisinheritAfterTimeout+0x142>
 8002f4a:	69bb      	ldr	r3, [r7, #24]
 8002f4c:	3304      	adds	r3, #4
 8002f4e:	4618      	mov	r0, r3
 8002f50:	f000 f978 	bl	8003244 <uxListRemove>
 8002f54:	4603      	mov	r3, r0
 8002f56:	2b00      	cmp	r3, #0
 8002f58:	d10a      	bne.n	8002f70 <vTaskPriorityDisinheritAfterTimeout+0xc4>
 8002f5a:	69bb      	ldr	r3, [r7, #24]
 8002f5c:	6adb      	ldr	r3, [r3, #44]	; 0x2c
 8002f5e:	2201      	movs	r2, #1
 8002f60:	fa02 f303 	lsl.w	r3, r2, r3
 8002f64:	43da      	mvns	r2, r3
 8002f66:	4b27      	ldr	r3, [pc, #156]	; (8003004 <vTaskPriorityDisinheritAfterTimeout+0x158>)
 8002f68:	681b      	ldr	r3, [r3, #0]
 8002f6a:	4013      	ands	r3, r2
 8002f6c:	4a25      	ldr	r2, [pc, #148]	; (8003004 <vTaskPriorityDisinheritAfterTimeout+0x158>)
 8002f6e:	6013      	str	r3, [r2, #0]
 8002f70:	69bb      	ldr	r3, [r7, #24]
 8002f72:	6adb      	ldr	r3, [r3, #44]	; 0x2c
 8002f74:	2201      	movs	r2, #1
 8002f76:	409a      	lsls	r2, r3
 8002f78:	4b22      	ldr	r3, [pc, #136]	; (8003004 <vTaskPriorityDisinheritAfterTimeout+0x158>)
 8002f7a:	681b      	ldr	r3, [r3, #0]
 8002f7c:	4313      	orrs	r3, r2
 8002f7e:	4a21      	ldr	r2, [pc, #132]	; (8003004 <vTaskPriorityDisinheritAfterTimeout+0x158>)
 8002f80:	6013      	str	r3, [r2, #0]
 8002f82:	69bb      	ldr	r3, [r7, #24]
 8002f84:	6ada      	ldr	r2, [r3, #44]	; 0x2c
 8002f86:	491e      	ldr	r1, [pc, #120]	; (8003000 <vTaskPriorityDisinheritAfterTimeout+0x154>)
 8002f88:	4613      	mov	r3, r2
 8002f8a:	009b      	lsls	r3, r3, #2
 8002f8c:	4413      	add	r3, r2
 8002f8e:	009b      	lsls	r3, r3, #2
 8002f90:	440b      	add	r3, r1
 8002f92:	3304      	adds	r3, #4
 8002f94:	681b      	ldr	r3, [r3, #0]
 8002f96:	60fb      	str	r3, [r7, #12]
 8002f98:	69bb      	ldr	r3, [r7, #24]
 8002f9a:	68fa      	ldr	r2, [r7, #12]
 8002f9c:	609a      	str	r2, [r3, #8]
 8002f9e:	68fb      	ldr	r3, [r7, #12]
 8002fa0:	689a      	ldr	r2, [r3, #8]
 8002fa2:	69bb      	ldr	r3, [r7, #24]
 8002fa4:	60da      	str	r2, [r3, #12]
 8002fa6:	68fb      	ldr	r3, [r7, #12]
 8002fa8:	689b      	ldr	r3, [r3, #8]
 8002faa:	69ba      	ldr	r2, [r7, #24]
 8002fac:	3204      	adds	r2, #4
 8002fae:	605a      	str	r2, [r3, #4]
 8002fb0:	69bb      	ldr	r3, [r7, #24]
 8002fb2:	1d1a      	adds	r2, r3, #4
 8002fb4:	68fb      	ldr	r3, [r7, #12]
 8002fb6:	609a      	str	r2, [r3, #8]
 8002fb8:	69bb      	ldr	r3, [r7, #24]
 8002fba:	6ada      	ldr	r2, [r3, #44]	; 0x2c
 8002fbc:	4613      	mov	r3, r2
 8002fbe:	009b      	lsls	r3, r3, #2
 8002fc0:	4413      	add	r3, r2
 8002fc2:	009b      	lsls	r3, r3, #2
 8002fc4:	4a0e      	ldr	r2, [pc, #56]	; (8003000 <vTaskPriorityDisinheritAfterTimeout+0x154>)
 8002fc6:	441a      	add	r2, r3
 8002fc8:	69bb      	ldr	r3, [r7, #24]
 8002fca:	615a      	str	r2, [r3, #20]
 8002fcc:	69bb      	ldr	r3, [r7, #24]
 8002fce:	6ada      	ldr	r2, [r3, #44]	; 0x2c
 8002fd0:	490b      	ldr	r1, [pc, #44]	; (8003000 <vTaskPriorityDisinheritAfterTimeout+0x154>)
 8002fd2:	4613      	mov	r3, r2
 8002fd4:	009b      	lsls	r3, r3, #2
 8002fd6:	4413      	add	r3, r2
 8002fd8:	009b      	lsls	r3, r3, #2
 8002fda:	440b      	add	r3, r1
 8002fdc:	681b      	ldr	r3, [r3, #0]
 8002fde:	1c59      	adds	r1, r3, #1
 8002fe0:	4807      	ldr	r0, [pc, #28]	; (8003000 <vTaskPriorityDisinheritAfterTimeout+0x154>)
 8002fe2:	4613      	mov	r3, r2
 8002fe4:	009b      	lsls	r3, r3, #2
 8002fe6:	4413      	add	r3, r2
 8002fe8:	009b      	lsls	r3, r3, #2
 8002fea:	4403      	add	r3, r0
 8002fec:	6019      	str	r1, [r3, #0]
 8002fee:	bf00      	nop
 8002ff0:	3720      	adds	r7, #32
 8002ff2:	46bd      	mov	sp, r7
 8002ff4:	bd80      	pop	{r7, pc}
 8002ff6:	bf00      	nop
 8002ff8:	0800a028 	.word	0x0800a028
 8002ffc:	20000020 	.word	0x20000020
 8003000:	20000024 	.word	0x20000024
 8003004:	20000100 	.word	0x20000100

08003008 <pvTaskIncrementMutexHeldCount>:
 8003008:	b480      	push	{r7}
 800300a:	af00      	add	r7, sp, #0
 800300c:	4b07      	ldr	r3, [pc, #28]	; (800302c <pvTaskIncrementMutexHeldCount+0x24>)
 800300e:	681b      	ldr	r3, [r3, #0]
 8003010:	2b00      	cmp	r3, #0
 8003012:	d004      	beq.n	800301e <pvTaskIncrementMutexHeldCount+0x16>
 8003014:	4b05      	ldr	r3, [pc, #20]	; (800302c <pvTaskIncrementMutexHeldCount+0x24>)
 8003016:	681b      	ldr	r3, [r3, #0]
 8003018:	6d1a      	ldr	r2, [r3, #80]	; 0x50
 800301a:	3201      	adds	r2, #1
 800301c:	651a      	str	r2, [r3, #80]	; 0x50
 800301e:	4b03      	ldr	r3, [pc, #12]	; (800302c <pvTaskIncrementMutexHeldCount+0x24>)
 8003020:	681b      	ldr	r3, [r3, #0]
 8003022:	4618      	mov	r0, r3
 8003024:	46bd      	mov	sp, r7
 8003026:	f85d 7b04 	ldr.w	r7, [sp], #4
 800302a:	4770      	bx	lr
 800302c:	20000020 	.word	0x20000020

08003030 <prvAddCurrentTaskToDelayedList>:
 8003030:	b580      	push	{r7, lr}
 8003032:	b086      	sub	sp, #24
 8003034:	af00      	add	r7, sp, #0
 8003036:	6078      	str	r0, [r7, #4]
 8003038:	6039      	str	r1, [r7, #0]
 800303a:	4b36      	ldr	r3, [pc, #216]	; (8003114 <prvAddCurrentTaskToDelayedList+0xe4>)
 800303c:	681b      	ldr	r3, [r3, #0]
 800303e:	617b      	str	r3, [r7, #20]
 8003040:	4b35      	ldr	r3, [pc, #212]	; (8003118 <prvAddCurrentTaskToDelayedList+0xe8>)
 8003042:	681b      	ldr	r3, [r3, #0]
 8003044:	3304      	adds	r3, #4
 8003046:	4618      	mov	r0, r3
 8003048:	f000 f8fc 	bl	8003244 <uxListRemove>
 800304c:	4603      	mov	r3, r0
 800304e:	2b00      	cmp	r3, #0
 8003050:	d10b      	bne.n	800306a <prvAddCurrentTaskToDelayedList+0x3a>
 8003052:	4b31      	ldr	r3, [pc, #196]	; (8003118 <prvAddCurrentTaskToDelayedList+0xe8>)
 8003054:	681b      	ldr	r3, [r3, #0]
 8003056:	6adb      	ldr	r3, [r3, #44]	; 0x2c
 8003058:	2201      	movs	r2, #1
 800305a:	fa02 f303 	lsl.w	r3, r2, r3
 800305e:	43da      	mvns	r2, r3
 8003060:	4b2e      	ldr	r3, [pc, #184]	; (800311c <prvAddCurrentTaskToDelayedList+0xec>)
 8003062:	681b      	ldr	r3, [r3, #0]
 8003064:	4013      	ands	r3, r2
 8003066:	4a2d      	ldr	r2, [pc, #180]	; (800311c <prvAddCurrentTaskToDelayedList+0xec>)
 8003068:	6013      	str	r3, [r2, #0]
 800306a:	687b      	ldr	r3, [r7, #4]
 800306c:	f1b3 3fff 	cmp.w	r3, #4294967295
 8003070:	d124      	bne.n	80030bc <prvAddCurrentTaskToDelayedList+0x8c>
 8003072:	683b      	ldr	r3, [r7, #0]
 8003074:	2b00      	cmp	r3, #0
 8003076:	d021      	beq.n	80030bc <prvAddCurrentTaskToDelayedList+0x8c>
 8003078:	4b29      	ldr	r3, [pc, #164]	; (8003120 <prvAddCurrentTaskToDelayedList+0xf0>)
 800307a:	685b      	ldr	r3, [r3, #4]
 800307c:	613b      	str	r3, [r7, #16]
 800307e:	4b26      	ldr	r3, [pc, #152]	; (8003118 <prvAddCurrentTaskToDelayedList+0xe8>)
 8003080:	681b      	ldr	r3, [r3, #0]
 8003082:	693a      	ldr	r2, [r7, #16]
 8003084:	609a      	str	r2, [r3, #8]
 8003086:	4b24      	ldr	r3, [pc, #144]	; (8003118 <prvAddCurrentTaskToDelayedList+0xe8>)
 8003088:	681b      	ldr	r3, [r3, #0]
 800308a:	693a      	ldr	r2, [r7, #16]
 800308c:	6892      	ldr	r2, [r2, #8]
 800308e:	60da      	str	r2, [r3, #12]
 8003090:	4b21      	ldr	r3, [pc, #132]	; (8003118 <prvAddCurrentTaskToDelayedList+0xe8>)
 8003092:	681a      	ldr	r2, [r3, #0]
 8003094:	693b      	ldr	r3, [r7, #16]
 8003096:	689b      	ldr	r3, [r3, #8]
 8003098:	3204      	adds	r2, #4
 800309a:	605a      	str	r2, [r3, #4]
 800309c:	4b1e      	ldr	r3, [pc, #120]	; (8003118 <prvAddCurrentTaskToDelayedList+0xe8>)
 800309e:	681b      	ldr	r3, [r3, #0]
 80030a0:	1d1a      	adds	r2, r3, #4
 80030a2:	693b      	ldr	r3, [r7, #16]
 80030a4:	609a      	str	r2, [r3, #8]
 80030a6:	4b1c      	ldr	r3, [pc, #112]	; (8003118 <prvAddCurrentTaskToDelayedList+0xe8>)
 80030a8:	681b      	ldr	r3, [r3, #0]
 80030aa:	4a1d      	ldr	r2, [pc, #116]	; (8003120 <prvAddCurrentTaskToDelayedList+0xf0>)
 80030ac:	615a      	str	r2, [r3, #20]
 80030ae:	4b1c      	ldr	r3, [pc, #112]	; (8003120 <prvAddCurrentTaskToDelayedList+0xf0>)
 80030b0:	681b      	ldr	r3, [r3, #0]
 80030b2:	3301      	adds	r3, #1
 80030b4:	4a1a      	ldr	r2, [pc, #104]	; (8003120 <prvAddCurrentTaskToDelayedList+0xf0>)
 80030b6:	6013      	str	r3, [r2, #0]
 80030b8:	bf00      	nop
 80030ba:	e026      	b.n	800310a <prvAddCurrentTaskToDelayedList+0xda>
 80030bc:	697a      	ldr	r2, [r7, #20]
 80030be:	687b      	ldr	r3, [r7, #4]
 80030c0:	4413      	add	r3, r2
 80030c2:	60fb      	str	r3, [r7, #12]
 80030c4:	4b14      	ldr	r3, [pc, #80]	; (8003118 <prvAddCurrentTaskToDelayedList+0xe8>)
 80030c6:	681b      	ldr	r3, [r3, #0]
 80030c8:	68fa      	ldr	r2, [r7, #12]
 80030ca:	605a      	str	r2, [r3, #4]
 80030cc:	68fa      	ldr	r2, [r7, #12]
 80030ce:	697b      	ldr	r3, [r7, #20]
 80030d0:	429a      	cmp	r2, r3
 80030d2:	d209      	bcs.n	80030e8 <prvAddCurrentTaskToDelayedList+0xb8>
 80030d4:	4b13      	ldr	r3, [pc, #76]	; (8003124 <prvAddCurrentTaskToDelayedList+0xf4>)
 80030d6:	681a      	ldr	r2, [r3, #0]
 80030d8:	4b0f      	ldr	r3, [pc, #60]	; (8003118 <prvAddCurrentTaskToDelayedList+0xe8>)
 80030da:	681b      	ldr	r3, [r3, #0]
 80030dc:	3304      	adds	r3, #4
 80030de:	4619      	mov	r1, r3
 80030e0:	4610      	mov	r0, r2
 80030e2:	f000 f876 	bl	80031d2 <vListInsert>
 80030e6:	e010      	b.n	800310a <prvAddCurrentTaskToDelayedList+0xda>
 80030e8:	4b0f      	ldr	r3, [pc, #60]	; (8003128 <prvAddCurrentTaskToDelayedList+0xf8>)
 80030ea:	681a      	ldr	r2, [r3, #0]
 80030ec:	4b0a      	ldr	r3, [pc, #40]	; (8003118 <prvAddCurrentTaskToDelayedList+0xe8>)
 80030ee:	681b      	ldr	r3, [r3, #0]
 80030f0:	3304      	adds	r3, #4
 80030f2:	4619      	mov	r1, r3
 80030f4:	4610      	mov	r0, r2
 80030f6:	f000 f86c 	bl	80031d2 <vListInsert>
 80030fa:	4b0c      	ldr	r3, [pc, #48]	; (800312c <prvAddCurrentTaskToDelayedList+0xfc>)
 80030fc:	681b      	ldr	r3, [r3, #0]
 80030fe:	68fa      	ldr	r2, [r7, #12]
 8003100:	429a      	cmp	r2, r3
 8003102:	d202      	bcs.n	800310a <prvAddCurrentTaskToDelayedList+0xda>
 8003104:	4a09      	ldr	r2, [pc, #36]	; (800312c <prvAddCurrentTaskToDelayedList+0xfc>)
 8003106:	68fb      	ldr	r3, [r7, #12]
 8003108:	6013      	str	r3, [r2, #0]
 800310a:	bf00      	nop
 800310c:	3718      	adds	r7, #24
 800310e:	46bd      	mov	sp, r7
 8003110:	bd80      	pop	{r7, pc}
 8003112:	bf00      	nop
 8003114:	200000fc 	.word	0x200000fc
 8003118:	20000020 	.word	0x20000020
 800311c:	20000100 	.word	0x20000100
 8003120:	200000e4 	.word	0x200000e4
 8003124:	200000b4 	.word	0x200000b4
 8003128:	200000b0 	.word	0x200000b0
 800312c:	20000118 	.word	0x20000118

08003130 <vListInitialise>:
 8003130:	b480      	push	{r7}
 8003132:	b083      	sub	sp, #12
 8003134:	af00      	add	r7, sp, #0
 8003136:	6078      	str	r0, [r7, #4]
 8003138:	687b      	ldr	r3, [r7, #4]
 800313a:	f103 0208 	add.w	r2, r3, #8
 800313e:	687b      	ldr	r3, [r7, #4]
 8003140:	605a      	str	r2, [r3, #4]
 8003142:	687b      	ldr	r3, [r7, #4]
 8003144:	f04f 32ff 	mov.w	r2, #4294967295
 8003148:	609a      	str	r2, [r3, #8]
 800314a:	687b      	ldr	r3, [r7, #4]
 800314c:	f103 0208 	add.w	r2, r3, #8
 8003150:	687b      	ldr	r3, [r7, #4]
 8003152:	60da      	str	r2, [r3, #12]
 8003154:	687b      	ldr	r3, [r7, #4]
 8003156:	f103 0208 	add.w	r2, r3, #8
 800315a:	687b      	ldr	r3, [r7, #4]
 800315c:	611a      	str	r2, [r3, #16]
 800315e:	687b      	ldr	r3, [r7, #4]
 8003160:	2200      	movs	r2, #0
 8003162:	601a      	str	r2, [r3, #0]
 8003164:	bf00      	nop
 8003166:	370c      	adds	r7, #12
 8003168:	46bd      	mov	sp, r7
 800316a:	f85d 7b04 	ldr.w	r7, [sp], #4
 800316e:	4770      	bx	lr

08003170 <vListInitialiseItem>:
 8003170:	b480      	push	{r7}
 8003172:	b083      	sub	sp, #12
 8003174:	af00      	add	r7, sp, #0
 8003176:	6078      	str	r0, [r7, #4]
 8003178:	687b      	ldr	r3, [r7, #4]
 800317a:	2200      	movs	r2, #0
 800317c:	611a      	str	r2, [r3, #16]
 800317e:	bf00      	nop
 8003180:	370c      	adds	r7, #12
 8003182:	46bd      	mov	sp, r7
 8003184:	f85d 7b04 	ldr.w	r7, [sp], #4
 8003188:	4770      	bx	lr

0800318a <vListInsertEnd>:
 800318a:	b480      	push	{r7}
 800318c:	b085      	sub	sp, #20
 800318e:	af00      	add	r7, sp, #0
 8003190:	6078      	str	r0, [r7, #4]
 8003192:	6039      	str	r1, [r7, #0]
 8003194:	687b      	ldr	r3, [r7, #4]
 8003196:	685b      	ldr	r3, [r3, #4]
 8003198:	60fb      	str	r3, [r7, #12]
 800319a:	683b      	ldr	r3, [r7, #0]
 800319c:	68fa      	ldr	r2, [r7, #12]
 800319e:	605a      	str	r2, [r3, #4]
 80031a0:	68fb      	ldr	r3, [r7, #12]
 80031a2:	689a      	ldr	r2, [r3, #8]
 80031a4:	683b      	ldr	r3, [r7, #0]
 80031a6:	609a      	str	r2, [r3, #8]
 80031a8:	68fb      	ldr	r3, [r7, #12]
 80031aa:	689b      	ldr	r3, [r3, #8]
 80031ac:	683a      	ldr	r2, [r7, #0]
 80031ae:	605a      	str	r2, [r3, #4]
 80031b0:	68fb      	ldr	r3, [r7, #12]
 80031b2:	683a      	ldr	r2, [r7, #0]
 80031b4:	609a      	str	r2, [r3, #8]
 80031b6:	683b      	ldr	r3, [r7, #0]
 80031b8:	687a      	ldr	r2, [r7, #4]
 80031ba:	611a      	str	r2, [r3, #16]
 80031bc:	687b      	ldr	r3, [r7, #4]
 80031be:	681b      	ldr	r3, [r3, #0]
 80031c0:	1c5a      	adds	r2, r3, #1
 80031c2:	687b      	ldr	r3, [r7, #4]
 80031c4:	601a      	str	r2, [r3, #0]
 80031c6:	bf00      	nop
 80031c8:	3714      	adds	r7, #20
 80031ca:	46bd      	mov	sp, r7
 80031cc:	f85d 7b04 	ldr.w	r7, [sp], #4
 80031d0:	4770      	bx	lr

080031d2 <vListInsert>:
 80031d2:	b480      	push	{r7}
 80031d4:	b085      	sub	sp, #20
 80031d6:	af00      	add	r7, sp, #0
 80031d8:	6078      	str	r0, [r7, #4]
 80031da:	6039      	str	r1, [r7, #0]
 80031dc:	683b      	ldr	r3, [r7, #0]
 80031de:	681b      	ldr	r3, [r3, #0]
 80031e0:	60bb      	str	r3, [r7, #8]
 80031e2:	68bb      	ldr	r3, [r7, #8]
 80031e4:	f1b3 3fff 	cmp.w	r3, #4294967295
 80031e8:	d103      	bne.n	80031f2 <vListInsert+0x20>
 80031ea:	687b      	ldr	r3, [r7, #4]
 80031ec:	691b      	ldr	r3, [r3, #16]
 80031ee:	60fb      	str	r3, [r7, #12]
 80031f0:	e00c      	b.n	800320c <vListInsert+0x3a>
 80031f2:	687b      	ldr	r3, [r7, #4]
 80031f4:	3308      	adds	r3, #8
 80031f6:	60fb      	str	r3, [r7, #12]
 80031f8:	e002      	b.n	8003200 <vListInsert+0x2e>
 80031fa:	68fb      	ldr	r3, [r7, #12]
 80031fc:	685b      	ldr	r3, [r3, #4]
 80031fe:	60fb      	str	r3, [r7, #12]
 8003200:	68fb      	ldr	r3, [r7, #12]
 8003202:	685b      	ldr	r3, [r3, #4]
 8003204:	681b      	ldr	r3, [r3, #0]
 8003206:	68ba      	ldr	r2, [r7, #8]
 8003208:	429a      	cmp	r2, r3
 800320a:	d2f6      	bcs.n	80031fa <vListInsert+0x28>
 800320c:	68fb      	ldr	r3, [r7, #12]
 800320e:	685a      	ldr	r2, [r3, #4]
 8003210:	683b      	ldr	r3, [r7, #0]
 8003212:	605a      	str	r2, [r3, #4]
 8003214:	683b      	ldr	r3, [r7, #0]
 8003216:	685b      	ldr	r3, [r3, #4]
 8003218:	683a      	ldr	r2, [r7, #0]
 800321a:	609a      	str	r2, [r3, #8]
 800321c:	683b      	ldr	r3, [r7, #0]
 800321e:	68fa      	ldr	r2, [r7, #12]
 8003220:	609a      	str	r2, [r3, #8]
 8003222:	68fb      	ldr	r3, [r7, #12]
 8003224:	683a      	ldr	r2, [r7, #0]
 8003226:	605a      	str	r2, [r3, #4]
 8003228:	683b      	ldr	r3, [r7, #0]
 800322a:	687a      	ldr	r2, [r7, #4]
 800322c:	611a      	str	r2, [r3, #16]
 800322e:	687b      	ldr	r3, [r7, #4]
 8003230:	681b      	ldr	r3, [r3, #0]
 8003232:	1c5a      	adds	r2, r3, #1
 8003234:	687b      	ldr	r3, [r7, #4]
 8003236:	601a      	str	r2, [r3, #0]
 8003238:	bf00      	nop
 800323a:	3714      	adds	r7, #20
 800323c:	46bd      	mov	sp, r7
 800323e:	f85d 7b04 	ldr.w	r7, [sp], #4
 8003242:	4770      	bx	lr

08003244 <uxListRemove>:
 8003244:	b480      	push	{r7}
 8003246:	b085      	sub	sp, #20
 8003248:	af00      	add	r7, sp, #0
 800324a:	6078      	str	r0, [r7, #4]
 800324c:	687b      	ldr	r3, [r7, #4]
 800324e:	691b      	ldr	r3, [r3, #16]
 8003250:	60fb      	str	r3, [r7, #12]
 8003252:	687b      	ldr	r3, [r7, #4]
 8003254:	685b      	ldr	r3, [r3, #4]
 8003256:	687a      	ldr	r2, [r7, #4]
 8003258:	6892      	ldr	r2, [r2, #8]
 800325a:	609a      	str	r2, [r3, #8]
 800325c:	687b      	ldr	r3, [r7, #4]
 800325e:	689b      	ldr	r3, [r3, #8]
 8003260:	687a      	ldr	r2, [r7, #4]
 8003262:	6852      	ldr	r2, [r2, #4]
 8003264:	605a      	str	r2, [r3, #4]
 8003266:	68fb      	ldr	r3, [r7, #12]
 8003268:	685b      	ldr	r3, [r3, #4]
 800326a:	687a      	ldr	r2, [r7, #4]
 800326c:	429a      	cmp	r2, r3
 800326e:	d103      	bne.n	8003278 <uxListRemove+0x34>
 8003270:	687b      	ldr	r3, [r7, #4]
 8003272:	689a      	ldr	r2, [r3, #8]
 8003274:	68fb      	ldr	r3, [r7, #12]
 8003276:	605a      	str	r2, [r3, #4]
 8003278:	687b      	ldr	r3, [r7, #4]
 800327a:	2200      	movs	r2, #0
 800327c:	611a      	str	r2, [r3, #16]
 800327e:	68fb      	ldr	r3, [r7, #12]
 8003280:	681b      	ldr	r3, [r3, #0]
 8003282:	1e5a      	subs	r2, r3, #1
 8003284:	68fb      	ldr	r3, [r7, #12]
 8003286:	601a      	str	r2, [r3, #0]
 8003288:	68fb      	ldr	r3, [r7, #12]
 800328a:	681b      	ldr	r3, [r3, #0]
 800328c:	4618      	mov	r0, r3
 800328e:	3714      	adds	r7, #20
 8003290:	46bd      	mov	sp, r7
 8003292:	f85d 7b04 	ldr.w	r7, [sp], #4
 8003296:	4770      	bx	lr

08003298 <pxPortInitialiseStack>:
 8003298:	b480      	push	{r7}
 800329a:	b085      	sub	sp, #20
 800329c:	af00      	add	r7, sp, #0
 800329e:	60f8      	str	r0, [r7, #12]
 80032a0:	60b9      	str	r1, [r7, #8]
 80032a2:	607a      	str	r2, [r7, #4]
 80032a4:	68fb      	ldr	r3, [r7, #12]
 80032a6:	3b04      	subs	r3, #4
 80032a8:	60fb      	str	r3, [r7, #12]
 80032aa:	68fb      	ldr	r3, [r7, #12]
 80032ac:	f04f 7280 	mov.w	r2, #16777216	; 0x1000000
 80032b0:	601a      	str	r2, [r3, #0]
 80032b2:	68fb      	ldr	r3, [r7, #12]
 80032b4:	3b04      	subs	r3, #4
 80032b6:	60fb      	str	r3, [r7, #12]
 80032b8:	68bb      	ldr	r3, [r7, #8]
 80032ba:	f023 0201 	bic.w	r2, r3, #1
 80032be:	68fb      	ldr	r3, [r7, #12]
 80032c0:	601a      	str	r2, [r3, #0]
 80032c2:	68fb      	ldr	r3, [r7, #12]
 80032c4:	3b04      	subs	r3, #4
 80032c6:	60fb      	str	r3, [r7, #12]
 80032c8:	4a0c      	ldr	r2, [pc, #48]	; (80032fc <pxPortInitialiseStack+0x64>)
 80032ca:	68fb      	ldr	r3, [r7, #12]
 80032cc:	601a      	str	r2, [r3, #0]
 80032ce:	68fb      	ldr	r3, [r7, #12]
 80032d0:	3b14      	subs	r3, #20
 80032d2:	60fb      	str	r3, [r7, #12]
 80032d4:	687a      	ldr	r2, [r7, #4]
 80032d6:	68fb      	ldr	r3, [r7, #12]
 80032d8:	601a      	str	r2, [r3, #0]
 80032da:	68fb      	ldr	r3, [r7, #12]
 80032dc:	3b04      	subs	r3, #4
 80032de:	60fb      	str	r3, [r7, #12]
 80032e0:	68fb      	ldr	r3, [r7, #12]
 80032e2:	f06f 0202 	mvn.w	r2, #2
 80032e6:	601a      	str	r2, [r3, #0]
 80032e8:	68fb      	ldr	r3, [r7, #12]
 80032ea:	3b20      	subs	r3, #32
 80032ec:	60fb      	str	r3, [r7, #12]
 80032ee:	68fb      	ldr	r3, [r7, #12]
 80032f0:	4618      	mov	r0, r3
 80032f2:	3714      	adds	r7, #20
 80032f4:	46bd      	mov	sp, r7
 80032f6:	f85d 7b04 	ldr.w	r7, [sp], #4
 80032fa:	4770      	bx	lr
 80032fc:	08003301 	.word	0x08003301

08003300 <prvTaskExitError>:
 8003300:	b580      	push	{r7, lr}
 8003302:	b082      	sub	sp, #8
 8003304:	af00      	add	r7, sp, #0
 8003306:	2300      	movs	r3, #0
 8003308:	603b      	str	r3, [r7, #0]
 800330a:	4b0e      	ldr	r3, [pc, #56]	; (8003344 <prvTaskExitError+0x44>)
 800330c:	681b      	ldr	r3, [r3, #0]
 800330e:	f1b3 3fff 	cmp.w	r3, #4294967295
 8003312:	d003      	beq.n	800331c <prvTaskExitError+0x1c>
 8003314:	490c      	ldr	r1, [pc, #48]	; (8003348 <prvTaskExitError+0x48>)
 8003316:	20e7      	movs	r0, #231	; 0xe7
 8003318:	f002 fdd5 	bl	8005ec6 <vAssertCalled>
 800331c:	f04f 0350 	mov.w	r3, #80	; 0x50
 8003320:	f383 8811 	msr	BASEPRI, r3
 8003324:	f3bf 8f6f 	isb	sy
 8003328:	f3bf 8f4f 	dsb	sy
 800332c:	607b      	str	r3, [r7, #4]
 800332e:	bf00      	nop
 8003330:	bf00      	nop
 8003332:	683b      	ldr	r3, [r7, #0]
 8003334:	2b00      	cmp	r3, #0
 8003336:	d0fc      	beq.n	8003332 <prvTaskExitError+0x32>
 8003338:	bf00      	nop
 800333a:	bf00      	nop
 800333c:	3708      	adds	r7, #8
 800333e:	46bd      	mov	sp, r7
 8003340:	bd80      	pop	{r7, pc}
 8003342:	bf00      	nop
 8003344:	20000004 	.word	0x20000004
 8003348:	0800a058 	.word	0x0800a058
 800334c:	d4d4d4d4 	.word	0xd4d4d4d4

08003350 <SVCall>:
 8003350:	4b07      	ldr	r3, [pc, #28]	; (8003370 <pxCurrentTCBConst2>)
 8003352:	6819      	ldr	r1, [r3, #0]
 8003354:	6808      	ldr	r0, [r1, #0]
 8003356:	e8b0 4ff0 	ldmia.w	r0!, {r4, r5, r6, r7, r8, r9, sl, fp, lr}
 800335a:	f380 8809 	msr	PSP, r0
 800335e:	f3bf 8f6f 	isb	sy
 8003362:	f04f 0000 	mov.w	r0, #0
 8003366:	f380 8811 	msr	BASEPRI, r0
 800336a:	4770      	bx	lr
 800336c:	f3af 8000 	nop.w

08003370 <pxCurrentTCBConst2>:
 8003370:	20000020 	.word	0x20000020
 8003374:	bf00      	nop
 8003376:	bf00      	nop

08003378 <prvPortStartFirstTask>:
 8003378:	4808      	ldr	r0, [pc, #32]	; (800339c <prvPortStartFirstTask+0x24>)
 800337a:	6800      	ldr	r0, [r0, #0]
 800337c:	6800      	ldr	r0, [r0, #0]
 800337e:	f380 8808 	msr	MSP, r0
 8003382:	f04f 0000 	mov.w	r0, #0
 8003386:	f380 8814 	msr	CONTROL, r0
 800338a:	b662      	cpsie	i
 800338c:	b661      	cpsie	f
 800338e:	f3bf 8f4f 	dsb	sy
 8003392:	f3bf 8f6f 	isb	sy
 8003396:	df00      	svc	0
 8003398:	bf00      	nop
 800339a:	0000      	.short	0x0000
 800339c:	e000ed08 	.word	0xe000ed08
 80033a0:	bf00      	nop
 80033a2:	bf00      	nop

080033a4 <xPortStartScheduler>:
 80033a4:	b580      	push	{r7, lr}
 80033a6:	b084      	sub	sp, #16
 80033a8:	af00      	add	r7, sp, #0
 80033aa:	4b3d      	ldr	r3, [pc, #244]	; (80034a0 <xPortStartScheduler+0xfc>)
 80033ac:	681b      	ldr	r3, [r3, #0]
 80033ae:	4a3d      	ldr	r2, [pc, #244]	; (80034a4 <xPortStartScheduler+0x100>)
 80033b0:	4293      	cmp	r3, r2
 80033b2:	d104      	bne.n	80033be <xPortStartScheduler+0x1a>
 80033b4:	493c      	ldr	r1, [pc, #240]	; (80034a8 <xPortStartScheduler+0x104>)
 80033b6:	f44f 7097 	mov.w	r0, #302	; 0x12e
 80033ba:	f002 fd84 	bl	8005ec6 <vAssertCalled>
 80033be:	4b38      	ldr	r3, [pc, #224]	; (80034a0 <xPortStartScheduler+0xfc>)
 80033c0:	681b      	ldr	r3, [r3, #0]
 80033c2:	4a3a      	ldr	r2, [pc, #232]	; (80034ac <xPortStartScheduler+0x108>)
 80033c4:	4293      	cmp	r3, r2
 80033c6:	d104      	bne.n	80033d2 <xPortStartScheduler+0x2e>
 80033c8:	4937      	ldr	r1, [pc, #220]	; (80034a8 <xPortStartScheduler+0x104>)
 80033ca:	f240 102f 	movw	r0, #303	; 0x12f
 80033ce:	f002 fd7a 	bl	8005ec6 <vAssertCalled>
 80033d2:	4b37      	ldr	r3, [pc, #220]	; (80034b0 <xPortStartScheduler+0x10c>)
 80033d4:	60fb      	str	r3, [r7, #12]
 80033d6:	68fb      	ldr	r3, [r7, #12]
 80033d8:	781b      	ldrb	r3, [r3, #0]
 80033da:	b2db      	uxtb	r3, r3
 80033dc:	60bb      	str	r3, [r7, #8]
 80033de:	68fb      	ldr	r3, [r7, #12]
 80033e0:	22ff      	movs	r2, #255	; 0xff
 80033e2:	701a      	strb	r2, [r3, #0]
 80033e4:	68fb      	ldr	r3, [r7, #12]
 80033e6:	781b      	ldrb	r3, [r3, #0]
 80033e8:	b2db      	uxtb	r3, r3
 80033ea:	71fb      	strb	r3, [r7, #7]
 80033ec:	79fb      	ldrb	r3, [r7, #7]
 80033ee:	b2db      	uxtb	r3, r3
 80033f0:	f003 0350 	and.w	r3, r3, #80	; 0x50
 80033f4:	b2da      	uxtb	r2, r3
 80033f6:	4b2f      	ldr	r3, [pc, #188]	; (80034b4 <xPortStartScheduler+0x110>)
 80033f8:	701a      	strb	r2, [r3, #0]
 80033fa:	4b2f      	ldr	r3, [pc, #188]	; (80034b8 <xPortStartScheduler+0x114>)
 80033fc:	2207      	movs	r2, #7
 80033fe:	601a      	str	r2, [r3, #0]
 8003400:	e009      	b.n	8003416 <xPortStartScheduler+0x72>
 8003402:	4b2d      	ldr	r3, [pc, #180]	; (80034b8 <xPortStartScheduler+0x114>)
 8003404:	681b      	ldr	r3, [r3, #0]
 8003406:	3b01      	subs	r3, #1
 8003408:	4a2b      	ldr	r2, [pc, #172]	; (80034b8 <xPortStartScheduler+0x114>)
 800340a:	6013      	str	r3, [r2, #0]
 800340c:	79fb      	ldrb	r3, [r7, #7]
 800340e:	b2db      	uxtb	r3, r3
 8003410:	005b      	lsls	r3, r3, #1
 8003412:	b2db      	uxtb	r3, r3
 8003414:	71fb      	strb	r3, [r7, #7]
 8003416:	79fb      	ldrb	r3, [r7, #7]
 8003418:	b2db      	uxtb	r3, r3
 800341a:	f003 0380 	and.w	r3, r3, #128	; 0x80
 800341e:	2b80      	cmp	r3, #128	; 0x80
 8003420:	d0ef      	beq.n	8003402 <xPortStartScheduler+0x5e>
 8003422:	4b25      	ldr	r3, [pc, #148]	; (80034b8 <xPortStartScheduler+0x114>)
 8003424:	681b      	ldr	r3, [r3, #0]
 8003426:	f1c3 0307 	rsb	r3, r3, #7
 800342a:	2b04      	cmp	r3, #4
 800342c:	d004      	beq.n	8003438 <xPortStartScheduler+0x94>
 800342e:	491e      	ldr	r1, [pc, #120]	; (80034a8 <xPortStartScheduler+0x104>)
 8003430:	f240 1061 	movw	r0, #353	; 0x161
 8003434:	f002 fd47 	bl	8005ec6 <vAssertCalled>
 8003438:	4b1f      	ldr	r3, [pc, #124]	; (80034b8 <xPortStartScheduler+0x114>)
 800343a:	681b      	ldr	r3, [r3, #0]
 800343c:	021b      	lsls	r3, r3, #8
 800343e:	4a1e      	ldr	r2, [pc, #120]	; (80034b8 <xPortStartScheduler+0x114>)
 8003440:	6013      	str	r3, [r2, #0]
 8003442:	4b1d      	ldr	r3, [pc, #116]	; (80034b8 <xPortStartScheduler+0x114>)
 8003444:	681b      	ldr	r3, [r3, #0]
 8003446:	f403 63e0 	and.w	r3, r3, #1792	; 0x700
 800344a:	4a1b      	ldr	r2, [pc, #108]	; (80034b8 <xPortStartScheduler+0x114>)
 800344c:	6013      	str	r3, [r2, #0]
 800344e:	68bb      	ldr	r3, [r7, #8]
 8003450:	b2da      	uxtb	r2, r3
 8003452:	68fb      	ldr	r3, [r7, #12]
 8003454:	701a      	strb	r2, [r3, #0]
 8003456:	4b19      	ldr	r3, [pc, #100]	; (80034bc <xPortStartScheduler+0x118>)
 8003458:	681b      	ldr	r3, [r3, #0]
 800345a:	4a18      	ldr	r2, [pc, #96]	; (80034bc <xPortStartScheduler+0x118>)
 800345c:	f443 0370 	orr.w	r3, r3, #15728640	; 0xf00000
 8003460:	6013      	str	r3, [r2, #0]
 8003462:	4b16      	ldr	r3, [pc, #88]	; (80034bc <xPortStartScheduler+0x118>)
 8003464:	681b      	ldr	r3, [r3, #0]
 8003466:	4a15      	ldr	r2, [pc, #84]	; (80034bc <xPortStartScheduler+0x118>)
 8003468:	f043 4370 	orr.w	r3, r3, #4026531840	; 0xf0000000
 800346c:	6013      	str	r3, [r2, #0]
 800346e:	f000 f8d5 	bl	800361c <vPortSetupTimerInterrupt>
 8003472:	4b13      	ldr	r3, [pc, #76]	; (80034c0 <xPortStartScheduler+0x11c>)
 8003474:	2200      	movs	r2, #0
 8003476:	601a      	str	r2, [r3, #0]
 8003478:	f000 f8ea 	bl	8003650 <vPortEnableVFP>
 800347c:	4b11      	ldr	r3, [pc, #68]	; (80034c4 <xPortStartScheduler+0x120>)
 800347e:	681b      	ldr	r3, [r3, #0]
 8003480:	4a10      	ldr	r2, [pc, #64]	; (80034c4 <xPortStartScheduler+0x120>)
 8003482:	f043 4340 	orr.w	r3, r3, #3221225472	; 0xc0000000
 8003486:	6013      	str	r3, [r2, #0]
 8003488:	f7ff ff76 	bl	8003378 <prvPortStartFirstTask>
 800348c:	f7ff f8cc 	bl	8002628 <vTaskSwitchContext>
 8003490:	f7ff ff36 	bl	8003300 <prvTaskExitError>
 8003494:	2300      	movs	r3, #0
 8003496:	4618      	mov	r0, r3
 8003498:	3710      	adds	r7, #16
 800349a:	46bd      	mov	sp, r7
 800349c:	bd80      	pop	{r7, pc}
 800349e:	bf00      	nop
 80034a0:	e000ed00 	.word	0xe000ed00
 80034a4:	410fc271 	.word	0x410fc271
 80034a8:	0800a058 	.word	0x0800a058
 80034ac:	410fc270 	.word	0x410fc270
 80034b0:	e000e400 	.word	0xe000e400
 80034b4:	20000124 	.word	0x20000124
 80034b8:	20000128 	.word	0x20000128
 80034bc:	e000ed20 	.word	0xe000ed20
 80034c0:	20000004 	.word	0x20000004
 80034c4:	e000ef34 	.word	0xe000ef34

080034c8 <vPortEnterCritical>:
 80034c8:	b580      	push	{r7, lr}
 80034ca:	b082      	sub	sp, #8
 80034cc:	af00      	add	r7, sp, #0
 80034ce:	f04f 0350 	mov.w	r3, #80	; 0x50
 80034d2:	f383 8811 	msr	BASEPRI, r3
 80034d6:	f3bf 8f6f 	isb	sy
 80034da:	f3bf 8f4f 	dsb	sy
 80034de:	607b      	str	r3, [r7, #4]
 80034e0:	bf00      	nop
 80034e2:	4b0b      	ldr	r3, [pc, #44]	; (8003510 <vPortEnterCritical+0x48>)
 80034e4:	681b      	ldr	r3, [r3, #0]
 80034e6:	3301      	adds	r3, #1
 80034e8:	4a09      	ldr	r2, [pc, #36]	; (8003510 <vPortEnterCritical+0x48>)
 80034ea:	6013      	str	r3, [r2, #0]
 80034ec:	4b08      	ldr	r3, [pc, #32]	; (8003510 <vPortEnterCritical+0x48>)
 80034ee:	681b      	ldr	r3, [r3, #0]
 80034f0:	2b01      	cmp	r3, #1
 80034f2:	d109      	bne.n	8003508 <vPortEnterCritical+0x40>
 80034f4:	4b07      	ldr	r3, [pc, #28]	; (8003514 <vPortEnterCritical+0x4c>)
 80034f6:	681b      	ldr	r3, [r3, #0]
 80034f8:	b2db      	uxtb	r3, r3
 80034fa:	2b00      	cmp	r3, #0
 80034fc:	d004      	beq.n	8003508 <vPortEnterCritical+0x40>
 80034fe:	4906      	ldr	r1, [pc, #24]	; (8003518 <vPortEnterCritical+0x50>)
 8003500:	f44f 70d3 	mov.w	r0, #422	; 0x1a6
 8003504:	f002 fcdf 	bl	8005ec6 <vAssertCalled>
 8003508:	bf00      	nop
 800350a:	3708      	adds	r7, #8
 800350c:	46bd      	mov	sp, r7
 800350e:	bd80      	pop	{r7, pc}
 8003510:	20000004 	.word	0x20000004
 8003514:	e000ed04 	.word	0xe000ed04
 8003518:	0800a058 	.word	0x0800a058

0800351c <vPortExitCritical>:
 800351c:	b580      	push	{r7, lr}
 800351e:	b082      	sub	sp, #8
 8003520:	af00      	add	r7, sp, #0
 8003522:	4b0e      	ldr	r3, [pc, #56]	; (800355c <vPortExitCritical+0x40>)
 8003524:	681b      	ldr	r3, [r3, #0]
 8003526:	2b00      	cmp	r3, #0
 8003528:	d104      	bne.n	8003534 <vPortExitCritical+0x18>
 800352a:	490d      	ldr	r1, [pc, #52]	; (8003560 <vPortExitCritical+0x44>)
 800352c:	f240 10ad 	movw	r0, #429	; 0x1ad
 8003530:	f002 fcc9 	bl	8005ec6 <vAssertCalled>
 8003534:	4b09      	ldr	r3, [pc, #36]	; (800355c <vPortExitCritical+0x40>)
 8003536:	681b      	ldr	r3, [r3, #0]
 8003538:	3b01      	subs	r3, #1
 800353a:	4a08      	ldr	r2, [pc, #32]	; (800355c <vPortExitCritical+0x40>)
 800353c:	6013      	str	r3, [r2, #0]
 800353e:	4b07      	ldr	r3, [pc, #28]	; (800355c <vPortExitCritical+0x40>)
 8003540:	681b      	ldr	r3, [r3, #0]
 8003542:	2b00      	cmp	r3, #0
 8003544:	d105      	bne.n	8003552 <vPortExitCritical+0x36>
 8003546:	2300      	movs	r3, #0
 8003548:	607b      	str	r3, [r7, #4]
 800354a:	687b      	ldr	r3, [r7, #4]
 800354c:	f383 8811 	msr	BASEPRI, r3
 8003550:	bf00      	nop
 8003552:	bf00      	nop
 8003554:	3708      	adds	r7, #8
 8003556:	46bd      	mov	sp, r7
 8003558:	bd80      	pop	{r7, pc}
 800355a:	bf00      	nop
 800355c:	20000004 	.word	0x20000004
 8003560:	0800a058 	.word	0x0800a058
 8003564:	d4d4d4d4 	.word	0xd4d4d4d4
 8003568:	d4d4d4d4 	.word	0xd4d4d4d4
 800356c:	d4d4d4d4 	.word	0xd4d4d4d4

08003570 <PendSV>:
 8003570:	f3ef 8009 	mrs	r0, PSP
 8003574:	f3bf 8f6f 	isb	sy
 8003578:	4b15      	ldr	r3, [pc, #84]	; (80035d0 <pxCurrentTCBConst>)
 800357a:	681a      	ldr	r2, [r3, #0]
 800357c:	f01e 0f10 	tst.w	lr, #16
 8003580:	bf08      	it	eq
 8003582:	ed20 8a10 	vstmdbeq	r0!, {s16-s31}
 8003586:	e920 4ff0 	stmdb	r0!, {r4, r5, r6, r7, r8, r9, sl, fp, lr}
 800358a:	6010      	str	r0, [r2, #0]
 800358c:	e92d 0009 	stmdb	sp!, {r0, r3}
 8003590:	f04f 0050 	mov.w	r0, #80	; 0x50
 8003594:	f380 8811 	msr	BASEPRI, r0
 8003598:	f3bf 8f4f 	dsb	sy
 800359c:	f3bf 8f6f 	isb	sy
 80035a0:	f7ff f842 	bl	8002628 <vTaskSwitchContext>
 80035a4:	f04f 0000 	mov.w	r0, #0
 80035a8:	f380 8811 	msr	BASEPRI, r0
 80035ac:	bc09      	pop	{r0, r3}
 80035ae:	6819      	ldr	r1, [r3, #0]
 80035b0:	6808      	ldr	r0, [r1, #0]
 80035b2:	e8b0 4ff0 	ldmia.w	r0!, {r4, r5, r6, r7, r8, r9, sl, fp, lr}
 80035b6:	f01e 0f10 	tst.w	lr, #16
 80035ba:	bf08      	it	eq
 80035bc:	ecb0 8a10 	vldmiaeq	r0!, {s16-s31}
 80035c0:	f380 8809 	msr	PSP, r0
 80035c4:	f3bf 8f6f 	isb	sy
 80035c8:	4770      	bx	lr
 80035ca:	bf00      	nop
 80035cc:	f3af 8000 	nop.w

080035d0 <pxCurrentTCBConst>:
 80035d0:	20000020 	.word	0x20000020
 80035d4:	bf00      	nop
 80035d6:	bf00      	nop

080035d8 <SysTick>:
 80035d8:	b580      	push	{r7, lr}
 80035da:	b082      	sub	sp, #8
 80035dc:	af00      	add	r7, sp, #0
 80035de:	f04f 0350 	mov.w	r3, #80	; 0x50
 80035e2:	f383 8811 	msr	BASEPRI, r3
 80035e6:	f3bf 8f6f 	isb	sy
 80035ea:	f3bf 8f4f 	dsb	sy
 80035ee:	607b      	str	r3, [r7, #4]
 80035f0:	bf00      	nop
 80035f2:	f7fe ff07 	bl	8002404 <xTaskIncrementTick>
 80035f6:	4603      	mov	r3, r0
 80035f8:	2b00      	cmp	r3, #0
 80035fa:	d003      	beq.n	8003604 <SysTick+0x2c>
 80035fc:	4b06      	ldr	r3, [pc, #24]	; (8003618 <SysTick+0x40>)
 80035fe:	f04f 5280 	mov.w	r2, #268435456	; 0x10000000
 8003602:	601a      	str	r2, [r3, #0]
 8003604:	2300      	movs	r3, #0
 8003606:	603b      	str	r3, [r7, #0]
 8003608:	683b      	ldr	r3, [r7, #0]
 800360a:	f383 8811 	msr	BASEPRI, r3
 800360e:	bf00      	nop
 8003610:	bf00      	nop
 8003612:	3708      	adds	r7, #8
 8003614:	46bd      	mov	sp, r7
 8003616:	bd80      	pop	{r7, pc}
 8003618:	e000ed04 	.word	0xe000ed04

0800361c <vPortSetupTimerInterrupt>:
 800361c:	b480      	push	{r7}
 800361e:	af00      	add	r7, sp, #0
 8003620:	4b08      	ldr	r3, [pc, #32]	; (8003644 <vPortSetupTimerInterrupt+0x28>)
 8003622:	2200      	movs	r2, #0
 8003624:	601a      	str	r2, [r3, #0]
 8003626:	4b08      	ldr	r3, [pc, #32]	; (8003648 <vPortSetupTimerInterrupt+0x2c>)
 8003628:	2200      	movs	r2, #0
 800362a:	601a      	str	r2, [r3, #0]
 800362c:	4b07      	ldr	r3, [pc, #28]	; (800364c <vPortSetupTimerInterrupt+0x30>)
 800362e:	f242 02cf 	movw	r2, #8399	; 0x20cf
 8003632:	601a      	str	r2, [r3, #0]
 8003634:	4b03      	ldr	r3, [pc, #12]	; (8003644 <vPortSetupTimerInterrupt+0x28>)
 8003636:	2207      	movs	r2, #7
 8003638:	601a      	str	r2, [r3, #0]
 800363a:	bf00      	nop
 800363c:	46bd      	mov	sp, r7
 800363e:	f85d 7b04 	ldr.w	r7, [sp], #4
 8003642:	4770      	bx	lr
 8003644:	e000e010 	.word	0xe000e010
 8003648:	e000e018 	.word	0xe000e018
 800364c:	e000e014 	.word	0xe000e014

08003650 <vPortEnableVFP>:
 8003650:	f8df 000c 	ldr.w	r0, [pc, #12]	; 8003660 <vPortEnableVFP+0x10>
 8003654:	6801      	ldr	r1, [r0, #0]
 8003656:	f441 0170 	orr.w	r1, r1, #15728640	; 0xf00000
 800365a:	6001      	str	r1, [r0, #0]
 800365c:	4770      	bx	lr
 800365e:	0000      	.short	0x0000
 8003660:	e000ed88 	.word	0xe000ed88
 8003664:	bf00      	nop
 8003666:	bf00      	nop

08003668 <vPortValidateInterruptPriority>:
 8003668:	b580      	push	{r7, lr}
 800366a:	b082      	sub	sp, #8
 800366c:	af00      	add	r7, sp, #0
 800366e:	f3ef 8305 	mrs	r3, IPSR
 8003672:	607b      	str	r3, [r7, #4]
 8003674:	687b      	ldr	r3, [r7, #4]
 8003676:	2b0f      	cmp	r3, #15
 8003678:	d90e      	bls.n	8003698 <vPortValidateInterruptPriority+0x30>
 800367a:	4a10      	ldr	r2, [pc, #64]	; (80036bc <vPortValidateInterruptPriority+0x54>)
 800367c:	687b      	ldr	r3, [r7, #4]
 800367e:	4413      	add	r3, r2
 8003680:	781b      	ldrb	r3, [r3, #0]
 8003682:	70fb      	strb	r3, [r7, #3]
 8003684:	4b0e      	ldr	r3, [pc, #56]	; (80036c0 <vPortValidateInterruptPriority+0x58>)
 8003686:	781b      	ldrb	r3, [r3, #0]
 8003688:	78fa      	ldrb	r2, [r7, #3]
 800368a:	429a      	cmp	r2, r3
 800368c:	d204      	bcs.n	8003698 <vPortValidateInterruptPriority+0x30>
 800368e:	490d      	ldr	r1, [pc, #52]	; (80036c4 <vPortValidateInterruptPriority+0x5c>)
 8003690:	f44f 7040 	mov.w	r0, #768	; 0x300
 8003694:	f002 fc17 	bl	8005ec6 <vAssertCalled>
 8003698:	4b0b      	ldr	r3, [pc, #44]	; (80036c8 <vPortValidateInterruptPriority+0x60>)
 800369a:	681b      	ldr	r3, [r3, #0]
 800369c:	f403 62e0 	and.w	r2, r3, #1792	; 0x700
 80036a0:	4b0a      	ldr	r3, [pc, #40]	; (80036cc <vPortValidateInterruptPriority+0x64>)
 80036a2:	681b      	ldr	r3, [r3, #0]
 80036a4:	429a      	cmp	r2, r3
 80036a6:	d904      	bls.n	80036b2 <vPortValidateInterruptPriority+0x4a>
 80036a8:	4906      	ldr	r1, [pc, #24]	; (80036c4 <vPortValidateInterruptPriority+0x5c>)
 80036aa:	f44f 7044 	mov.w	r0, #784	; 0x310
 80036ae:	f002 fc0a 	bl	8005ec6 <vAssertCalled>
 80036b2:	bf00      	nop
 80036b4:	3708      	adds	r7, #8
 80036b6:	46bd      	mov	sp, r7
 80036b8:	bd80      	pop	{r7, pc}
 80036ba:	bf00      	nop
 80036bc:	e000e3f0 	.word	0xe000e3f0
 80036c0:	20000124 	.word	0x20000124
 80036c4:	0800a058 	.word	0x0800a058
 80036c8:	e000ed0c 	.word	0xe000ed0c
 80036cc:	20000128 	.word	0x20000128

080036d0 <xTimerCreateTimerTask>:
 80036d0:	b580      	push	{r7, lr}
 80036d2:	b084      	sub	sp, #16
 80036d4:	af02      	add	r7, sp, #8
 80036d6:	2300      	movs	r3, #0
 80036d8:	607b      	str	r3, [r7, #4]
 80036da:	f000 fa3f 	bl	8003b5c <prvCheckForValidListAndQueue>
 80036de:	4b0e      	ldr	r3, [pc, #56]	; (8003718 <xTimerCreateTimerTask+0x48>)
 80036e0:	681b      	ldr	r3, [r3, #0]
 80036e2:	2b00      	cmp	r3, #0
 80036e4:	d00a      	beq.n	80036fc <xTimerCreateTimerTask+0x2c>
 80036e6:	4b0d      	ldr	r3, [pc, #52]	; (800371c <xTimerCreateTimerTask+0x4c>)
 80036e8:	9301      	str	r3, [sp, #4]
 80036ea:	2301      	movs	r3, #1
 80036ec:	9300      	str	r3, [sp, #0]
 80036ee:	2300      	movs	r3, #0
 80036f0:	22c8      	movs	r2, #200	; 0xc8
 80036f2:	490b      	ldr	r1, [pc, #44]	; (8003720 <xTimerCreateTimerTask+0x50>)
 80036f4:	480b      	ldr	r0, [pc, #44]	; (8003724 <xTimerCreateTimerTask+0x54>)
 80036f6:	f7fe fb24 	bl	8001d42 <xTaskCreate>
 80036fa:	6078      	str	r0, [r7, #4]
 80036fc:	687b      	ldr	r3, [r7, #4]
 80036fe:	2b00      	cmp	r3, #0
 8003700:	d104      	bne.n	800370c <xTimerCreateTimerTask+0x3c>
 8003702:	4909      	ldr	r1, [pc, #36]	; (8003728 <xTimerCreateTimerTask+0x58>)
 8003704:	f240 1019 	movw	r0, #281	; 0x119
 8003708:	f002 fbdd 	bl	8005ec6 <vAssertCalled>
 800370c:	687b      	ldr	r3, [r7, #4]
 800370e:	4618      	mov	r0, r3
 8003710:	3708      	adds	r7, #8
 8003712:	46bd      	mov	sp, r7
 8003714:	bd80      	pop	{r7, pc}
 8003716:	bf00      	nop
 8003718:	2000015c 	.word	0x2000015c
 800371c:	20000160 	.word	0x20000160
 8003720:	0800a088 	.word	0x0800a088
 8003724:	080037d1 	.word	0x080037d1
 8003728:	0800a090 	.word	0x0800a090

0800372c <prvReloadTimer>:
 800372c:	b580      	push	{r7, lr}
 800372e:	b084      	sub	sp, #16
 8003730:	af00      	add	r7, sp, #0
 8003732:	60f8      	str	r0, [r7, #12]
 8003734:	60b9      	str	r1, [r7, #8]
 8003736:	607a      	str	r2, [r7, #4]
 8003738:	e008      	b.n	800374c <prvReloadTimer+0x20>
 800373a:	68fb      	ldr	r3, [r7, #12]
 800373c:	699b      	ldr	r3, [r3, #24]
 800373e:	68ba      	ldr	r2, [r7, #8]
 8003740:	4413      	add	r3, r2
 8003742:	60bb      	str	r3, [r7, #8]
 8003744:	68fb      	ldr	r3, [r7, #12]
 8003746:	6a1b      	ldr	r3, [r3, #32]
 8003748:	68f8      	ldr	r0, [r7, #12]
 800374a:	4798      	blx	r3
 800374c:	68fb      	ldr	r3, [r7, #12]
 800374e:	699a      	ldr	r2, [r3, #24]
 8003750:	68bb      	ldr	r3, [r7, #8]
 8003752:	18d1      	adds	r1, r2, r3
 8003754:	68bb      	ldr	r3, [r7, #8]
 8003756:	687a      	ldr	r2, [r7, #4]
 8003758:	68f8      	ldr	r0, [r7, #12]
 800375a:	f000 f8dd 	bl	8003918 <prvInsertTimerInActiveList>
 800375e:	4603      	mov	r3, r0
 8003760:	2b00      	cmp	r3, #0
 8003762:	d1ea      	bne.n	800373a <prvReloadTimer+0xe>
 8003764:	bf00      	nop
 8003766:	bf00      	nop
 8003768:	3710      	adds	r7, #16
 800376a:	46bd      	mov	sp, r7
 800376c:	bd80      	pop	{r7, pc}
 800376e:	d4d4      	bmi.n	800371a <xTimerCreateTimerTask+0x4a>

08003770 <prvProcessExpiredTimer>:
 8003770:	b580      	push	{r7, lr}
 8003772:	b084      	sub	sp, #16
 8003774:	af00      	add	r7, sp, #0
 8003776:	6078      	str	r0, [r7, #4]
 8003778:	6039      	str	r1, [r7, #0]
 800377a:	4b14      	ldr	r3, [pc, #80]	; (80037cc <prvProcessExpiredTimer+0x5c>)
 800377c:	681b      	ldr	r3, [r3, #0]
 800377e:	68db      	ldr	r3, [r3, #12]
 8003780:	68db      	ldr	r3, [r3, #12]
 8003782:	60fb      	str	r3, [r7, #12]
 8003784:	68fb      	ldr	r3, [r7, #12]
 8003786:	3304      	adds	r3, #4
 8003788:	4618      	mov	r0, r3
 800378a:	f7ff fd5b 	bl	8003244 <uxListRemove>
 800378e:	68fb      	ldr	r3, [r7, #12]
 8003790:	f893 3028 	ldrb.w	r3, [r3, #40]	; 0x28
 8003794:	f003 0304 	and.w	r3, r3, #4
 8003798:	2b00      	cmp	r3, #0
 800379a:	d005      	beq.n	80037a8 <prvProcessExpiredTimer+0x38>
 800379c:	683a      	ldr	r2, [r7, #0]
 800379e:	6879      	ldr	r1, [r7, #4]
 80037a0:	68f8      	ldr	r0, [r7, #12]
 80037a2:	f7ff ffc3 	bl	800372c <prvReloadTimer>
 80037a6:	e008      	b.n	80037ba <prvProcessExpiredTimer+0x4a>
 80037a8:	68fb      	ldr	r3, [r7, #12]
 80037aa:	f893 3028 	ldrb.w	r3, [r3, #40]	; 0x28
 80037ae:	f023 0301 	bic.w	r3, r3, #1
 80037b2:	b2da      	uxtb	r2, r3
 80037b4:	68fb      	ldr	r3, [r7, #12]
 80037b6:	f883 2028 	strb.w	r2, [r3, #40]	; 0x28
 80037ba:	68fb      	ldr	r3, [r7, #12]
 80037bc:	6a1b      	ldr	r3, [r3, #32]
 80037be:	68f8      	ldr	r0, [r7, #12]
 80037c0:	4798      	blx	r3
 80037c2:	bf00      	nop
 80037c4:	3710      	adds	r7, #16
 80037c6:	46bd      	mov	sp, r7
 80037c8:	bd80      	pop	{r7, pc}
 80037ca:	bf00      	nop
 80037cc:	20000154 	.word	0x20000154

080037d0 <prvTimerTask>:
 80037d0:	b580      	push	{r7, lr}
 80037d2:	b084      	sub	sp, #16
 80037d4:	af00      	add	r7, sp, #0
 80037d6:	6078      	str	r0, [r7, #4]
 80037d8:	f107 0308 	add.w	r3, r7, #8
 80037dc:	4618      	mov	r0, r3
 80037de:	f000 f857 	bl	8003890 <prvGetNextExpireTime>
 80037e2:	60f8      	str	r0, [r7, #12]
 80037e4:	68bb      	ldr	r3, [r7, #8]
 80037e6:	4619      	mov	r1, r3
 80037e8:	68f8      	ldr	r0, [r7, #12]
 80037ea:	f000 f803 	bl	80037f4 <prvProcessTimerOrBlockTask>
 80037ee:	f000 f8d5 	bl	800399c <prvProcessReceivedCommands>
 80037f2:	e7f1      	b.n	80037d8 <prvTimerTask+0x8>

080037f4 <prvProcessTimerOrBlockTask>:
 80037f4:	b580      	push	{r7, lr}
 80037f6:	b084      	sub	sp, #16
 80037f8:	af00      	add	r7, sp, #0
 80037fa:	6078      	str	r0, [r7, #4]
 80037fc:	6039      	str	r1, [r7, #0]
 80037fe:	f7fe fcdf 	bl	80021c0 <vTaskSuspendAll>
 8003802:	f107 0308 	add.w	r3, r7, #8
 8003806:	4618      	mov	r0, r3
 8003808:	f000 f866 	bl	80038d8 <prvSampleTimeNow>
 800380c:	60f8      	str	r0, [r7, #12]
 800380e:	68bb      	ldr	r3, [r7, #8]
 8003810:	2b00      	cmp	r3, #0
 8003812:	d130      	bne.n	8003876 <prvProcessTimerOrBlockTask+0x82>
 8003814:	683b      	ldr	r3, [r7, #0]
 8003816:	2b00      	cmp	r3, #0
 8003818:	d10a      	bne.n	8003830 <prvProcessTimerOrBlockTask+0x3c>
 800381a:	687a      	ldr	r2, [r7, #4]
 800381c:	68fb      	ldr	r3, [r7, #12]
 800381e:	429a      	cmp	r2, r3
 8003820:	d806      	bhi.n	8003830 <prvProcessTimerOrBlockTask+0x3c>
 8003822:	f7fe fcdb 	bl	80021dc <xTaskResumeAll>
 8003826:	68f9      	ldr	r1, [r7, #12]
 8003828:	6878      	ldr	r0, [r7, #4]
 800382a:	f7ff ffa1 	bl	8003770 <prvProcessExpiredTimer>
 800382e:	e024      	b.n	800387a <prvProcessTimerOrBlockTask+0x86>
 8003830:	683b      	ldr	r3, [r7, #0]
 8003832:	2b00      	cmp	r3, #0
 8003834:	d008      	beq.n	8003848 <prvProcessTimerOrBlockTask+0x54>
 8003836:	4b13      	ldr	r3, [pc, #76]	; (8003884 <prvProcessTimerOrBlockTask+0x90>)
 8003838:	681b      	ldr	r3, [r3, #0]
 800383a:	681b      	ldr	r3, [r3, #0]
 800383c:	2b00      	cmp	r3, #0
 800383e:	d101      	bne.n	8003844 <prvProcessTimerOrBlockTask+0x50>
 8003840:	2301      	movs	r3, #1
 8003842:	e000      	b.n	8003846 <prvProcessTimerOrBlockTask+0x52>
 8003844:	2300      	movs	r3, #0
 8003846:	603b      	str	r3, [r7, #0]
 8003848:	4b0f      	ldr	r3, [pc, #60]	; (8003888 <prvProcessTimerOrBlockTask+0x94>)
 800384a:	6818      	ldr	r0, [r3, #0]
 800384c:	687a      	ldr	r2, [r7, #4]
 800384e:	68fb      	ldr	r3, [r7, #12]
 8003850:	1ad3      	subs	r3, r2, r3
 8003852:	683a      	ldr	r2, [r7, #0]
 8003854:	4619      	mov	r1, r3
 8003856:	f000 ff55 	bl	8004704 <vQueueWaitForMessageRestricted>
 800385a:	f7fe fcbf 	bl	80021dc <xTaskResumeAll>
 800385e:	4603      	mov	r3, r0
 8003860:	2b00      	cmp	r3, #0
 8003862:	d10a      	bne.n	800387a <prvProcessTimerOrBlockTask+0x86>
 8003864:	4b09      	ldr	r3, [pc, #36]	; (800388c <prvProcessTimerOrBlockTask+0x98>)
 8003866:	f04f 5280 	mov.w	r2, #268435456	; 0x10000000
 800386a:	601a      	str	r2, [r3, #0]
 800386c:	f3bf 8f4f 	dsb	sy
 8003870:	f3bf 8f6f 	isb	sy
 8003874:	e001      	b.n	800387a <prvProcessTimerOrBlockTask+0x86>
 8003876:	f7fe fcb1 	bl	80021dc <xTaskResumeAll>
 800387a:	bf00      	nop
 800387c:	3710      	adds	r7, #16
 800387e:	46bd      	mov	sp, r7
 8003880:	bd80      	pop	{r7, pc}
 8003882:	bf00      	nop
 8003884:	20000158 	.word	0x20000158
 8003888:	2000015c 	.word	0x2000015c
 800388c:	e000ed04 	.word	0xe000ed04

08003890 <prvGetNextExpireTime>:
 8003890:	b480      	push	{r7}
 8003892:	b085      	sub	sp, #20
 8003894:	af00      	add	r7, sp, #0
 8003896:	6078      	str	r0, [r7, #4]
 8003898:	4b0e      	ldr	r3, [pc, #56]	; (80038d4 <prvGetNextExpireTime+0x44>)
 800389a:	681b      	ldr	r3, [r3, #0]
 800389c:	681b      	ldr	r3, [r3, #0]
 800389e:	2b00      	cmp	r3, #0
 80038a0:	d101      	bne.n	80038a6 <prvGetNextExpireTime+0x16>
 80038a2:	2201      	movs	r2, #1
 80038a4:	e000      	b.n	80038a8 <prvGetNextExpireTime+0x18>
 80038a6:	2200      	movs	r2, #0
 80038a8:	687b      	ldr	r3, [r7, #4]
 80038aa:	601a      	str	r2, [r3, #0]
 80038ac:	687b      	ldr	r3, [r7, #4]
 80038ae:	681b      	ldr	r3, [r3, #0]
 80038b0:	2b00      	cmp	r3, #0
 80038b2:	d105      	bne.n	80038c0 <prvGetNextExpireTime+0x30>
 80038b4:	4b07      	ldr	r3, [pc, #28]	; (80038d4 <prvGetNextExpireTime+0x44>)
 80038b6:	681b      	ldr	r3, [r3, #0]
 80038b8:	68db      	ldr	r3, [r3, #12]
 80038ba:	681b      	ldr	r3, [r3, #0]
 80038bc:	60fb      	str	r3, [r7, #12]
 80038be:	e001      	b.n	80038c4 <prvGetNextExpireTime+0x34>
 80038c0:	2300      	movs	r3, #0
 80038c2:	60fb      	str	r3, [r7, #12]
 80038c4:	68fb      	ldr	r3, [r7, #12]
 80038c6:	4618      	mov	r0, r3
 80038c8:	3714      	adds	r7, #20
 80038ca:	46bd      	mov	sp, r7
 80038cc:	f85d 7b04 	ldr.w	r7, [sp], #4
 80038d0:	4770      	bx	lr
 80038d2:	bf00      	nop
 80038d4:	20000154 	.word	0x20000154

080038d8 <prvSampleTimeNow>:
 80038d8:	b580      	push	{r7, lr}
 80038da:	b084      	sub	sp, #16
 80038dc:	af00      	add	r7, sp, #0
 80038de:	6078      	str	r0, [r7, #4]
 80038e0:	f7fe fd74 	bl	80023cc <xTaskGetTickCount>
 80038e4:	60f8      	str	r0, [r7, #12]
 80038e6:	4b0b      	ldr	r3, [pc, #44]	; (8003914 <prvSampleTimeNow+0x3c>)
 80038e8:	681b      	ldr	r3, [r3, #0]
 80038ea:	68fa      	ldr	r2, [r7, #12]
 80038ec:	429a      	cmp	r2, r3
 80038ee:	d205      	bcs.n	80038fc <prvSampleTimeNow+0x24>
 80038f0:	f000 f90e 	bl	8003b10 <prvSwitchTimerLists>
 80038f4:	687b      	ldr	r3, [r7, #4]
 80038f6:	2201      	movs	r2, #1
 80038f8:	601a      	str	r2, [r3, #0]
 80038fa:	e002      	b.n	8003902 <prvSampleTimeNow+0x2a>
 80038fc:	687b      	ldr	r3, [r7, #4]
 80038fe:	2200      	movs	r2, #0
 8003900:	601a      	str	r2, [r3, #0]
 8003902:	4a04      	ldr	r2, [pc, #16]	; (8003914 <prvSampleTimeNow+0x3c>)
 8003904:	68fb      	ldr	r3, [r7, #12]
 8003906:	6013      	str	r3, [r2, #0]
 8003908:	68fb      	ldr	r3, [r7, #12]
 800390a:	4618      	mov	r0, r3
 800390c:	3710      	adds	r7, #16
 800390e:	46bd      	mov	sp, r7
 8003910:	bd80      	pop	{r7, pc}
 8003912:	bf00      	nop
 8003914:	20000164 	.word	0x20000164

08003918 <prvInsertTimerInActiveList>:
 8003918:	b580      	push	{r7, lr}
 800391a:	b086      	sub	sp, #24
 800391c:	af00      	add	r7, sp, #0
 800391e:	60f8      	str	r0, [r7, #12]
 8003920:	60b9      	str	r1, [r7, #8]
 8003922:	607a      	str	r2, [r7, #4]
 8003924:	603b      	str	r3, [r7, #0]
 8003926:	2300      	movs	r3, #0
 8003928:	617b      	str	r3, [r7, #20]
 800392a:	68fb      	ldr	r3, [r7, #12]
 800392c:	68ba      	ldr	r2, [r7, #8]
 800392e:	605a      	str	r2, [r3, #4]
 8003930:	68fb      	ldr	r3, [r7, #12]
 8003932:	68fa      	ldr	r2, [r7, #12]
 8003934:	611a      	str	r2, [r3, #16]
 8003936:	68ba      	ldr	r2, [r7, #8]
 8003938:	687b      	ldr	r3, [r7, #4]
 800393a:	429a      	cmp	r2, r3
 800393c:	d812      	bhi.n	8003964 <prvInsertTimerInActiveList+0x4c>
 800393e:	687a      	ldr	r2, [r7, #4]
 8003940:	683b      	ldr	r3, [r7, #0]
 8003942:	1ad2      	subs	r2, r2, r3
 8003944:	68fb      	ldr	r3, [r7, #12]
 8003946:	699b      	ldr	r3, [r3, #24]
 8003948:	429a      	cmp	r2, r3
 800394a:	d302      	bcc.n	8003952 <prvInsertTimerInActiveList+0x3a>
 800394c:	2301      	movs	r3, #1
 800394e:	617b      	str	r3, [r7, #20]
 8003950:	e01b      	b.n	800398a <prvInsertTimerInActiveList+0x72>
 8003952:	4b10      	ldr	r3, [pc, #64]	; (8003994 <prvInsertTimerInActiveList+0x7c>)
 8003954:	681a      	ldr	r2, [r3, #0]
 8003956:	68fb      	ldr	r3, [r7, #12]
 8003958:	3304      	adds	r3, #4
 800395a:	4619      	mov	r1, r3
 800395c:	4610      	mov	r0, r2
 800395e:	f7ff fc38 	bl	80031d2 <vListInsert>
 8003962:	e012      	b.n	800398a <prvInsertTimerInActiveList+0x72>
 8003964:	687a      	ldr	r2, [r7, #4]
 8003966:	683b      	ldr	r3, [r7, #0]
 8003968:	429a      	cmp	r2, r3
 800396a:	d206      	bcs.n	800397a <prvInsertTimerInActiveList+0x62>
 800396c:	68ba      	ldr	r2, [r7, #8]
 800396e:	683b      	ldr	r3, [r7, #0]
 8003970:	429a      	cmp	r2, r3
 8003972:	d302      	bcc.n	800397a <prvInsertTimerInActiveList+0x62>
 8003974:	2301      	movs	r3, #1
 8003976:	617b      	str	r3, [r7, #20]
 8003978:	e007      	b.n	800398a <prvInsertTimerInActiveList+0x72>
 800397a:	4b07      	ldr	r3, [pc, #28]	; (8003998 <prvInsertTimerInActiveList+0x80>)
 800397c:	681a      	ldr	r2, [r3, #0]
 800397e:	68fb      	ldr	r3, [r7, #12]
 8003980:	3304      	adds	r3, #4
 8003982:	4619      	mov	r1, r3
 8003984:	4610      	mov	r0, r2
 8003986:	f7ff fc24 	bl	80031d2 <vListInsert>
 800398a:	697b      	ldr	r3, [r7, #20]
 800398c:	4618      	mov	r0, r3
 800398e:	3718      	adds	r7, #24
 8003990:	46bd      	mov	sp, r7
 8003992:	bd80      	pop	{r7, pc}
 8003994:	20000158 	.word	0x20000158
 8003998:	20000154 	.word	0x20000154

0800399c <prvProcessReceivedCommands>:
 800399c:	b580      	push	{r7, lr}
 800399e:	b086      	sub	sp, #24
 80039a0:	af00      	add	r7, sp, #0
 80039a2:	e0a0      	b.n	8003ae6 <prvProcessReceivedCommands+0x14a>
 80039a4:	687b      	ldr	r3, [r7, #4]
 80039a6:	2b00      	cmp	r3, #0
 80039a8:	f2c0 809c 	blt.w	8003ae4 <prvProcessReceivedCommands+0x148>
 80039ac:	68fb      	ldr	r3, [r7, #12]
 80039ae:	617b      	str	r3, [r7, #20]
 80039b0:	697b      	ldr	r3, [r7, #20]
 80039b2:	695b      	ldr	r3, [r3, #20]
 80039b4:	2b00      	cmp	r3, #0
 80039b6:	d004      	beq.n	80039c2 <prvProcessReceivedCommands+0x26>
 80039b8:	697b      	ldr	r3, [r7, #20]
 80039ba:	3304      	adds	r3, #4
 80039bc:	4618      	mov	r0, r3
 80039be:	f7ff fc41 	bl	8003244 <uxListRemove>
 80039c2:	463b      	mov	r3, r7
 80039c4:	4618      	mov	r0, r3
 80039c6:	f7ff ff87 	bl	80038d8 <prvSampleTimeNow>
 80039ca:	6138      	str	r0, [r7, #16]
 80039cc:	687b      	ldr	r3, [r7, #4]
 80039ce:	3b01      	subs	r3, #1
 80039d0:	2b08      	cmp	r3, #8
 80039d2:	f200 8088 	bhi.w	8003ae6 <prvProcessReceivedCommands+0x14a>
 80039d6:	a201      	add	r2, pc, #4	; (adr r2, 80039dc <prvProcessReceivedCommands+0x40>)
 80039d8:	f852 f023 	ldr.w	pc, [r2, r3, lsl #2]
 80039dc:	08003a01 	.word	0x08003a01
 80039e0:	08003a01 	.word	0x08003a01
 80039e4:	08003a69 	.word	0x08003a69
 80039e8:	08003a7d 	.word	0x08003a7d
 80039ec:	08003abb 	.word	0x08003abb
 80039f0:	08003a01 	.word	0x08003a01
 80039f4:	08003a01 	.word	0x08003a01
 80039f8:	08003a69 	.word	0x08003a69
 80039fc:	08003a7d 	.word	0x08003a7d
 8003a00:	697b      	ldr	r3, [r7, #20]
 8003a02:	f893 3028 	ldrb.w	r3, [r3, #40]	; 0x28
 8003a06:	f043 0301 	orr.w	r3, r3, #1
 8003a0a:	b2da      	uxtb	r2, r3
 8003a0c:	697b      	ldr	r3, [r7, #20]
 8003a0e:	f883 2028 	strb.w	r2, [r3, #40]	; 0x28
 8003a12:	68ba      	ldr	r2, [r7, #8]
 8003a14:	697b      	ldr	r3, [r7, #20]
 8003a16:	699b      	ldr	r3, [r3, #24]
 8003a18:	18d1      	adds	r1, r2, r3
 8003a1a:	68bb      	ldr	r3, [r7, #8]
 8003a1c:	693a      	ldr	r2, [r7, #16]
 8003a1e:	6978      	ldr	r0, [r7, #20]
 8003a20:	f7ff ff7a 	bl	8003918 <prvInsertTimerInActiveList>
 8003a24:	4603      	mov	r3, r0
 8003a26:	2b00      	cmp	r3, #0
 8003a28:	d05d      	beq.n	8003ae6 <prvProcessReceivedCommands+0x14a>
 8003a2a:	697b      	ldr	r3, [r7, #20]
 8003a2c:	f893 3028 	ldrb.w	r3, [r3, #40]	; 0x28
 8003a30:	f003 0304 	and.w	r3, r3, #4
 8003a34:	2b00      	cmp	r3, #0
 8003a36:	d009      	beq.n	8003a4c <prvProcessReceivedCommands+0xb0>
 8003a38:	68ba      	ldr	r2, [r7, #8]
 8003a3a:	697b      	ldr	r3, [r7, #20]
 8003a3c:	699b      	ldr	r3, [r3, #24]
 8003a3e:	4413      	add	r3, r2
 8003a40:	693a      	ldr	r2, [r7, #16]
 8003a42:	4619      	mov	r1, r3
 8003a44:	6978      	ldr	r0, [r7, #20]
 8003a46:	f7ff fe71 	bl	800372c <prvReloadTimer>
 8003a4a:	e008      	b.n	8003a5e <prvProcessReceivedCommands+0xc2>
 8003a4c:	697b      	ldr	r3, [r7, #20]
 8003a4e:	f893 3028 	ldrb.w	r3, [r3, #40]	; 0x28
 8003a52:	f023 0301 	bic.w	r3, r3, #1
 8003a56:	b2da      	uxtb	r2, r3
 8003a58:	697b      	ldr	r3, [r7, #20]
 8003a5a:	f883 2028 	strb.w	r2, [r3, #40]	; 0x28
 8003a5e:	697b      	ldr	r3, [r7, #20]
 8003a60:	6a1b      	ldr	r3, [r3, #32]
 8003a62:	6978      	ldr	r0, [r7, #20]
 8003a64:	4798      	blx	r3
 8003a66:	e03e      	b.n	8003ae6 <prvProcessReceivedCommands+0x14a>
 8003a68:	697b      	ldr	r3, [r7, #20]
 8003a6a:	f893 3028 	ldrb.w	r3, [r3, #40]	; 0x28
 8003a6e:	f023 0301 	bic.w	r3, r3, #1
 8003a72:	b2da      	uxtb	r2, r3
 8003a74:	697b      	ldr	r3, [r7, #20]
 8003a76:	f883 2028 	strb.w	r2, [r3, #40]	; 0x28
 8003a7a:	e034      	b.n	8003ae6 <prvProcessReceivedCommands+0x14a>
 8003a7c:	697b      	ldr	r3, [r7, #20]
 8003a7e:	f893 3028 	ldrb.w	r3, [r3, #40]	; 0x28
 8003a82:	f043 0301 	orr.w	r3, r3, #1
 8003a86:	b2da      	uxtb	r2, r3
 8003a88:	697b      	ldr	r3, [r7, #20]
 8003a8a:	f883 2028 	strb.w	r2, [r3, #40]	; 0x28
 8003a8e:	68ba      	ldr	r2, [r7, #8]
 8003a90:	697b      	ldr	r3, [r7, #20]
 8003a92:	619a      	str	r2, [r3, #24]
 8003a94:	697b      	ldr	r3, [r7, #20]
 8003a96:	699b      	ldr	r3, [r3, #24]
 8003a98:	2b00      	cmp	r3, #0
 8003a9a:	d104      	bne.n	8003aa6 <prvProcessReceivedCommands+0x10a>
 8003a9c:	491a      	ldr	r1, [pc, #104]	; (8003b08 <prvProcessReceivedCommands+0x16c>)
 8003a9e:	f240 305e 	movw	r0, #862	; 0x35e
 8003aa2:	f002 fa10 	bl	8005ec6 <vAssertCalled>
 8003aa6:	697b      	ldr	r3, [r7, #20]
 8003aa8:	699a      	ldr	r2, [r3, #24]
 8003aaa:	693b      	ldr	r3, [r7, #16]
 8003aac:	18d1      	adds	r1, r2, r3
 8003aae:	693b      	ldr	r3, [r7, #16]
 8003ab0:	693a      	ldr	r2, [r7, #16]
 8003ab2:	6978      	ldr	r0, [r7, #20]
 8003ab4:	f7ff ff30 	bl	8003918 <prvInsertTimerInActiveList>
 8003ab8:	e015      	b.n	8003ae6 <prvProcessReceivedCommands+0x14a>
 8003aba:	697b      	ldr	r3, [r7, #20]
 8003abc:	f893 3028 	ldrb.w	r3, [r3, #40]	; 0x28
 8003ac0:	f003 0302 	and.w	r3, r3, #2
 8003ac4:	2b00      	cmp	r3, #0
 8003ac6:	d103      	bne.n	8003ad0 <prvProcessReceivedCommands+0x134>
 8003ac8:	6978      	ldr	r0, [r7, #20]
 8003aca:	f000 fefd 	bl	80048c8 <vPortFree>
 8003ace:	e00a      	b.n	8003ae6 <prvProcessReceivedCommands+0x14a>
 8003ad0:	697b      	ldr	r3, [r7, #20]
 8003ad2:	f893 3028 	ldrb.w	r3, [r3, #40]	; 0x28
 8003ad6:	f023 0301 	bic.w	r3, r3, #1
 8003ada:	b2da      	uxtb	r2, r3
 8003adc:	697b      	ldr	r3, [r7, #20]
 8003ade:	f883 2028 	strb.w	r2, [r3, #40]	; 0x28
 8003ae2:	e000      	b.n	8003ae6 <prvProcessReceivedCommands+0x14a>
 8003ae4:	bf00      	nop
 8003ae6:	4b09      	ldr	r3, [pc, #36]	; (8003b0c <prvProcessReceivedCommands+0x170>)
 8003ae8:	681b      	ldr	r3, [r3, #0]
 8003aea:	1d39      	adds	r1, r7, #4
 8003aec:	2200      	movs	r2, #0
 8003aee:	4618      	mov	r0, r3
 8003af0:	f000 fad2 	bl	8004098 <xQueueReceive>
 8003af4:	4603      	mov	r3, r0
 8003af6:	2b00      	cmp	r3, #0
 8003af8:	f47f af54 	bne.w	80039a4 <prvProcessReceivedCommands+0x8>
 8003afc:	bf00      	nop
 8003afe:	bf00      	nop
 8003b00:	3718      	adds	r7, #24
 8003b02:	46bd      	mov	sp, r7
 8003b04:	bd80      	pop	{r7, pc}
 8003b06:	bf00      	nop
 8003b08:	0800a090 	.word	0x0800a090
 8003b0c:	2000015c 	.word	0x2000015c

08003b10 <prvSwitchTimerLists>:
 8003b10:	b580      	push	{r7, lr}
 8003b12:	b082      	sub	sp, #8
 8003b14:	af00      	add	r7, sp, #0
 8003b16:	e009      	b.n	8003b2c <prvSwitchTimerLists+0x1c>
 8003b18:	4b0e      	ldr	r3, [pc, #56]	; (8003b54 <prvSwitchTimerLists+0x44>)
 8003b1a:	681b      	ldr	r3, [r3, #0]
 8003b1c:	68db      	ldr	r3, [r3, #12]
 8003b1e:	681b      	ldr	r3, [r3, #0]
 8003b20:	603b      	str	r3, [r7, #0]
 8003b22:	f04f 31ff 	mov.w	r1, #4294967295
 8003b26:	6838      	ldr	r0, [r7, #0]
 8003b28:	f7ff fe22 	bl	8003770 <prvProcessExpiredTimer>
 8003b2c:	4b09      	ldr	r3, [pc, #36]	; (8003b54 <prvSwitchTimerLists+0x44>)
 8003b2e:	681b      	ldr	r3, [r3, #0]
 8003b30:	681b      	ldr	r3, [r3, #0]
 8003b32:	2b00      	cmp	r3, #0
 8003b34:	d1f0      	bne.n	8003b18 <prvSwitchTimerLists+0x8>
 8003b36:	4b07      	ldr	r3, [pc, #28]	; (8003b54 <prvSwitchTimerLists+0x44>)
 8003b38:	681b      	ldr	r3, [r3, #0]
 8003b3a:	607b      	str	r3, [r7, #4]
 8003b3c:	4b06      	ldr	r3, [pc, #24]	; (8003b58 <prvSwitchTimerLists+0x48>)
 8003b3e:	681b      	ldr	r3, [r3, #0]
 8003b40:	4a04      	ldr	r2, [pc, #16]	; (8003b54 <prvSwitchTimerLists+0x44>)
 8003b42:	6013      	str	r3, [r2, #0]
 8003b44:	4a04      	ldr	r2, [pc, #16]	; (8003b58 <prvSwitchTimerLists+0x48>)
 8003b46:	687b      	ldr	r3, [r7, #4]
 8003b48:	6013      	str	r3, [r2, #0]
 8003b4a:	bf00      	nop
 8003b4c:	3708      	adds	r7, #8
 8003b4e:	46bd      	mov	sp, r7
 8003b50:	bd80      	pop	{r7, pc}
 8003b52:	bf00      	nop
 8003b54:	20000154 	.word	0x20000154
 8003b58:	20000158 	.word	0x20000158

08003b5c <prvCheckForValidListAndQueue>:
 8003b5c:	b580      	push	{r7, lr}
 8003b5e:	af00      	add	r7, sp, #0
 8003b60:	f7ff fcb2 	bl	80034c8 <vPortEnterCritical>
 8003b64:	4b12      	ldr	r3, [pc, #72]	; (8003bb0 <prvCheckForValidListAndQueue+0x54>)
 8003b66:	681b      	ldr	r3, [r3, #0]
 8003b68:	2b00      	cmp	r3, #0
 8003b6a:	d11d      	bne.n	8003ba8 <prvCheckForValidListAndQueue+0x4c>
 8003b6c:	4811      	ldr	r0, [pc, #68]	; (8003bb4 <prvCheckForValidListAndQueue+0x58>)
 8003b6e:	f7ff fadf 	bl	8003130 <vListInitialise>
 8003b72:	4811      	ldr	r0, [pc, #68]	; (8003bb8 <prvCheckForValidListAndQueue+0x5c>)
 8003b74:	f7ff fadc 	bl	8003130 <vListInitialise>
 8003b78:	4b10      	ldr	r3, [pc, #64]	; (8003bbc <prvCheckForValidListAndQueue+0x60>)
 8003b7a:	4a0e      	ldr	r2, [pc, #56]	; (8003bb4 <prvCheckForValidListAndQueue+0x58>)
 8003b7c:	601a      	str	r2, [r3, #0]
 8003b7e:	4b10      	ldr	r3, [pc, #64]	; (8003bc0 <prvCheckForValidListAndQueue+0x64>)
 8003b80:	4a0d      	ldr	r2, [pc, #52]	; (8003bb8 <prvCheckForValidListAndQueue+0x5c>)
 8003b82:	601a      	str	r2, [r3, #0]
 8003b84:	2200      	movs	r2, #0
 8003b86:	210c      	movs	r1, #12
 8003b88:	200a      	movs	r0, #10
 8003b8a:	f000 f8a3 	bl	8003cd4 <xQueueGenericCreate>
 8003b8e:	4603      	mov	r3, r0
 8003b90:	4a07      	ldr	r2, [pc, #28]	; (8003bb0 <prvCheckForValidListAndQueue+0x54>)
 8003b92:	6013      	str	r3, [r2, #0]
 8003b94:	4b06      	ldr	r3, [pc, #24]	; (8003bb0 <prvCheckForValidListAndQueue+0x54>)
 8003b96:	681b      	ldr	r3, [r3, #0]
 8003b98:	2b00      	cmp	r3, #0
 8003b9a:	d005      	beq.n	8003ba8 <prvCheckForValidListAndQueue+0x4c>
 8003b9c:	4b04      	ldr	r3, [pc, #16]	; (8003bb0 <prvCheckForValidListAndQueue+0x54>)
 8003b9e:	681b      	ldr	r3, [r3, #0]
 8003ba0:	4908      	ldr	r1, [pc, #32]	; (8003bc4 <prvCheckForValidListAndQueue+0x68>)
 8003ba2:	4618      	mov	r0, r3
 8003ba4:	f000 fd66 	bl	8004674 <vQueueAddToRegistry>
 8003ba8:	f7ff fcb8 	bl	800351c <vPortExitCritical>
 8003bac:	bf00      	nop
 8003bae:	bd80      	pop	{r7, pc}
 8003bb0:	2000015c 	.word	0x2000015c
 8003bb4:	2000012c 	.word	0x2000012c
 8003bb8:	20000140 	.word	0x20000140
 8003bbc:	20000154 	.word	0x20000154
 8003bc0:	20000158 	.word	0x20000158
 8003bc4:	0800a0ac 	.word	0x0800a0ac

08003bc8 <xQueueGenericReset>:
 8003bc8:	b580      	push	{r7, lr}
 8003bca:	b084      	sub	sp, #16
 8003bcc:	af00      	add	r7, sp, #0
 8003bce:	6078      	str	r0, [r7, #4]
 8003bd0:	6039      	str	r1, [r7, #0]
 8003bd2:	2301      	movs	r3, #1
 8003bd4:	60fb      	str	r3, [r7, #12]
 8003bd6:	687b      	ldr	r3, [r7, #4]
 8003bd8:	60bb      	str	r3, [r7, #8]
 8003bda:	68bb      	ldr	r3, [r7, #8]
 8003bdc:	2b00      	cmp	r3, #0
 8003bde:	d104      	bne.n	8003bea <xQueueGenericReset+0x22>
 8003be0:	493a      	ldr	r1, [pc, #232]	; (8003ccc <xQueueGenericReset+0x104>)
 8003be2:	f44f 7097 	mov.w	r0, #302	; 0x12e
 8003be6:	f002 f96e 	bl	8005ec6 <vAssertCalled>
 8003bea:	68bb      	ldr	r3, [r7, #8]
 8003bec:	2b00      	cmp	r3, #0
 8003bee:	d05d      	beq.n	8003cac <xQueueGenericReset+0xe4>
 8003bf0:	68bb      	ldr	r3, [r7, #8]
 8003bf2:	6bdb      	ldr	r3, [r3, #60]	; 0x3c
 8003bf4:	2b00      	cmp	r3, #0
 8003bf6:	d059      	beq.n	8003cac <xQueueGenericReset+0xe4>
 8003bf8:	68bb      	ldr	r3, [r7, #8]
 8003bfa:	6c1a      	ldr	r2, [r3, #64]	; 0x40
 8003bfc:	68bb      	ldr	r3, [r7, #8]
 8003bfe:	6bdb      	ldr	r3, [r3, #60]	; 0x3c
 8003c00:	2100      	movs	r1, #0
 8003c02:	fba3 2302 	umull	r2, r3, r3, r2
 8003c06:	2b00      	cmp	r3, #0
 8003c08:	d000      	beq.n	8003c0c <xQueueGenericReset+0x44>
 8003c0a:	2101      	movs	r1, #1
 8003c0c:	460b      	mov	r3, r1
 8003c0e:	2b00      	cmp	r3, #0
 8003c10:	d14c      	bne.n	8003cac <xQueueGenericReset+0xe4>
 8003c12:	f7ff fc59 	bl	80034c8 <vPortEnterCritical>
 8003c16:	68bb      	ldr	r3, [r7, #8]
 8003c18:	681a      	ldr	r2, [r3, #0]
 8003c1a:	68bb      	ldr	r3, [r7, #8]
 8003c1c:	6bdb      	ldr	r3, [r3, #60]	; 0x3c
 8003c1e:	68b9      	ldr	r1, [r7, #8]
 8003c20:	6c09      	ldr	r1, [r1, #64]	; 0x40
 8003c22:	fb01 f303 	mul.w	r3, r1, r3
 8003c26:	441a      	add	r2, r3
 8003c28:	68bb      	ldr	r3, [r7, #8]
 8003c2a:	609a      	str	r2, [r3, #8]
 8003c2c:	68bb      	ldr	r3, [r7, #8]
 8003c2e:	2200      	movs	r2, #0
 8003c30:	639a      	str	r2, [r3, #56]	; 0x38
 8003c32:	68bb      	ldr	r3, [r7, #8]
 8003c34:	681a      	ldr	r2, [r3, #0]
 8003c36:	68bb      	ldr	r3, [r7, #8]
 8003c38:	605a      	str	r2, [r3, #4]
 8003c3a:	68bb      	ldr	r3, [r7, #8]
 8003c3c:	681a      	ldr	r2, [r3, #0]
 8003c3e:	68bb      	ldr	r3, [r7, #8]
 8003c40:	6bdb      	ldr	r3, [r3, #60]	; 0x3c
 8003c42:	3b01      	subs	r3, #1
 8003c44:	68b9      	ldr	r1, [r7, #8]
 8003c46:	6c09      	ldr	r1, [r1, #64]	; 0x40
 8003c48:	fb01 f303 	mul.w	r3, r1, r3
 8003c4c:	441a      	add	r2, r3
 8003c4e:	68bb      	ldr	r3, [r7, #8]
 8003c50:	60da      	str	r2, [r3, #12]
 8003c52:	68bb      	ldr	r3, [r7, #8]
 8003c54:	22ff      	movs	r2, #255	; 0xff
 8003c56:	f883 2044 	strb.w	r2, [r3, #68]	; 0x44
 8003c5a:	68bb      	ldr	r3, [r7, #8]
 8003c5c:	22ff      	movs	r2, #255	; 0xff
 8003c5e:	f883 2045 	strb.w	r2, [r3, #69]	; 0x45
 8003c62:	683b      	ldr	r3, [r7, #0]
 8003c64:	2b00      	cmp	r3, #0
 8003c66:	d114      	bne.n	8003c92 <xQueueGenericReset+0xca>
 8003c68:	68bb      	ldr	r3, [r7, #8]
 8003c6a:	691b      	ldr	r3, [r3, #16]
 8003c6c:	2b00      	cmp	r3, #0
 8003c6e:	d01a      	beq.n	8003ca6 <xQueueGenericReset+0xde>
 8003c70:	68bb      	ldr	r3, [r7, #8]
 8003c72:	3310      	adds	r3, #16
 8003c74:	4618      	mov	r0, r3
 8003c76:	f7fe fdb5 	bl	80027e4 <xTaskRemoveFromEventList>
 8003c7a:	4603      	mov	r3, r0
 8003c7c:	2b00      	cmp	r3, #0
 8003c7e:	d012      	beq.n	8003ca6 <xQueueGenericReset+0xde>
 8003c80:	4b13      	ldr	r3, [pc, #76]	; (8003cd0 <xQueueGenericReset+0x108>)
 8003c82:	f04f 5280 	mov.w	r2, #268435456	; 0x10000000
 8003c86:	601a      	str	r2, [r3, #0]
 8003c88:	f3bf 8f4f 	dsb	sy
 8003c8c:	f3bf 8f6f 	isb	sy
 8003c90:	e009      	b.n	8003ca6 <xQueueGenericReset+0xde>
 8003c92:	68bb      	ldr	r3, [r7, #8]
 8003c94:	3310      	adds	r3, #16
 8003c96:	4618      	mov	r0, r3
 8003c98:	f7ff fa4a 	bl	8003130 <vListInitialise>
 8003c9c:	68bb      	ldr	r3, [r7, #8]
 8003c9e:	3324      	adds	r3, #36	; 0x24
 8003ca0:	4618      	mov	r0, r3
 8003ca2:	f7ff fa45 	bl	8003130 <vListInitialise>
 8003ca6:	f7ff fc39 	bl	800351c <vPortExitCritical>
 8003caa:	e001      	b.n	8003cb0 <xQueueGenericReset+0xe8>
 8003cac:	2300      	movs	r3, #0
 8003cae:	60fb      	str	r3, [r7, #12]
 8003cb0:	68fb      	ldr	r3, [r7, #12]
 8003cb2:	2b00      	cmp	r3, #0
 8003cb4:	d104      	bne.n	8003cc0 <xQueueGenericReset+0xf8>
 8003cb6:	4905      	ldr	r1, [pc, #20]	; (8003ccc <xQueueGenericReset+0x104>)
 8003cb8:	f240 1063 	movw	r0, #355	; 0x163
 8003cbc:	f002 f903 	bl	8005ec6 <vAssertCalled>
 8003cc0:	68fb      	ldr	r3, [r7, #12]
 8003cc2:	4618      	mov	r0, r3
 8003cc4:	3710      	adds	r7, #16
 8003cc6:	46bd      	mov	sp, r7
 8003cc8:	bd80      	pop	{r7, pc}
 8003cca:	bf00      	nop
 8003ccc:	0800a0b4 	.word	0x0800a0b4
 8003cd0:	e000ed04 	.word	0xe000ed04

08003cd4 <xQueueGenericCreate>:
 8003cd4:	b580      	push	{r7, lr}
 8003cd6:	b08a      	sub	sp, #40	; 0x28
 8003cd8:	af02      	add	r7, sp, #8
 8003cda:	60f8      	str	r0, [r7, #12]
 8003cdc:	60b9      	str	r1, [r7, #8]
 8003cde:	4613      	mov	r3, r2
 8003ce0:	71fb      	strb	r3, [r7, #7]
 8003ce2:	2300      	movs	r3, #0
 8003ce4:	61fb      	str	r3, [r7, #28]
 8003ce6:	68fb      	ldr	r3, [r7, #12]
 8003ce8:	2b00      	cmp	r3, #0
 8003cea:	d02e      	beq.n	8003d4a <xQueueGenericCreate+0x76>
 8003cec:	2100      	movs	r1, #0
 8003cee:	68ba      	ldr	r2, [r7, #8]
 8003cf0:	68fb      	ldr	r3, [r7, #12]
 8003cf2:	fba3 2302 	umull	r2, r3, r3, r2
 8003cf6:	2b00      	cmp	r3, #0
 8003cf8:	d000      	beq.n	8003cfc <xQueueGenericCreate+0x28>
 8003cfa:	2101      	movs	r1, #1
 8003cfc:	460b      	mov	r3, r1
 8003cfe:	2b00      	cmp	r3, #0
 8003d00:	d123      	bne.n	8003d4a <xQueueGenericCreate+0x76>
 8003d02:	68fb      	ldr	r3, [r7, #12]
 8003d04:	68ba      	ldr	r2, [r7, #8]
 8003d06:	fb02 f303 	mul.w	r3, r2, r3
 8003d0a:	f113 0f51 	cmn.w	r3, #81	; 0x51
 8003d0e:	d81c      	bhi.n	8003d4a <xQueueGenericCreate+0x76>
 8003d10:	68fb      	ldr	r3, [r7, #12]
 8003d12:	68ba      	ldr	r2, [r7, #8]
 8003d14:	fb02 f303 	mul.w	r3, r2, r3
 8003d18:	61bb      	str	r3, [r7, #24]
 8003d1a:	69bb      	ldr	r3, [r7, #24]
 8003d1c:	3350      	adds	r3, #80	; 0x50
 8003d1e:	4618      	mov	r0, r3
 8003d20:	f000 fd24 	bl	800476c <pvPortMalloc>
 8003d24:	61f8      	str	r0, [r7, #28]
 8003d26:	69fb      	ldr	r3, [r7, #28]
 8003d28:	2b00      	cmp	r3, #0
 8003d2a:	d016      	beq.n	8003d5a <xQueueGenericCreate+0x86>
 8003d2c:	69fb      	ldr	r3, [r7, #28]
 8003d2e:	617b      	str	r3, [r7, #20]
 8003d30:	697b      	ldr	r3, [r7, #20]
 8003d32:	3350      	adds	r3, #80	; 0x50
 8003d34:	617b      	str	r3, [r7, #20]
 8003d36:	79fa      	ldrb	r2, [r7, #7]
 8003d38:	69fb      	ldr	r3, [r7, #28]
 8003d3a:	9300      	str	r3, [sp, #0]
 8003d3c:	4613      	mov	r3, r2
 8003d3e:	697a      	ldr	r2, [r7, #20]
 8003d40:	68b9      	ldr	r1, [r7, #8]
 8003d42:	68f8      	ldr	r0, [r7, #12]
 8003d44:	f000 f810 	bl	8003d68 <prvInitialiseNewQueue>
 8003d48:	e007      	b.n	8003d5a <xQueueGenericCreate+0x86>
 8003d4a:	69fb      	ldr	r3, [r7, #28]
 8003d4c:	2b00      	cmp	r3, #0
 8003d4e:	d104      	bne.n	8003d5a <xQueueGenericCreate+0x86>
 8003d50:	4904      	ldr	r1, [pc, #16]	; (8003d64 <xQueueGenericCreate+0x90>)
 8003d52:	f44f 70f2 	mov.w	r0, #484	; 0x1e4
 8003d56:	f002 f8b6 	bl	8005ec6 <vAssertCalled>
 8003d5a:	69fb      	ldr	r3, [r7, #28]
 8003d5c:	4618      	mov	r0, r3
 8003d5e:	3720      	adds	r7, #32
 8003d60:	46bd      	mov	sp, r7
 8003d62:	bd80      	pop	{r7, pc}
 8003d64:	0800a0b4 	.word	0x0800a0b4

08003d68 <prvInitialiseNewQueue>:
 8003d68:	b580      	push	{r7, lr}
 8003d6a:	b084      	sub	sp, #16
 8003d6c:	af00      	add	r7, sp, #0
 8003d6e:	60f8      	str	r0, [r7, #12]
 8003d70:	60b9      	str	r1, [r7, #8]
 8003d72:	607a      	str	r2, [r7, #4]
 8003d74:	70fb      	strb	r3, [r7, #3]
 8003d76:	68bb      	ldr	r3, [r7, #8]
 8003d78:	2b00      	cmp	r3, #0
 8003d7a:	d103      	bne.n	8003d84 <prvInitialiseNewQueue+0x1c>
 8003d7c:	69bb      	ldr	r3, [r7, #24]
 8003d7e:	69ba      	ldr	r2, [r7, #24]
 8003d80:	601a      	str	r2, [r3, #0]
 8003d82:	e002      	b.n	8003d8a <prvInitialiseNewQueue+0x22>
 8003d84:	69bb      	ldr	r3, [r7, #24]
 8003d86:	687a      	ldr	r2, [r7, #4]
 8003d88:	601a      	str	r2, [r3, #0]
 8003d8a:	69bb      	ldr	r3, [r7, #24]
 8003d8c:	68fa      	ldr	r2, [r7, #12]
 8003d8e:	63da      	str	r2, [r3, #60]	; 0x3c
 8003d90:	69bb      	ldr	r3, [r7, #24]
 8003d92:	68ba      	ldr	r2, [r7, #8]
 8003d94:	641a      	str	r2, [r3, #64]	; 0x40
 8003d96:	2101      	movs	r1, #1
 8003d98:	69b8      	ldr	r0, [r7, #24]
 8003d9a:	f7ff ff15 	bl	8003bc8 <xQueueGenericReset>
 8003d9e:	69bb      	ldr	r3, [r7, #24]
 8003da0:	78fa      	ldrb	r2, [r7, #3]
 8003da2:	f883 204c 	strb.w	r2, [r3, #76]	; 0x4c
 8003da6:	bf00      	nop
 8003da8:	3710      	adds	r7, #16
 8003daa:	46bd      	mov	sp, r7
 8003dac:	bd80      	pop	{r7, pc}
 8003dae:	d4d4      	bmi.n	8003d5a <xQueueGenericCreate+0x86>

08003db0 <xQueueGenericSend>:
 8003db0:	b580      	push	{r7, lr}
 8003db2:	b08a      	sub	sp, #40	; 0x28
 8003db4:	af00      	add	r7, sp, #0
 8003db6:	60f8      	str	r0, [r7, #12]
 8003db8:	60b9      	str	r1, [r7, #8]
 8003dba:	607a      	str	r2, [r7, #4]
 8003dbc:	603b      	str	r3, [r7, #0]
 8003dbe:	2300      	movs	r3, #0
 8003dc0:	627b      	str	r3, [r7, #36]	; 0x24
 8003dc2:	68fb      	ldr	r3, [r7, #12]
 8003dc4:	623b      	str	r3, [r7, #32]
 8003dc6:	6a3b      	ldr	r3, [r7, #32]
 8003dc8:	2b00      	cmp	r3, #0
 8003dca:	d104      	bne.n	8003dd6 <xQueueGenericSend+0x26>
 8003dcc:	496a      	ldr	r1, [pc, #424]	; (8003f78 <xQueueGenericSend+0x1c8>)
 8003dce:	f44f 7053 	mov.w	r0, #844	; 0x34c
 8003dd2:	f002 f878 	bl	8005ec6 <vAssertCalled>
 8003dd6:	68bb      	ldr	r3, [r7, #8]
 8003dd8:	2b00      	cmp	r3, #0
 8003dda:	d103      	bne.n	8003de4 <xQueueGenericSend+0x34>
 8003ddc:	6a3b      	ldr	r3, [r7, #32]
 8003dde:	6c1b      	ldr	r3, [r3, #64]	; 0x40
 8003de0:	2b00      	cmp	r3, #0
 8003de2:	d101      	bne.n	8003de8 <xQueueGenericSend+0x38>
 8003de4:	2301      	movs	r3, #1
 8003de6:	e000      	b.n	8003dea <xQueueGenericSend+0x3a>
 8003de8:	2300      	movs	r3, #0
 8003dea:	2b00      	cmp	r3, #0
 8003dec:	d104      	bne.n	8003df8 <xQueueGenericSend+0x48>
 8003dee:	4962      	ldr	r1, [pc, #392]	; (8003f78 <xQueueGenericSend+0x1c8>)
 8003df0:	f240 304d 	movw	r0, #845	; 0x34d
 8003df4:	f002 f867 	bl	8005ec6 <vAssertCalled>
 8003df8:	683b      	ldr	r3, [r7, #0]
 8003dfa:	2b02      	cmp	r3, #2
 8003dfc:	d103      	bne.n	8003e06 <xQueueGenericSend+0x56>
 8003dfe:	6a3b      	ldr	r3, [r7, #32]
 8003e00:	6bdb      	ldr	r3, [r3, #60]	; 0x3c
 8003e02:	2b01      	cmp	r3, #1
 8003e04:	d101      	bne.n	8003e0a <xQueueGenericSend+0x5a>
 8003e06:	2301      	movs	r3, #1
 8003e08:	e000      	b.n	8003e0c <xQueueGenericSend+0x5c>
 8003e0a:	2300      	movs	r3, #0
 8003e0c:	2b00      	cmp	r3, #0
 8003e0e:	d104      	bne.n	8003e1a <xQueueGenericSend+0x6a>
 8003e10:	4959      	ldr	r1, [pc, #356]	; (8003f78 <xQueueGenericSend+0x1c8>)
 8003e12:	f240 304e 	movw	r0, #846	; 0x34e
 8003e16:	f002 f856 	bl	8005ec6 <vAssertCalled>
 8003e1a:	f7fe fef3 	bl	8002c04 <xTaskGetSchedulerState>
 8003e1e:	4603      	mov	r3, r0
 8003e20:	2b00      	cmp	r3, #0
 8003e22:	d102      	bne.n	8003e2a <xQueueGenericSend+0x7a>
 8003e24:	687b      	ldr	r3, [r7, #4]
 8003e26:	2b00      	cmp	r3, #0
 8003e28:	d101      	bne.n	8003e2e <xQueueGenericSend+0x7e>
 8003e2a:	2301      	movs	r3, #1
 8003e2c:	e000      	b.n	8003e30 <xQueueGenericSend+0x80>
 8003e2e:	2300      	movs	r3, #0
 8003e30:	2b00      	cmp	r3, #0
 8003e32:	d104      	bne.n	8003e3e <xQueueGenericSend+0x8e>
 8003e34:	4950      	ldr	r1, [pc, #320]	; (8003f78 <xQueueGenericSend+0x1c8>)
 8003e36:	f240 3051 	movw	r0, #849	; 0x351
 8003e3a:	f002 f844 	bl	8005ec6 <vAssertCalled>
 8003e3e:	f7ff fb43 	bl	80034c8 <vPortEnterCritical>
 8003e42:	6a3b      	ldr	r3, [r7, #32]
 8003e44:	6b9a      	ldr	r2, [r3, #56]	; 0x38
 8003e46:	6a3b      	ldr	r3, [r7, #32]
 8003e48:	6bdb      	ldr	r3, [r3, #60]	; 0x3c
 8003e4a:	429a      	cmp	r2, r3
 8003e4c:	d302      	bcc.n	8003e54 <xQueueGenericSend+0xa4>
 8003e4e:	683b      	ldr	r3, [r7, #0]
 8003e50:	2b02      	cmp	r3, #2
 8003e52:	d129      	bne.n	8003ea8 <xQueueGenericSend+0xf8>
 8003e54:	683a      	ldr	r2, [r7, #0]
 8003e56:	68b9      	ldr	r1, [r7, #8]
 8003e58:	6a38      	ldr	r0, [r7, #32]
 8003e5a:	f000 fafb 	bl	8004454 <prvCopyDataToQueue>
 8003e5e:	61f8      	str	r0, [r7, #28]
 8003e60:	6a3b      	ldr	r3, [r7, #32]
 8003e62:	6a5b      	ldr	r3, [r3, #36]	; 0x24
 8003e64:	2b00      	cmp	r3, #0
 8003e66:	d010      	beq.n	8003e8a <xQueueGenericSend+0xda>
 8003e68:	6a3b      	ldr	r3, [r7, #32]
 8003e6a:	3324      	adds	r3, #36	; 0x24
 8003e6c:	4618      	mov	r0, r3
 8003e6e:	f7fe fcb9 	bl	80027e4 <xTaskRemoveFromEventList>
 8003e72:	4603      	mov	r3, r0
 8003e74:	2b00      	cmp	r3, #0
 8003e76:	d013      	beq.n	8003ea0 <xQueueGenericSend+0xf0>
 8003e78:	4b40      	ldr	r3, [pc, #256]	; (8003f7c <xQueueGenericSend+0x1cc>)
 8003e7a:	f04f 5280 	mov.w	r2, #268435456	; 0x10000000
 8003e7e:	601a      	str	r2, [r3, #0]
 8003e80:	f3bf 8f4f 	dsb	sy
 8003e84:	f3bf 8f6f 	isb	sy
 8003e88:	e00a      	b.n	8003ea0 <xQueueGenericSend+0xf0>
 8003e8a:	69fb      	ldr	r3, [r7, #28]
 8003e8c:	2b00      	cmp	r3, #0
 8003e8e:	d007      	beq.n	8003ea0 <xQueueGenericSend+0xf0>
 8003e90:	4b3a      	ldr	r3, [pc, #232]	; (8003f7c <xQueueGenericSend+0x1cc>)
 8003e92:	f04f 5280 	mov.w	r2, #268435456	; 0x10000000
 8003e96:	601a      	str	r2, [r3, #0]
 8003e98:	f3bf 8f4f 	dsb	sy
 8003e9c:	f3bf 8f6f 	isb	sy
 8003ea0:	f7ff fb3c 	bl	800351c <vPortExitCritical>
 8003ea4:	2301      	movs	r3, #1
 8003ea6:	e063      	b.n	8003f70 <xQueueGenericSend+0x1c0>
 8003ea8:	687b      	ldr	r3, [r7, #4]
 8003eaa:	2b00      	cmp	r3, #0
 8003eac:	d103      	bne.n	8003eb6 <xQueueGenericSend+0x106>
 8003eae:	f7ff fb35 	bl	800351c <vPortExitCritical>
 8003eb2:	2300      	movs	r3, #0
 8003eb4:	e05c      	b.n	8003f70 <xQueueGenericSend+0x1c0>
 8003eb6:	6a7b      	ldr	r3, [r7, #36]	; 0x24
 8003eb8:	2b00      	cmp	r3, #0
 8003eba:	d106      	bne.n	8003eca <xQueueGenericSend+0x11a>
 8003ebc:	f107 0314 	add.w	r3, r7, #20
 8003ec0:	4618      	mov	r0, r3
 8003ec2:	f7fe fd5f 	bl	8002984 <vTaskInternalSetTimeOutState>
 8003ec6:	2301      	movs	r3, #1
 8003ec8:	627b      	str	r3, [r7, #36]	; 0x24
 8003eca:	f7ff fb27 	bl	800351c <vPortExitCritical>
 8003ece:	f7fe f977 	bl	80021c0 <vTaskSuspendAll>
 8003ed2:	f7ff faf9 	bl	80034c8 <vPortEnterCritical>
 8003ed6:	6a3b      	ldr	r3, [r7, #32]
 8003ed8:	f893 3044 	ldrb.w	r3, [r3, #68]	; 0x44
 8003edc:	b25b      	sxtb	r3, r3
 8003ede:	f1b3 3fff 	cmp.w	r3, #4294967295
 8003ee2:	d103      	bne.n	8003eec <xQueueGenericSend+0x13c>
 8003ee4:	6a3b      	ldr	r3, [r7, #32]
 8003ee6:	2200      	movs	r2, #0
 8003ee8:	f883 2044 	strb.w	r2, [r3, #68]	; 0x44
 8003eec:	6a3b      	ldr	r3, [r7, #32]
 8003eee:	f893 3045 	ldrb.w	r3, [r3, #69]	; 0x45
 8003ef2:	b25b      	sxtb	r3, r3
 8003ef4:	f1b3 3fff 	cmp.w	r3, #4294967295
 8003ef8:	d103      	bne.n	8003f02 <xQueueGenericSend+0x152>
 8003efa:	6a3b      	ldr	r3, [r7, #32]
 8003efc:	2200      	movs	r2, #0
 8003efe:	f883 2045 	strb.w	r2, [r3, #69]	; 0x45
 8003f02:	f7ff fb0b 	bl	800351c <vPortExitCritical>
 8003f06:	1d3a      	adds	r2, r7, #4
 8003f08:	f107 0314 	add.w	r3, r7, #20
 8003f0c:	4611      	mov	r1, r2
 8003f0e:	4618      	mov	r0, r3
 8003f10:	f7fe fd4e 	bl	80029b0 <xTaskCheckForTimeOut>
 8003f14:	4603      	mov	r3, r0
 8003f16:	2b00      	cmp	r3, #0
 8003f18:	d124      	bne.n	8003f64 <xQueueGenericSend+0x1b4>
 8003f1a:	6a38      	ldr	r0, [r7, #32]
 8003f1c:	f000 fb92 	bl	8004644 <prvIsQueueFull>
 8003f20:	4603      	mov	r3, r0
 8003f22:	2b00      	cmp	r3, #0
 8003f24:	d018      	beq.n	8003f58 <xQueueGenericSend+0x1a8>
 8003f26:	6a3b      	ldr	r3, [r7, #32]
 8003f28:	3310      	adds	r3, #16
 8003f2a:	687a      	ldr	r2, [r7, #4]
 8003f2c:	4611      	mov	r1, r2
 8003f2e:	4618      	mov	r0, r3
 8003f30:	f7fe fbf6 	bl	8002720 <vTaskPlaceOnEventList>
 8003f34:	6a38      	ldr	r0, [r7, #32]
 8003f36:	f000 fb1d 	bl	8004574 <prvUnlockQueue>
 8003f3a:	f7fe f94f 	bl	80021dc <xTaskResumeAll>
 8003f3e:	4603      	mov	r3, r0
 8003f40:	2b00      	cmp	r3, #0
 8003f42:	f47f af7c 	bne.w	8003e3e <xQueueGenericSend+0x8e>
 8003f46:	4b0d      	ldr	r3, [pc, #52]	; (8003f7c <xQueueGenericSend+0x1cc>)
 8003f48:	f04f 5280 	mov.w	r2, #268435456	; 0x10000000
 8003f4c:	601a      	str	r2, [r3, #0]
 8003f4e:	f3bf 8f4f 	dsb	sy
 8003f52:	f3bf 8f6f 	isb	sy
 8003f56:	e772      	b.n	8003e3e <xQueueGenericSend+0x8e>
 8003f58:	6a38      	ldr	r0, [r7, #32]
 8003f5a:	f000 fb0b 	bl	8004574 <prvUnlockQueue>
 8003f5e:	f7fe f93d 	bl	80021dc <xTaskResumeAll>
 8003f62:	e76c      	b.n	8003e3e <xQueueGenericSend+0x8e>
 8003f64:	6a38      	ldr	r0, [r7, #32]
 8003f66:	f000 fb05 	bl	8004574 <prvUnlockQueue>
 8003f6a:	f7fe f937 	bl	80021dc <xTaskResumeAll>
 8003f6e:	2300      	movs	r3, #0
 8003f70:	4618      	mov	r0, r3
 8003f72:	3728      	adds	r7, #40	; 0x28
 8003f74:	46bd      	mov	sp, r7
 8003f76:	bd80      	pop	{r7, pc}
 8003f78:	0800a0b4 	.word	0x0800a0b4
 8003f7c:	e000ed04 	.word	0xe000ed04

08003f80 <xQueueGiveFromISR>:
 8003f80:	b580      	push	{r7, lr}
 8003f82:	b08c      	sub	sp, #48	; 0x30
 8003f84:	af00      	add	r7, sp, #0
 8003f86:	6078      	str	r0, [r7, #4]
 8003f88:	6039      	str	r1, [r7, #0]
 8003f8a:	687b      	ldr	r3, [r7, #4]
 8003f8c:	62bb      	str	r3, [r7, #40]	; 0x28
 8003f8e:	6abb      	ldr	r3, [r7, #40]	; 0x28
 8003f90:	2b00      	cmp	r3, #0
 8003f92:	d104      	bne.n	8003f9e <xQueueGiveFromISR+0x1e>
 8003f94:	493f      	ldr	r1, [pc, #252]	; (8004094 <xQueueGiveFromISR+0x114>)
 8003f96:	f240 40c9 	movw	r0, #1225	; 0x4c9
 8003f9a:	f001 ff94 	bl	8005ec6 <vAssertCalled>
 8003f9e:	6abb      	ldr	r3, [r7, #40]	; 0x28
 8003fa0:	6c1b      	ldr	r3, [r3, #64]	; 0x40
 8003fa2:	2b00      	cmp	r3, #0
 8003fa4:	d004      	beq.n	8003fb0 <xQueueGiveFromISR+0x30>
 8003fa6:	493b      	ldr	r1, [pc, #236]	; (8004094 <xQueueGiveFromISR+0x114>)
 8003fa8:	f240 40cd 	movw	r0, #1229	; 0x4cd
 8003fac:	f001 ff8b 	bl	8005ec6 <vAssertCalled>
 8003fb0:	6abb      	ldr	r3, [r7, #40]	; 0x28
 8003fb2:	681b      	ldr	r3, [r3, #0]
 8003fb4:	2b00      	cmp	r3, #0
 8003fb6:	d103      	bne.n	8003fc0 <xQueueGiveFromISR+0x40>
 8003fb8:	6abb      	ldr	r3, [r7, #40]	; 0x28
 8003fba:	689b      	ldr	r3, [r3, #8]
 8003fbc:	2b00      	cmp	r3, #0
 8003fbe:	d101      	bne.n	8003fc4 <xQueueGiveFromISR+0x44>
 8003fc0:	2301      	movs	r3, #1
 8003fc2:	e000      	b.n	8003fc6 <xQueueGiveFromISR+0x46>
 8003fc4:	2300      	movs	r3, #0
 8003fc6:	2b00      	cmp	r3, #0
 8003fc8:	d104      	bne.n	8003fd4 <xQueueGiveFromISR+0x54>
 8003fca:	4932      	ldr	r1, [pc, #200]	; (8004094 <xQueueGiveFromISR+0x114>)
 8003fcc:	f240 40d2 	movw	r0, #1234	; 0x4d2
 8003fd0:	f001 ff79 	bl	8005ec6 <vAssertCalled>
 8003fd4:	f7ff fb48 	bl	8003668 <vPortValidateInterruptPriority>
 8003fd8:	f3ef 8211 	mrs	r2, BASEPRI
 8003fdc:	f04f 0350 	mov.w	r3, #80	; 0x50
 8003fe0:	f383 8811 	msr	BASEPRI, r3
 8003fe4:	f3bf 8f6f 	isb	sy
 8003fe8:	f3bf 8f4f 	dsb	sy
 8003fec:	617a      	str	r2, [r7, #20]
 8003fee:	613b      	str	r3, [r7, #16]
 8003ff0:	697b      	ldr	r3, [r7, #20]
 8003ff2:	627b      	str	r3, [r7, #36]	; 0x24
 8003ff4:	6abb      	ldr	r3, [r7, #40]	; 0x28
 8003ff6:	6b9b      	ldr	r3, [r3, #56]	; 0x38
 8003ff8:	623b      	str	r3, [r7, #32]
 8003ffa:	6abb      	ldr	r3, [r7, #40]	; 0x28
 8003ffc:	6bdb      	ldr	r3, [r3, #60]	; 0x3c
 8003ffe:	6a3a      	ldr	r2, [r7, #32]
 8004000:	429a      	cmp	r2, r3
 8004002:	d23a      	bcs.n	800407a <xQueueGiveFromISR+0xfa>
 8004004:	6abb      	ldr	r3, [r7, #40]	; 0x28
 8004006:	f893 3045 	ldrb.w	r3, [r3, #69]	; 0x45
 800400a:	77fb      	strb	r3, [r7, #31]
 800400c:	6a3b      	ldr	r3, [r7, #32]
 800400e:	1c5a      	adds	r2, r3, #1
 8004010:	6abb      	ldr	r3, [r7, #40]	; 0x28
 8004012:	639a      	str	r2, [r3, #56]	; 0x38
 8004014:	f997 301f 	ldrsb.w	r3, [r7, #31]
 8004018:	f1b3 3fff 	cmp.w	r3, #4294967295
 800401c:	d112      	bne.n	8004044 <xQueueGiveFromISR+0xc4>
 800401e:	6abb      	ldr	r3, [r7, #40]	; 0x28
 8004020:	6a5b      	ldr	r3, [r3, #36]	; 0x24
 8004022:	2b00      	cmp	r3, #0
 8004024:	d026      	beq.n	8004074 <xQueueGiveFromISR+0xf4>
 8004026:	6abb      	ldr	r3, [r7, #40]	; 0x28
 8004028:	3324      	adds	r3, #36	; 0x24
 800402a:	4618      	mov	r0, r3
 800402c:	f7fe fbda 	bl	80027e4 <xTaskRemoveFromEventList>
 8004030:	4603      	mov	r3, r0
 8004032:	2b00      	cmp	r3, #0
 8004034:	d01e      	beq.n	8004074 <xQueueGiveFromISR+0xf4>
 8004036:	683b      	ldr	r3, [r7, #0]
 8004038:	2b00      	cmp	r3, #0
 800403a:	d01b      	beq.n	8004074 <xQueueGiveFromISR+0xf4>
 800403c:	683b      	ldr	r3, [r7, #0]
 800403e:	2201      	movs	r2, #1
 8004040:	601a      	str	r2, [r3, #0]
 8004042:	e017      	b.n	8004074 <xQueueGiveFromISR+0xf4>
 8004044:	f7fe f9d2 	bl	80023ec <uxTaskGetNumberOfTasks>
 8004048:	61b8      	str	r0, [r7, #24]
 800404a:	f997 301f 	ldrsb.w	r3, [r7, #31]
 800404e:	69ba      	ldr	r2, [r7, #24]
 8004050:	429a      	cmp	r2, r3
 8004052:	d90f      	bls.n	8004074 <xQueueGiveFromISR+0xf4>
 8004054:	f997 301f 	ldrsb.w	r3, [r7, #31]
 8004058:	2b7f      	cmp	r3, #127	; 0x7f
 800405a:	d104      	bne.n	8004066 <xQueueGiveFromISR+0xe6>
 800405c:	490d      	ldr	r1, [pc, #52]	; (8004094 <xQueueGiveFromISR+0x114>)
 800405e:	f240 5051 	movw	r0, #1361	; 0x551
 8004062:	f001 ff30 	bl	8005ec6 <vAssertCalled>
 8004066:	7ffb      	ldrb	r3, [r7, #31]
 8004068:	3301      	adds	r3, #1
 800406a:	b2db      	uxtb	r3, r3
 800406c:	b25a      	sxtb	r2, r3
 800406e:	6abb      	ldr	r3, [r7, #40]	; 0x28
 8004070:	f883 2045 	strb.w	r2, [r3, #69]	; 0x45
 8004074:	2301      	movs	r3, #1
 8004076:	62fb      	str	r3, [r7, #44]	; 0x2c
 8004078:	e001      	b.n	800407e <xQueueGiveFromISR+0xfe>
 800407a:	2300      	movs	r3, #0
 800407c:	62fb      	str	r3, [r7, #44]	; 0x2c
 800407e:	6a7b      	ldr	r3, [r7, #36]	; 0x24
 8004080:	60fb      	str	r3, [r7, #12]
 8004082:	68fb      	ldr	r3, [r7, #12]
 8004084:	f383 8811 	msr	BASEPRI, r3
 8004088:	bf00      	nop
 800408a:	6afb      	ldr	r3, [r7, #44]	; 0x2c
 800408c:	4618      	mov	r0, r3
 800408e:	3730      	adds	r7, #48	; 0x30
 8004090:	46bd      	mov	sp, r7
 8004092:	bd80      	pop	{r7, pc}
 8004094:	0800a0b4 	.word	0x0800a0b4

08004098 <xQueueReceive>:
 8004098:	b580      	push	{r7, lr}
 800409a:	b08a      	sub	sp, #40	; 0x28
 800409c:	af00      	add	r7, sp, #0
 800409e:	60f8      	str	r0, [r7, #12]
 80040a0:	60b9      	str	r1, [r7, #8]
 80040a2:	607a      	str	r2, [r7, #4]
 80040a4:	2300      	movs	r3, #0
 80040a6:	627b      	str	r3, [r7, #36]	; 0x24
 80040a8:	68fb      	ldr	r3, [r7, #12]
 80040aa:	623b      	str	r3, [r7, #32]
 80040ac:	6a3b      	ldr	r3, [r7, #32]
 80040ae:	2b00      	cmp	r3, #0
 80040b0:	d104      	bne.n	80040bc <xQueueReceive+0x24>
 80040b2:	495f      	ldr	r1, [pc, #380]	; (8004230 <xQueueReceive+0x198>)
 80040b4:	f240 506b 	movw	r0, #1387	; 0x56b
 80040b8:	f001 ff05 	bl	8005ec6 <vAssertCalled>
 80040bc:	68bb      	ldr	r3, [r7, #8]
 80040be:	2b00      	cmp	r3, #0
 80040c0:	d103      	bne.n	80040ca <xQueueReceive+0x32>
 80040c2:	6a3b      	ldr	r3, [r7, #32]
 80040c4:	6c1b      	ldr	r3, [r3, #64]	; 0x40
 80040c6:	2b00      	cmp	r3, #0
 80040c8:	d101      	bne.n	80040ce <xQueueReceive+0x36>
 80040ca:	2301      	movs	r3, #1
 80040cc:	e000      	b.n	80040d0 <xQueueReceive+0x38>
 80040ce:	2300      	movs	r3, #0
 80040d0:	2b00      	cmp	r3, #0
 80040d2:	d104      	bne.n	80040de <xQueueReceive+0x46>
 80040d4:	4956      	ldr	r1, [pc, #344]	; (8004230 <xQueueReceive+0x198>)
 80040d6:	f240 506f 	movw	r0, #1391	; 0x56f
 80040da:	f001 fef4 	bl	8005ec6 <vAssertCalled>
 80040de:	f7fe fd91 	bl	8002c04 <xTaskGetSchedulerState>
 80040e2:	4603      	mov	r3, r0
 80040e4:	2b00      	cmp	r3, #0
 80040e6:	d102      	bne.n	80040ee <xQueueReceive+0x56>
 80040e8:	687b      	ldr	r3, [r7, #4]
 80040ea:	2b00      	cmp	r3, #0
 80040ec:	d101      	bne.n	80040f2 <xQueueReceive+0x5a>
 80040ee:	2301      	movs	r3, #1
 80040f0:	e000      	b.n	80040f4 <xQueueReceive+0x5c>
 80040f2:	2300      	movs	r3, #0
 80040f4:	2b00      	cmp	r3, #0
 80040f6:	d104      	bne.n	8004102 <xQueueReceive+0x6a>
 80040f8:	494d      	ldr	r1, [pc, #308]	; (8004230 <xQueueReceive+0x198>)
 80040fa:	f240 5074 	movw	r0, #1396	; 0x574
 80040fe:	f001 fee2 	bl	8005ec6 <vAssertCalled>
 8004102:	f7ff f9e1 	bl	80034c8 <vPortEnterCritical>
 8004106:	6a3b      	ldr	r3, [r7, #32]
 8004108:	6b9b      	ldr	r3, [r3, #56]	; 0x38
 800410a:	61fb      	str	r3, [r7, #28]
 800410c:	69fb      	ldr	r3, [r7, #28]
 800410e:	2b00      	cmp	r3, #0
 8004110:	d01f      	beq.n	8004152 <xQueueReceive+0xba>
 8004112:	68b9      	ldr	r1, [r7, #8]
 8004114:	6a38      	ldr	r0, [r7, #32]
 8004116:	f000 fa07 	bl	8004528 <prvCopyDataFromQueue>
 800411a:	69fb      	ldr	r3, [r7, #28]
 800411c:	1e5a      	subs	r2, r3, #1
 800411e:	6a3b      	ldr	r3, [r7, #32]
 8004120:	639a      	str	r2, [r3, #56]	; 0x38
 8004122:	6a3b      	ldr	r3, [r7, #32]
 8004124:	691b      	ldr	r3, [r3, #16]
 8004126:	2b00      	cmp	r3, #0
 8004128:	d00f      	beq.n	800414a <xQueueReceive+0xb2>
 800412a:	6a3b      	ldr	r3, [r7, #32]
 800412c:	3310      	adds	r3, #16
 800412e:	4618      	mov	r0, r3
 8004130:	f7fe fb58 	bl	80027e4 <xTaskRemoveFromEventList>
 8004134:	4603      	mov	r3, r0
 8004136:	2b00      	cmp	r3, #0
 8004138:	d007      	beq.n	800414a <xQueueReceive+0xb2>
 800413a:	4b3e      	ldr	r3, [pc, #248]	; (8004234 <xQueueReceive+0x19c>)
 800413c:	f04f 5280 	mov.w	r2, #268435456	; 0x10000000
 8004140:	601a      	str	r2, [r3, #0]
 8004142:	f3bf 8f4f 	dsb	sy
 8004146:	f3bf 8f6f 	isb	sy
 800414a:	f7ff f9e7 	bl	800351c <vPortExitCritical>
 800414e:	2301      	movs	r3, #1
 8004150:	e069      	b.n	8004226 <xQueueReceive+0x18e>
 8004152:	687b      	ldr	r3, [r7, #4]
 8004154:	2b00      	cmp	r3, #0
 8004156:	d103      	bne.n	8004160 <xQueueReceive+0xc8>
 8004158:	f7ff f9e0 	bl	800351c <vPortExitCritical>
 800415c:	2300      	movs	r3, #0
 800415e:	e062      	b.n	8004226 <xQueueReceive+0x18e>
 8004160:	6a7b      	ldr	r3, [r7, #36]	; 0x24
 8004162:	2b00      	cmp	r3, #0
 8004164:	d106      	bne.n	8004174 <xQueueReceive+0xdc>
 8004166:	f107 0314 	add.w	r3, r7, #20
 800416a:	4618      	mov	r0, r3
 800416c:	f7fe fc0a 	bl	8002984 <vTaskInternalSetTimeOutState>
 8004170:	2301      	movs	r3, #1
 8004172:	627b      	str	r3, [r7, #36]	; 0x24
 8004174:	f7ff f9d2 	bl	800351c <vPortExitCritical>
 8004178:	f7fe f822 	bl	80021c0 <vTaskSuspendAll>
 800417c:	f7ff f9a4 	bl	80034c8 <vPortEnterCritical>
 8004180:	6a3b      	ldr	r3, [r7, #32]
 8004182:	f893 3044 	ldrb.w	r3, [r3, #68]	; 0x44
 8004186:	b25b      	sxtb	r3, r3
 8004188:	f1b3 3fff 	cmp.w	r3, #4294967295
 800418c:	d103      	bne.n	8004196 <xQueueReceive+0xfe>
 800418e:	6a3b      	ldr	r3, [r7, #32]
 8004190:	2200      	movs	r2, #0
 8004192:	f883 2044 	strb.w	r2, [r3, #68]	; 0x44
 8004196:	6a3b      	ldr	r3, [r7, #32]
 8004198:	f893 3045 	ldrb.w	r3, [r3, #69]	; 0x45
 800419c:	b25b      	sxtb	r3, r3
 800419e:	f1b3 3fff 	cmp.w	r3, #4294967295
 80041a2:	d103      	bne.n	80041ac <xQueueReceive+0x114>
 80041a4:	6a3b      	ldr	r3, [r7, #32]
 80041a6:	2200      	movs	r2, #0
 80041a8:	f883 2045 	strb.w	r2, [r3, #69]	; 0x45
 80041ac:	f7ff f9b6 	bl	800351c <vPortExitCritical>
 80041b0:	1d3a      	adds	r2, r7, #4
 80041b2:	f107 0314 	add.w	r3, r7, #20
 80041b6:	4611      	mov	r1, r2
 80041b8:	4618      	mov	r0, r3
 80041ba:	f7fe fbf9 	bl	80029b0 <xTaskCheckForTimeOut>
 80041be:	4603      	mov	r3, r0
 80041c0:	2b00      	cmp	r3, #0
 80041c2:	d123      	bne.n	800420c <xQueueReceive+0x174>
 80041c4:	6a38      	ldr	r0, [r7, #32]
 80041c6:	f000 fa27 	bl	8004618 <prvIsQueueEmpty>
 80041ca:	4603      	mov	r3, r0
 80041cc:	2b00      	cmp	r3, #0
 80041ce:	d017      	beq.n	8004200 <xQueueReceive+0x168>
 80041d0:	6a3b      	ldr	r3, [r7, #32]
 80041d2:	3324      	adds	r3, #36	; 0x24
 80041d4:	687a      	ldr	r2, [r7, #4]
 80041d6:	4611      	mov	r1, r2
 80041d8:	4618      	mov	r0, r3
 80041da:	f7fe faa1 	bl	8002720 <vTaskPlaceOnEventList>
 80041de:	6a38      	ldr	r0, [r7, #32]
 80041e0:	f000 f9c8 	bl	8004574 <prvUnlockQueue>
 80041e4:	f7fd fffa 	bl	80021dc <xTaskResumeAll>
 80041e8:	4603      	mov	r3, r0
 80041ea:	2b00      	cmp	r3, #0
 80041ec:	d189      	bne.n	8004102 <xQueueReceive+0x6a>
 80041ee:	4b11      	ldr	r3, [pc, #68]	; (8004234 <xQueueReceive+0x19c>)
 80041f0:	f04f 5280 	mov.w	r2, #268435456	; 0x10000000
 80041f4:	601a      	str	r2, [r3, #0]
 80041f6:	f3bf 8f4f 	dsb	sy
 80041fa:	f3bf 8f6f 	isb	sy
 80041fe:	e780      	b.n	8004102 <xQueueReceive+0x6a>
 8004200:	6a38      	ldr	r0, [r7, #32]
 8004202:	f000 f9b7 	bl	8004574 <prvUnlockQueue>
 8004206:	f7fd ffe9 	bl	80021dc <xTaskResumeAll>
 800420a:	e77a      	b.n	8004102 <xQueueReceive+0x6a>
 800420c:	6a38      	ldr	r0, [r7, #32]
 800420e:	f000 f9b1 	bl	8004574 <prvUnlockQueue>
 8004212:	f7fd ffe3 	bl	80021dc <xTaskResumeAll>
 8004216:	6a38      	ldr	r0, [r7, #32]
 8004218:	f000 f9fe 	bl	8004618 <prvIsQueueEmpty>
 800421c:	4603      	mov	r3, r0
 800421e:	2b00      	cmp	r3, #0
 8004220:	f43f af6f 	beq.w	8004102 <xQueueReceive+0x6a>
 8004224:	2300      	movs	r3, #0
 8004226:	4618      	mov	r0, r3
 8004228:	3728      	adds	r7, #40	; 0x28
 800422a:	46bd      	mov	sp, r7
 800422c:	bd80      	pop	{r7, pc}
 800422e:	bf00      	nop
 8004230:	0800a0b4 	.word	0x0800a0b4
 8004234:	e000ed04 	.word	0xe000ed04

08004238 <xQueueSemaphoreTake>:
 8004238:	b580      	push	{r7, lr}
 800423a:	b08a      	sub	sp, #40	; 0x28
 800423c:	af00      	add	r7, sp, #0
 800423e:	6078      	str	r0, [r7, #4]
 8004240:	6039      	str	r1, [r7, #0]
 8004242:	2300      	movs	r3, #0
 8004244:	627b      	str	r3, [r7, #36]	; 0x24
 8004246:	687b      	ldr	r3, [r7, #4]
 8004248:	61fb      	str	r3, [r7, #28]
 800424a:	2300      	movs	r3, #0
 800424c:	623b      	str	r3, [r7, #32]
 800424e:	69fb      	ldr	r3, [r7, #28]
 8004250:	2b00      	cmp	r3, #0
 8004252:	d104      	bne.n	800425e <xQueueSemaphoreTake+0x26>
 8004254:	4971      	ldr	r1, [pc, #452]	; (800441c <xQueueSemaphoreTake+0x1e4>)
 8004256:	f240 50fd 	movw	r0, #1533	; 0x5fd
 800425a:	f001 fe34 	bl	8005ec6 <vAssertCalled>
 800425e:	69fb      	ldr	r3, [r7, #28]
 8004260:	6c1b      	ldr	r3, [r3, #64]	; 0x40
 8004262:	2b00      	cmp	r3, #0
 8004264:	d004      	beq.n	8004270 <xQueueSemaphoreTake+0x38>
 8004266:	496d      	ldr	r1, [pc, #436]	; (800441c <xQueueSemaphoreTake+0x1e4>)
 8004268:	f240 6001 	movw	r0, #1537	; 0x601
 800426c:	f001 fe2b 	bl	8005ec6 <vAssertCalled>
 8004270:	f7fe fcc8 	bl	8002c04 <xTaskGetSchedulerState>
 8004274:	4603      	mov	r3, r0
 8004276:	2b00      	cmp	r3, #0
 8004278:	d102      	bne.n	8004280 <xQueueSemaphoreTake+0x48>
 800427a:	683b      	ldr	r3, [r7, #0]
 800427c:	2b00      	cmp	r3, #0
 800427e:	d101      	bne.n	8004284 <xQueueSemaphoreTake+0x4c>
 8004280:	2301      	movs	r3, #1
 8004282:	e000      	b.n	8004286 <xQueueSemaphoreTake+0x4e>
 8004284:	2300      	movs	r3, #0
 8004286:	2b00      	cmp	r3, #0
 8004288:	d104      	bne.n	8004294 <xQueueSemaphoreTake+0x5c>
 800428a:	4964      	ldr	r1, [pc, #400]	; (800441c <xQueueSemaphoreTake+0x1e4>)
 800428c:	f240 6006 	movw	r0, #1542	; 0x606
 8004290:	f001 fe19 	bl	8005ec6 <vAssertCalled>
 8004294:	f7ff f918 	bl	80034c8 <vPortEnterCritical>
 8004298:	69fb      	ldr	r3, [r7, #28]
 800429a:	6b9b      	ldr	r3, [r3, #56]	; 0x38
 800429c:	61bb      	str	r3, [r7, #24]
 800429e:	69bb      	ldr	r3, [r7, #24]
 80042a0:	2b00      	cmp	r3, #0
 80042a2:	d024      	beq.n	80042ee <xQueueSemaphoreTake+0xb6>
 80042a4:	69bb      	ldr	r3, [r7, #24]
 80042a6:	1e5a      	subs	r2, r3, #1
 80042a8:	69fb      	ldr	r3, [r7, #28]
 80042aa:	639a      	str	r2, [r3, #56]	; 0x38
 80042ac:	69fb      	ldr	r3, [r7, #28]
 80042ae:	681b      	ldr	r3, [r3, #0]
 80042b0:	2b00      	cmp	r3, #0
 80042b2:	d104      	bne.n	80042be <xQueueSemaphoreTake+0x86>
 80042b4:	f7fe fea8 	bl	8003008 <pvTaskIncrementMutexHeldCount>
 80042b8:	4602      	mov	r2, r0
 80042ba:	69fb      	ldr	r3, [r7, #28]
 80042bc:	609a      	str	r2, [r3, #8]
 80042be:	69fb      	ldr	r3, [r7, #28]
 80042c0:	691b      	ldr	r3, [r3, #16]
 80042c2:	2b00      	cmp	r3, #0
 80042c4:	d00f      	beq.n	80042e6 <xQueueSemaphoreTake+0xae>
 80042c6:	69fb      	ldr	r3, [r7, #28]
 80042c8:	3310      	adds	r3, #16
 80042ca:	4618      	mov	r0, r3
 80042cc:	f7fe fa8a 	bl	80027e4 <xTaskRemoveFromEventList>
 80042d0:	4603      	mov	r3, r0
 80042d2:	2b00      	cmp	r3, #0
 80042d4:	d007      	beq.n	80042e6 <xQueueSemaphoreTake+0xae>
 80042d6:	4b52      	ldr	r3, [pc, #328]	; (8004420 <xQueueSemaphoreTake+0x1e8>)
 80042d8:	f04f 5280 	mov.w	r2, #268435456	; 0x10000000
 80042dc:	601a      	str	r2, [r3, #0]
 80042de:	f3bf 8f4f 	dsb	sy
 80042e2:	f3bf 8f6f 	isb	sy
 80042e6:	f7ff f919 	bl	800351c <vPortExitCritical>
 80042ea:	2301      	movs	r3, #1
 80042ec:	e091      	b.n	8004412 <xQueueSemaphoreTake+0x1da>
 80042ee:	683b      	ldr	r3, [r7, #0]
 80042f0:	2b00      	cmp	r3, #0
 80042f2:	d10b      	bne.n	800430c <xQueueSemaphoreTake+0xd4>
 80042f4:	6a3b      	ldr	r3, [r7, #32]
 80042f6:	2b00      	cmp	r3, #0
 80042f8:	d004      	beq.n	8004304 <xQueueSemaphoreTake+0xcc>
 80042fa:	4948      	ldr	r1, [pc, #288]	; (800441c <xQueueSemaphoreTake+0x1e4>)
 80042fc:	f240 604c 	movw	r0, #1612	; 0x64c
 8004300:	f001 fde1 	bl	8005ec6 <vAssertCalled>
 8004304:	f7ff f90a 	bl	800351c <vPortExitCritical>
 8004308:	2300      	movs	r3, #0
 800430a:	e082      	b.n	8004412 <xQueueSemaphoreTake+0x1da>
 800430c:	6a7b      	ldr	r3, [r7, #36]	; 0x24
 800430e:	2b00      	cmp	r3, #0
 8004310:	d106      	bne.n	8004320 <xQueueSemaphoreTake+0xe8>
 8004312:	f107 030c 	add.w	r3, r7, #12
 8004316:	4618      	mov	r0, r3
 8004318:	f7fe fb34 	bl	8002984 <vTaskInternalSetTimeOutState>
 800431c:	2301      	movs	r3, #1
 800431e:	627b      	str	r3, [r7, #36]	; 0x24
 8004320:	f7ff f8fc 	bl	800351c <vPortExitCritical>
 8004324:	f7fd ff4c 	bl	80021c0 <vTaskSuspendAll>
 8004328:	f7ff f8ce 	bl	80034c8 <vPortEnterCritical>
 800432c:	69fb      	ldr	r3, [r7, #28]
 800432e:	f893 3044 	ldrb.w	r3, [r3, #68]	; 0x44
 8004332:	b25b      	sxtb	r3, r3
 8004334:	f1b3 3fff 	cmp.w	r3, #4294967295
 8004338:	d103      	bne.n	8004342 <xQueueSemaphoreTake+0x10a>
 800433a:	69fb      	ldr	r3, [r7, #28]
 800433c:	2200      	movs	r2, #0
 800433e:	f883 2044 	strb.w	r2, [r3, #68]	; 0x44
 8004342:	69fb      	ldr	r3, [r7, #28]
 8004344:	f893 3045 	ldrb.w	r3, [r3, #69]	; 0x45
 8004348:	b25b      	sxtb	r3, r3
 800434a:	f1b3 3fff 	cmp.w	r3, #4294967295
 800434e:	d103      	bne.n	8004358 <xQueueSemaphoreTake+0x120>
 8004350:	69fb      	ldr	r3, [r7, #28]
 8004352:	2200      	movs	r2, #0
 8004354:	f883 2045 	strb.w	r2, [r3, #69]	; 0x45
 8004358:	f7ff f8e0 	bl	800351c <vPortExitCritical>
 800435c:	463a      	mov	r2, r7
 800435e:	f107 030c 	add.w	r3, r7, #12
 8004362:	4611      	mov	r1, r2
 8004364:	4618      	mov	r0, r3
 8004366:	f7fe fb23 	bl	80029b0 <xTaskCheckForTimeOut>
 800436a:	4603      	mov	r3, r0
 800436c:	2b00      	cmp	r3, #0
 800436e:	d132      	bne.n	80043d6 <xQueueSemaphoreTake+0x19e>
 8004370:	69f8      	ldr	r0, [r7, #28]
 8004372:	f000 f951 	bl	8004618 <prvIsQueueEmpty>
 8004376:	4603      	mov	r3, r0
 8004378:	2b00      	cmp	r3, #0
 800437a:	d026      	beq.n	80043ca <xQueueSemaphoreTake+0x192>
 800437c:	69fb      	ldr	r3, [r7, #28]
 800437e:	681b      	ldr	r3, [r3, #0]
 8004380:	2b00      	cmp	r3, #0
 8004382:	d109      	bne.n	8004398 <xQueueSemaphoreTake+0x160>
 8004384:	f7ff f8a0 	bl	80034c8 <vPortEnterCritical>
 8004388:	69fb      	ldr	r3, [r7, #28]
 800438a:	689b      	ldr	r3, [r3, #8]
 800438c:	4618      	mov	r0, r3
 800438e:	f7fe fc57 	bl	8002c40 <xTaskPriorityInherit>
 8004392:	6238      	str	r0, [r7, #32]
 8004394:	f7ff f8c2 	bl	800351c <vPortExitCritical>
 8004398:	69fb      	ldr	r3, [r7, #28]
 800439a:	3324      	adds	r3, #36	; 0x24
 800439c:	683a      	ldr	r2, [r7, #0]
 800439e:	4611      	mov	r1, r2
 80043a0:	4618      	mov	r0, r3
 80043a2:	f7fe f9bd 	bl	8002720 <vTaskPlaceOnEventList>
 80043a6:	69f8      	ldr	r0, [r7, #28]
 80043a8:	f000 f8e4 	bl	8004574 <prvUnlockQueue>
 80043ac:	f7fd ff16 	bl	80021dc <xTaskResumeAll>
 80043b0:	4603      	mov	r3, r0
 80043b2:	2b00      	cmp	r3, #0
 80043b4:	f47f af6e 	bne.w	8004294 <xQueueSemaphoreTake+0x5c>
 80043b8:	4b19      	ldr	r3, [pc, #100]	; (8004420 <xQueueSemaphoreTake+0x1e8>)
 80043ba:	f04f 5280 	mov.w	r2, #268435456	; 0x10000000
 80043be:	601a      	str	r2, [r3, #0]
 80043c0:	f3bf 8f4f 	dsb	sy
 80043c4:	f3bf 8f6f 	isb	sy
 80043c8:	e764      	b.n	8004294 <xQueueSemaphoreTake+0x5c>
 80043ca:	69f8      	ldr	r0, [r7, #28]
 80043cc:	f000 f8d2 	bl	8004574 <prvUnlockQueue>
 80043d0:	f7fd ff04 	bl	80021dc <xTaskResumeAll>
 80043d4:	e75e      	b.n	8004294 <xQueueSemaphoreTake+0x5c>
 80043d6:	69f8      	ldr	r0, [r7, #28]
 80043d8:	f000 f8cc 	bl	8004574 <prvUnlockQueue>
 80043dc:	f7fd fefe 	bl	80021dc <xTaskResumeAll>
 80043e0:	69f8      	ldr	r0, [r7, #28]
 80043e2:	f000 f919 	bl	8004618 <prvIsQueueEmpty>
 80043e6:	4603      	mov	r3, r0
 80043e8:	2b00      	cmp	r3, #0
 80043ea:	f43f af53 	beq.w	8004294 <xQueueSemaphoreTake+0x5c>
 80043ee:	6a3b      	ldr	r3, [r7, #32]
 80043f0:	2b00      	cmp	r3, #0
 80043f2:	d00d      	beq.n	8004410 <xQueueSemaphoreTake+0x1d8>
 80043f4:	f7ff f868 	bl	80034c8 <vPortEnterCritical>
 80043f8:	69f8      	ldr	r0, [r7, #28]
 80043fa:	f000 f813 	bl	8004424 <prvGetDisinheritPriorityAfterTimeout>
 80043fe:	6178      	str	r0, [r7, #20]
 8004400:	69fb      	ldr	r3, [r7, #28]
 8004402:	689b      	ldr	r3, [r3, #8]
 8004404:	6979      	ldr	r1, [r7, #20]
 8004406:	4618      	mov	r0, r3
 8004408:	f7fe fd50 	bl	8002eac <vTaskPriorityDisinheritAfterTimeout>
 800440c:	f7ff f886 	bl	800351c <vPortExitCritical>
 8004410:	2300      	movs	r3, #0
 8004412:	4618      	mov	r0, r3
 8004414:	3728      	adds	r7, #40	; 0x28
 8004416:	46bd      	mov	sp, r7
 8004418:	bd80      	pop	{r7, pc}
 800441a:	bf00      	nop
 800441c:	0800a0b4 	.word	0x0800a0b4
 8004420:	e000ed04 	.word	0xe000ed04

08004424 <prvGetDisinheritPriorityAfterTimeout>:
 8004424:	b480      	push	{r7}
 8004426:	b085      	sub	sp, #20
 8004428:	af00      	add	r7, sp, #0
 800442a:	6078      	str	r0, [r7, #4]
 800442c:	687b      	ldr	r3, [r7, #4]
 800442e:	6a5b      	ldr	r3, [r3, #36]	; 0x24
 8004430:	2b00      	cmp	r3, #0
 8004432:	d006      	beq.n	8004442 <prvGetDisinheritPriorityAfterTimeout+0x1e>
 8004434:	687b      	ldr	r3, [r7, #4]
 8004436:	6b1b      	ldr	r3, [r3, #48]	; 0x30
 8004438:	681b      	ldr	r3, [r3, #0]
 800443a:	f1c3 0305 	rsb	r3, r3, #5
 800443e:	60fb      	str	r3, [r7, #12]
 8004440:	e001      	b.n	8004446 <prvGetDisinheritPriorityAfterTimeout+0x22>
 8004442:	2300      	movs	r3, #0
 8004444:	60fb      	str	r3, [r7, #12]
 8004446:	68fb      	ldr	r3, [r7, #12]
 8004448:	4618      	mov	r0, r3
 800444a:	3714      	adds	r7, #20
 800444c:	46bd      	mov	sp, r7
 800444e:	f85d 7b04 	ldr.w	r7, [sp], #4
 8004452:	4770      	bx	lr

08004454 <prvCopyDataToQueue>:
 8004454:	b580      	push	{r7, lr}
 8004456:	b086      	sub	sp, #24
 8004458:	af00      	add	r7, sp, #0
 800445a:	60f8      	str	r0, [r7, #12]
 800445c:	60b9      	str	r1, [r7, #8]
 800445e:	607a      	str	r2, [r7, #4]
 8004460:	2300      	movs	r3, #0
 8004462:	617b      	str	r3, [r7, #20]
 8004464:	68fb      	ldr	r3, [r7, #12]
 8004466:	6b9b      	ldr	r3, [r3, #56]	; 0x38
 8004468:	613b      	str	r3, [r7, #16]
 800446a:	68fb      	ldr	r3, [r7, #12]
 800446c:	6c1b      	ldr	r3, [r3, #64]	; 0x40
 800446e:	2b00      	cmp	r3, #0
 8004470:	d10d      	bne.n	800448e <prvCopyDataToQueue+0x3a>
 8004472:	68fb      	ldr	r3, [r7, #12]
 8004474:	681b      	ldr	r3, [r3, #0]
 8004476:	2b00      	cmp	r3, #0
 8004478:	d14d      	bne.n	8004516 <prvCopyDataToQueue+0xc2>
 800447a:	68fb      	ldr	r3, [r7, #12]
 800447c:	689b      	ldr	r3, [r3, #8]
 800447e:	4618      	mov	r0, r3
 8004480:	f7fe fc7c 	bl	8002d7c <xTaskPriorityDisinherit>
 8004484:	6178      	str	r0, [r7, #20]
 8004486:	68fb      	ldr	r3, [r7, #12]
 8004488:	2200      	movs	r2, #0
 800448a:	609a      	str	r2, [r3, #8]
 800448c:	e043      	b.n	8004516 <prvCopyDataToQueue+0xc2>
 800448e:	687b      	ldr	r3, [r7, #4]
 8004490:	2b00      	cmp	r3, #0
 8004492:	d119      	bne.n	80044c8 <prvCopyDataToQueue+0x74>
 8004494:	68fb      	ldr	r3, [r7, #12]
 8004496:	6858      	ldr	r0, [r3, #4]
 8004498:	68fb      	ldr	r3, [r7, #12]
 800449a:	6c1b      	ldr	r3, [r3, #64]	; 0x40
 800449c:	461a      	mov	r2, r3
 800449e:	68b9      	ldr	r1, [r7, #8]
 80044a0:	f004 fe89 	bl	80091b6 <memcpy>
 80044a4:	68fb      	ldr	r3, [r7, #12]
 80044a6:	685a      	ldr	r2, [r3, #4]
 80044a8:	68fb      	ldr	r3, [r7, #12]
 80044aa:	6c1b      	ldr	r3, [r3, #64]	; 0x40
 80044ac:	441a      	add	r2, r3
 80044ae:	68fb      	ldr	r3, [r7, #12]
 80044b0:	605a      	str	r2, [r3, #4]
 80044b2:	68fb      	ldr	r3, [r7, #12]
 80044b4:	685a      	ldr	r2, [r3, #4]
 80044b6:	68fb      	ldr	r3, [r7, #12]
 80044b8:	689b      	ldr	r3, [r3, #8]
 80044ba:	429a      	cmp	r2, r3
 80044bc:	d32b      	bcc.n	8004516 <prvCopyDataToQueue+0xc2>
 80044be:	68fb      	ldr	r3, [r7, #12]
 80044c0:	681a      	ldr	r2, [r3, #0]
 80044c2:	68fb      	ldr	r3, [r7, #12]
 80044c4:	605a      	str	r2, [r3, #4]
 80044c6:	e026      	b.n	8004516 <prvCopyDataToQueue+0xc2>
 80044c8:	68fb      	ldr	r3, [r7, #12]
 80044ca:	68d8      	ldr	r0, [r3, #12]
 80044cc:	68fb      	ldr	r3, [r7, #12]
 80044ce:	6c1b      	ldr	r3, [r3, #64]	; 0x40
 80044d0:	461a      	mov	r2, r3
 80044d2:	68b9      	ldr	r1, [r7, #8]
 80044d4:	f004 fe6f 	bl	80091b6 <memcpy>
 80044d8:	68fb      	ldr	r3, [r7, #12]
 80044da:	68da      	ldr	r2, [r3, #12]
 80044dc:	68fb      	ldr	r3, [r7, #12]
 80044de:	6c1b      	ldr	r3, [r3, #64]	; 0x40
 80044e0:	425b      	negs	r3, r3
 80044e2:	441a      	add	r2, r3
 80044e4:	68fb      	ldr	r3, [r7, #12]
 80044e6:	60da      	str	r2, [r3, #12]
 80044e8:	68fb      	ldr	r3, [r7, #12]
 80044ea:	68da      	ldr	r2, [r3, #12]
 80044ec:	68fb      	ldr	r3, [r7, #12]
 80044ee:	681b      	ldr	r3, [r3, #0]
 80044f0:	429a      	cmp	r2, r3
 80044f2:	d207      	bcs.n	8004504 <prvCopyDataToQueue+0xb0>
 80044f4:	68fb      	ldr	r3, [r7, #12]
 80044f6:	689a      	ldr	r2, [r3, #8]
 80044f8:	68fb      	ldr	r3, [r7, #12]
 80044fa:	6c1b      	ldr	r3, [r3, #64]	; 0x40
 80044fc:	425b      	negs	r3, r3
 80044fe:	441a      	add	r2, r3
 8004500:	68fb      	ldr	r3, [r7, #12]
 8004502:	60da      	str	r2, [r3, #12]
 8004504:	687b      	ldr	r3, [r7, #4]
 8004506:	2b02      	cmp	r3, #2
 8004508:	d105      	bne.n	8004516 <prvCopyDataToQueue+0xc2>
 800450a:	693b      	ldr	r3, [r7, #16]
 800450c:	2b00      	cmp	r3, #0
 800450e:	d002      	beq.n	8004516 <prvCopyDataToQueue+0xc2>
 8004510:	693b      	ldr	r3, [r7, #16]
 8004512:	3b01      	subs	r3, #1
 8004514:	613b      	str	r3, [r7, #16]
 8004516:	693b      	ldr	r3, [r7, #16]
 8004518:	1c5a      	adds	r2, r3, #1
 800451a:	68fb      	ldr	r3, [r7, #12]
 800451c:	639a      	str	r2, [r3, #56]	; 0x38
 800451e:	697b      	ldr	r3, [r7, #20]
 8004520:	4618      	mov	r0, r3
 8004522:	3718      	adds	r7, #24
 8004524:	46bd      	mov	sp, r7
 8004526:	bd80      	pop	{r7, pc}

08004528 <prvCopyDataFromQueue>:
 8004528:	b580      	push	{r7, lr}
 800452a:	b082      	sub	sp, #8
 800452c:	af00      	add	r7, sp, #0
 800452e:	6078      	str	r0, [r7, #4]
 8004530:	6039      	str	r1, [r7, #0]
 8004532:	687b      	ldr	r3, [r7, #4]
 8004534:	6c1b      	ldr	r3, [r3, #64]	; 0x40
 8004536:	2b00      	cmp	r3, #0
 8004538:	d018      	beq.n	800456c <prvCopyDataFromQueue+0x44>
 800453a:	687b      	ldr	r3, [r7, #4]
 800453c:	68da      	ldr	r2, [r3, #12]
 800453e:	687b      	ldr	r3, [r7, #4]
 8004540:	6c1b      	ldr	r3, [r3, #64]	; 0x40
 8004542:	441a      	add	r2, r3
 8004544:	687b      	ldr	r3, [r7, #4]
 8004546:	60da      	str	r2, [r3, #12]
 8004548:	687b      	ldr	r3, [r7, #4]
 800454a:	68da      	ldr	r2, [r3, #12]
 800454c:	687b      	ldr	r3, [r7, #4]
 800454e:	689b      	ldr	r3, [r3, #8]
 8004550:	429a      	cmp	r2, r3
 8004552:	d303      	bcc.n	800455c <prvCopyDataFromQueue+0x34>
 8004554:	687b      	ldr	r3, [r7, #4]
 8004556:	681a      	ldr	r2, [r3, #0]
 8004558:	687b      	ldr	r3, [r7, #4]
 800455a:	60da      	str	r2, [r3, #12]
 800455c:	687b      	ldr	r3, [r7, #4]
 800455e:	68d9      	ldr	r1, [r3, #12]
 8004560:	687b      	ldr	r3, [r7, #4]
 8004562:	6c1b      	ldr	r3, [r3, #64]	; 0x40
 8004564:	461a      	mov	r2, r3
 8004566:	6838      	ldr	r0, [r7, #0]
 8004568:	f004 fe25 	bl	80091b6 <memcpy>
 800456c:	bf00      	nop
 800456e:	3708      	adds	r7, #8
 8004570:	46bd      	mov	sp, r7
 8004572:	bd80      	pop	{r7, pc}

08004574 <prvUnlockQueue>:
 8004574:	b580      	push	{r7, lr}
 8004576:	b084      	sub	sp, #16
 8004578:	af00      	add	r7, sp, #0
 800457a:	6078      	str	r0, [r7, #4]
 800457c:	f7fe ffa4 	bl	80034c8 <vPortEnterCritical>
 8004580:	687b      	ldr	r3, [r7, #4]
 8004582:	f893 3045 	ldrb.w	r3, [r3, #69]	; 0x45
 8004586:	73fb      	strb	r3, [r7, #15]
 8004588:	e011      	b.n	80045ae <prvUnlockQueue+0x3a>
 800458a:	687b      	ldr	r3, [r7, #4]
 800458c:	6a5b      	ldr	r3, [r3, #36]	; 0x24
 800458e:	2b00      	cmp	r3, #0
 8004590:	d012      	beq.n	80045b8 <prvUnlockQueue+0x44>
 8004592:	687b      	ldr	r3, [r7, #4]
 8004594:	3324      	adds	r3, #36	; 0x24
 8004596:	4618      	mov	r0, r3
 8004598:	f7fe f924 	bl	80027e4 <xTaskRemoveFromEventList>
 800459c:	4603      	mov	r3, r0
 800459e:	2b00      	cmp	r3, #0
 80045a0:	d001      	beq.n	80045a6 <prvUnlockQueue+0x32>
 80045a2:	f7fe fa61 	bl	8002a68 <vTaskMissedYield>
 80045a6:	7bfb      	ldrb	r3, [r7, #15]
 80045a8:	3b01      	subs	r3, #1
 80045aa:	b2db      	uxtb	r3, r3
 80045ac:	73fb      	strb	r3, [r7, #15]
 80045ae:	f997 300f 	ldrsb.w	r3, [r7, #15]
 80045b2:	2b00      	cmp	r3, #0
 80045b4:	dce9      	bgt.n	800458a <prvUnlockQueue+0x16>
 80045b6:	e000      	b.n	80045ba <prvUnlockQueue+0x46>
 80045b8:	bf00      	nop
 80045ba:	687b      	ldr	r3, [r7, #4]
 80045bc:	22ff      	movs	r2, #255	; 0xff
 80045be:	f883 2045 	strb.w	r2, [r3, #69]	; 0x45
 80045c2:	f7fe ffab 	bl	800351c <vPortExitCritical>
 80045c6:	f7fe ff7f 	bl	80034c8 <vPortEnterCritical>
 80045ca:	687b      	ldr	r3, [r7, #4]
 80045cc:	f893 3044 	ldrb.w	r3, [r3, #68]	; 0x44
 80045d0:	73bb      	strb	r3, [r7, #14]
 80045d2:	e011      	b.n	80045f8 <prvUnlockQueue+0x84>
 80045d4:	687b      	ldr	r3, [r7, #4]
 80045d6:	691b      	ldr	r3, [r3, #16]
 80045d8:	2b00      	cmp	r3, #0
 80045da:	d012      	beq.n	8004602 <prvUnlockQueue+0x8e>
 80045dc:	687b      	ldr	r3, [r7, #4]
 80045de:	3310      	adds	r3, #16
 80045e0:	4618      	mov	r0, r3
 80045e2:	f7fe f8ff 	bl	80027e4 <xTaskRemoveFromEventList>
 80045e6:	4603      	mov	r3, r0
 80045e8:	2b00      	cmp	r3, #0
 80045ea:	d001      	beq.n	80045f0 <prvUnlockQueue+0x7c>
 80045ec:	f7fe fa3c 	bl	8002a68 <vTaskMissedYield>
 80045f0:	7bbb      	ldrb	r3, [r7, #14]
 80045f2:	3b01      	subs	r3, #1
 80045f4:	b2db      	uxtb	r3, r3
 80045f6:	73bb      	strb	r3, [r7, #14]
 80045f8:	f997 300e 	ldrsb.w	r3, [r7, #14]
 80045fc:	2b00      	cmp	r3, #0
 80045fe:	dce9      	bgt.n	80045d4 <prvUnlockQueue+0x60>
 8004600:	e000      	b.n	8004604 <prvUnlockQueue+0x90>
 8004602:	bf00      	nop
 8004604:	687b      	ldr	r3, [r7, #4]
 8004606:	22ff      	movs	r2, #255	; 0xff
 8004608:	f883 2044 	strb.w	r2, [r3, #68]	; 0x44
 800460c:	f7fe ff86 	bl	800351c <vPortExitCritical>
 8004610:	bf00      	nop
 8004612:	3710      	adds	r7, #16
 8004614:	46bd      	mov	sp, r7
 8004616:	bd80      	pop	{r7, pc}

08004618 <prvIsQueueEmpty>:
 8004618:	b580      	push	{r7, lr}
 800461a:	b084      	sub	sp, #16
 800461c:	af00      	add	r7, sp, #0
 800461e:	6078      	str	r0, [r7, #4]
 8004620:	f7fe ff52 	bl	80034c8 <vPortEnterCritical>
 8004624:	687b      	ldr	r3, [r7, #4]
 8004626:	6b9b      	ldr	r3, [r3, #56]	; 0x38
 8004628:	2b00      	cmp	r3, #0
 800462a:	d102      	bne.n	8004632 <prvIsQueueEmpty+0x1a>
 800462c:	2301      	movs	r3, #1
 800462e:	60fb      	str	r3, [r7, #12]
 8004630:	e001      	b.n	8004636 <prvIsQueueEmpty+0x1e>
 8004632:	2300      	movs	r3, #0
 8004634:	60fb      	str	r3, [r7, #12]
 8004636:	f7fe ff71 	bl	800351c <vPortExitCritical>
 800463a:	68fb      	ldr	r3, [r7, #12]
 800463c:	4618      	mov	r0, r3
 800463e:	3710      	adds	r7, #16
 8004640:	46bd      	mov	sp, r7
 8004642:	bd80      	pop	{r7, pc}

08004644 <prvIsQueueFull>:
 8004644:	b580      	push	{r7, lr}
 8004646:	b084      	sub	sp, #16
 8004648:	af00      	add	r7, sp, #0
 800464a:	6078      	str	r0, [r7, #4]
 800464c:	f7fe ff3c 	bl	80034c8 <vPortEnterCritical>
 8004650:	687b      	ldr	r3, [r7, #4]
 8004652:	6b9a      	ldr	r2, [r3, #56]	; 0x38
 8004654:	687b      	ldr	r3, [r7, #4]
 8004656:	6bdb      	ldr	r3, [r3, #60]	; 0x3c
 8004658:	429a      	cmp	r2, r3
 800465a:	d102      	bne.n	8004662 <prvIsQueueFull+0x1e>
 800465c:	2301      	movs	r3, #1
 800465e:	60fb      	str	r3, [r7, #12]
 8004660:	e001      	b.n	8004666 <prvIsQueueFull+0x22>
 8004662:	2300      	movs	r3, #0
 8004664:	60fb      	str	r3, [r7, #12]
 8004666:	f7fe ff59 	bl	800351c <vPortExitCritical>
 800466a:	68fb      	ldr	r3, [r7, #12]
 800466c:	4618      	mov	r0, r3
 800466e:	3710      	adds	r7, #16
 8004670:	46bd      	mov	sp, r7
 8004672:	bd80      	pop	{r7, pc}

08004674 <vQueueAddToRegistry>:
 8004674:	b580      	push	{r7, lr}
 8004676:	b084      	sub	sp, #16
 8004678:	af00      	add	r7, sp, #0
 800467a:	6078      	str	r0, [r7, #4]
 800467c:	6039      	str	r1, [r7, #0]
 800467e:	2300      	movs	r3, #0
 8004680:	60bb      	str	r3, [r7, #8]
 8004682:	687b      	ldr	r3, [r7, #4]
 8004684:	2b00      	cmp	r3, #0
 8004686:	d104      	bne.n	8004692 <vQueueAddToRegistry+0x1e>
 8004688:	491c      	ldr	r1, [pc, #112]	; (80046fc <vQueueAddToRegistry+0x88>)
 800468a:	f640 20e1 	movw	r0, #2785	; 0xae1
 800468e:	f001 fc1a 	bl	8005ec6 <vAssertCalled>
 8004692:	683b      	ldr	r3, [r7, #0]
 8004694:	2b00      	cmp	r3, #0
 8004696:	d024      	beq.n	80046e2 <vQueueAddToRegistry+0x6e>
 8004698:	2300      	movs	r3, #0
 800469a:	60fb      	str	r3, [r7, #12]
 800469c:	e01e      	b.n	80046dc <vQueueAddToRegistry+0x68>
 800469e:	4a18      	ldr	r2, [pc, #96]	; (8004700 <vQueueAddToRegistry+0x8c>)
 80046a0:	68fb      	ldr	r3, [r7, #12]
 80046a2:	00db      	lsls	r3, r3, #3
 80046a4:	4413      	add	r3, r2
 80046a6:	685b      	ldr	r3, [r3, #4]
 80046a8:	687a      	ldr	r2, [r7, #4]
 80046aa:	429a      	cmp	r2, r3
 80046ac:	d105      	bne.n	80046ba <vQueueAddToRegistry+0x46>
 80046ae:	68fb      	ldr	r3, [r7, #12]
 80046b0:	00db      	lsls	r3, r3, #3
 80046b2:	4a13      	ldr	r2, [pc, #76]	; (8004700 <vQueueAddToRegistry+0x8c>)
 80046b4:	4413      	add	r3, r2
 80046b6:	60bb      	str	r3, [r7, #8]
 80046b8:	e013      	b.n	80046e2 <vQueueAddToRegistry+0x6e>
 80046ba:	68bb      	ldr	r3, [r7, #8]
 80046bc:	2b00      	cmp	r3, #0
 80046be:	d10a      	bne.n	80046d6 <vQueueAddToRegistry+0x62>
 80046c0:	4a0f      	ldr	r2, [pc, #60]	; (8004700 <vQueueAddToRegistry+0x8c>)
 80046c2:	68fb      	ldr	r3, [r7, #12]
 80046c4:	f852 3033 	ldr.w	r3, [r2, r3, lsl #3]
 80046c8:	2b00      	cmp	r3, #0
 80046ca:	d104      	bne.n	80046d6 <vQueueAddToRegistry+0x62>
 80046cc:	68fb      	ldr	r3, [r7, #12]
 80046ce:	00db      	lsls	r3, r3, #3
 80046d0:	4a0b      	ldr	r2, [pc, #44]	; (8004700 <vQueueAddToRegistry+0x8c>)
 80046d2:	4413      	add	r3, r2
 80046d4:	60bb      	str	r3, [r7, #8]
 80046d6:	68fb      	ldr	r3, [r7, #12]
 80046d8:	3301      	adds	r3, #1
 80046da:	60fb      	str	r3, [r7, #12]
 80046dc:	68fb      	ldr	r3, [r7, #12]
 80046de:	2b04      	cmp	r3, #4
 80046e0:	d9dd      	bls.n	800469e <vQueueAddToRegistry+0x2a>
 80046e2:	68bb      	ldr	r3, [r7, #8]
 80046e4:	2b00      	cmp	r3, #0
 80046e6:	d005      	beq.n	80046f4 <vQueueAddToRegistry+0x80>
 80046e8:	68bb      	ldr	r3, [r7, #8]
 80046ea:	683a      	ldr	r2, [r7, #0]
 80046ec:	601a      	str	r2, [r3, #0]
 80046ee:	68bb      	ldr	r3, [r7, #8]
 80046f0:	687a      	ldr	r2, [r7, #4]
 80046f2:	605a      	str	r2, [r3, #4]
 80046f4:	bf00      	nop
 80046f6:	3710      	adds	r7, #16
 80046f8:	46bd      	mov	sp, r7
 80046fa:	bd80      	pop	{r7, pc}
 80046fc:	0800a0b4 	.word	0x0800a0b4
 8004700:	20000168 	.word	0x20000168

08004704 <vQueueWaitForMessageRestricted>:
 8004704:	b580      	push	{r7, lr}
 8004706:	b086      	sub	sp, #24
 8004708:	af00      	add	r7, sp, #0
 800470a:	60f8      	str	r0, [r7, #12]
 800470c:	60b9      	str	r1, [r7, #8]
 800470e:	607a      	str	r2, [r7, #4]
 8004710:	68fb      	ldr	r3, [r7, #12]
 8004712:	617b      	str	r3, [r7, #20]
 8004714:	f7fe fed8 	bl	80034c8 <vPortEnterCritical>
 8004718:	697b      	ldr	r3, [r7, #20]
 800471a:	f893 3044 	ldrb.w	r3, [r3, #68]	; 0x44
 800471e:	b25b      	sxtb	r3, r3
 8004720:	f1b3 3fff 	cmp.w	r3, #4294967295
 8004724:	d103      	bne.n	800472e <vQueueWaitForMessageRestricted+0x2a>
 8004726:	697b      	ldr	r3, [r7, #20]
 8004728:	2200      	movs	r2, #0
 800472a:	f883 2044 	strb.w	r2, [r3, #68]	; 0x44
 800472e:	697b      	ldr	r3, [r7, #20]
 8004730:	f893 3045 	ldrb.w	r3, [r3, #69]	; 0x45
 8004734:	b25b      	sxtb	r3, r3
 8004736:	f1b3 3fff 	cmp.w	r3, #4294967295
 800473a:	d103      	bne.n	8004744 <vQueueWaitForMessageRestricted+0x40>
 800473c:	697b      	ldr	r3, [r7, #20]
 800473e:	2200      	movs	r2, #0
 8004740:	f883 2045 	strb.w	r2, [r3, #69]	; 0x45
 8004744:	f7fe feea 	bl	800351c <vPortExitCritical>
 8004748:	697b      	ldr	r3, [r7, #20]
 800474a:	6b9b      	ldr	r3, [r3, #56]	; 0x38
 800474c:	2b00      	cmp	r3, #0
 800474e:	d106      	bne.n	800475e <vQueueWaitForMessageRestricted+0x5a>
 8004750:	697b      	ldr	r3, [r7, #20]
 8004752:	3324      	adds	r3, #36	; 0x24
 8004754:	687a      	ldr	r2, [r7, #4]
 8004756:	68b9      	ldr	r1, [r7, #8]
 8004758:	4618      	mov	r0, r3
 800475a:	f7fe f801 	bl	8002760 <vTaskPlaceOnEventListRestricted>
 800475e:	6978      	ldr	r0, [r7, #20]
 8004760:	f7ff ff08 	bl	8004574 <prvUnlockQueue>
 8004764:	bf00      	nop
 8004766:	3718      	adds	r7, #24
 8004768:	46bd      	mov	sp, r7
 800476a:	bd80      	pop	{r7, pc}

0800476c <pvPortMalloc>:
 800476c:	b580      	push	{r7, lr}
 800476e:	b088      	sub	sp, #32
 8004770:	af00      	add	r7, sp, #0
 8004772:	6078      	str	r0, [r7, #4]
 8004774:	2300      	movs	r3, #0
 8004776:	617b      	str	r3, [r7, #20]
 8004778:	f7fd fd22 	bl	80021c0 <vTaskSuspendAll>
 800477c:	4b4c      	ldr	r3, [pc, #304]	; (80048b0 <pvPortMalloc+0x144>)
 800477e:	681b      	ldr	r3, [r3, #0]
 8004780:	2b00      	cmp	r3, #0
 8004782:	d101      	bne.n	8004788 <pvPortMalloc+0x1c>
 8004784:	f000 f8f2 	bl	800496c <prvHeapInit>
 8004788:	687b      	ldr	r3, [r7, #4]
 800478a:	2b00      	cmp	r3, #0
 800478c:	d012      	beq.n	80047b4 <pvPortMalloc+0x48>
 800478e:	2208      	movs	r2, #8
 8004790:	687b      	ldr	r3, [r7, #4]
 8004792:	f003 0307 	and.w	r3, r3, #7
 8004796:	1ad3      	subs	r3, r2, r3
 8004798:	3308      	adds	r3, #8
 800479a:	613b      	str	r3, [r7, #16]
 800479c:	693b      	ldr	r3, [r7, #16]
 800479e:	43db      	mvns	r3, r3
 80047a0:	687a      	ldr	r2, [r7, #4]
 80047a2:	429a      	cmp	r2, r3
 80047a4:	d804      	bhi.n	80047b0 <pvPortMalloc+0x44>
 80047a6:	687a      	ldr	r2, [r7, #4]
 80047a8:	693b      	ldr	r3, [r7, #16]
 80047aa:	4413      	add	r3, r2
 80047ac:	607b      	str	r3, [r7, #4]
 80047ae:	e001      	b.n	80047b4 <pvPortMalloc+0x48>
 80047b0:	2300      	movs	r3, #0
 80047b2:	607b      	str	r3, [r7, #4]
 80047b4:	687b      	ldr	r3, [r7, #4]
 80047b6:	2b00      	cmp	r3, #0
 80047b8:	db69      	blt.n	800488e <pvPortMalloc+0x122>
 80047ba:	687b      	ldr	r3, [r7, #4]
 80047bc:	2b00      	cmp	r3, #0
 80047be:	d066      	beq.n	800488e <pvPortMalloc+0x122>
 80047c0:	4b3c      	ldr	r3, [pc, #240]	; (80048b4 <pvPortMalloc+0x148>)
 80047c2:	681b      	ldr	r3, [r3, #0]
 80047c4:	687a      	ldr	r2, [r7, #4]
 80047c6:	429a      	cmp	r2, r3
 80047c8:	d861      	bhi.n	800488e <pvPortMalloc+0x122>
 80047ca:	4b3b      	ldr	r3, [pc, #236]	; (80048b8 <pvPortMalloc+0x14c>)
 80047cc:	61bb      	str	r3, [r7, #24]
 80047ce:	4b3a      	ldr	r3, [pc, #232]	; (80048b8 <pvPortMalloc+0x14c>)
 80047d0:	681b      	ldr	r3, [r3, #0]
 80047d2:	61fb      	str	r3, [r7, #28]
 80047d4:	e004      	b.n	80047e0 <pvPortMalloc+0x74>
 80047d6:	69fb      	ldr	r3, [r7, #28]
 80047d8:	61bb      	str	r3, [r7, #24]
 80047da:	69fb      	ldr	r3, [r7, #28]
 80047dc:	681b      	ldr	r3, [r3, #0]
 80047de:	61fb      	str	r3, [r7, #28]
 80047e0:	69fb      	ldr	r3, [r7, #28]
 80047e2:	685b      	ldr	r3, [r3, #4]
 80047e4:	687a      	ldr	r2, [r7, #4]
 80047e6:	429a      	cmp	r2, r3
 80047e8:	d903      	bls.n	80047f2 <pvPortMalloc+0x86>
 80047ea:	69fb      	ldr	r3, [r7, #28]
 80047ec:	681b      	ldr	r3, [r3, #0]
 80047ee:	2b00      	cmp	r3, #0
 80047f0:	d1f1      	bne.n	80047d6 <pvPortMalloc+0x6a>
 80047f2:	4b2f      	ldr	r3, [pc, #188]	; (80048b0 <pvPortMalloc+0x144>)
 80047f4:	681b      	ldr	r3, [r3, #0]
 80047f6:	69fa      	ldr	r2, [r7, #28]
 80047f8:	429a      	cmp	r2, r3
 80047fa:	d048      	beq.n	800488e <pvPortMalloc+0x122>
 80047fc:	69bb      	ldr	r3, [r7, #24]
 80047fe:	681b      	ldr	r3, [r3, #0]
 8004800:	2208      	movs	r2, #8
 8004802:	4413      	add	r3, r2
 8004804:	617b      	str	r3, [r7, #20]
 8004806:	69fb      	ldr	r3, [r7, #28]
 8004808:	681a      	ldr	r2, [r3, #0]
 800480a:	69bb      	ldr	r3, [r7, #24]
 800480c:	601a      	str	r2, [r3, #0]
 800480e:	69fb      	ldr	r3, [r7, #28]
 8004810:	685a      	ldr	r2, [r3, #4]
 8004812:	687b      	ldr	r3, [r7, #4]
 8004814:	1ad2      	subs	r2, r2, r3
 8004816:	2308      	movs	r3, #8
 8004818:	005b      	lsls	r3, r3, #1
 800481a:	429a      	cmp	r2, r3
 800481c:	d918      	bls.n	8004850 <pvPortMalloc+0xe4>
 800481e:	69fa      	ldr	r2, [r7, #28]
 8004820:	687b      	ldr	r3, [r7, #4]
 8004822:	4413      	add	r3, r2
 8004824:	60fb      	str	r3, [r7, #12]
 8004826:	68fb      	ldr	r3, [r7, #12]
 8004828:	f003 0307 	and.w	r3, r3, #7
 800482c:	2b00      	cmp	r3, #0
 800482e:	d003      	beq.n	8004838 <pvPortMalloc+0xcc>
 8004830:	4922      	ldr	r1, [pc, #136]	; (80048bc <pvPortMalloc+0x150>)
 8004832:	20d9      	movs	r0, #217	; 0xd9
 8004834:	f001 fb47 	bl	8005ec6 <vAssertCalled>
 8004838:	69fb      	ldr	r3, [r7, #28]
 800483a:	685a      	ldr	r2, [r3, #4]
 800483c:	687b      	ldr	r3, [r7, #4]
 800483e:	1ad2      	subs	r2, r2, r3
 8004840:	68fb      	ldr	r3, [r7, #12]
 8004842:	605a      	str	r2, [r3, #4]
 8004844:	69fb      	ldr	r3, [r7, #28]
 8004846:	687a      	ldr	r2, [r7, #4]
 8004848:	605a      	str	r2, [r3, #4]
 800484a:	68f8      	ldr	r0, [r7, #12]
 800484c:	f000 f8ea 	bl	8004a24 <prvInsertBlockIntoFreeList>
 8004850:	4b18      	ldr	r3, [pc, #96]	; (80048b4 <pvPortMalloc+0x148>)
 8004852:	681a      	ldr	r2, [r3, #0]
 8004854:	69fb      	ldr	r3, [r7, #28]
 8004856:	685b      	ldr	r3, [r3, #4]
 8004858:	1ad3      	subs	r3, r2, r3
 800485a:	4a16      	ldr	r2, [pc, #88]	; (80048b4 <pvPortMalloc+0x148>)
 800485c:	6013      	str	r3, [r2, #0]
 800485e:	4b15      	ldr	r3, [pc, #84]	; (80048b4 <pvPortMalloc+0x148>)
 8004860:	681a      	ldr	r2, [r3, #0]
 8004862:	4b17      	ldr	r3, [pc, #92]	; (80048c0 <pvPortMalloc+0x154>)
 8004864:	681b      	ldr	r3, [r3, #0]
 8004866:	429a      	cmp	r2, r3
 8004868:	d203      	bcs.n	8004872 <pvPortMalloc+0x106>
 800486a:	4b12      	ldr	r3, [pc, #72]	; (80048b4 <pvPortMalloc+0x148>)
 800486c:	681b      	ldr	r3, [r3, #0]
 800486e:	4a14      	ldr	r2, [pc, #80]	; (80048c0 <pvPortMalloc+0x154>)
 8004870:	6013      	str	r3, [r2, #0]
 8004872:	69fb      	ldr	r3, [r7, #28]
 8004874:	685b      	ldr	r3, [r3, #4]
 8004876:	f043 4200 	orr.w	r2, r3, #2147483648	; 0x80000000
 800487a:	69fb      	ldr	r3, [r7, #28]
 800487c:	605a      	str	r2, [r3, #4]
 800487e:	69fb      	ldr	r3, [r7, #28]
 8004880:	2200      	movs	r2, #0
 8004882:	601a      	str	r2, [r3, #0]
 8004884:	4b0f      	ldr	r3, [pc, #60]	; (80048c4 <pvPortMalloc+0x158>)
 8004886:	681b      	ldr	r3, [r3, #0]
 8004888:	3301      	adds	r3, #1
 800488a:	4a0e      	ldr	r2, [pc, #56]	; (80048c4 <pvPortMalloc+0x158>)
 800488c:	6013      	str	r3, [r2, #0]
 800488e:	f7fd fca5 	bl	80021dc <xTaskResumeAll>
 8004892:	697b      	ldr	r3, [r7, #20]
 8004894:	f003 0307 	and.w	r3, r3, #7
 8004898:	2b00      	cmp	r3, #0
 800489a:	d004      	beq.n	80048a6 <pvPortMalloc+0x13a>
 800489c:	4907      	ldr	r1, [pc, #28]	; (80048bc <pvPortMalloc+0x150>)
 800489e:	f240 1019 	movw	r0, #281	; 0x119
 80048a2:	f001 fb10 	bl	8005ec6 <vAssertCalled>
 80048a6:	697b      	ldr	r3, [r7, #20]
 80048a8:	4618      	mov	r0, r3
 80048aa:	3720      	adds	r7, #32
 80048ac:	46bd      	mov	sp, r7
 80048ae:	bd80      	pop	{r7, pc}
 80048b0:	20003d98 	.word	0x20003d98
 80048b4:	20003d9c 	.word	0x20003d9c
 80048b8:	20003d90 	.word	0x20003d90
 80048bc:	0800a0cc 	.word	0x0800a0cc
 80048c0:	20003da0 	.word	0x20003da0
 80048c4:	20003da4 	.word	0x20003da4

080048c8 <vPortFree>:
 80048c8:	b580      	push	{r7, lr}
 80048ca:	b084      	sub	sp, #16
 80048cc:	af00      	add	r7, sp, #0
 80048ce:	6078      	str	r0, [r7, #4]
 80048d0:	687b      	ldr	r3, [r7, #4]
 80048d2:	60fb      	str	r3, [r7, #12]
 80048d4:	687b      	ldr	r3, [r7, #4]
 80048d6:	2b00      	cmp	r3, #0
 80048d8:	d03d      	beq.n	8004956 <vPortFree+0x8e>
 80048da:	2308      	movs	r3, #8
 80048dc:	425b      	negs	r3, r3
 80048de:	68fa      	ldr	r2, [r7, #12]
 80048e0:	4413      	add	r3, r2
 80048e2:	60fb      	str	r3, [r7, #12]
 80048e4:	68fb      	ldr	r3, [r7, #12]
 80048e6:	60bb      	str	r3, [r7, #8]
 80048e8:	68bb      	ldr	r3, [r7, #8]
 80048ea:	685b      	ldr	r3, [r3, #4]
 80048ec:	2b00      	cmp	r3, #0
 80048ee:	db04      	blt.n	80048fa <vPortFree+0x32>
 80048f0:	491b      	ldr	r1, [pc, #108]	; (8004960 <vPortFree+0x98>)
 80048f2:	f44f 7096 	mov.w	r0, #300	; 0x12c
 80048f6:	f001 fae6 	bl	8005ec6 <vAssertCalled>
 80048fa:	68bb      	ldr	r3, [r7, #8]
 80048fc:	681b      	ldr	r3, [r3, #0]
 80048fe:	2b00      	cmp	r3, #0
 8004900:	d004      	beq.n	800490c <vPortFree+0x44>
 8004902:	4917      	ldr	r1, [pc, #92]	; (8004960 <vPortFree+0x98>)
 8004904:	f240 102d 	movw	r0, #301	; 0x12d
 8004908:	f001 fadd 	bl	8005ec6 <vAssertCalled>
 800490c:	68bb      	ldr	r3, [r7, #8]
 800490e:	685b      	ldr	r3, [r3, #4]
 8004910:	0fdb      	lsrs	r3, r3, #31
 8004912:	f003 0301 	and.w	r3, r3, #1
 8004916:	b2db      	uxtb	r3, r3
 8004918:	2b00      	cmp	r3, #0
 800491a:	d01c      	beq.n	8004956 <vPortFree+0x8e>
 800491c:	68bb      	ldr	r3, [r7, #8]
 800491e:	681b      	ldr	r3, [r3, #0]
 8004920:	2b00      	cmp	r3, #0
 8004922:	d118      	bne.n	8004956 <vPortFree+0x8e>
 8004924:	68bb      	ldr	r3, [r7, #8]
 8004926:	685b      	ldr	r3, [r3, #4]
 8004928:	f023 4200 	bic.w	r2, r3, #2147483648	; 0x80000000
 800492c:	68bb      	ldr	r3, [r7, #8]
 800492e:	605a      	str	r2, [r3, #4]
 8004930:	f7fd fc46 	bl	80021c0 <vTaskSuspendAll>
 8004934:	68bb      	ldr	r3, [r7, #8]
 8004936:	685a      	ldr	r2, [r3, #4]
 8004938:	4b0a      	ldr	r3, [pc, #40]	; (8004964 <vPortFree+0x9c>)
 800493a:	681b      	ldr	r3, [r3, #0]
 800493c:	4413      	add	r3, r2
 800493e:	4a09      	ldr	r2, [pc, #36]	; (8004964 <vPortFree+0x9c>)
 8004940:	6013      	str	r3, [r2, #0]
 8004942:	68b8      	ldr	r0, [r7, #8]
 8004944:	f000 f86e 	bl	8004a24 <prvInsertBlockIntoFreeList>
 8004948:	4b07      	ldr	r3, [pc, #28]	; (8004968 <vPortFree+0xa0>)
 800494a:	681b      	ldr	r3, [r3, #0]
 800494c:	3301      	adds	r3, #1
 800494e:	4a06      	ldr	r2, [pc, #24]	; (8004968 <vPortFree+0xa0>)
 8004950:	6013      	str	r3, [r2, #0]
 8004952:	f7fd fc43 	bl	80021dc <xTaskResumeAll>
 8004956:	bf00      	nop
 8004958:	3710      	adds	r7, #16
 800495a:	46bd      	mov	sp, r7
 800495c:	bd80      	pop	{r7, pc}
 800495e:	bf00      	nop
 8004960:	0800a0cc 	.word	0x0800a0cc
 8004964:	20003d9c 	.word	0x20003d9c
 8004968:	20003da8 	.word	0x20003da8

0800496c <prvHeapInit>:
 800496c:	b480      	push	{r7}
 800496e:	b085      	sub	sp, #20
 8004970:	af00      	add	r7, sp, #0
 8004972:	f44f 5370 	mov.w	r3, #15360	; 0x3c00
 8004976:	60bb      	str	r3, [r7, #8]
 8004978:	4b25      	ldr	r3, [pc, #148]	; (8004a10 <prvHeapInit+0xa4>)
 800497a:	60fb      	str	r3, [r7, #12]
 800497c:	68fb      	ldr	r3, [r7, #12]
 800497e:	f003 0307 	and.w	r3, r3, #7
 8004982:	2b00      	cmp	r3, #0
 8004984:	d00c      	beq.n	80049a0 <prvHeapInit+0x34>
 8004986:	68fb      	ldr	r3, [r7, #12]
 8004988:	3307      	adds	r3, #7
 800498a:	60fb      	str	r3, [r7, #12]
 800498c:	68fb      	ldr	r3, [r7, #12]
 800498e:	f023 0307 	bic.w	r3, r3, #7
 8004992:	60fb      	str	r3, [r7, #12]
 8004994:	68ba      	ldr	r2, [r7, #8]
 8004996:	68fb      	ldr	r3, [r7, #12]
 8004998:	1ad3      	subs	r3, r2, r3
 800499a:	4a1d      	ldr	r2, [pc, #116]	; (8004a10 <prvHeapInit+0xa4>)
 800499c:	4413      	add	r3, r2
 800499e:	60bb      	str	r3, [r7, #8]
 80049a0:	68fb      	ldr	r3, [r7, #12]
 80049a2:	607b      	str	r3, [r7, #4]
 80049a4:	4a1b      	ldr	r2, [pc, #108]	; (8004a14 <prvHeapInit+0xa8>)
 80049a6:	687b      	ldr	r3, [r7, #4]
 80049a8:	6013      	str	r3, [r2, #0]
 80049aa:	4b1a      	ldr	r3, [pc, #104]	; (8004a14 <prvHeapInit+0xa8>)
 80049ac:	2200      	movs	r2, #0
 80049ae:	605a      	str	r2, [r3, #4]
 80049b0:	687b      	ldr	r3, [r7, #4]
 80049b2:	68ba      	ldr	r2, [r7, #8]
 80049b4:	4413      	add	r3, r2
 80049b6:	60fb      	str	r3, [r7, #12]
 80049b8:	2208      	movs	r2, #8
 80049ba:	68fb      	ldr	r3, [r7, #12]
 80049bc:	1a9b      	subs	r3, r3, r2
 80049be:	60fb      	str	r3, [r7, #12]
 80049c0:	68fb      	ldr	r3, [r7, #12]
 80049c2:	f023 0307 	bic.w	r3, r3, #7
 80049c6:	60fb      	str	r3, [r7, #12]
 80049c8:	68fb      	ldr	r3, [r7, #12]
 80049ca:	4a13      	ldr	r2, [pc, #76]	; (8004a18 <prvHeapInit+0xac>)
 80049cc:	6013      	str	r3, [r2, #0]
 80049ce:	4b12      	ldr	r3, [pc, #72]	; (8004a18 <prvHeapInit+0xac>)
 80049d0:	681b      	ldr	r3, [r3, #0]
 80049d2:	2200      	movs	r2, #0
 80049d4:	605a      	str	r2, [r3, #4]
 80049d6:	4b10      	ldr	r3, [pc, #64]	; (8004a18 <prvHeapInit+0xac>)
 80049d8:	681b      	ldr	r3, [r3, #0]
 80049da:	2200      	movs	r2, #0
 80049dc:	601a      	str	r2, [r3, #0]
 80049de:	687b      	ldr	r3, [r7, #4]
 80049e0:	603b      	str	r3, [r7, #0]
 80049e2:	683b      	ldr	r3, [r7, #0]
 80049e4:	68fa      	ldr	r2, [r7, #12]
 80049e6:	1ad2      	subs	r2, r2, r3
 80049e8:	683b      	ldr	r3, [r7, #0]
 80049ea:	605a      	str	r2, [r3, #4]
 80049ec:	4b0a      	ldr	r3, [pc, #40]	; (8004a18 <prvHeapInit+0xac>)
 80049ee:	681a      	ldr	r2, [r3, #0]
 80049f0:	683b      	ldr	r3, [r7, #0]
 80049f2:	601a      	str	r2, [r3, #0]
 80049f4:	683b      	ldr	r3, [r7, #0]
 80049f6:	685b      	ldr	r3, [r3, #4]
 80049f8:	4a08      	ldr	r2, [pc, #32]	; (8004a1c <prvHeapInit+0xb0>)
 80049fa:	6013      	str	r3, [r2, #0]
 80049fc:	683b      	ldr	r3, [r7, #0]
 80049fe:	685b      	ldr	r3, [r3, #4]
 8004a00:	4a07      	ldr	r2, [pc, #28]	; (8004a20 <prvHeapInit+0xb4>)
 8004a02:	6013      	str	r3, [r2, #0]
 8004a04:	bf00      	nop
 8004a06:	3714      	adds	r7, #20
 8004a08:	46bd      	mov	sp, r7
 8004a0a:	f85d 7b04 	ldr.w	r7, [sp], #4
 8004a0e:	4770      	bx	lr
 8004a10:	20000190 	.word	0x20000190
 8004a14:	20003d90 	.word	0x20003d90
 8004a18:	20003d98 	.word	0x20003d98
 8004a1c:	20003da0 	.word	0x20003da0
 8004a20:	20003d9c 	.word	0x20003d9c

08004a24 <prvInsertBlockIntoFreeList>:
 8004a24:	b480      	push	{r7}
 8004a26:	b085      	sub	sp, #20
 8004a28:	af00      	add	r7, sp, #0
 8004a2a:	6078      	str	r0, [r7, #4]
 8004a2c:	4b28      	ldr	r3, [pc, #160]	; (8004ad0 <prvInsertBlockIntoFreeList+0xac>)
 8004a2e:	60fb      	str	r3, [r7, #12]
 8004a30:	e002      	b.n	8004a38 <prvInsertBlockIntoFreeList+0x14>
 8004a32:	68fb      	ldr	r3, [r7, #12]
 8004a34:	681b      	ldr	r3, [r3, #0]
 8004a36:	60fb      	str	r3, [r7, #12]
 8004a38:	68fb      	ldr	r3, [r7, #12]
 8004a3a:	681b      	ldr	r3, [r3, #0]
 8004a3c:	687a      	ldr	r2, [r7, #4]
 8004a3e:	429a      	cmp	r2, r3
 8004a40:	d8f7      	bhi.n	8004a32 <prvInsertBlockIntoFreeList+0xe>
 8004a42:	68fb      	ldr	r3, [r7, #12]
 8004a44:	60bb      	str	r3, [r7, #8]
 8004a46:	68fb      	ldr	r3, [r7, #12]
 8004a48:	685b      	ldr	r3, [r3, #4]
 8004a4a:	68ba      	ldr	r2, [r7, #8]
 8004a4c:	4413      	add	r3, r2
 8004a4e:	687a      	ldr	r2, [r7, #4]
 8004a50:	429a      	cmp	r2, r3
 8004a52:	d108      	bne.n	8004a66 <prvInsertBlockIntoFreeList+0x42>
 8004a54:	68fb      	ldr	r3, [r7, #12]
 8004a56:	685a      	ldr	r2, [r3, #4]
 8004a58:	687b      	ldr	r3, [r7, #4]
 8004a5a:	685b      	ldr	r3, [r3, #4]
 8004a5c:	441a      	add	r2, r3
 8004a5e:	68fb      	ldr	r3, [r7, #12]
 8004a60:	605a      	str	r2, [r3, #4]
 8004a62:	68fb      	ldr	r3, [r7, #12]
 8004a64:	607b      	str	r3, [r7, #4]
 8004a66:	687b      	ldr	r3, [r7, #4]
 8004a68:	60bb      	str	r3, [r7, #8]
 8004a6a:	687b      	ldr	r3, [r7, #4]
 8004a6c:	685b      	ldr	r3, [r3, #4]
 8004a6e:	68ba      	ldr	r2, [r7, #8]
 8004a70:	441a      	add	r2, r3
 8004a72:	68fb      	ldr	r3, [r7, #12]
 8004a74:	681b      	ldr	r3, [r3, #0]
 8004a76:	429a      	cmp	r2, r3
 8004a78:	d118      	bne.n	8004aac <prvInsertBlockIntoFreeList+0x88>
 8004a7a:	68fb      	ldr	r3, [r7, #12]
 8004a7c:	681a      	ldr	r2, [r3, #0]
 8004a7e:	4b15      	ldr	r3, [pc, #84]	; (8004ad4 <prvInsertBlockIntoFreeList+0xb0>)
 8004a80:	681b      	ldr	r3, [r3, #0]
 8004a82:	429a      	cmp	r2, r3
 8004a84:	d00d      	beq.n	8004aa2 <prvInsertBlockIntoFreeList+0x7e>
 8004a86:	687b      	ldr	r3, [r7, #4]
 8004a88:	685a      	ldr	r2, [r3, #4]
 8004a8a:	68fb      	ldr	r3, [r7, #12]
 8004a8c:	681b      	ldr	r3, [r3, #0]
 8004a8e:	685b      	ldr	r3, [r3, #4]
 8004a90:	441a      	add	r2, r3
 8004a92:	687b      	ldr	r3, [r7, #4]
 8004a94:	605a      	str	r2, [r3, #4]
 8004a96:	68fb      	ldr	r3, [r7, #12]
 8004a98:	681b      	ldr	r3, [r3, #0]
 8004a9a:	681a      	ldr	r2, [r3, #0]
 8004a9c:	687b      	ldr	r3, [r7, #4]
 8004a9e:	601a      	str	r2, [r3, #0]
 8004aa0:	e008      	b.n	8004ab4 <prvInsertBlockIntoFreeList+0x90>
 8004aa2:	4b0c      	ldr	r3, [pc, #48]	; (8004ad4 <prvInsertBlockIntoFreeList+0xb0>)
 8004aa4:	681a      	ldr	r2, [r3, #0]
 8004aa6:	687b      	ldr	r3, [r7, #4]
 8004aa8:	601a      	str	r2, [r3, #0]
 8004aaa:	e003      	b.n	8004ab4 <prvInsertBlockIntoFreeList+0x90>
 8004aac:	68fb      	ldr	r3, [r7, #12]
 8004aae:	681a      	ldr	r2, [r3, #0]
 8004ab0:	687b      	ldr	r3, [r7, #4]
 8004ab2:	601a      	str	r2, [r3, #0]
 8004ab4:	68fa      	ldr	r2, [r7, #12]
 8004ab6:	687b      	ldr	r3, [r7, #4]
 8004ab8:	429a      	cmp	r2, r3
 8004aba:	d002      	beq.n	8004ac2 <prvInsertBlockIntoFreeList+0x9e>
 8004abc:	68fb      	ldr	r3, [r7, #12]
 8004abe:	687a      	ldr	r2, [r7, #4]
 8004ac0:	601a      	str	r2, [r3, #0]
 8004ac2:	bf00      	nop
 8004ac4:	3714      	adds	r7, #20
 8004ac6:	46bd      	mov	sp, r7
 8004ac8:	f85d 7b04 	ldr.w	r7, [sp], #4
 8004acc:	4770      	bx	lr
 8004ace:	bf00      	nop
 8004ad0:	20003d90 	.word	0x20003d90
 8004ad4:	20003d98 	.word	0x20003d98

08004ad8 <_ZN4core4hint21unreachable_unchecked18precondition_check17hcb6e66375a09f6b5E>:
 8004ad8:	b580      	push	{r7, lr}
 8004ada:	466f      	mov	r7, sp
 8004adc:	f24a 00f6 	movw	r0, #41206	; 0xa0f6
 8004ae0:	f6c0 0000 	movt	r0, #2048	; 0x800
 8004ae4:	2152      	movs	r1, #82	; 0x52
 8004ae6:	f002 fc32 	bl	800734e <_ZN4core9panicking14panic_nounwind17ha7168a7a4498f4fbE>

08004aea <_ZN4core4iter5range101_$LT$impl$u20$core..iter..traits..iterator..Iterator$u20$for$u20$core..ops..range..Range$LT$A$GT$$GT$4next17h7194ae6205ca4ad9E>:
 8004aea:	b580      	push	{r7, lr}
 8004aec:	466f      	mov	r7, sp
 8004aee:	b082      	sub	sp, #8
 8004af0:	9001      	str	r0, [sp, #4]
 8004af2:	f000 f810 	bl	8004b16 <_ZN89_$LT$core..ops..range..Range$LT$T$GT$$u20$as$u20$core..iter..range..RangeIteratorImpl$GT$9spec_next17h569a4575359d9f8dE>
 8004af6:	b002      	add	sp, #8
 8004af8:	bd80      	pop	{r7, pc}

08004afa <_ZN50_$LT$T$u20$as$u20$core..convert..Into$LT$U$GT$$GT$4into17h5d55044f6ecd8c13E>:
 8004afa:	b081      	sub	sp, #4
 8004afc:	f88d 0002 	strb.w	r0, [sp, #2]
 8004b00:	f88d 0003 	strb.w	r0, [sp, #3]
 8004b04:	f89d 0003 	ldrb.w	r0, [sp, #3]
 8004b08:	b001      	add	sp, #4
 8004b0a:	4770      	bx	lr

08004b0c <_ZN63_$LT$I$u20$as$u20$core..iter..traits..collect..IntoIterator$GT$9into_iter17hb3d919eba1be5437E>:
 8004b0c:	b082      	sub	sp, #8
 8004b0e:	9000      	str	r0, [sp, #0]
 8004b10:	9101      	str	r1, [sp, #4]
 8004b12:	b002      	add	sp, #8
 8004b14:	4770      	bx	lr

08004b16 <_ZN89_$LT$core..ops..range..Range$LT$T$GT$$u20$as$u20$core..iter..range..RangeIteratorImpl$GT$9spec_next17h569a4575359d9f8dE>:
 8004b16:	b580      	push	{r7, lr}
 8004b18:	466f      	mov	r7, sp
 8004b1a:	b08a      	sub	sp, #40	; 0x28
 8004b1c:	4601      	mov	r1, r0
 8004b1e:	9103      	str	r1, [sp, #12]
 8004b20:	9106      	str	r1, [sp, #24]
 8004b22:	1d08      	adds	r0, r1, #4
 8004b24:	9108      	str	r1, [sp, #32]
 8004b26:	9009      	str	r0, [sp, #36]	; 0x24
 8004b28:	6808      	ldr	r0, [r1, #0]
 8004b2a:	6849      	ldr	r1, [r1, #4]
 8004b2c:	4288      	cmp	r0, r1
 8004b2e:	db03      	blt.n	8004b38 <_ZN89_$LT$core..ops..range..Range$LT$T$GT$$u20$as$u20$core..iter..range..RangeIteratorImpl$GT$9spec_next17h569a4575359d9f8dE+0x22>
 8004b30:	e7ff      	b.n	8004b32 <_ZN89_$LT$core..ops..range..Range$LT$T$GT$$u20$as$u20$core..iter..range..RangeIteratorImpl$GT$9spec_next17h569a4575359d9f8dE+0x1c>
 8004b32:	2000      	movs	r0, #0
 8004b34:	9004      	str	r0, [sp, #16]
 8004b36:	e00f      	b.n	8004b58 <_ZN89_$LT$core..ops..range..Range$LT$T$GT$$u20$as$u20$core..iter..range..RangeIteratorImpl$GT$9spec_next17h569a4575359d9f8dE+0x42>
 8004b38:	9803      	ldr	r0, [sp, #12]
 8004b3a:	6800      	ldr	r0, [r0, #0]
 8004b3c:	9001      	str	r0, [sp, #4]
 8004b3e:	9007      	str	r0, [sp, #28]
 8004b40:	2101      	movs	r1, #1
 8004b42:	9102      	str	r1, [sp, #8]
 8004b44:	f000 f852 	bl	8004bec <_ZN47_$LT$i32$u20$as$u20$core..iter..range..Step$GT$17forward_unchecked17h0b5caaa6eaa6bf90E>
 8004b48:	9b03      	ldr	r3, [sp, #12]
 8004b4a:	9901      	ldr	r1, [sp, #4]
 8004b4c:	4602      	mov	r2, r0
 8004b4e:	9802      	ldr	r0, [sp, #8]
 8004b50:	601a      	str	r2, [r3, #0]
 8004b52:	9105      	str	r1, [sp, #20]
 8004b54:	9004      	str	r0, [sp, #16]
 8004b56:	e7ff      	b.n	8004b58 <_ZN89_$LT$core..ops..range..Range$LT$T$GT$$u20$as$u20$core..iter..range..RangeIteratorImpl$GT$9spec_next17h569a4575359d9f8dE+0x42>
 8004b58:	9804      	ldr	r0, [sp, #16]
 8004b5a:	9905      	ldr	r1, [sp, #20]
 8004b5c:	b00a      	add	sp, #40	; 0x28
 8004b5e:	bd80      	pop	{r7, pc}

08004b60 <_ZN13stm32f4xx_hal4gpio5gpioa84_$LT$impl$u20$stm32f4xx_hal..gpio..GpioExt$u20$for$u20$stm32f4..stm32f401..GPIOA$GT$5split17h849fa236ce594f6bE>:
 8004b60:	b580      	push	{r7, lr}
 8004b62:	466f      	mov	r7, sp
 8004b64:	b08c      	sub	sp, #48	; 0x30
 8004b66:	f643 0000 	movw	r0, #14336	; 0x3800
 8004b6a:	f2c4 0002 	movt	r0, #16386	; 0x4002
 8004b6e:	9002      	str	r0, [sp, #8]
 8004b70:	f643 0030 	movw	r0, #14384	; 0x3830
 8004b74:	f2c4 0002 	movt	r0, #16386	; 0x4002
 8004b78:	9000      	str	r0, [sp, #0]
 8004b7a:	9005      	str	r0, [sp, #20]
 8004b7c:	9007      	str	r0, [sp, #28]
 8004b7e:	9008      	str	r0, [sp, #32]
 8004b80:	f002 f8c9 	bl	8006d16 <_ZN4core3ptr13read_volatile17h9bc3363220c5f51bE>
 8004b84:	9006      	str	r0, [sp, #24]
 8004b86:	9003      	str	r0, [sp, #12]
 8004b88:	9004      	str	r0, [sp, #16]
 8004b8a:	a803      	add	r0, sp, #12
 8004b8c:	a904      	add	r1, sp, #16
 8004b8e:	f000 f872 	bl	8004c76 <_ZN13stm32f4xx_hal4gpio5gpioa84_$LT$impl$u20$stm32f4xx_hal..gpio..GpioExt$u20$for$u20$stm32f4..stm32f401..GPIOA$GT$5split28_$u7b$$u7b$closure$u7d$$u7d$17hae9b65d07727823eE>
 8004b92:	4601      	mov	r1, r0
 8004b94:	9800      	ldr	r0, [sp, #0]
 8004b96:	6809      	ldr	r1, [r1, #0]
 8004b98:	9009      	str	r0, [sp, #36]	; 0x24
 8004b9a:	910a      	str	r1, [sp, #40]	; 0x28
 8004b9c:	900b      	str	r0, [sp, #44]	; 0x2c
 8004b9e:	f001 ff79 	bl	8006a94 <_ZN4core3ptr14write_volatile17hd6de69c464e82e6cE>
 8004ba2:	b00c      	add	sp, #48	; 0x30
 8004ba4:	bd80      	pop	{r7, pc}

08004ba6 <_ZN13stm32f4xx_hal4gpio5gpioc84_$LT$impl$u20$stm32f4xx_hal..gpio..GpioExt$u20$for$u20$stm32f4..stm32f401..GPIOC$GT$5split17h1a97a5526dff3ff9E>:
 8004ba6:	b580      	push	{r7, lr}
 8004ba8:	466f      	mov	r7, sp
 8004baa:	b08c      	sub	sp, #48	; 0x30
 8004bac:	f643 0000 	movw	r0, #14336	; 0x3800
 8004bb0:	f2c4 0002 	movt	r0, #16386	; 0x4002
 8004bb4:	9002      	str	r0, [sp, #8]
 8004bb6:	f643 0030 	movw	r0, #14384	; 0x3830
 8004bba:	f2c4 0002 	movt	r0, #16386	; 0x4002
 8004bbe:	9000      	str	r0, [sp, #0]
 8004bc0:	9005      	str	r0, [sp, #20]
 8004bc2:	9007      	str	r0, [sp, #28]
 8004bc4:	9008      	str	r0, [sp, #32]
 8004bc6:	f002 f8a6 	bl	8006d16 <_ZN4core3ptr13read_volatile17h9bc3363220c5f51bE>
 8004bca:	9006      	str	r0, [sp, #24]
 8004bcc:	9003      	str	r0, [sp, #12]
 8004bce:	9004      	str	r0, [sp, #16]
 8004bd0:	a803      	add	r0, sp, #12
 8004bd2:	a904      	add	r1, sp, #16
 8004bd4:	f000 f83e 	bl	8004c54 <_ZN13stm32f4xx_hal4gpio5gpioc84_$LT$impl$u20$stm32f4xx_hal..gpio..GpioExt$u20$for$u20$stm32f4..stm32f401..GPIOC$GT$5split28_$u7b$$u7b$closure$u7d$$u7d$17h2ee8d1a5a727d20dE>
 8004bd8:	4601      	mov	r1, r0
 8004bda:	9800      	ldr	r0, [sp, #0]
 8004bdc:	6809      	ldr	r1, [r1, #0]
 8004bde:	9009      	str	r0, [sp, #36]	; 0x24
 8004be0:	910a      	str	r1, [sp, #40]	; 0x28
 8004be2:	900b      	str	r0, [sp, #44]	; 0x2c
 8004be4:	f001 ff56 	bl	8006a94 <_ZN4core3ptr14write_volatile17hd6de69c464e82e6cE>
 8004be8:	b00c      	add	sp, #48	; 0x30
 8004bea:	bd80      	pop	{r7, pc}

08004bec <_ZN47_$LT$i32$u20$as$u20$core..iter..range..Step$GT$17forward_unchecked17h0b5caaa6eaa6bf90E>:
 8004bec:	b580      	push	{r7, lr}
 8004bee:	466f      	mov	r7, sp
 8004bf0:	b08a      	sub	sp, #40	; 0x28
 8004bf2:	460a      	mov	r2, r1
 8004bf4:	4603      	mov	r3, r0
 8004bf6:	9303      	str	r3, [sp, #12]
 8004bf8:	9204      	str	r2, [sp, #16]
 8004bfa:	9205      	str	r2, [sp, #20]
 8004bfc:	9206      	str	r2, [sp, #24]
 8004bfe:	1899      	adds	r1, r3, r2
 8004c00:	2001      	movs	r0, #1
 8004c02:	4299      	cmp	r1, r3
 8004c04:	bf78      	it	vc
 8004c06:	2000      	movvc	r0, #0
 8004c08:	460b      	mov	r3, r1
 8004c0a:	9300      	str	r3, [sp, #0]
 8004c0c:	9107      	str	r1, [sp, #28]
 8004c0e:	f807 0c07 	strb.w	r0, [r7, #-7]
 8004c12:	2100      	movs	r1, #0
 8004c14:	2a00      	cmp	r2, #0
 8004c16:	bf48      	it	mi
 8004c18:	2101      	movmi	r1, #1
 8004c1a:	4048      	eors	r0, r1
 8004c1c:	f807 0c06 	strb.w	r0, [r7, #-6]
 8004c20:	f807 0c05 	strb.w	r0, [r7, #-5]
 8004c24:	f817 0c05 	ldrb.w	r0, [r7, #-5]
 8004c28:	07c0      	lsls	r0, r0, #31
 8004c2a:	b940      	cbnz	r0, 8004c3e <_ZN47_$LT$i32$u20$as$u20$core..iter..range..Step$GT$17forward_unchecked17h0b5caaa6eaa6bf90E+0x52>
 8004c2c:	e7ff      	b.n	8004c2e <_ZN47_$LT$i32$u20$as$u20$core..iter..range..Step$GT$17forward_unchecked17h0b5caaa6eaa6bf90E+0x42>
 8004c2e:	9800      	ldr	r0, [sp, #0]
 8004c30:	9002      	str	r0, [sp, #8]
 8004c32:	2001      	movs	r0, #1
 8004c34:	9001      	str	r0, [sp, #4]
 8004c36:	9802      	ldr	r0, [sp, #8]
 8004c38:	9009      	str	r0, [sp, #36]	; 0x24
 8004c3a:	b00a      	add	sp, #40	; 0x28
 8004c3c:	bd80      	pop	{r7, pc}
 8004c3e:	f249 5038 	movw	r0, #38200	; 0x9538
 8004c42:	f6c0 0000 	movt	r0, #2048	; 0x800
 8004c46:	6801      	ldr	r1, [r0, #0]
 8004c48:	6840      	ldr	r0, [r0, #4]
 8004c4a:	9101      	str	r1, [sp, #4]
 8004c4c:	9002      	str	r0, [sp, #8]
 8004c4e:	f7ff ff43 	bl	8004ad8 <_ZN4core4hint21unreachable_unchecked18precondition_check17hcb6e66375a09f6b5E>
 8004c52:	defe      	udf	#254	; 0xfe

08004c54 <_ZN13stm32f4xx_hal4gpio5gpioc84_$LT$impl$u20$stm32f4xx_hal..gpio..GpioExt$u20$for$u20$stm32f4..stm32f401..GPIOC$GT$5split28_$u7b$$u7b$closure$u7d$$u7d$17h2ee8d1a5a727d20dE>:
 8004c54:	b087      	sub	sp, #28
 8004c56:	9001      	str	r0, [sp, #4]
 8004c58:	9102      	str	r1, [sp, #8]
 8004c5a:	9103      	str	r1, [sp, #12]
 8004c5c:	9104      	str	r1, [sp, #16]
 8004c5e:	9105      	str	r1, [sp, #20]
 8004c60:	2001      	movs	r0, #1
 8004c62:	f88d 001b 	strb.w	r0, [sp, #27]
 8004c66:	9905      	ldr	r1, [sp, #20]
 8004c68:	6808      	ldr	r0, [r1, #0]
 8004c6a:	f040 0004 	orr.w	r0, r0, #4
 8004c6e:	6008      	str	r0, [r1, #0]
 8004c70:	9805      	ldr	r0, [sp, #20]
 8004c72:	b007      	add	sp, #28
 8004c74:	4770      	bx	lr

08004c76 <_ZN13stm32f4xx_hal4gpio5gpioa84_$LT$impl$u20$stm32f4xx_hal..gpio..GpioExt$u20$for$u20$stm32f4..stm32f401..GPIOA$GT$5split28_$u7b$$u7b$closure$u7d$$u7d$17hae9b65d07727823eE>:
 8004c76:	b087      	sub	sp, #28
 8004c78:	9001      	str	r0, [sp, #4]
 8004c7a:	9102      	str	r1, [sp, #8]
 8004c7c:	9103      	str	r1, [sp, #12]
 8004c7e:	9104      	str	r1, [sp, #16]
 8004c80:	9105      	str	r1, [sp, #20]
 8004c82:	2001      	movs	r0, #1
 8004c84:	f88d 001b 	strb.w	r0, [sp, #27]
 8004c88:	9905      	ldr	r1, [sp, #20]
 8004c8a:	6808      	ldr	r0, [r1, #0]
 8004c8c:	f040 0001 	orr.w	r0, r0, #1
 8004c90:	6008      	str	r0, [r1, #0]
 8004c92:	9805      	ldr	r0, [sp, #20]
 8004c94:	b007      	add	sp, #28
 8004c96:	4770      	bx	lr

08004c98 <_ZN13freertos_rust4task12TaskPriority11to_freertos17ha9a69f7ee717812fE>:
 8004c98:	b081      	sub	sp, #4
 8004c9a:	9000      	str	r0, [sp, #0]
 8004c9c:	7800      	ldrb	r0, [r0, #0]
 8004c9e:	b001      	add	sp, #4
 8004ca0:	4770      	bx	lr

08004ca2 <_ZN13freertos_rust4task11TaskBuilder4name17h16e85d43a7f8f533E>:
 8004ca2:	b580      	push	{r7, lr}
 8004ca4:	466f      	mov	r7, sp
 8004ca6:	b088      	sub	sp, #32
 8004ca8:	9001      	str	r0, [sp, #4]
 8004caa:	9005      	str	r0, [sp, #20]
 8004cac:	9106      	str	r1, [sp, #24]
 8004cae:	9207      	str	r2, [sp, #28]
 8004cb0:	f24a 1364 	movw	r3, #41316	; 0xa164
 8004cb4:	f6c0 0300 	movt	r3, #2048	; 0x800
 8004cb8:	a802      	add	r0, sp, #8
 8004cba:	f000 fcaf 	bl	800561c <_ZN50_$LT$T$u20$as$u20$core..convert..Into$LT$U$GT$$GT$4into17hecf4369980f900c6E>
 8004cbe:	9801      	ldr	r0, [sp, #4]
 8004cc0:	f000 fa22 	bl	8005108 <_ZN4core3ptr42drop_in_place$LT$alloc..string..String$GT$17h88b92c11c21e8942E>
 8004cc4:	9801      	ldr	r0, [sp, #4]
 8004cc6:	9902      	ldr	r1, [sp, #8]
 8004cc8:	9a03      	ldr	r2, [sp, #12]
 8004cca:	9b04      	ldr	r3, [sp, #16]
 8004ccc:	6083      	str	r3, [r0, #8]
 8004cce:	6042      	str	r2, [r0, #4]
 8004cd0:	6001      	str	r1, [r0, #0]
 8004cd2:	b008      	add	sp, #32
 8004cd4:	bd80      	pop	{r7, pc}

08004cd6 <_ZN13freertos_rust4task11TaskBuilder10stack_size17h475a693cac9c5503E>:
 8004cd6:	b082      	sub	sp, #8
 8004cd8:	9000      	str	r0, [sp, #0]
 8004cda:	f8ad 1006 	strh.w	r1, [sp, #6]
 8004cde:	8181      	strh	r1, [r0, #12]
 8004ce0:	b002      	add	sp, #8
 8004ce2:	4770      	bx	lr

08004ce4 <_ZN13freertos_rust4task11TaskBuilder8priority17h6f7384862bd8e8e4E>:
 8004ce4:	b082      	sub	sp, #8
 8004ce6:	9000      	str	r0, [sp, #0]
 8004ce8:	f88d 1007 	strb.w	r1, [sp, #7]
 8004cec:	7381      	strb	r1, [r0, #14]
 8004cee:	b002      	add	sp, #8
 8004cf0:	4770      	bx	lr

08004cf2 <_ZN13freertos_rust4task4Task3new17h33edd1fd51b4415bE>:
 8004cf2:	b580      	push	{r7, lr}
 8004cf4:	466f      	mov	r7, sp
 8004cf6:	b084      	sub	sp, #16
 8004cf8:	9000      	str	r0, [sp, #0]
 8004cfa:	f24a 1174 	movw	r1, #41332	; 0xa174
 8004cfe:	f6c0 0100 	movt	r1, #2048	; 0x800
 8004d02:	f24a 1380 	movw	r3, #41344	; 0xa180
 8004d06:	f6c0 0300 	movt	r3, #2048	; 0x800
 8004d0a:	a801      	add	r0, sp, #4
 8004d0c:	2209      	movs	r2, #9
 8004d0e:	f000 fc85 	bl	800561c <_ZN50_$LT$T$u20$as$u20$core..convert..Into$LT$U$GT$$GT$4into17hecf4369980f900c6E>
 8004d12:	9900      	ldr	r1, [sp, #0]
 8004d14:	9801      	ldr	r0, [sp, #4]
 8004d16:	9a02      	ldr	r2, [sp, #8]
 8004d18:	9b03      	ldr	r3, [sp, #12]
 8004d1a:	608b      	str	r3, [r1, #8]
 8004d1c:	604a      	str	r2, [r1, #4]
 8004d1e:	6008      	str	r0, [r1, #0]
 8004d20:	f44f 6080 	mov.w	r0, #1024	; 0x400
 8004d24:	8188      	strh	r0, [r1, #12]
 8004d26:	2001      	movs	r0, #1
 8004d28:	7388      	strb	r0, [r1, #14]
 8004d2a:	b004      	add	sp, #16
 8004d2c:	bd80      	pop	{r7, pc}

08004d2e <_ZN13freertos_rust4task4Task11spawn_inner17h07a2245bf22ab263E>:
 8004d2e:	b5d0      	push	{r4, r6, r7, lr}
 8004d30:	af02      	add	r7, sp, #8
 8004d32:	b0a4      	sub	sp, #144	; 0x90
 8004d34:	469c      	mov	ip, r3
 8004d36:	f8cd c024 	str.w	ip, [sp, #36]	; 0x24
 8004d3a:	9206      	str	r2, [sp, #24]
 8004d3c:	9105      	str	r1, [sp, #20]
 8004d3e:	9004      	str	r0, [sp, #16]
 8004d40:	f8d7 e010 	ldr.w	lr, [r7, #16]
 8004d44:	68f8      	ldr	r0, [r7, #12]
 8004d46:	9007      	str	r0, [sp, #28]
 8004d48:	68bb      	ldr	r3, [r7, #8]
 8004d4a:	930a      	str	r3, [sp, #40]	; 0x28
 8004d4c:	f807 ec65 	strb.w	lr, [r7, #-101]
 8004d50:	9110      	str	r1, [sp, #64]	; 0x40
 8004d52:	9211      	str	r2, [sp, #68]	; 0x44
 8004d54:	f8cd c048 	str.w	ip, [sp, #72]	; 0x48
 8004d58:	9313      	str	r3, [sp, #76]	; 0x4c
 8004d5a:	f827 0c46 	strh.w	r0, [r7, #-70]
 8004d5e:	9122      	str	r1, [sp, #136]	; 0x88
 8004d60:	9223      	str	r2, [sp, #140]	; 0x8c
 8004d62:	2008      	movs	r0, #8
 8004d64:	2104      	movs	r1, #4
 8004d66:	f001 f96a 	bl	800603e <_ZN5alloc5alloc15exchange_malloc17h9f9f45935c7630a4E>
 8004d6a:	f8dd c014 	ldr.w	ip, [sp, #20]
 8004d6e:	9a06      	ldr	r2, [sp, #24]
 8004d70:	9b09      	ldr	r3, [sp, #36]	; 0x24
 8004d72:	4601      	mov	r1, r0
 8004d74:	980a      	ldr	r0, [sp, #40]	; 0x28
 8004d76:	f8c1 c000 	str.w	ip, [r1]
 8004d7a:	604a      	str	r2, [r1, #4]
 8004d7c:	910d      	str	r1, [sp, #52]	; 0x34
 8004d7e:	990d      	ldr	r1, [sp, #52]	; 0x34
 8004d80:	9108      	str	r1, [sp, #32]
 8004d82:	9115      	str	r1, [sp, #84]	; 0x54
 8004d84:	931e      	str	r3, [sp, #120]	; 0x78
 8004d86:	901f      	str	r0, [sp, #124]	; 0x7c
 8004d88:	9316      	str	r3, [sp, #88]	; 0x58
 8004d8a:	9017      	str	r0, [sp, #92]	; 0x5c
 8004d8c:	9018      	str	r0, [sp, #96]	; 0x60
 8004d8e:	2100      	movs	r1, #0
 8004d90:	911c      	str	r1, [sp, #112]	; 0x70
 8004d92:	911d      	str	r1, [sp, #116]	; 0x74
 8004d94:	910e      	str	r1, [sp, #56]	; 0x38
 8004d96:	9320      	str	r3, [sp, #128]	; 0x80
 8004d98:	9021      	str	r0, [sp, #132]	; 0x84
 8004d9a:	f1a7 0065 	sub.w	r0, r7, #101	; 0x65
 8004d9e:	f7ff ff7b 	bl	8004c98 <_ZN13freertos_rust4task12TaskPriority11to_freertos17ha9a69f7ee717812fE>
 8004da2:	9b07      	ldr	r3, [sp, #28]
 8004da4:	9908      	ldr	r1, [sp, #32]
 8004da6:	9a09      	ldr	r2, [sp, #36]	; 0x24
 8004da8:	4686      	mov	lr, r0
 8004daa:	980a      	ldr	r0, [sp, #40]	; 0x28
 8004dac:	46ec      	mov	ip, sp
 8004dae:	ac0e      	add	r4, sp, #56	; 0x38
 8004db0:	f8cc 4008 	str.w	r4, [ip, #8]
 8004db4:	f8cc e004 	str.w	lr, [ip, #4]
 8004db8:	b29b      	uxth	r3, r3
 8004dba:	f8cc 3000 	str.w	r3, [ip]
 8004dbe:	b2c3      	uxtb	r3, r0
 8004dc0:	f644 6013 	movw	r0, #19987	; 0x4e13
 8004dc4:	f6c0 0000 	movt	r0, #2048	; 0x800
 8004dc8:	f7fc ff48 	bl	8001c5c <freertos_rs_spawn_task>
 8004dcc:	9019      	str	r0, [sp, #100]	; 0x64
 8004dce:	fab0 f180 	clz	r1, r0
 8004dd2:	094a      	lsrs	r2, r1, #5
 8004dd4:	990e      	ldr	r1, [sp, #56]	; 0x38
 8004dd6:	910b      	str	r1, [sp, #44]	; 0x2c
 8004dd8:	f807 2c2d 	strb.w	r2, [r7, #-45]
 8004ddc:	911b      	str	r1, [sp, #108]	; 0x6c
 8004dde:	b168      	cbz	r0, 8004dfc <_ZN13freertos_rust4task4Task11spawn_inner17h07a2245bf22ab263E+0xce>
 8004de0:	e7ff      	b.n	8004de2 <_ZN13freertos_rust4task4Task11spawn_inner17h07a2245bf22ab263E+0xb4>
 8004de2:	9904      	ldr	r1, [sp, #16]
 8004de4:	2000      	movs	r0, #0
 8004de6:	f807 0c59 	strb.w	r0, [r7, #-89]
 8004dea:	f817 0c59 	ldrb.w	r0, [r7, #-89]
 8004dee:	7048      	strb	r0, [r1, #1]
 8004df0:	2001      	movs	r0, #1
 8004df2:	7008      	strb	r0, [r1, #0]
 8004df4:	a80d      	add	r0, sp, #52	; 0x34
 8004df6:	f000 f97a 	bl	80050ee <_ZN4core3ptr184drop_in_place$LT$alloc..boxed..Box$LT$alloc..boxed..Box$LT$dyn$u20$core..ops..function..FnOnce$LT$$LP$freertos_rust..task..Task$C$$RP$$GT$$u2b$Output$u20$$u3d$$u20$$LP$$RP$$GT$$GT$$GT$17h46d7221b6cfe42c5E>
 8004dfa:	e008      	b.n	8004e0e <_ZN13freertos_rust4task4Task11spawn_inner17h07a2245bf22ab263E+0xe0>
 8004dfc:	980d      	ldr	r0, [sp, #52]	; 0x34
 8004dfe:	f000 fc16 	bl	800562e <_ZN4core3mem6forget17hf8442f7d59fccc03E>
 8004e02:	980b      	ldr	r0, [sp, #44]	; 0x2c
 8004e04:	9904      	ldr	r1, [sp, #16]
 8004e06:	6048      	str	r0, [r1, #4]
 8004e08:	2000      	movs	r0, #0
 8004e0a:	7008      	strb	r0, [r1, #0]
 8004e0c:	e7ff      	b.n	8004e0e <_ZN13freertos_rust4task4Task11spawn_inner17h07a2245bf22ab263E+0xe0>
 8004e0e:	b024      	add	sp, #144	; 0x90
 8004e10:	bdd0      	pop	{r4, r6, r7, pc}

08004e12 <_ZN13freertos_rust4task4Task11spawn_inner12thread_start17h06f6dd5629969cf7E>:
 8004e12:	b580      	push	{r7, lr}
 8004e14:	466f      	mov	r7, sp
 8004e16:	b084      	sub	sp, #16
 8004e18:	9002      	str	r0, [sp, #8]
 8004e1a:	f000 f813 	bl	8004e44 <_ZN5alloc5boxed12Box$LT$T$GT$8from_raw17h9f2c38a67879165eE>
 8004e1e:	9000      	str	r0, [sp, #0]
 8004e20:	9003      	str	r0, [sp, #12]
 8004e22:	f7fc ff87 	bl	8001d34 <freertos_rs_get_current_task>
 8004e26:	4601      	mov	r1, r0
 8004e28:	9800      	ldr	r0, [sp, #0]
 8004e2a:	f000 f82a 	bl	8004e82 <_ZN90_$LT$alloc..boxed..Box$LT$F$C$A$GT$$u20$as$u20$core..ops..function..FnOnce$LT$Args$GT$$GT$9call_once17hc5ef29d5b67bbb7aE>
 8004e2e:	2000      	movs	r0, #0
 8004e30:	9001      	str	r0, [sp, #4]
 8004e32:	f7fc ff5b 	bl	8001cec <freertos_rs_delete_task>
 8004e36:	9801      	ldr	r0, [sp, #4]
 8004e38:	b004      	add	sp, #16
 8004e3a:	bd80      	pop	{r7, pc}

08004e3c <_ZN13freertos_rust4task13FreeRtosUtils15start_scheduler17h65affe9e8aeed2d9E>:
 8004e3c:	b580      	push	{r7, lr}
 8004e3e:	466f      	mov	r7, sp
 8004e40:	f7fc feaa 	bl	8001b98 <freertos_rs_vTaskStartScheduler>

08004e44 <_ZN5alloc5boxed12Box$LT$T$GT$8from_raw17h9f2c38a67879165eE>:
 8004e44:	b580      	push	{r7, lr}
 8004e46:	466f      	mov	r7, sp
 8004e48:	b084      	sub	sp, #16
 8004e4a:	9001      	str	r0, [sp, #4]
 8004e4c:	9002      	str	r0, [sp, #8]
 8004e4e:	e7ff      	b.n	8004e50 <_ZN5alloc5boxed12Box$LT$T$GT$8from_raw17h9f2c38a67879165eE+0xc>
 8004e50:	9801      	ldr	r0, [sp, #4]
 8004e52:	f000 fc07 	bl	8005664 <_ZN4core3ptr8non_null16NonNull$LT$T$GT$13new_unchecked18precondition_check17had037874fa2fd2fdE>
 8004e56:	e7ff      	b.n	8004e58 <_ZN5alloc5boxed12Box$LT$T$GT$8from_raw17h9f2c38a67879165eE+0x14>
 8004e58:	9801      	ldr	r0, [sp, #4]
 8004e5a:	b004      	add	sp, #16
 8004e5c:	bd80      	pop	{r7, pc}

08004e5e <_ZN90_$LT$alloc..boxed..Box$LT$F$C$A$GT$$u20$as$u20$core..ops..function..FnOnce$LT$Args$GT$$GT$9call_once17hc5e79be6b505b972E>:
 8004e5e:	b580      	push	{r7, lr}
 8004e60:	466f      	mov	r7, sp
 8004e62:	b086      	sub	sp, #24
 8004e64:	9201      	str	r2, [sp, #4]
 8004e66:	9004      	str	r0, [sp, #16]
 8004e68:	9105      	str	r1, [sp, #20]
 8004e6a:	9002      	str	r0, [sp, #8]
 8004e6c:	9103      	str	r1, [sp, #12]
 8004e6e:	9802      	ldr	r0, [sp, #8]
 8004e70:	9903      	ldr	r1, [sp, #12]
 8004e72:	68ca      	ldr	r2, [r1, #12]
 8004e74:	9901      	ldr	r1, [sp, #4]
 8004e76:	4790      	blx	r2
 8004e78:	a802      	add	r0, sp, #8
 8004e7a:	f000 f9ae 	bl	80051da <_ZN72_$LT$alloc..boxed..Box$LT$T$C$A$GT$$u20$as$u20$core..ops..drop..Drop$GT$4drop17ha3f1fb0e10eff9abE>
 8004e7e:	b006      	add	sp, #24
 8004e80:	bd80      	pop	{r7, pc}

08004e82 <_ZN90_$LT$alloc..boxed..Box$LT$F$C$A$GT$$u20$as$u20$core..ops..function..FnOnce$LT$Args$GT$$GT$9call_once17hc5ef29d5b67bbb7aE>:
 8004e82:	b580      	push	{r7, lr}
 8004e84:	466f      	mov	r7, sp
 8004e86:	b084      	sub	sp, #16
 8004e88:	9101      	str	r1, [sp, #4]
 8004e8a:	9003      	str	r0, [sp, #12]
 8004e8c:	9002      	str	r0, [sp, #8]
 8004e8e:	9902      	ldr	r1, [sp, #8]
 8004e90:	6808      	ldr	r0, [r1, #0]
 8004e92:	6849      	ldr	r1, [r1, #4]
 8004e94:	9a01      	ldr	r2, [sp, #4]
 8004e96:	f7ff ffe2 	bl	8004e5e <_ZN90_$LT$alloc..boxed..Box$LT$F$C$A$GT$$u20$as$u20$core..ops..function..FnOnce$LT$Args$GT$$GT$9call_once17hc5e79be6b505b972E>
 8004e9a:	a802      	add	r0, sp, #8
 8004e9c:	f000 f971 	bl	8005182 <_ZN72_$LT$alloc..boxed..Box$LT$T$C$A$GT$$u20$as$u20$core..ops..drop..Drop$GT$4drop17h0a14e2be73e6fda9E>
 8004ea0:	b004      	add	sp, #16
 8004ea2:	bd80      	pop	{r7, pc}

08004ea4 <_ZN5alloc6string6String9from_utf817h3788e2d0777247deE>:
 8004ea4:	b5d0      	push	{r4, r6, r7, lr}
 8004ea6:	af02      	add	r7, sp, #8
 8004ea8:	b098      	sub	sp, #96	; 0x60
 8004eaa:	9100      	str	r1, [sp, #0]
 8004eac:	9001      	str	r0, [sp, #4]
 8004eae:	9111      	str	r1, [sp, #68]	; 0x44
 8004eb0:	9112      	str	r1, [sp, #72]	; 0x48
 8004eb2:	9113      	str	r1, [sp, #76]	; 0x4c
 8004eb4:	6848      	ldr	r0, [r1, #4]
 8004eb6:	9002      	str	r0, [sp, #8]
 8004eb8:	9014      	str	r0, [sp, #80]	; 0x50
 8004eba:	9015      	str	r0, [sp, #84]	; 0x54
 8004ebc:	9016      	str	r0, [sp, #88]	; 0x58
 8004ebe:	6888      	ldr	r0, [r1, #8]
 8004ec0:	9003      	str	r0, [sp, #12]
 8004ec2:	9017      	str	r0, [sp, #92]	; 0x5c
 8004ec4:	e7ff      	b.n	8004ec6 <_ZN5alloc6string6String9from_utf817h3788e2d0777247deE+0x22>
 8004ec6:	9b03      	ldr	r3, [sp, #12]
 8004ec8:	9802      	ldr	r0, [sp, #8]
 8004eca:	2201      	movs	r2, #1
 8004ecc:	4611      	mov	r1, r2
 8004ece:	f000 ff6f 	bl	8005db0 <_ZN4core5slice3raw14from_raw_parts18precondition_check17h1a320b464919a4ecE>
 8004ed2:	e7ff      	b.n	8004ed4 <_ZN5alloc6string6String9from_utf817h3788e2d0777247deE+0x30>
 8004ed4:	9a03      	ldr	r2, [sp, #12]
 8004ed6:	9902      	ldr	r1, [sp, #8]
 8004ed8:	a804      	add	r0, sp, #16
 8004eda:	f002 fec6 	bl	8007c6a <_ZN4core3str8converts9from_utf817h7cfd819998da3b6cE>
 8004ede:	9804      	ldr	r0, [sp, #16]
 8004ee0:	b990      	cbnz	r0, 8004f08 <_ZN5alloc6string6String9from_utf817h3788e2d0777247deE+0x64>
 8004ee2:	e7ff      	b.n	8004ee4 <_ZN5alloc6string6String9from_utf817h3788e2d0777247deE+0x40>
 8004ee4:	9901      	ldr	r1, [sp, #4]
 8004ee6:	9b00      	ldr	r3, [sp, #0]
 8004ee8:	6818      	ldr	r0, [r3, #0]
 8004eea:	685a      	ldr	r2, [r3, #4]
 8004eec:	689b      	ldr	r3, [r3, #8]
 8004eee:	9309      	str	r3, [sp, #36]	; 0x24
 8004ef0:	9208      	str	r2, [sp, #32]
 8004ef2:	9007      	str	r0, [sp, #28]
 8004ef4:	9807      	ldr	r0, [sp, #28]
 8004ef6:	9a08      	ldr	r2, [sp, #32]
 8004ef8:	9b09      	ldr	r3, [sp, #36]	; 0x24
 8004efa:	60cb      	str	r3, [r1, #12]
 8004efc:	608a      	str	r2, [r1, #8]
 8004efe:	6048      	str	r0, [r1, #4]
 8004f00:	f04f 4000 	mov.w	r0, #2147483648	; 0x80000000
 8004f04:	6008      	str	r0, [r1, #0]
 8004f06:	e015      	b.n	8004f34 <_ZN5alloc6string6String9from_utf817h3788e2d0777247deE+0x90>
 8004f08:	9801      	ldr	r0, [sp, #4]
 8004f0a:	9b00      	ldr	r3, [sp, #0]
 8004f0c:	9905      	ldr	r1, [sp, #20]
 8004f0e:	9a06      	ldr	r2, [sp, #24]
 8004f10:	920b      	str	r2, [sp, #44]	; 0x2c
 8004f12:	910a      	str	r1, [sp, #40]	; 0x28
 8004f14:	6819      	ldr	r1, [r3, #0]
 8004f16:	685a      	ldr	r2, [r3, #4]
 8004f18:	689b      	ldr	r3, [r3, #8]
 8004f1a:	930e      	str	r3, [sp, #56]	; 0x38
 8004f1c:	920d      	str	r2, [sp, #52]	; 0x34
 8004f1e:	910c      	str	r1, [sp, #48]	; 0x30
 8004f20:	990a      	ldr	r1, [sp, #40]	; 0x28
 8004f22:	9a0b      	ldr	r2, [sp, #44]	; 0x2c
 8004f24:	9210      	str	r2, [sp, #64]	; 0x40
 8004f26:	910f      	str	r1, [sp, #60]	; 0x3c
 8004f28:	a90c      	add	r1, sp, #48	; 0x30
 8004f2a:	e891 501c 	ldmia.w	r1, {r2, r3, r4, ip, lr}
 8004f2e:	e880 501c 	stmia.w	r0, {r2, r3, r4, ip, lr}
 8004f32:	e7ff      	b.n	8004f34 <_ZN5alloc6string6String9from_utf817h3788e2d0777247deE+0x90>
 8004f34:	b018      	add	sp, #96	; 0x60
 8004f36:	bdd0      	pop	{r4, r6, r7, pc}

08004f38 <_ZN60_$LT$alloc..string..String$u20$as$u20$core..fmt..Display$GT$3fmt17h0c1380a745f8b140E>:
 8004f38:	b580      	push	{r7, lr}
 8004f3a:	466f      	mov	r7, sp
 8004f3c:	b08e      	sub	sp, #56	; 0x38
 8004f3e:	9100      	str	r1, [sp, #0]
 8004f40:	9003      	str	r0, [sp, #12]
 8004f42:	9104      	str	r1, [sp, #16]
 8004f44:	9005      	str	r0, [sp, #20]
 8004f46:	9006      	str	r0, [sp, #24]
 8004f48:	9007      	str	r0, [sp, #28]
 8004f4a:	6841      	ldr	r1, [r0, #4]
 8004f4c:	9101      	str	r1, [sp, #4]
 8004f4e:	9108      	str	r1, [sp, #32]
 8004f50:	9109      	str	r1, [sp, #36]	; 0x24
 8004f52:	910a      	str	r1, [sp, #40]	; 0x28
 8004f54:	6880      	ldr	r0, [r0, #8]
 8004f56:	9002      	str	r0, [sp, #8]
 8004f58:	900b      	str	r0, [sp, #44]	; 0x2c
 8004f5a:	e7ff      	b.n	8004f5c <_ZN60_$LT$alloc..string..String$u20$as$u20$core..fmt..Display$GT$3fmt17h0c1380a745f8b140E+0x24>
 8004f5c:	9b02      	ldr	r3, [sp, #8]
 8004f5e:	9801      	ldr	r0, [sp, #4]
 8004f60:	2201      	movs	r2, #1
 8004f62:	4611      	mov	r1, r2
 8004f64:	f000 ff24 	bl	8005db0 <_ZN4core5slice3raw14from_raw_parts18precondition_check17h1a320b464919a4ecE>
 8004f68:	e7ff      	b.n	8004f6a <_ZN60_$LT$alloc..string..String$u20$as$u20$core..fmt..Display$GT$3fmt17h0c1380a745f8b140E+0x32>
 8004f6a:	9a00      	ldr	r2, [sp, #0]
 8004f6c:	9902      	ldr	r1, [sp, #8]
 8004f6e:	9801      	ldr	r0, [sp, #4]
 8004f70:	900c      	str	r0, [sp, #48]	; 0x30
 8004f72:	910d      	str	r1, [sp, #52]	; 0x34
 8004f74:	f002 fe37 	bl	8007be6 <_ZN42_$LT$str$u20$as$u20$core..fmt..Display$GT$3fmt17h5b0b46fef26f96b8E>
 8004f78:	b00e      	add	sp, #56	; 0x38
 8004f7a:	bd80      	pop	{r7, pc}

08004f7c <_ZN76_$LT$alloc..string..String$u20$as$u20$core..convert..From$LT$$RF$str$GT$$GT$4from17h731ead80f91e45d4E>:
 8004f7c:	b580      	push	{r7, lr}
 8004f7e:	466f      	mov	r7, sp
 8004f80:	b08a      	sub	sp, #40	; 0x28
 8004f82:	9001      	str	r0, [sp, #4]
 8004f84:	9105      	str	r1, [sp, #20]
 8004f86:	9206      	str	r2, [sp, #24]
 8004f88:	9108      	str	r1, [sp, #32]
 8004f8a:	9209      	str	r2, [sp, #36]	; 0x24
 8004f8c:	a802      	add	r0, sp, #8
 8004f8e:	f000 fa61 	bl	8005454 <_ZN52_$LT$T$u20$as$u20$alloc..slice..hack..ConvertVec$GT$6to_vec17h4fd96d5f1aed3c50E>
 8004f92:	9901      	ldr	r1, [sp, #4]
 8004f94:	9802      	ldr	r0, [sp, #8]
 8004f96:	9a03      	ldr	r2, [sp, #12]
 8004f98:	9b04      	ldr	r3, [sp, #16]
 8004f9a:	608b      	str	r3, [r1, #8]
 8004f9c:	604a      	str	r2, [r1, #4]
 8004f9e:	6008      	str	r0, [r1, #0]
 8004fa0:	b00a      	add	sp, #40	; 0x28
 8004fa2:	bd80      	pop	{r7, pc}

08004fa4 <_ZN71_$LT$freertos_rust..base..FreeRtosError$u20$as$u20$core..fmt..Debug$GT$3fmt17h0e45e7d1458a9221E>:
 8004fa4:	b580      	push	{r7, lr}
 8004fa6:	466f      	mov	r7, sp
 8004fa8:	b086      	sub	sp, #24
 8004faa:	9100      	str	r1, [sp, #0]
 8004fac:	9004      	str	r0, [sp, #16]
 8004fae:	9105      	str	r1, [sp, #20]
 8004fb0:	7800      	ldrb	r0, [r0, #0]
 8004fb2:	9001      	str	r0, [sp, #4]
 8004fb4:	9901      	ldr	r1, [sp, #4]
 8004fb6:	e8df f001 	tbb	[pc, r1]
 8004fba:	0e06      	.short	0x0e06
 8004fbc:	2e261e16 	.word	0x2e261e16
 8004fc0:	4e463e36 	.word	0x4e463e36
 8004fc4:	defe      	udf	#254	; 0xfe
 8004fc6:	f24a 1090 	movw	r0, #41360	; 0xa190
 8004fca:	f6c0 0000 	movt	r0, #2048	; 0x800
 8004fce:	9002      	str	r0, [sp, #8]
 8004fd0:	200b      	movs	r0, #11
 8004fd2:	9003      	str	r0, [sp, #12]
 8004fd4:	e047      	b.n	8005066 <_ZN71_$LT$freertos_rust..base..FreeRtosError$u20$as$u20$core..fmt..Debug$GT$3fmt17h0e45e7d1458a9221E+0xc2>
 8004fd6:	f24a 10cc 	movw	r0, #41420	; 0xa1cc
 8004fda:	f6c0 0000 	movt	r0, #2048	; 0x800
 8004fde:	9002      	str	r0, [sp, #8]
 8004fe0:	2010      	movs	r0, #16
 8004fe2:	9003      	str	r0, [sp, #12]
 8004fe4:	e03f      	b.n	8005066 <_ZN71_$LT$freertos_rust..base..FreeRtosError$u20$as$u20$core..fmt..Debug$GT$3fmt17h0e45e7d1458a9221E+0xc2>
 8004fe6:	f24a 10ec 	movw	r0, #41452	; 0xa1ec
 8004fea:	f6c0 0000 	movt	r0, #2048	; 0x800
 8004fee:	9002      	str	r0, [sp, #8]
 8004ff0:	2013      	movs	r0, #19
 8004ff2:	9003      	str	r0, [sp, #12]
 8004ff4:	e037      	b.n	8005066 <_ZN71_$LT$freertos_rust..base..FreeRtosError$u20$as$u20$core..fmt..Debug$GT$3fmt17h0e45e7d1458a9221E+0xc2>
 8004ff6:	f24a 10ff 	movw	r0, #41471	; 0xa1ff
 8004ffa:	f6c0 0000 	movt	r0, #2048	; 0x800
 8004ffe:	9002      	str	r0, [sp, #8]
 8005000:	200c      	movs	r0, #12
 8005002:	9003      	str	r0, [sp, #12]
 8005004:	e02f      	b.n	8005066 <_ZN71_$LT$freertos_rust..base..FreeRtosError$u20$as$u20$core..fmt..Debug$GT$3fmt17h0e45e7d1458a9221E+0xc2>
 8005006:	f24a 200b 	movw	r0, #41483	; 0xa20b
 800500a:	f6c0 0000 	movt	r0, #2048	; 0x800
 800500e:	9002      	str	r0, [sp, #8]
 8005010:	2007      	movs	r0, #7
 8005012:	9003      	str	r0, [sp, #12]
 8005014:	e027      	b.n	8005066 <_ZN71_$LT$freertos_rust..base..FreeRtosError$u20$as$u20$core..fmt..Debug$GT$3fmt17h0e45e7d1458a9221E+0xc2>
 8005016:	f24a 2012 	movw	r0, #41490	; 0xa212
 800501a:	f6c0 0000 	movt	r0, #2048	; 0x800
 800501e:	9002      	str	r0, [sp, #8]
 8005020:	2009      	movs	r0, #9
 8005022:	9003      	str	r0, [sp, #12]
 8005024:	e01f      	b.n	8005066 <_ZN71_$LT$freertos_rust..base..FreeRtosError$u20$as$u20$core..fmt..Debug$GT$3fmt17h0e45e7d1458a9221E+0xc2>
 8005026:	f24a 201b 	movw	r0, #41499	; 0xa21b
 800502a:	f6c0 0000 	movt	r0, #2048	; 0x800
 800502e:	9002      	str	r0, [sp, #8]
 8005030:	2015      	movs	r0, #21
 8005032:	9003      	str	r0, [sp, #12]
 8005034:	e017      	b.n	8005066 <_ZN71_$LT$freertos_rust..base..FreeRtosError$u20$as$u20$core..fmt..Debug$GT$3fmt17h0e45e7d1458a9221E+0xc2>
 8005036:	f24a 2030 	movw	r0, #41520	; 0xa230
 800503a:	f6c0 0000 	movt	r0, #2048	; 0x800
 800503e:	9002      	str	r0, [sp, #8]
 8005040:	200c      	movs	r0, #12
 8005042:	9003      	str	r0, [sp, #12]
 8005044:	e00f      	b.n	8005066 <_ZN71_$LT$freertos_rust..base..FreeRtosError$u20$as$u20$core..fmt..Debug$GT$3fmt17h0e45e7d1458a9221E+0xc2>
 8005046:	f24a 10ac 	movw	r0, #41388	; 0xa1ac
 800504a:	f6c0 0000 	movt	r0, #2048	; 0x800
 800504e:	9002      	str	r0, [sp, #8]
 8005050:	2010      	movs	r0, #16
 8005052:	9003      	str	r0, [sp, #12]
 8005054:	e007      	b.n	8005066 <_ZN71_$LT$freertos_rust..base..FreeRtosError$u20$as$u20$core..fmt..Debug$GT$3fmt17h0e45e7d1458a9221E+0xc2>
 8005056:	f24a 203c 	movw	r0, #41532	; 0xa23c
 800505a:	f6c0 0000 	movt	r0, #2048	; 0x800
 800505e:	9002      	str	r0, [sp, #8]
 8005060:	2014      	movs	r0, #20
 8005062:	9003      	str	r0, [sp, #12]
 8005064:	e7ff      	b.n	8005066 <_ZN71_$LT$freertos_rust..base..FreeRtosError$u20$as$u20$core..fmt..Debug$GT$3fmt17h0e45e7d1458a9221E+0xc2>
 8005066:	9800      	ldr	r0, [sp, #0]
 8005068:	9902      	ldr	r1, [sp, #8]
 800506a:	9a03      	ldr	r2, [sp, #12]
 800506c:	f002 fc81 	bl	8007972 <_ZN4core3fmt9Formatter9write_str17h9d7295ed75e9ebc7E>
 8005070:	b006      	add	sp, #24
 8005072:	bd80      	pop	{r7, pc}

08005074 <_ZN4core3ops8function6FnOnce9call_once17h177b4449c116a850E>:
 8005074:	b580      	push	{r7, lr}
 8005076:	466f      	mov	r7, sp
 8005078:	b082      	sub	sp, #8
 800507a:	1eb8      	subs	r0, r7, #2
 800507c:	f000 faa8 	bl	80055d0 <_ZN13freertos_rust5hooks14FREERTOS_HOOKS28_$u7b$$u7b$closure$u7d$$u7d$17h8469a6998b4cb016E>
 8005080:	b002      	add	sp, #8
 8005082:	bd80      	pop	{r7, pc}

08005084 <_ZN4core3ops8function6FnOnce9call_once17h643619ed97b5d805E>:
 8005084:	b580      	push	{r7, lr}
 8005086:	466f      	mov	r7, sp
 8005088:	b084      	sub	sp, #16
 800508a:	9001      	str	r0, [sp, #4]
 800508c:	9102      	str	r1, [sp, #8]
 800508e:	9801      	ldr	r0, [sp, #4]
 8005090:	9902      	ldr	r1, [sp, #8]
 8005092:	f000 fe7e 	bl	8005d92 <_ZN4core3cmp5impls50_$LT$impl$u20$core..cmp..Ord$u20$for$u20$usize$GT$3cmp17h4c38a4a53078b72aE>
 8005096:	b004      	add	sp, #16
 8005098:	bd80      	pop	{r7, pc}

0800509a <_ZN4core3ptr101drop_in_place$LT$core..result..Result$LT$alloc..string..String$C$alloc..string..FromUtf8Error$GT$$GT$17h6a7b8358451895e2E>:
 800509a:	b580      	push	{r7, lr}
 800509c:	466f      	mov	r7, sp
 800509e:	b082      	sub	sp, #8
 80050a0:	9000      	str	r0, [sp, #0]
 80050a2:	9001      	str	r0, [sp, #4]
 80050a4:	6800      	ldr	r0, [r0, #0]
 80050a6:	f1b0 4f00 	cmp.w	r0, #2147483648	; 0x80000000
 80050aa:	d105      	bne.n	80050b8 <_ZN4core3ptr101drop_in_place$LT$core..result..Result$LT$alloc..string..String$C$alloc..string..FromUtf8Error$GT$$GT$17h6a7b8358451895e2E+0x1e>
 80050ac:	e7ff      	b.n	80050ae <_ZN4core3ptr101drop_in_place$LT$core..result..Result$LT$alloc..string..String$C$alloc..string..FromUtf8Error$GT$$GT$17h6a7b8358451895e2E+0x14>
 80050ae:	9800      	ldr	r0, [sp, #0]
 80050b0:	3004      	adds	r0, #4
 80050b2:	f000 f829 	bl	8005108 <_ZN4core3ptr42drop_in_place$LT$alloc..string..String$GT$17h88b92c11c21e8942E>
 80050b6:	e003      	b.n	80050c0 <_ZN4core3ptr101drop_in_place$LT$core..result..Result$LT$alloc..string..String$C$alloc..string..FromUtf8Error$GT$$GT$17h6a7b8358451895e2E+0x26>
 80050b8:	9800      	ldr	r0, [sp, #0]
 80050ba:	f000 f839 	bl	8005130 <_ZN4core3ptr49drop_in_place$LT$alloc..string..FromUtf8Error$GT$17hc850155adbdb821fE>
 80050be:	e7ff      	b.n	80050c0 <_ZN4core3ptr101drop_in_place$LT$core..result..Result$LT$alloc..string..String$C$alloc..string..FromUtf8Error$GT$$GT$17h6a7b8358451895e2E+0x26>
 80050c0:	b002      	add	sp, #8
 80050c2:	bd80      	pop	{r7, pc}

080050c4 <_ZN4core3ptr159drop_in_place$LT$alloc..boxed..Box$LT$dyn$u20$core..ops..function..FnOnce$LT$$LP$freertos_rust..task..Task$C$$RP$$GT$$u2b$Output$u20$$u3d$$u20$$LP$$RP$$GT$$GT$17hd9aabed68925b82eE>:
 80050c4:	b580      	push	{r7, lr}
 80050c6:	466f      	mov	r7, sp
 80050c8:	b084      	sub	sp, #16
 80050ca:	9000      	str	r0, [sp, #0]
 80050cc:	9003      	str	r0, [sp, #12]
 80050ce:	6801      	ldr	r1, [r0, #0]
 80050d0:	9101      	str	r1, [sp, #4]
 80050d2:	6840      	ldr	r0, [r0, #4]
 80050d4:	6800      	ldr	r0, [r0, #0]
 80050d6:	9002      	str	r0, [sp, #8]
 80050d8:	b120      	cbz	r0, 80050e4 <_ZN4core3ptr159drop_in_place$LT$alloc..boxed..Box$LT$dyn$u20$core..ops..function..FnOnce$LT$$LP$freertos_rust..task..Task$C$$RP$$GT$$u2b$Output$u20$$u3d$$u20$$LP$$RP$$GT$$GT$17hd9aabed68925b82eE+0x20>
 80050da:	e7ff      	b.n	80050dc <_ZN4core3ptr159drop_in_place$LT$alloc..boxed..Box$LT$dyn$u20$core..ops..function..FnOnce$LT$$LP$freertos_rust..task..Task$C$$RP$$GT$$u2b$Output$u20$$u3d$$u20$$LP$$RP$$GT$$GT$17hd9aabed68925b82eE+0x18>
 80050dc:	9902      	ldr	r1, [sp, #8]
 80050de:	9801      	ldr	r0, [sp, #4]
 80050e0:	4788      	blx	r1
 80050e2:	e7ff      	b.n	80050e4 <_ZN4core3ptr159drop_in_place$LT$alloc..boxed..Box$LT$dyn$u20$core..ops..function..FnOnce$LT$$LP$freertos_rust..task..Task$C$$RP$$GT$$u2b$Output$u20$$u3d$$u20$$LP$$RP$$GT$$GT$17hd9aabed68925b82eE+0x20>
 80050e4:	9800      	ldr	r0, [sp, #0]
 80050e6:	f000 f878 	bl	80051da <_ZN72_$LT$alloc..boxed..Box$LT$T$C$A$GT$$u20$as$u20$core..ops..drop..Drop$GT$4drop17ha3f1fb0e10eff9abE>
 80050ea:	b004      	add	sp, #16
 80050ec:	bd80      	pop	{r7, pc}

080050ee <_ZN4core3ptr184drop_in_place$LT$alloc..boxed..Box$LT$alloc..boxed..Box$LT$dyn$u20$core..ops..function..FnOnce$LT$$LP$freertos_rust..task..Task$C$$RP$$GT$$u2b$Output$u20$$u3d$$u20$$LP$$RP$$GT$$GT$$GT$17h46d7221b6cfe42c5E>:
 80050ee:	b580      	push	{r7, lr}
 80050f0:	466f      	mov	r7, sp
 80050f2:	b082      	sub	sp, #8
 80050f4:	9000      	str	r0, [sp, #0]
 80050f6:	9001      	str	r0, [sp, #4]
 80050f8:	6800      	ldr	r0, [r0, #0]
 80050fa:	f7ff ffe3 	bl	80050c4 <_ZN4core3ptr159drop_in_place$LT$alloc..boxed..Box$LT$dyn$u20$core..ops..function..FnOnce$LT$$LP$freertos_rust..task..Task$C$$RP$$GT$$u2b$Output$u20$$u3d$$u20$$LP$$RP$$GT$$GT$17hd9aabed68925b82eE>
 80050fe:	9800      	ldr	r0, [sp, #0]
 8005100:	f000 f83f 	bl	8005182 <_ZN72_$LT$alloc..boxed..Box$LT$T$C$A$GT$$u20$as$u20$core..ops..drop..Drop$GT$4drop17h0a14e2be73e6fda9E>
 8005104:	b002      	add	sp, #8
 8005106:	bd80      	pop	{r7, pc}

08005108 <_ZN4core3ptr42drop_in_place$LT$alloc..string..String$GT$17h88b92c11c21e8942E>:
 8005108:	b580      	push	{r7, lr}
 800510a:	466f      	mov	r7, sp
 800510c:	b082      	sub	sp, #8
 800510e:	9001      	str	r0, [sp, #4]
 8005110:	f000 f802 	bl	8005118 <_ZN4core3ptr46drop_in_place$LT$alloc..vec..Vec$LT$u8$GT$$GT$17h33a4aafc7eb99d91E>
 8005114:	b002      	add	sp, #8
 8005116:	bd80      	pop	{r7, pc}

08005118 <_ZN4core3ptr46drop_in_place$LT$alloc..vec..Vec$LT$u8$GT$$GT$17h33a4aafc7eb99d91E>:
 8005118:	b580      	push	{r7, lr}
 800511a:	466f      	mov	r7, sp
 800511c:	b082      	sub	sp, #8
 800511e:	9000      	str	r0, [sp, #0]
 8005120:	9001      	str	r0, [sp, #4]
 8005122:	f000 f815 	bl	8005150 <_ZN70_$LT$alloc..vec..Vec$LT$T$C$A$GT$$u20$as$u20$core..ops..drop..Drop$GT$4drop17h620bfc4a84fd08b9E>
 8005126:	9800      	ldr	r0, [sp, #0]
 8005128:	f000 f80a 	bl	8005140 <_ZN4core3ptr53drop_in_place$LT$alloc..raw_vec..RawVec$LT$u8$GT$$GT$17h91f1ebf35f24cdc1E>
 800512c:	b002      	add	sp, #8
 800512e:	bd80      	pop	{r7, pc}

08005130 <_ZN4core3ptr49drop_in_place$LT$alloc..string..FromUtf8Error$GT$17hc850155adbdb821fE>:
 8005130:	b580      	push	{r7, lr}
 8005132:	466f      	mov	r7, sp
 8005134:	b082      	sub	sp, #8
 8005136:	9001      	str	r0, [sp, #4]
 8005138:	f7ff ffee 	bl	8005118 <_ZN4core3ptr46drop_in_place$LT$alloc..vec..Vec$LT$u8$GT$$GT$17h33a4aafc7eb99d91E>
 800513c:	b002      	add	sp, #8
 800513e:	bd80      	pop	{r7, pc}

08005140 <_ZN4core3ptr53drop_in_place$LT$alloc..raw_vec..RawVec$LT$u8$GT$$GT$17h91f1ebf35f24cdc1E>:
 8005140:	b580      	push	{r7, lr}
 8005142:	466f      	mov	r7, sp
 8005144:	b082      	sub	sp, #8
 8005146:	9001      	str	r0, [sp, #4]
 8005148:	f000 f876 	bl	8005238 <_ZN77_$LT$alloc..raw_vec..RawVec$LT$T$C$A$GT$$u20$as$u20$core..ops..drop..Drop$GT$4drop17h45b3c4e33802d921E>
 800514c:	b002      	add	sp, #8
 800514e:	bd80      	pop	{r7, pc}

08005150 <_ZN70_$LT$alloc..vec..Vec$LT$T$C$A$GT$$u20$as$u20$core..ops..drop..Drop$GT$4drop17h620bfc4a84fd08b9E>:
 8005150:	b089      	sub	sp, #36	; 0x24
 8005152:	9002      	str	r0, [sp, #8]
 8005154:	9003      	str	r0, [sp, #12]
 8005156:	9004      	str	r0, [sp, #16]
 8005158:	6841      	ldr	r1, [r0, #4]
 800515a:	9105      	str	r1, [sp, #20]
 800515c:	9106      	str	r1, [sp, #24]
 800515e:	9107      	str	r1, [sp, #28]
 8005160:	6880      	ldr	r0, [r0, #8]
 8005162:	9000      	str	r0, [sp, #0]
 8005164:	9008      	str	r0, [sp, #32]
 8005166:	2000      	movs	r0, #0
 8005168:	9001      	str	r0, [sp, #4]
 800516a:	e7ff      	b.n	800516c <_ZN70_$LT$alloc..vec..Vec$LT$T$C$A$GT$$u20$as$u20$core..ops..drop..Drop$GT$4drop17h620bfc4a84fd08b9E+0x1c>
 800516c:	9900      	ldr	r1, [sp, #0]
 800516e:	9801      	ldr	r0, [sp, #4]
 8005170:	4288      	cmp	r0, r1
 8005172:	d004      	beq.n	800517e <_ZN70_$LT$alloc..vec..Vec$LT$T$C$A$GT$$u20$as$u20$core..ops..drop..Drop$GT$4drop17h620bfc4a84fd08b9E+0x2e>
 8005174:	e7ff      	b.n	8005176 <_ZN70_$LT$alloc..vec..Vec$LT$T$C$A$GT$$u20$as$u20$core..ops..drop..Drop$GT$4drop17h620bfc4a84fd08b9E+0x26>
 8005176:	9801      	ldr	r0, [sp, #4]
 8005178:	3001      	adds	r0, #1
 800517a:	9001      	str	r0, [sp, #4]
 800517c:	e7f6      	b.n	800516c <_ZN70_$LT$alloc..vec..Vec$LT$T$C$A$GT$$u20$as$u20$core..ops..drop..Drop$GT$4drop17h620bfc4a84fd08b9E+0x1c>
 800517e:	b009      	add	sp, #36	; 0x24
 8005180:	4770      	bx	lr

08005182 <_ZN72_$LT$alloc..boxed..Box$LT$T$C$A$GT$$u20$as$u20$core..ops..drop..Drop$GT$4drop17h0a14e2be73e6fda9E>:
 8005182:	b580      	push	{r7, lr}
 8005184:	466f      	mov	r7, sp
 8005186:	b090      	sub	sp, #64	; 0x40
 8005188:	9001      	str	r0, [sp, #4]
 800518a:	9007      	str	r0, [sp, #28]
 800518c:	6800      	ldr	r0, [r0, #0]
 800518e:	9002      	str	r0, [sp, #8]
 8005190:	9008      	str	r0, [sp, #32]
 8005192:	9009      	str	r0, [sp, #36]	; 0x24
 8005194:	2008      	movs	r0, #8
 8005196:	900a      	str	r0, [sp, #40]	; 0x28
 8005198:	980a      	ldr	r0, [sp, #40]	; 0x28
 800519a:	9003      	str	r0, [sp, #12]
 800519c:	900b      	str	r0, [sp, #44]	; 0x2c
 800519e:	2004      	movs	r0, #4
 80051a0:	900c      	str	r0, [sp, #48]	; 0x30
 80051a2:	980c      	ldr	r0, [sp, #48]	; 0x30
 80051a4:	9004      	str	r0, [sp, #16]
 80051a6:	900d      	str	r0, [sp, #52]	; 0x34
 80051a8:	e7ff      	b.n	80051aa <_ZN72_$LT$alloc..boxed..Box$LT$T$C$A$GT$$u20$as$u20$core..ops..drop..Drop$GT$4drop17h0a14e2be73e6fda9E+0x28>
 80051aa:	9904      	ldr	r1, [sp, #16]
 80051ac:	9803      	ldr	r0, [sp, #12]
 80051ae:	f000 f89c 	bl	80052ea <_ZN4core5alloc6layout6Layout25from_size_align_unchecked18precondition_check17hd0d7b8aa2bc75080E>
 80051b2:	e7ff      	b.n	80051b4 <_ZN72_$LT$alloc..boxed..Box$LT$T$C$A$GT$$u20$as$u20$core..ops..drop..Drop$GT$4drop17h0a14e2be73e6fda9E+0x32>
 80051b4:	9803      	ldr	r0, [sp, #12]
 80051b6:	9904      	ldr	r1, [sp, #16]
 80051b8:	9006      	str	r0, [sp, #24]
 80051ba:	9105      	str	r1, [sp, #20]
 80051bc:	a905      	add	r1, sp, #20
 80051be:	910e      	str	r1, [sp, #56]	; 0x38
 80051c0:	b910      	cbnz	r0, 80051c8 <_ZN72_$LT$alloc..boxed..Box$LT$T$C$A$GT$$u20$as$u20$core..ops..drop..Drop$GT$4drop17h0a14e2be73e6fda9E+0x46>
 80051c2:	e7ff      	b.n	80051c4 <_ZN72_$LT$alloc..boxed..Box$LT$T$C$A$GT$$u20$as$u20$core..ops..drop..Drop$GT$4drop17h0a14e2be73e6fda9E+0x42>
 80051c4:	b010      	add	sp, #64	; 0x40
 80051c6:	bd80      	pop	{r7, pc}
 80051c8:	9902      	ldr	r1, [sp, #8]
 80051ca:	9801      	ldr	r0, [sp, #4]
 80051cc:	3004      	adds	r0, #4
 80051ce:	910f      	str	r1, [sp, #60]	; 0x3c
 80051d0:	9a05      	ldr	r2, [sp, #20]
 80051d2:	9b06      	ldr	r3, [sp, #24]
 80051d4:	f001 f938 	bl	8006448 <_ZN63_$LT$alloc..alloc..Global$u20$as$u20$core..alloc..Allocator$GT$10deallocate17h940e4e017005d7c6E>
 80051d8:	e7f4      	b.n	80051c4 <_ZN72_$LT$alloc..boxed..Box$LT$T$C$A$GT$$u20$as$u20$core..ops..drop..Drop$GT$4drop17h0a14e2be73e6fda9E+0x42>

080051da <_ZN72_$LT$alloc..boxed..Box$LT$T$C$A$GT$$u20$as$u20$core..ops..drop..Drop$GT$4drop17ha3f1fb0e10eff9abE>:
 80051da:	b580      	push	{r7, lr}
 80051dc:	466f      	mov	r7, sp
 80051de:	b092      	sub	sp, #72	; 0x48
 80051e0:	9001      	str	r0, [sp, #4]
 80051e2:	9007      	str	r0, [sp, #28]
 80051e4:	6801      	ldr	r1, [r0, #0]
 80051e6:	9102      	str	r1, [sp, #8]
 80051e8:	6840      	ldr	r0, [r0, #4]
 80051ea:	9108      	str	r1, [sp, #32]
 80051ec:	9009      	str	r0, [sp, #36]	; 0x24
 80051ee:	910a      	str	r1, [sp, #40]	; 0x28
 80051f0:	900b      	str	r0, [sp, #44]	; 0x2c
 80051f2:	6841      	ldr	r1, [r0, #4]
 80051f4:	910c      	str	r1, [sp, #48]	; 0x30
 80051f6:	990c      	ldr	r1, [sp, #48]	; 0x30
 80051f8:	9103      	str	r1, [sp, #12]
 80051fa:	910d      	str	r1, [sp, #52]	; 0x34
 80051fc:	6880      	ldr	r0, [r0, #8]
 80051fe:	900e      	str	r0, [sp, #56]	; 0x38
 8005200:	980e      	ldr	r0, [sp, #56]	; 0x38
 8005202:	9004      	str	r0, [sp, #16]
 8005204:	900f      	str	r0, [sp, #60]	; 0x3c
 8005206:	e7ff      	b.n	8005208 <_ZN72_$LT$alloc..boxed..Box$LT$T$C$A$GT$$u20$as$u20$core..ops..drop..Drop$GT$4drop17ha3f1fb0e10eff9abE+0x2e>
 8005208:	9904      	ldr	r1, [sp, #16]
 800520a:	9803      	ldr	r0, [sp, #12]
 800520c:	f000 f86d 	bl	80052ea <_ZN4core5alloc6layout6Layout25from_size_align_unchecked18precondition_check17hd0d7b8aa2bc75080E>
 8005210:	e7ff      	b.n	8005212 <_ZN72_$LT$alloc..boxed..Box$LT$T$C$A$GT$$u20$as$u20$core..ops..drop..Drop$GT$4drop17ha3f1fb0e10eff9abE+0x38>
 8005212:	9803      	ldr	r0, [sp, #12]
 8005214:	9904      	ldr	r1, [sp, #16]
 8005216:	9006      	str	r0, [sp, #24]
 8005218:	9105      	str	r1, [sp, #20]
 800521a:	a905      	add	r1, sp, #20
 800521c:	9110      	str	r1, [sp, #64]	; 0x40
 800521e:	b910      	cbnz	r0, 8005226 <_ZN72_$LT$alloc..boxed..Box$LT$T$C$A$GT$$u20$as$u20$core..ops..drop..Drop$GT$4drop17ha3f1fb0e10eff9abE+0x4c>
 8005220:	e7ff      	b.n	8005222 <_ZN72_$LT$alloc..boxed..Box$LT$T$C$A$GT$$u20$as$u20$core..ops..drop..Drop$GT$4drop17ha3f1fb0e10eff9abE+0x48>
 8005222:	b012      	add	sp, #72	; 0x48
 8005224:	bd80      	pop	{r7, pc}
 8005226:	9902      	ldr	r1, [sp, #8]
 8005228:	9801      	ldr	r0, [sp, #4]
 800522a:	3008      	adds	r0, #8
 800522c:	9111      	str	r1, [sp, #68]	; 0x44
 800522e:	9a05      	ldr	r2, [sp, #20]
 8005230:	9b06      	ldr	r3, [sp, #24]
 8005232:	f001 f909 	bl	8006448 <_ZN63_$LT$alloc..alloc..Global$u20$as$u20$core..alloc..Allocator$GT$10deallocate17h940e4e017005d7c6E>
 8005236:	e7f4      	b.n	8005222 <_ZN72_$LT$alloc..boxed..Box$LT$T$C$A$GT$$u20$as$u20$core..ops..drop..Drop$GT$4drop17ha3f1fb0e10eff9abE+0x48>

08005238 <_ZN77_$LT$alloc..raw_vec..RawVec$LT$T$C$A$GT$$u20$as$u20$core..ops..drop..Drop$GT$4drop17h45b3c4e33802d921E>:
 8005238:	b580      	push	{r7, lr}
 800523a:	466f      	mov	r7, sp
 800523c:	b082      	sub	sp, #8
 800523e:	9001      	str	r0, [sp, #4]
 8005240:	2201      	movs	r2, #1
 8005242:	4611      	mov	r1, r2
 8005244:	f000 fae8 	bl	8005818 <_ZN5alloc7raw_vec20RawVecInner$LT$A$GT$10deallocate17hc1a697b7edfdc78cE>
 8005248:	b002      	add	sp, #8
 800524a:	bd80      	pop	{r7, pc}

0800524c <_ZN78_$LT$freertos_rust..isr..InterruptContext$u20$as$u20$core..ops..drop..Drop$GT$4drop17h82e14173bf451fdeE>:
 800524c:	b580      	push	{r7, lr}
 800524e:	466f      	mov	r7, sp
 8005250:	b082      	sub	sp, #8
 8005252:	9001      	str	r0, [sp, #4]
 8005254:	6800      	ldr	r0, [r0, #0]
 8005256:	f7fc fd55 	bl	8001d04 <freertos_rs_isr_yield>
 800525a:	b002      	add	sp, #8
 800525c:	bd80      	pop	{r7, pc}

0800525e <_ZN4core5alloc6layout6Layout13repeat_packed17h6b6181a1e1dce391E>:
 800525e:	b092      	sub	sp, #72	; 0x48
 8005260:	9002      	str	r0, [sp, #8]
 8005262:	9009      	str	r0, [sp, #36]	; 0x24
 8005264:	910a      	str	r1, [sp, #40]	; 0x28
 8005266:	6840      	ldr	r0, [r0, #4]
 8005268:	900b      	str	r0, [sp, #44]	; 0x2c
 800526a:	fba0 1001 	umull	r1, r0, r0, r1
 800526e:	2800      	cmp	r0, #0
 8005270:	bf18      	it	ne
 8005272:	2001      	movne	r0, #1
 8005274:	460a      	mov	r2, r1
 8005276:	9203      	str	r2, [sp, #12]
 8005278:	910c      	str	r1, [sp, #48]	; 0x30
 800527a:	f88d 0037 	strb.w	r0, [sp, #55]	; 0x37
 800527e:	910e      	str	r1, [sp, #56]	; 0x38
 8005280:	f88d 003f 	strb.w	r0, [sp, #63]	; 0x3f
 8005284:	f89d 003f 	ldrb.w	r0, [sp, #63]	; 0x3f
 8005288:	07c0      	lsls	r0, r0, #31
 800528a:	b990      	cbnz	r0, 80052b2 <_ZN4core5alloc6layout6Layout13repeat_packed17h6b6181a1e1dce391E+0x54>
 800528c:	e7ff      	b.n	800528e <_ZN4core5alloc6layout6Layout13repeat_packed17h6b6181a1e1dce391E+0x30>
 800528e:	9902      	ldr	r1, [sp, #8]
 8005290:	9803      	ldr	r0, [sp, #12]
 8005292:	9007      	str	r0, [sp, #28]
 8005294:	2001      	movs	r0, #1
 8005296:	9006      	str	r0, [sp, #24]
 8005298:	9807      	ldr	r0, [sp, #28]
 800529a:	9000      	str	r0, [sp, #0]
 800529c:	9010      	str	r0, [sp, #64]	; 0x40
 800529e:	6809      	ldr	r1, [r1, #0]
 80052a0:	9101      	str	r1, [sp, #4]
 80052a2:	9111      	str	r1, [sp, #68]	; 0x44
 80052a4:	9108      	str	r1, [sp, #32]
 80052a6:	9908      	ldr	r1, [sp, #32]
 80052a8:	f1c1 4100 	rsb	r1, r1, #2147483648	; 0x80000000
 80052ac:	4288      	cmp	r0, r1
 80052ae:	d80e      	bhi.n	80052ce <_ZN4core5alloc6layout6Layout13repeat_packed17h6b6181a1e1dce391E+0x70>
 80052b0:	e008      	b.n	80052c4 <_ZN4core5alloc6layout6Layout13repeat_packed17h6b6181a1e1dce391E+0x66>
 80052b2:	f249 5038 	movw	r0, #38200	; 0x9538
 80052b6:	f6c0 0000 	movt	r0, #2048	; 0x800
 80052ba:	6801      	ldr	r1, [r0, #0]
 80052bc:	6840      	ldr	r0, [r0, #4]
 80052be:	9104      	str	r1, [sp, #16]
 80052c0:	9005      	str	r0, [sp, #20]
 80052c2:	e00e      	b.n	80052e2 <_ZN4core5alloc6layout6Layout13repeat_packed17h6b6181a1e1dce391E+0x84>
 80052c4:	9800      	ldr	r0, [sp, #0]
 80052c6:	9901      	ldr	r1, [sp, #4]
 80052c8:	9104      	str	r1, [sp, #16]
 80052ca:	9005      	str	r0, [sp, #20]
 80052cc:	e008      	b.n	80052e0 <_ZN4core5alloc6layout6Layout13repeat_packed17h6b6181a1e1dce391E+0x82>
 80052ce:	f249 5038 	movw	r0, #38200	; 0x9538
 80052d2:	f6c0 0000 	movt	r0, #2048	; 0x800
 80052d6:	6801      	ldr	r1, [r0, #0]
 80052d8:	6840      	ldr	r0, [r0, #4]
 80052da:	9104      	str	r1, [sp, #16]
 80052dc:	9005      	str	r0, [sp, #20]
 80052de:	e7ff      	b.n	80052e0 <_ZN4core5alloc6layout6Layout13repeat_packed17h6b6181a1e1dce391E+0x82>
 80052e0:	e7ff      	b.n	80052e2 <_ZN4core5alloc6layout6Layout13repeat_packed17h6b6181a1e1dce391E+0x84>
 80052e2:	9804      	ldr	r0, [sp, #16]
 80052e4:	9905      	ldr	r1, [sp, #20]
 80052e6:	b012      	add	sp, #72	; 0x48
 80052e8:	4770      	bx	lr

080052ea <_ZN4core5alloc6layout6Layout25from_size_align_unchecked18precondition_check17hd0d7b8aa2bc75080E>:
 80052ea:	b580      	push	{r7, lr}
 80052ec:	466f      	mov	r7, sp
 80052ee:	b082      	sub	sp, #8
 80052f0:	9000      	str	r0, [sp, #0]
 80052f2:	9101      	str	r1, [sp, #4]
 80052f4:	f003 fadb 	bl	80088ae <_ZN4core5alloc6layout6Layout19is_size_align_valid17h1d357ed88d42d87eE>
 80052f8:	b938      	cbnz	r0, 800530a <_ZN4core5alloc6layout6Layout25from_size_align_unchecked18precondition_check17hd0d7b8aa2bc75080E+0x20>
 80052fa:	e7ff      	b.n	80052fc <_ZN4core5alloc6layout6Layout25from_size_align_unchecked18precondition_check17hd0d7b8aa2bc75080E+0x12>
 80052fc:	f24a 2050 	movw	r0, #41552	; 0xa250
 8005300:	f6c0 0000 	movt	r0, #2048	; 0x800
 8005304:	21a4      	movs	r1, #164	; 0xa4
 8005306:	f002 f822 	bl	800734e <_ZN4core9panicking14panic_nounwind17ha7168a7a4498f4fbE>
 800530a:	b002      	add	sp, #8
 800530c:	bd80      	pop	{r7, pc}

0800530e <_ZN4core5alloc6layout6Layout4size17h64334d1d8a969b25E>:
 800530e:	b081      	sub	sp, #4
 8005310:	9000      	str	r0, [sp, #0]
 8005312:	6840      	ldr	r0, [r0, #4]
 8005314:	b001      	add	sp, #4
 8005316:	4770      	bx	lr

08005318 <_ZN4core5alloc6layout6Layout6repeat17hed8d093ac719b8abE>:
 8005318:	b580      	push	{r7, lr}
 800531a:	466f      	mov	r7, sp
 800531c:	b096      	sub	sp, #88	; 0x58
 800531e:	9200      	str	r2, [sp, #0]
 8005320:	9101      	str	r1, [sp, #4]
 8005322:	4601      	mov	r1, r0
 8005324:	9801      	ldr	r0, [sp, #4]
 8005326:	9102      	str	r1, [sp, #8]
 8005328:	900d      	str	r0, [sp, #52]	; 0x34
 800532a:	920e      	str	r2, [sp, #56]	; 0x38
 800532c:	6801      	ldr	r1, [r0, #0]
 800532e:	910f      	str	r1, [sp, #60]	; 0x3c
 8005330:	910c      	str	r1, [sp, #48]	; 0x30
 8005332:	990c      	ldr	r1, [sp, #48]	; 0x30
 8005334:	9103      	str	r1, [sp, #12]
 8005336:	9110      	str	r1, [sp, #64]	; 0x40
 8005338:	1e4a      	subs	r2, r1, #1
 800533a:	9211      	str	r2, [sp, #68]	; 0x44
 800533c:	6840      	ldr	r0, [r0, #4]
 800533e:	4410      	add	r0, r2
 8005340:	4249      	negs	r1, r1
 8005342:	4008      	ands	r0, r1
 8005344:	4601      	mov	r1, r0
 8005346:	9104      	str	r1, [sp, #16]
 8005348:	9012      	str	r0, [sp, #72]	; 0x48
 800534a:	e7ff      	b.n	800534c <_ZN4core5alloc6layout6Layout6repeat17hed8d093ac719b8abE+0x34>
 800534c:	9903      	ldr	r1, [sp, #12]
 800534e:	9804      	ldr	r0, [sp, #16]
 8005350:	f7ff ffcb 	bl	80052ea <_ZN4core5alloc6layout6Layout25from_size_align_unchecked18precondition_check17hd0d7b8aa2bc75080E>
 8005354:	e7ff      	b.n	8005356 <_ZN4core5alloc6layout6Layout6repeat17hed8d093ac719b8abE+0x3e>
 8005356:	9900      	ldr	r1, [sp, #0]
 8005358:	9803      	ldr	r0, [sp, #12]
 800535a:	9a04      	ldr	r2, [sp, #16]
 800535c:	9206      	str	r2, [sp, #24]
 800535e:	9005      	str	r0, [sp, #20]
 8005360:	a805      	add	r0, sp, #20
 8005362:	f7ff ff7c 	bl	800525e <_ZN4core5alloc6layout6Layout13repeat_packed17h6b6181a1e1dce391E>
 8005366:	9007      	str	r0, [sp, #28]
 8005368:	9108      	str	r1, [sp, #32]
 800536a:	9807      	ldr	r0, [sp, #28]
 800536c:	b1a0      	cbz	r0, 8005398 <_ZN4core5alloc6layout6Layout6repeat17hed8d093ac719b8abE+0x80>
 800536e:	e7ff      	b.n	8005370 <_ZN4core5alloc6layout6Layout6repeat17hed8d093ac719b8abE+0x58>
 8005370:	9902      	ldr	r1, [sp, #8]
 8005372:	9804      	ldr	r0, [sp, #16]
 8005374:	9b07      	ldr	r3, [sp, #28]
 8005376:	9a08      	ldr	r2, [sp, #32]
 8005378:	9313      	str	r3, [sp, #76]	; 0x4c
 800537a:	9214      	str	r2, [sp, #80]	; 0x50
 800537c:	f10d 0c14 	add.w	ip, sp, #20
 8005380:	f8cd c054 	str.w	ip, [sp, #84]	; 0x54
 8005384:	9309      	str	r3, [sp, #36]	; 0x24
 8005386:	920a      	str	r2, [sp, #40]	; 0x28
 8005388:	900b      	str	r0, [sp, #44]	; 0x2c
 800538a:	9809      	ldr	r0, [sp, #36]	; 0x24
 800538c:	9a0a      	ldr	r2, [sp, #40]	; 0x28
 800538e:	9b0b      	ldr	r3, [sp, #44]	; 0x2c
 8005390:	608b      	str	r3, [r1, #8]
 8005392:	604a      	str	r2, [r1, #4]
 8005394:	6008      	str	r0, [r1, #0]
 8005396:	e003      	b.n	80053a0 <_ZN4core5alloc6layout6Layout6repeat17hed8d093ac719b8abE+0x88>
 8005398:	9902      	ldr	r1, [sp, #8]
 800539a:	2000      	movs	r0, #0
 800539c:	6008      	str	r0, [r1, #0]
 800539e:	e7ff      	b.n	80053a0 <_ZN4core5alloc6layout6Layout6repeat17hed8d093ac719b8abE+0x88>
 80053a0:	b016      	add	sp, #88	; 0x58
 80053a2:	bd80      	pop	{r7, pc}

080053a4 <_ZN13freertos_rust5utils17str_from_c_string17h25ac1611b0273e04E>:
 80053a4:	b580      	push	{r7, lr}
 80053a6:	466f      	mov	r7, sp
 80053a8:	b096      	sub	sp, #88	; 0x58
 80053aa:	9102      	str	r1, [sp, #8]
 80053ac:	9001      	str	r0, [sp, #4]
 80053ae:	9113      	str	r1, [sp, #76]	; 0x4c
 80053b0:	a803      	add	r0, sp, #12
 80053b2:	f000 f8cf 	bl	8005554 <_ZN5alloc3vec12Vec$LT$T$GT$3new17ha8f66f6ba6c69e1dE>
 80053b6:	9902      	ldr	r1, [sp, #8]
 80053b8:	9106      	str	r1, [sp, #24]
 80053ba:	e7ff      	b.n	80053bc <_ZN13freertos_rust5utils17str_from_c_string17h25ac1611b0273e04E+0x18>
 80053bc:	9806      	ldr	r0, [sp, #24]
 80053be:	7800      	ldrb	r0, [r0, #0]
 80053c0:	b978      	cbnz	r0, 80053e2 <_ZN13freertos_rust5utils17str_from_c_string17h25ac1611b0273e04E+0x3e>
 80053c2:	e7ff      	b.n	80053c4 <_ZN13freertos_rust5utils17str_from_c_string17h25ac1611b0273e04E+0x20>
 80053c4:	9803      	ldr	r0, [sp, #12]
 80053c6:	9904      	ldr	r1, [sp, #16]
 80053c8:	9a05      	ldr	r2, [sp, #20]
 80053ca:	920e      	str	r2, [sp, #56]	; 0x38
 80053cc:	910d      	str	r1, [sp, #52]	; 0x34
 80053ce:	900c      	str	r0, [sp, #48]	; 0x30
 80053d0:	a807      	add	r0, sp, #28
 80053d2:	a90c      	add	r1, sp, #48	; 0x30
 80053d4:	f7ff fd66 	bl	8004ea4 <_ZN5alloc6string6String9from_utf817h3788e2d0777247deE>
 80053d8:	9807      	ldr	r0, [sp, #28]
 80053da:	f1b0 4f00 	cmp.w	r0, #2147483648	; 0x80000000
 80053de:	d015      	beq.n	800540c <_ZN13freertos_rust5utils17str_from_c_string17h25ac1611b0273e04E+0x68>
 80053e0:	e022      	b.n	8005428 <_ZN13freertos_rust5utils17str_from_c_string17h25ac1611b0273e04E+0x84>
 80053e2:	9806      	ldr	r0, [sp, #24]
 80053e4:	7801      	ldrb	r1, [r0, #0]
 80053e6:	f24a 3210 	movw	r2, #41744	; 0xa310
 80053ea:	f6c0 0200 	movt	r2, #2048	; 0x800
 80053ee:	a803      	add	r0, sp, #12
 80053f0:	f000 f8bb 	bl	800556a <_ZN5alloc3vec16Vec$LT$T$C$A$GT$4push17he989fb6dced9dba8E>
 80053f4:	9806      	ldr	r0, [sp, #24]
 80053f6:	9000      	str	r0, [sp, #0]
 80053f8:	9014      	str	r0, [sp, #80]	; 0x50
 80053fa:	2201      	movs	r2, #1
 80053fc:	9215      	str	r2, [sp, #84]	; 0x54
 80053fe:	4611      	mov	r1, r2
 8005400:	f000 f869 	bl	80054d6 <_ZN4core3ptr9const_ptr33_$LT$impl$u20$$BP$const$u20$T$GT$6offset18precondition_check17h14b8659ce2925ba8E>
 8005404:	9800      	ldr	r0, [sp, #0]
 8005406:	3001      	adds	r0, #1
 8005408:	9006      	str	r0, [sp, #24]
 800540a:	e7d7      	b.n	80053bc <_ZN13freertos_rust5utils17str_from_c_string17h25ac1611b0273e04E+0x18>
 800540c:	9901      	ldr	r1, [sp, #4]
 800540e:	9808      	ldr	r0, [sp, #32]
 8005410:	9a09      	ldr	r2, [sp, #36]	; 0x24
 8005412:	9b0a      	ldr	r3, [sp, #40]	; 0x28
 8005414:	9311      	str	r3, [sp, #68]	; 0x44
 8005416:	9210      	str	r2, [sp, #64]	; 0x40
 8005418:	900f      	str	r0, [sp, #60]	; 0x3c
 800541a:	980f      	ldr	r0, [sp, #60]	; 0x3c
 800541c:	9a10      	ldr	r2, [sp, #64]	; 0x40
 800541e:	9b11      	ldr	r3, [sp, #68]	; 0x44
 8005420:	608b      	str	r3, [r1, #8]
 8005422:	604a      	str	r2, [r1, #4]
 8005424:	6008      	str	r0, [r1, #0]
 8005426:	e00a      	b.n	800543e <_ZN13freertos_rust5utils17str_from_c_string17h25ac1611b0273e04E+0x9a>
 8005428:	9901      	ldr	r1, [sp, #4]
 800542a:	2006      	movs	r0, #6
 800542c:	f807 0c0d 	strb.w	r0, [r7, #-13]
 8005430:	f817 0c0d 	ldrb.w	r0, [r7, #-13]
 8005434:	7108      	strb	r0, [r1, #4]
 8005436:	f04f 4000 	mov.w	r0, #2147483648	; 0x80000000
 800543a:	6008      	str	r0, [r1, #0]
 800543c:	e7ff      	b.n	800543e <_ZN13freertos_rust5utils17str_from_c_string17h25ac1611b0273e04E+0x9a>
 800543e:	9807      	ldr	r0, [sp, #28]
 8005440:	f1b0 4f00 	cmp.w	r0, #2147483648	; 0x80000000
 8005444:	d102      	bne.n	800544c <_ZN13freertos_rust5utils17str_from_c_string17h25ac1611b0273e04E+0xa8>
 8005446:	e7ff      	b.n	8005448 <_ZN13freertos_rust5utils17str_from_c_string17h25ac1611b0273e04E+0xa4>
 8005448:	b016      	add	sp, #88	; 0x58
 800544a:	bd80      	pop	{r7, pc}
 800544c:	a807      	add	r0, sp, #28
 800544e:	f7ff fe24 	bl	800509a <_ZN4core3ptr101drop_in_place$LT$core..result..Result$LT$alloc..string..String$C$alloc..string..FromUtf8Error$GT$$GT$17h6a7b8358451895e2E>
 8005452:	e7f9      	b.n	8005448 <_ZN13freertos_rust5utils17str_from_c_string17h25ac1611b0273e04E+0xa4>

08005454 <_ZN52_$LT$T$u20$as$u20$alloc..slice..hack..ConvertVec$GT$6to_vec17h4fd96d5f1aed3c50E>:
 8005454:	b580      	push	{r7, lr}
 8005456:	466f      	mov	r7, sp
 8005458:	b094      	sub	sp, #80	; 0x50
 800545a:	9201      	str	r2, [sp, #4]
 800545c:	9103      	str	r1, [sp, #12]
 800545e:	4602      	mov	r2, r0
 8005460:	9801      	ldr	r0, [sp, #4]
 8005462:	9202      	str	r2, [sp, #8]
 8005464:	9108      	str	r1, [sp, #32]
 8005466:	9009      	str	r0, [sp, #36]	; 0x24
 8005468:	900b      	str	r0, [sp, #44]	; 0x2c
 800546a:	f24a 3390 	movw	r3, #41872	; 0xa390
 800546e:	f6c0 0300 	movt	r3, #2048	; 0x800
 8005472:	2201      	movs	r2, #1
 8005474:	4611      	mov	r1, r2
 8005476:	f000 fc41 	bl	8005cfc <_ZN5alloc7raw_vec20RawVecInner$LT$A$GT$16with_capacity_in17he9ed08708e9181daE>
 800547a:	4602      	mov	r2, r0
 800547c:	4608      	mov	r0, r1
 800547e:	9903      	ldr	r1, [sp, #12]
 8005480:	9205      	str	r2, [sp, #20]
 8005482:	9006      	str	r0, [sp, #24]
 8005484:	2000      	movs	r0, #0
 8005486:	9007      	str	r0, [sp, #28]
 8005488:	910c      	str	r1, [sp, #48]	; 0x30
 800548a:	a805      	add	r0, sp, #20
 800548c:	900d      	str	r0, [sp, #52]	; 0x34
 800548e:	900e      	str	r0, [sp, #56]	; 0x38
 8005490:	900f      	str	r0, [sp, #60]	; 0x3c
 8005492:	9806      	ldr	r0, [sp, #24]
 8005494:	9004      	str	r0, [sp, #16]
 8005496:	9010      	str	r0, [sp, #64]	; 0x40
 8005498:	9011      	str	r0, [sp, #68]	; 0x44
 800549a:	9012      	str	r0, [sp, #72]	; 0x48
 800549c:	e7ff      	b.n	800549e <_ZN52_$LT$T$u20$as$u20$alloc..slice..hack..ConvertVec$GT$6to_vec17h4fd96d5f1aed3c50E+0x4a>
 800549e:	9904      	ldr	r1, [sp, #16]
 80054a0:	9803      	ldr	r0, [sp, #12]
 80054a2:	9a01      	ldr	r2, [sp, #4]
 80054a4:	466b      	mov	r3, sp
 80054a6:	601a      	str	r2, [r3, #0]
 80054a8:	2301      	movs	r3, #1
 80054aa:	461a      	mov	r2, r3
 80054ac:	f001 f87b 	bl	80065a6 <_ZN4core10intrinsics19copy_nonoverlapping18precondition_check17h11c88b660aa3e550E>
 80054b0:	e7ff      	b.n	80054b2 <_ZN52_$LT$T$u20$as$u20$alloc..slice..hack..ConvertVec$GT$6to_vec17h4fd96d5f1aed3c50E+0x5e>
 80054b2:	9a01      	ldr	r2, [sp, #4]
 80054b4:	9903      	ldr	r1, [sp, #12]
 80054b6:	9804      	ldr	r0, [sp, #16]
 80054b8:	f003 fe7b 	bl	80091b2 <__aeabi_memcpy>
 80054bc:	9902      	ldr	r1, [sp, #8]
 80054be:	9801      	ldr	r0, [sp, #4]
 80054c0:	aa05      	add	r2, sp, #20
 80054c2:	9213      	str	r2, [sp, #76]	; 0x4c
 80054c4:	9007      	str	r0, [sp, #28]
 80054c6:	9805      	ldr	r0, [sp, #20]
 80054c8:	9a06      	ldr	r2, [sp, #24]
 80054ca:	9b07      	ldr	r3, [sp, #28]
 80054cc:	608b      	str	r3, [r1, #8]
 80054ce:	604a      	str	r2, [r1, #4]
 80054d0:	6008      	str	r0, [r1, #0]
 80054d2:	b014      	add	sp, #80	; 0x50
 80054d4:	bd80      	pop	{r7, pc}

080054d6 <_ZN4core3ptr9const_ptr33_$LT$impl$u20$$BP$const$u20$T$GT$6offset18precondition_check17h14b8659ce2925ba8E>:
 80054d6:	b580      	push	{r7, lr}
 80054d8:	466f      	mov	r7, sp
 80054da:	b092      	sub	sp, #72	; 0x48
 80054dc:	9101      	str	r1, [sp, #4]
 80054de:	4601      	mov	r1, r0
 80054e0:	9801      	ldr	r0, [sp, #4]
 80054e2:	9102      	str	r1, [sp, #8]
 80054e4:	9104      	str	r1, [sp, #16]
 80054e6:	9005      	str	r0, [sp, #20]
 80054e8:	9206      	str	r2, [sp, #24]
 80054ea:	9207      	str	r2, [sp, #28]
 80054ec:	fb00 f102 	mul.w	r1, r0, r2
 80054f0:	fb50 f002 	smmul	r0, r0, r2
 80054f4:	ebb0 70e1 	subs.w	r0, r0, r1, asr #31
 80054f8:	bf18      	it	ne
 80054fa:	2001      	movne	r0, #1
 80054fc:	460a      	mov	r2, r1
 80054fe:	9203      	str	r2, [sp, #12]
 8005500:	9108      	str	r1, [sp, #32]
 8005502:	f807 0c21 	strb.w	r0, [r7, #-33]
 8005506:	910a      	str	r1, [sp, #40]	; 0x28
 8005508:	f807 0c19 	strb.w	r0, [r7, #-25]
 800550c:	f817 0c19 	ldrb.w	r0, [r7, #-25]
 8005510:	07c0      	lsls	r0, r0, #31
 8005512:	b9a8      	cbnz	r0, 8005540 <_ZN4core3ptr9const_ptr33_$LT$impl$u20$$BP$const$u20$T$GT$6offset18precondition_check17h14b8659ce2925ba8E+0x6a>
 8005514:	e7ff      	b.n	8005516 <_ZN4core3ptr9const_ptr33_$LT$impl$u20$$BP$const$u20$T$GT$6offset18precondition_check17h14b8659ce2925ba8E+0x40>
 8005516:	9a03      	ldr	r2, [sp, #12]
 8005518:	9802      	ldr	r0, [sp, #8]
 800551a:	900c      	str	r0, [sp, #48]	; 0x30
 800551c:	920d      	str	r2, [sp, #52]	; 0x34
 800551e:	1883      	adds	r3, r0, r2
 8005520:	f04f 0100 	mov.w	r1, #0
 8005524:	f141 0000 	adc.w	r0, r1, #0
 8005528:	930e      	str	r3, [sp, #56]	; 0x38
 800552a:	f807 0c09 	strb.w	r0, [r7, #-9]
 800552e:	9310      	str	r3, [sp, #64]	; 0x40
 8005530:	2a00      	cmp	r2, #0
 8005532:	bf48      	it	mi
 8005534:	2101      	movmi	r1, #1
 8005536:	4048      	eors	r0, r1
 8005538:	f807 0c01 	strb.w	r0, [r7, #-1]
 800553c:	b140      	cbz	r0, 8005550 <_ZN4core3ptr9const_ptr33_$LT$impl$u20$$BP$const$u20$T$GT$6offset18precondition_check17h14b8659ce2925ba8E+0x7a>
 800553e:	e000      	b.n	8005542 <_ZN4core3ptr9const_ptr33_$LT$impl$u20$$BP$const$u20$T$GT$6offset18precondition_check17h14b8659ce2925ba8E+0x6c>
 8005540:	e7ff      	b.n	8005542 <_ZN4core3ptr9const_ptr33_$LT$impl$u20$$BP$const$u20$T$GT$6offset18precondition_check17h14b8659ce2925ba8E+0x6c>
 8005542:	f24a 30a0 	movw	r0, #41888	; 0xa3a0
 8005546:	f6c0 0000 	movt	r0, #2048	; 0x800
 800554a:	215d      	movs	r1, #93	; 0x5d
 800554c:	f001 feff 	bl	800734e <_ZN4core9panicking14panic_nounwind17ha7168a7a4498f4fbE>
 8005550:	b012      	add	sp, #72	; 0x48
 8005552:	bd80      	pop	{r7, pc}

08005554 <_ZN5alloc3vec12Vec$LT$T$GT$3new17ha8f66f6ba6c69e1dE>:
 8005554:	b083      	sub	sp, #12
 8005556:	4601      	mov	r1, r0
 8005558:	2201      	movs	r2, #1
 800555a:	9201      	str	r2, [sp, #4]
 800555c:	9202      	str	r2, [sp, #8]
 800555e:	2000      	movs	r0, #0
 8005560:	6008      	str	r0, [r1, #0]
 8005562:	604a      	str	r2, [r1, #4]
 8005564:	6088      	str	r0, [r1, #8]
 8005566:	b003      	add	sp, #12
 8005568:	4770      	bx	lr

0800556a <_ZN5alloc3vec16Vec$LT$T$C$A$GT$4push17he989fb6dced9dba8E>:
 800556a:	b580      	push	{r7, lr}
 800556c:	466f      	mov	r7, sp
 800556e:	b092      	sub	sp, #72	; 0x48
 8005570:	9201      	str	r2, [sp, #4]
 8005572:	9002      	str	r0, [sp, #8]
 8005574:	460a      	mov	r2, r1
 8005576:	9203      	str	r2, [sp, #12]
 8005578:	9006      	str	r0, [sp, #24]
 800557a:	f807 1c29 	strb.w	r1, [r7, #-41]
 800557e:	6881      	ldr	r1, [r0, #8]
 8005580:	9104      	str	r1, [sp, #16]
 8005582:	9108      	str	r1, [sp, #32]
 8005584:	9009      	str	r0, [sp, #36]	; 0x24
 8005586:	900a      	str	r0, [sp, #40]	; 0x28
 8005588:	2001      	movs	r0, #1
 800558a:	900b      	str	r0, [sp, #44]	; 0x2c
 800558c:	e7ff      	b.n	800558e <_ZN5alloc3vec16Vec$LT$T$C$A$GT$4push17he989fb6dced9dba8E+0x24>
 800558e:	9802      	ldr	r0, [sp, #8]
 8005590:	6800      	ldr	r0, [r0, #0]
 8005592:	9005      	str	r0, [sp, #20]
 8005594:	e7ff      	b.n	8005596 <_ZN5alloc3vec16Vec$LT$T$C$A$GT$4push17he989fb6dced9dba8E+0x2c>
 8005596:	9804      	ldr	r0, [sp, #16]
 8005598:	9905      	ldr	r1, [sp, #20]
 800559a:	4288      	cmp	r0, r1
 800559c:	d001      	beq.n	80055a2 <_ZN5alloc3vec16Vec$LT$T$C$A$GT$4push17he989fb6dced9dba8E+0x38>
 800559e:	e7ff      	b.n	80055a0 <_ZN5alloc3vec16Vec$LT$T$C$A$GT$4push17he989fb6dced9dba8E+0x36>
 80055a0:	e004      	b.n	80055ac <_ZN5alloc3vec16Vec$LT$T$C$A$GT$4push17he989fb6dced9dba8E+0x42>
 80055a2:	9901      	ldr	r1, [sp, #4]
 80055a4:	9802      	ldr	r0, [sp, #8]
 80055a6:	f000 f916 	bl	80057d6 <_ZN5alloc7raw_vec19RawVec$LT$T$C$A$GT$8grow_one17h5bb2b60b82fedfa4E>
 80055aa:	e7ff      	b.n	80055ac <_ZN5alloc3vec16Vec$LT$T$C$A$GT$4push17he989fb6dced9dba8E+0x42>
 80055ac:	9902      	ldr	r1, [sp, #8]
 80055ae:	9804      	ldr	r0, [sp, #16]
 80055b0:	9a03      	ldr	r2, [sp, #12]
 80055b2:	910c      	str	r1, [sp, #48]	; 0x30
 80055b4:	910d      	str	r1, [sp, #52]	; 0x34
 80055b6:	684b      	ldr	r3, [r1, #4]
 80055b8:	930e      	str	r3, [sp, #56]	; 0x38
 80055ba:	930f      	str	r3, [sp, #60]	; 0x3c
 80055bc:	9310      	str	r3, [sp, #64]	; 0x40
 80055be:	eb03 0c00 	add.w	ip, r3, r0
 80055c2:	f8cd c044 	str.w	ip, [sp, #68]	; 0x44
 80055c6:	541a      	strb	r2, [r3, r0]
 80055c8:	3001      	adds	r0, #1
 80055ca:	6088      	str	r0, [r1, #8]
 80055cc:	b012      	add	sp, #72	; 0x48
 80055ce:	bd80      	pop	{r7, pc}

080055d0 <_ZN13freertos_rust5hooks14FREERTOS_HOOKS28_$u7b$$u7b$closure$u7d$$u7d$17h8469a6998b4cb016E>:
 80055d0:	b081      	sub	sp, #4
 80055d2:	9000      	str	r0, [sp, #0]
 80055d4:	b001      	add	sp, #4
 80055d6:	4770      	bx	lr

080055d8 <_ZN13freertos_rust3isr16InterruptContext3new17h63adac5d4bd5d6adE>:
 80055d8:	2000      	movs	r0, #0
 80055da:	4770      	bx	lr

080055dc <_ZN13freertos_rust3isr16InterruptContext18get_task_field_mut17h9b5ec0a6e9b691edE>:
 80055dc:	b081      	sub	sp, #4
 80055de:	9000      	str	r0, [sp, #0]
 80055e0:	b001      	add	sp, #4
 80055e2:	4770      	bx	lr

080055e4 <_ZN96_$LT$freertos_rust..allocator..FreeRtosAllocator$u20$as$u20$core..alloc..global..GlobalAlloc$GT$5alloc17ha2faf5168b77887cE>:
 80055e4:	b580      	push	{r7, lr}
 80055e6:	466f      	mov	r7, sp
 80055e8:	b084      	sub	sp, #16
 80055ea:	9100      	str	r1, [sp, #0]
 80055ec:	9201      	str	r2, [sp, #4]
 80055ee:	9002      	str	r0, [sp, #8]
 80055f0:	4668      	mov	r0, sp
 80055f2:	f7ff fe8c 	bl	800530e <_ZN4core5alloc6layout6Layout4size17h64334d1d8a969b25E>
 80055f6:	f7fc fad5 	bl	8001ba4 <freertos_rs_pvPortMalloc>
 80055fa:	9003      	str	r0, [sp, #12]
 80055fc:	b004      	add	sp, #16
 80055fe:	bd80      	pop	{r7, pc}

08005600 <_ZN96_$LT$freertos_rust..allocator..FreeRtosAllocator$u20$as$u20$core..alloc..global..GlobalAlloc$GT$7dealloc17h6e23447d1b01d97dE>:
 8005600:	b580      	push	{r7, lr}
 8005602:	466f      	mov	r7, sp
 8005604:	b086      	sub	sp, #24
 8005606:	9101      	str	r1, [sp, #4]
 8005608:	4601      	mov	r1, r0
 800560a:	9801      	ldr	r0, [sp, #4]
 800560c:	9102      	str	r1, [sp, #8]
 800560e:	9003      	str	r0, [sp, #12]
 8005610:	9204      	str	r2, [sp, #16]
 8005612:	9305      	str	r3, [sp, #20]
 8005614:	f7fc fad2 	bl	8001bbc <freertos_rs_vPortFree>
 8005618:	b006      	add	sp, #24
 800561a:	bd80      	pop	{r7, pc}

0800561c <_ZN50_$LT$T$u20$as$u20$core..convert..Into$LT$U$GT$$GT$4into17hecf4369980f900c6E>:
 800561c:	b580      	push	{r7, lr}
 800561e:	466f      	mov	r7, sp
 8005620:	b082      	sub	sp, #8
 8005622:	9100      	str	r1, [sp, #0]
 8005624:	9201      	str	r2, [sp, #4]
 8005626:	f7ff fca9 	bl	8004f7c <_ZN76_$LT$alloc..string..String$u20$as$u20$core..convert..From$LT$$RF$str$GT$$GT$4from17h731ead80f91e45d4E>
 800562a:	b002      	add	sp, #8
 800562c:	bd80      	pop	{r7, pc}

0800562e <_ZN4core3mem6forget17hf8442f7d59fccc03E>:
 800562e:	b081      	sub	sp, #4
 8005630:	9000      	str	r0, [sp, #0]
 8005632:	b001      	add	sp, #4
 8005634:	4770      	bx	lr

08005636 <_ZN4core3fmt9Arguments6new_v117hc1e9a78dfe851e73E>:
 8005636:	b083      	sub	sp, #12
 8005638:	9100      	str	r1, [sp, #0]
 800563a:	4601      	mov	r1, r0
 800563c:	9800      	ldr	r0, [sp, #0]
 800563e:	9001      	str	r0, [sp, #4]
 8005640:	9202      	str	r2, [sp, #8]
 8005642:	6008      	str	r0, [r1, #0]
 8005644:	2002      	movs	r0, #2
 8005646:	6048      	str	r0, [r1, #4]
 8005648:	f249 5338 	movw	r3, #38200	; 0x9538
 800564c:	f6c0 0300 	movt	r3, #2048	; 0x800
 8005650:	f8d3 c000 	ldr.w	ip, [r3]
 8005654:	685b      	ldr	r3, [r3, #4]
 8005656:	f8c1 c010 	str.w	ip, [r1, #16]
 800565a:	614b      	str	r3, [r1, #20]
 800565c:	608a      	str	r2, [r1, #8]
 800565e:	60c8      	str	r0, [r1, #12]
 8005660:	b003      	add	sp, #12
 8005662:	4770      	bx	lr

08005664 <_ZN4core3ptr8non_null16NonNull$LT$T$GT$13new_unchecked18precondition_check17had037874fa2fd2fdE>:
 8005664:	b580      	push	{r7, lr}
 8005666:	466f      	mov	r7, sp
 8005668:	b084      	sub	sp, #16
 800566a:	9001      	str	r0, [sp, #4]
 800566c:	9002      	str	r0, [sp, #8]
 800566e:	9003      	str	r0, [sp, #12]
 8005670:	b938      	cbnz	r0, 8005682 <_ZN4core3ptr8non_null16NonNull$LT$T$GT$13new_unchecked18precondition_check17had037874fa2fd2fdE+0x1e>
 8005672:	e7ff      	b.n	8005674 <_ZN4core3ptr8non_null16NonNull$LT$T$GT$13new_unchecked18precondition_check17had037874fa2fd2fdE+0x10>
 8005674:	f24a 30fd 	movw	r0, #41981	; 0xa3fd
 8005678:	f6c0 0000 	movt	r0, #2048	; 0x800
 800567c:	215d      	movs	r1, #93	; 0x5d
 800567e:	f001 fe66 	bl	800734e <_ZN4core9panicking14panic_nounwind17ha7168a7a4498f4fbE>
 8005682:	b004      	add	sp, #16
 8005684:	bd80      	pop	{r7, pc}

08005686 <_ZN5alloc7raw_vec11finish_grow17heb7c03e1dfbfed78E>:
 8005686:	b5d0      	push	{r4, r6, r7, lr}
 8005688:	af02      	add	r7, sp, #8
 800568a:	b0b0      	sub	sp, #192	; 0xc0
 800568c:	9304      	str	r3, [sp, #16]
 800568e:	460b      	mov	r3, r1
 8005690:	9005      	str	r0, [sp, #20]
 8005692:	68b8      	ldr	r0, [r7, #8]
 8005694:	9006      	str	r0, [sp, #24]
 8005696:	f249 5038 	movw	r0, #38200	; 0x9538
 800569a:	f6c0 0000 	movt	r0, #2048	; 0x800
 800569e:	6801      	ldr	r1, [r0, #0]
 80056a0:	6840      	ldr	r0, [r0, #4]
 80056a2:	9307      	str	r3, [sp, #28]
 80056a4:	9208      	str	r2, [sp, #32]
 80056a6:	2200      	movs	r2, #0
 80056a8:	f807 2c59 	strb.w	r2, [r7, #-89]
 80056ac:	911c      	str	r1, [sp, #112]	; 0x70
 80056ae:	901d      	str	r0, [sp, #116]	; 0x74
 80056b0:	911e      	str	r1, [sp, #120]	; 0x78
 80056b2:	901f      	str	r0, [sp, #124]	; 0x7c
 80056b4:	a807      	add	r0, sp, #28
 80056b6:	9021      	str	r0, [sp, #132]	; 0x84
 80056b8:	9808      	ldr	r0, [sp, #32]
 80056ba:	9022      	str	r0, [sp, #136]	; 0x88
 80056bc:	2800      	cmp	r0, #0
 80056be:	d40c      	bmi.n	80056da <_ZN5alloc7raw_vec11finish_grow17heb7c03e1dfbfed78E+0x54>
 80056c0:	e7ff      	b.n	80056c2 <_ZN5alloc7raw_vec11finish_grow17heb7c03e1dfbfed78E+0x3c>
 80056c2:	9804      	ldr	r0, [sp, #16]
 80056c4:	f249 5128 	movw	r1, #38184	; 0x9528
 80056c8:	f6c0 0100 	movt	r1, #2048	; 0x800
 80056cc:	680a      	ldr	r2, [r1, #0]
 80056ce:	6849      	ldr	r1, [r1, #4]
 80056d0:	920b      	str	r2, [sp, #44]	; 0x2c
 80056d2:	910c      	str	r1, [sp, #48]	; 0x30
 80056d4:	6840      	ldr	r0, [r0, #4]
 80056d6:	bb00      	cbnz	r0, 800571a <_ZN5alloc7raw_vec11finish_grow17heb7c03e1dfbfed78E+0x94>
 80056d8:	e03c      	b.n	8005754 <_ZN5alloc7raw_vec11finish_grow17heb7c03e1dfbfed78E+0xce>
 80056da:	9905      	ldr	r1, [sp, #20]
 80056dc:	f249 5038 	movw	r0, #38200	; 0x9538
 80056e0:	f6c0 0000 	movt	r0, #2048	; 0x800
 80056e4:	6802      	ldr	r2, [r0, #0]
 80056e6:	6840      	ldr	r0, [r0, #4]
 80056e8:	920b      	str	r2, [sp, #44]	; 0x2c
 80056ea:	900c      	str	r0, [sp, #48]	; 0x30
 80056ec:	9a0b      	ldr	r2, [sp, #44]	; 0x2c
 80056ee:	980c      	ldr	r0, [sp, #48]	; 0x30
 80056f0:	922c      	str	r2, [sp, #176]	; 0xb0
 80056f2:	902d      	str	r0, [sp, #180]	; 0xb4
 80056f4:	9215      	str	r2, [sp, #84]	; 0x54
 80056f6:	9016      	str	r0, [sp, #88]	; 0x58
 80056f8:	9a15      	ldr	r2, [sp, #84]	; 0x54
 80056fa:	9816      	ldr	r0, [sp, #88]	; 0x58
 80056fc:	9209      	str	r2, [sp, #36]	; 0x24
 80056fe:	900a      	str	r0, [sp, #40]	; 0x28
 8005700:	9a09      	ldr	r2, [sp, #36]	; 0x24
 8005702:	980a      	ldr	r0, [sp, #40]	; 0x28
 8005704:	920d      	str	r2, [sp, #52]	; 0x34
 8005706:	900e      	str	r0, [sp, #56]	; 0x38
 8005708:	9a0d      	ldr	r2, [sp, #52]	; 0x34
 800570a:	980e      	ldr	r0, [sp, #56]	; 0x38
 800570c:	922e      	str	r2, [sp, #184]	; 0xb8
 800570e:	902f      	str	r0, [sp, #188]	; 0xbc
 8005710:	604a      	str	r2, [r1, #4]
 8005712:	6088      	str	r0, [r1, #8]
 8005714:	2001      	movs	r0, #1
 8005716:	6008      	str	r0, [r1, #0]
 8005718:	e05b      	b.n	80057d2 <_ZN5alloc7raw_vec11finish_grow17heb7c03e1dfbfed78E+0x14c>
 800571a:	9804      	ldr	r0, [sp, #16]
 800571c:	6801      	ldr	r1, [r0, #0]
 800571e:	9102      	str	r1, [sp, #8]
 8005720:	9123      	str	r1, [sp, #140]	; 0x8c
 8005722:	6841      	ldr	r1, [r0, #4]
 8005724:	6880      	ldr	r0, [r0, #8]
 8005726:	9111      	str	r1, [sp, #68]	; 0x44
 8005728:	9012      	str	r0, [sp, #72]	; 0x48
 800572a:	a811      	add	r0, sp, #68	; 0x44
 800572c:	9024      	str	r0, [sp, #144]	; 0x90
 800572e:	9811      	ldr	r0, [sp, #68]	; 0x44
 8005730:	9025      	str	r0, [sp, #148]	; 0x94
 8005732:	9017      	str	r0, [sp, #92]	; 0x5c
 8005734:	9817      	ldr	r0, [sp, #92]	; 0x5c
 8005736:	a907      	add	r1, sp, #28
 8005738:	9126      	str	r1, [sp, #152]	; 0x98
 800573a:	9907      	ldr	r1, [sp, #28]
 800573c:	9127      	str	r1, [sp, #156]	; 0x9c
 800573e:	9118      	str	r1, [sp, #96]	; 0x60
 8005740:	9918      	ldr	r1, [sp, #96]	; 0x60
 8005742:	1a40      	subs	r0, r0, r1
 8005744:	fab0 f080 	clz	r0, r0
 8005748:	0940      	lsrs	r0, r0, #5
 800574a:	4601      	mov	r1, r0
 800574c:	9103      	str	r1, [sp, #12]
 800574e:	f807 0c25 	strb.w	r0, [r7, #-37]
 8005752:	e007      	b.n	8005764 <_ZN5alloc7raw_vec11finish_grow17heb7c03e1dfbfed78E+0xde>
 8005754:	9806      	ldr	r0, [sp, #24]
 8005756:	9907      	ldr	r1, [sp, #28]
 8005758:	9a08      	ldr	r2, [sp, #32]
 800575a:	f000 feba 	bl	80064d2 <_ZN63_$LT$alloc..alloc..Global$u20$as$u20$core..alloc..Allocator$GT$8allocate17h2f94815d8e11f350E>
 800575e:	900f      	str	r0, [sp, #60]	; 0x3c
 8005760:	9110      	str	r1, [sp, #64]	; 0x40
 8005762:	e016      	b.n	8005792 <_ZN5alloc7raw_vec11finish_grow17heb7c03e1dfbfed78E+0x10c>
 8005764:	9803      	ldr	r0, [sp, #12]
 8005766:	f000 0001 	and.w	r0, r0, #1
 800576a:	f000 fc18 	bl	8005f9e <_ZN4core4hint16assert_unchecked18precondition_check17h5e71cde4293b3b38E>
 800576e:	e7ff      	b.n	8005770 <_ZN5alloc7raw_vec11finish_grow17heb7c03e1dfbfed78E+0xea>
 8005770:	9902      	ldr	r1, [sp, #8]
 8005772:	9806      	ldr	r0, [sp, #24]
 8005774:	9a11      	ldr	r2, [sp, #68]	; 0x44
 8005776:	9b12      	ldr	r3, [sp, #72]	; 0x48
 8005778:	f8dd c01c 	ldr.w	ip, [sp, #28]
 800577c:	9c08      	ldr	r4, [sp, #32]
 800577e:	46ee      	mov	lr, sp
 8005780:	f8ce 4004 	str.w	r4, [lr, #4]
 8005784:	f8ce c000 	str.w	ip, [lr]
 8005788:	f000 fe8a 	bl	80064a0 <_ZN63_$LT$alloc..alloc..Global$u20$as$u20$core..alloc..Allocator$GT$4grow17h1913efbb3fc93210E>
 800578c:	900f      	str	r0, [sp, #60]	; 0x3c
 800578e:	9110      	str	r1, [sp, #64]	; 0x40
 8005790:	e7ff      	b.n	8005792 <_ZN5alloc7raw_vec11finish_grow17heb7c03e1dfbfed78E+0x10c>
 8005792:	990f      	ldr	r1, [sp, #60]	; 0x3c
 8005794:	9810      	ldr	r0, [sp, #64]	; 0x40
 8005796:	9113      	str	r1, [sp, #76]	; 0x4c
 8005798:	9014      	str	r0, [sp, #80]	; 0x50
 800579a:	a807      	add	r0, sp, #28
 800579c:	9029      	str	r0, [sp, #164]	; 0xa4
 800579e:	9813      	ldr	r0, [sp, #76]	; 0x4c
 80057a0:	b150      	cbz	r0, 80057b8 <_ZN5alloc7raw_vec11finish_grow17heb7c03e1dfbfed78E+0x132>
 80057a2:	e7ff      	b.n	80057a4 <_ZN5alloc7raw_vec11finish_grow17heb7c03e1dfbfed78E+0x11e>
 80057a4:	9905      	ldr	r1, [sp, #20]
 80057a6:	9a13      	ldr	r2, [sp, #76]	; 0x4c
 80057a8:	9814      	ldr	r0, [sp, #80]	; 0x50
 80057aa:	922a      	str	r2, [sp, #168]	; 0xa8
 80057ac:	902b      	str	r0, [sp, #172]	; 0xac
 80057ae:	604a      	str	r2, [r1, #4]
 80057b0:	6088      	str	r0, [r1, #8]
 80057b2:	2000      	movs	r0, #0
 80057b4:	6008      	str	r0, [r1, #0]
 80057b6:	e00b      	b.n	80057d0 <_ZN5alloc7raw_vec11finish_grow17heb7c03e1dfbfed78E+0x14a>
 80057b8:	9905      	ldr	r1, [sp, #20]
 80057ba:	9a07      	ldr	r2, [sp, #28]
 80057bc:	9808      	ldr	r0, [sp, #32]
 80057be:	9219      	str	r2, [sp, #100]	; 0x64
 80057c0:	901a      	str	r0, [sp, #104]	; 0x68
 80057c2:	9a19      	ldr	r2, [sp, #100]	; 0x64
 80057c4:	981a      	ldr	r0, [sp, #104]	; 0x68
 80057c6:	604a      	str	r2, [r1, #4]
 80057c8:	6088      	str	r0, [r1, #8]
 80057ca:	2001      	movs	r0, #1
 80057cc:	6008      	str	r0, [r1, #0]
 80057ce:	e7ff      	b.n	80057d0 <_ZN5alloc7raw_vec11finish_grow17heb7c03e1dfbfed78E+0x14a>
 80057d0:	e7ff      	b.n	80057d2 <_ZN5alloc7raw_vec11finish_grow17heb7c03e1dfbfed78E+0x14c>
 80057d2:	b030      	add	sp, #192	; 0xc0
 80057d4:	bdd0      	pop	{r4, r6, r7, pc}

080057d6 <_ZN5alloc7raw_vec19RawVec$LT$T$C$A$GT$8grow_one17h5bb2b60b82fedfa4E>:
 80057d6:	b580      	push	{r7, lr}
 80057d8:	466f      	mov	r7, sp
 80057da:	b08a      	sub	sp, #40	; 0x28
 80057dc:	9101      	str	r1, [sp, #4]
 80057de:	9004      	str	r0, [sp, #16]
 80057e0:	2301      	movs	r3, #1
 80057e2:	9305      	str	r3, [sp, #20]
 80057e4:	9306      	str	r3, [sp, #24]
 80057e6:	9007      	str	r0, [sp, #28]
 80057e8:	6801      	ldr	r1, [r0, #0]
 80057ea:	466a      	mov	r2, sp
 80057ec:	6013      	str	r3, [r2, #0]
 80057ee:	461a      	mov	r2, r3
 80057f0:	f000 f879 	bl	80058e6 <_ZN5alloc7raw_vec20RawVecInner$LT$A$GT$14grow_amortized17hc16d63ebec227d2dE>
 80057f4:	9002      	str	r0, [sp, #8]
 80057f6:	9103      	str	r1, [sp, #12]
 80057f8:	9802      	ldr	r0, [sp, #8]
 80057fa:	2101      	movs	r1, #1
 80057fc:	f2c8 0100 	movt	r1, #32768	; 0x8000
 8005800:	4288      	cmp	r0, r1
 8005802:	d007      	beq.n	8005814 <_ZN5alloc7raw_vec19RawVec$LT$T$C$A$GT$8grow_one17h5bb2b60b82fedfa4E+0x3e>
 8005804:	e7ff      	b.n	8005806 <_ZN5alloc7raw_vec19RawVec$LT$T$C$A$GT$8grow_one17h5bb2b60b82fedfa4E+0x30>
 8005806:	9a01      	ldr	r2, [sp, #4]
 8005808:	9802      	ldr	r0, [sp, #8]
 800580a:	9903      	ldr	r1, [sp, #12]
 800580c:	9008      	str	r0, [sp, #32]
 800580e:	9109      	str	r1, [sp, #36]	; 0x24
 8005810:	f001 fbc6 	bl	8006fa0 <_ZN5alloc7raw_vec12handle_error17he4e6fa0ef8598d63E>
 8005814:	b00a      	add	sp, #40	; 0x28
 8005816:	bd80      	pop	{r7, pc}

08005818 <_ZN5alloc7raw_vec20RawVecInner$LT$A$GT$10deallocate17hc1a697b7edfdc78cE>:
 8005818:	b580      	push	{r7, lr}
 800581a:	466f      	mov	r7, sp
 800581c:	b08a      	sub	sp, #40	; 0x28
 800581e:	4613      	mov	r3, r2
 8005820:	460a      	mov	r2, r1
 8005822:	4601      	mov	r1, r0
 8005824:	9100      	str	r1, [sp, #0]
 8005826:	9104      	str	r1, [sp, #16]
 8005828:	9205      	str	r2, [sp, #20]
 800582a:	9306      	str	r3, [sp, #24]
 800582c:	a801      	add	r0, sp, #4
 800582e:	f000 f810 	bl	8005852 <_ZN5alloc7raw_vec20RawVecInner$LT$A$GT$14current_memory17h678898f300805a74E>
 8005832:	9802      	ldr	r0, [sp, #8]
 8005834:	b158      	cbz	r0, 800584e <_ZN5alloc7raw_vec20RawVecInner$LT$A$GT$10deallocate17hc1a697b7edfdc78cE+0x36>
 8005836:	e7ff      	b.n	8005838 <_ZN5alloc7raw_vec20RawVecInner$LT$A$GT$10deallocate17hc1a697b7edfdc78cE+0x20>
 8005838:	9800      	ldr	r0, [sp, #0]
 800583a:	9901      	ldr	r1, [sp, #4]
 800583c:	9107      	str	r1, [sp, #28]
 800583e:	9a02      	ldr	r2, [sp, #8]
 8005840:	9b03      	ldr	r3, [sp, #12]
 8005842:	9208      	str	r2, [sp, #32]
 8005844:	9309      	str	r3, [sp, #36]	; 0x24
 8005846:	3008      	adds	r0, #8
 8005848:	f000 fdfe 	bl	8006448 <_ZN63_$LT$alloc..alloc..Global$u20$as$u20$core..alloc..Allocator$GT$10deallocate17h940e4e017005d7c6E>
 800584c:	e7ff      	b.n	800584e <_ZN5alloc7raw_vec20RawVecInner$LT$A$GT$10deallocate17hc1a697b7edfdc78cE+0x36>
 800584e:	b00a      	add	sp, #40	; 0x28
 8005850:	bd80      	pop	{r7, pc}

08005852 <_ZN5alloc7raw_vec20RawVecInner$LT$A$GT$14current_memory17h678898f300805a74E>:
 8005852:	b580      	push	{r7, lr}
 8005854:	466f      	mov	r7, sp
 8005856:	b098      	sub	sp, #96	; 0x60
 8005858:	9102      	str	r1, [sp, #8]
 800585a:	9003      	str	r0, [sp, #12]
 800585c:	9205      	str	r2, [sp, #20]
 800585e:	9306      	str	r3, [sp, #24]
 8005860:	910d      	str	r1, [sp, #52]	; 0x34
 8005862:	a805      	add	r0, sp, #20
 8005864:	900e      	str	r0, [sp, #56]	; 0x38
 8005866:	9806      	ldr	r0, [sp, #24]
 8005868:	9004      	str	r0, [sp, #16]
 800586a:	900f      	str	r0, [sp, #60]	; 0x3c
 800586c:	b920      	cbnz	r0, 8005878 <_ZN5alloc7raw_vec20RawVecInner$LT$A$GT$14current_memory17h678898f300805a74E+0x26>
 800586e:	e7ff      	b.n	8005870 <_ZN5alloc7raw_vec20RawVecInner$LT$A$GT$14current_memory17h678898f300805a74E+0x1e>
 8005870:	9903      	ldr	r1, [sp, #12]
 8005872:	2000      	movs	r0, #0
 8005874:	6048      	str	r0, [r1, #4]
 8005876:	e00b      	b.n	8005890 <_ZN5alloc7raw_vec20RawVecInner$LT$A$GT$14current_memory17h678898f300805a74E+0x3e>
 8005878:	9802      	ldr	r0, [sp, #8]
 800587a:	6800      	ldr	r0, [r0, #0]
 800587c:	b908      	cbnz	r0, 8005882 <_ZN5alloc7raw_vec20RawVecInner$LT$A$GT$14current_memory17h678898f300805a74E+0x30>
 800587e:	e7ff      	b.n	8005880 <_ZN5alloc7raw_vec20RawVecInner$LT$A$GT$14current_memory17h678898f300805a74E+0x2e>
 8005880:	e7f6      	b.n	8005870 <_ZN5alloc7raw_vec20RawVecInner$LT$A$GT$14current_memory17h678898f300805a74E+0x1e>
 8005882:	9802      	ldr	r0, [sp, #8]
 8005884:	a905      	add	r1, sp, #20
 8005886:	9110      	str	r1, [sp, #64]	; 0x40
 8005888:	6800      	ldr	r0, [r0, #0]
 800588a:	9001      	str	r0, [sp, #4]
 800588c:	9011      	str	r0, [sp, #68]	; 0x44
 800588e:	e001      	b.n	8005894 <_ZN5alloc7raw_vec20RawVecInner$LT$A$GT$14current_memory17h678898f300805a74E+0x42>
 8005890:	b018      	add	sp, #96	; 0x60
 8005892:	bd80      	pop	{r7, pc}
 8005894:	9804      	ldr	r0, [sp, #16]
 8005896:	9901      	ldr	r1, [sp, #4]
 8005898:	f000 fb91 	bl	8005fbe <_ZN4core3num23_$LT$impl$u20$usize$GT$13unchecked_mul18precondition_check17hd0a003b61a467fb7E>
 800589c:	9901      	ldr	r1, [sp, #4]
 800589e:	9804      	ldr	r0, [sp, #16]
 80058a0:	4348      	muls	r0, r1
 80058a2:	9007      	str	r0, [sp, #28]
 80058a4:	9807      	ldr	r0, [sp, #28]
 80058a6:	9012      	str	r0, [sp, #72]	; 0x48
 80058a8:	a805      	add	r0, sp, #20
 80058aa:	9013      	str	r0, [sp, #76]	; 0x4c
 80058ac:	9805      	ldr	r0, [sp, #20]
 80058ae:	9014      	str	r0, [sp, #80]	; 0x50
 80058b0:	900c      	str	r0, [sp, #48]	; 0x30
 80058b2:	980c      	ldr	r0, [sp, #48]	; 0x30
 80058b4:	9008      	str	r0, [sp, #32]
 80058b6:	e7ff      	b.n	80058b8 <_ZN5alloc7raw_vec20RawVecInner$LT$A$GT$14current_memory17h678898f300805a74E+0x66>
 80058b8:	9807      	ldr	r0, [sp, #28]
 80058ba:	9908      	ldr	r1, [sp, #32]
 80058bc:	f7ff fd15 	bl	80052ea <_ZN4core5alloc6layout6Layout25from_size_align_unchecked18precondition_check17hd0d7b8aa2bc75080E>
 80058c0:	e7ff      	b.n	80058c2 <_ZN5alloc7raw_vec20RawVecInner$LT$A$GT$14current_memory17h678898f300805a74E+0x70>
 80058c2:	9903      	ldr	r1, [sp, #12]
 80058c4:	9b02      	ldr	r3, [sp, #8]
 80058c6:	9a08      	ldr	r2, [sp, #32]
 80058c8:	9807      	ldr	r0, [sp, #28]
 80058ca:	9215      	str	r2, [sp, #84]	; 0x54
 80058cc:	9016      	str	r0, [sp, #88]	; 0x58
 80058ce:	685b      	ldr	r3, [r3, #4]
 80058d0:	9317      	str	r3, [sp, #92]	; 0x5c
 80058d2:	9309      	str	r3, [sp, #36]	; 0x24
 80058d4:	920a      	str	r2, [sp, #40]	; 0x28
 80058d6:	900b      	str	r0, [sp, #44]	; 0x2c
 80058d8:	9809      	ldr	r0, [sp, #36]	; 0x24
 80058da:	9a0a      	ldr	r2, [sp, #40]	; 0x28
 80058dc:	9b0b      	ldr	r3, [sp, #44]	; 0x2c
 80058de:	608b      	str	r3, [r1, #8]
 80058e0:	604a      	str	r2, [r1, #4]
 80058e2:	6008      	str	r0, [r1, #0]
 80058e4:	e7d4      	b.n	8005890 <_ZN5alloc7raw_vec20RawVecInner$LT$A$GT$14current_memory17h678898f300805a74E+0x3e>

080058e6 <_ZN5alloc7raw_vec20RawVecInner$LT$A$GT$14grow_amortized17hc16d63ebec227d2dE>:
 80058e6:	b5d0      	push	{r4, r6, r7, lr}
 80058e8:	af02      	add	r7, sp, #8
 80058ea:	b0ee      	sub	sp, #440	; 0x1b8
 80058ec:	461c      	mov	r4, r3
 80058ee:	9205      	str	r2, [sp, #20]
 80058f0:	460b      	mov	r3, r1
 80058f2:	9306      	str	r3, [sp, #24]
 80058f4:	4684      	mov	ip, r0
 80058f6:	f8cd c01c 	str.w	ip, [sp, #28]
 80058fa:	f8d7 e008 	ldr.w	lr, [r7, #8]
 80058fe:	f249 5038 	movw	r0, #38200	; 0x9538
 8005902:	f6c0 0000 	movt	r0, #2048	; 0x800
 8005906:	6801      	ldr	r1, [r0, #0]
 8005908:	6840      	ldr	r0, [r0, #4]
 800590a:	9409      	str	r4, [sp, #36]	; 0x24
 800590c:	f8cd e028 	str.w	lr, [sp, #40]	; 0x28
 8005910:	f8cd c0f0 	str.w	ip, [sp, #240]	; 0xf0
 8005914:	933d      	str	r3, [sp, #244]	; 0xf4
 8005916:	923e      	str	r2, [sp, #248]	; 0xf8
 8005918:	913f      	str	r1, [sp, #252]	; 0xfc
 800591a:	9040      	str	r0, [sp, #256]	; 0x100
 800591c:	9141      	str	r1, [sp, #260]	; 0x104
 800591e:	9042      	str	r0, [sp, #264]	; 0x108
 8005920:	9143      	str	r1, [sp, #268]	; 0x10c
 8005922:	9044      	str	r0, [sp, #272]	; 0x110
 8005924:	9147      	str	r1, [sp, #284]	; 0x11c
 8005926:	9048      	str	r0, [sp, #288]	; 0x120
 8005928:	9149      	str	r1, [sp, #292]	; 0x124
 800592a:	904a      	str	r0, [sp, #296]	; 0x128
 800592c:	a809      	add	r0, sp, #36	; 0x24
 800592e:	904b      	str	r0, [sp, #300]	; 0x12c
 8005930:	980a      	ldr	r0, [sp, #40]	; 0x28
 8005932:	9008      	str	r0, [sp, #32]
 8005934:	904c      	str	r0, [sp, #304]	; 0x130
 8005936:	b948      	cbnz	r0, 800594c <_ZN5alloc7raw_vec20RawVecInner$LT$A$GT$14grow_amortized17hc16d63ebec227d2dE+0x66>
 8005938:	e7ff      	b.n	800593a <_ZN5alloc7raw_vec20RawVecInner$LT$A$GT$14grow_amortized17hc16d63ebec227d2dE+0x54>
 800593a:	f249 5038 	movw	r0, #38200	; 0x9538
 800593e:	f6c0 0000 	movt	r0, #2048	; 0x800
 8005942:	6801      	ldr	r1, [r0, #0]
 8005944:	6840      	ldr	r0, [r0, #4]
 8005946:	910b      	str	r1, [sp, #44]	; 0x2c
 8005948:	900c      	str	r0, [sp, #48]	; 0x30
 800594a:	e00d      	b.n	8005968 <_ZN5alloc7raw_vec20RawVecInner$LT$A$GT$14grow_amortized17hc16d63ebec227d2dE+0x82>
 800594c:	9806      	ldr	r0, [sp, #24]
 800594e:	9905      	ldr	r1, [sp, #20]
 8005950:	1840      	adds	r0, r0, r1
 8005952:	f04f 0000 	mov.w	r0, #0
 8005956:	f140 0000 	adc.w	r0, r0, #0
 800595a:	f807 0c89 	strb.w	r0, [r7, #-137]
 800595e:	f817 0c89 	ldrb.w	r0, [r7, #-137]
 8005962:	07c0      	lsls	r0, r0, #31
 8005964:	bb58      	cbnz	r0, 80059be <_ZN5alloc7raw_vec20RawVecInner$LT$A$GT$14grow_amortized17hc16d63ebec227d2dE+0xd8>
 8005966:	e003      	b.n	8005970 <_ZN5alloc7raw_vec20RawVecInner$LT$A$GT$14grow_amortized17hc16d63ebec227d2dE+0x8a>
 8005968:	980b      	ldr	r0, [sp, #44]	; 0x2c
 800596a:	990c      	ldr	r1, [sp, #48]	; 0x30
 800596c:	b06e      	add	sp, #440	; 0x1b8
 800596e:	bdd0      	pop	{r4, r6, r7, pc}
 8005970:	9907      	ldr	r1, [sp, #28]
 8005972:	9806      	ldr	r0, [sp, #24]
 8005974:	9a05      	ldr	r2, [sp, #20]
 8005976:	4410      	add	r0, r2
 8005978:	9012      	str	r0, [sp, #72]	; 0x48
 800597a:	2001      	movs	r0, #1
 800597c:	9011      	str	r0, [sp, #68]	; 0x44
 800597e:	9812      	ldr	r0, [sp, #72]	; 0x48
 8005980:	904e      	str	r0, [sp, #312]	; 0x138
 8005982:	9010      	str	r0, [sp, #64]	; 0x40
 8005984:	2001      	movs	r0, #1
 8005986:	f2c8 0000 	movt	r0, #32768	; 0x8000
 800598a:	900f      	str	r0, [sp, #60]	; 0x3c
 800598c:	9a10      	ldr	r2, [sp, #64]	; 0x40
 800598e:	924f      	str	r2, [sp, #316]	; 0x13c
 8005990:	920e      	str	r2, [sp, #56]	; 0x38
 8005992:	900d      	str	r0, [sp, #52]	; 0x34
 8005994:	980e      	ldr	r0, [sp, #56]	; 0x38
 8005996:	9004      	str	r0, [sp, #16]
 8005998:	9050      	str	r0, [sp, #320]	; 0x140
 800599a:	6809      	ldr	r1, [r1, #0]
 800599c:	0049      	lsls	r1, r1, #1
 800599e:	9116      	str	r1, [sp, #88]	; 0x58
 80059a0:	9017      	str	r0, [sp, #92]	; 0x5c
 80059a2:	a816      	add	r0, sp, #88	; 0x58
 80059a4:	a917      	add	r1, sp, #92	; 0x5c
 80059a6:	f7ff fb6d 	bl	8005084 <_ZN4core3ops8function6FnOnce9call_once17h643619ed97b5d805E>
 80059aa:	f807 0cf6 	strb.w	r0, [r7, #-246]
 80059ae:	f817 1cf6 	ldrb.w	r1, [r7, #-246]
 80059b2:	1c48      	adds	r0, r1, #1
 80059b4:	b2c0      	uxtb	r0, r0
 80059b6:	2802      	cmp	r0, #2
 80059b8:	d323      	bcc.n	8005a02 <_ZN5alloc7raw_vec20RawVecInner$LT$A$GT$14grow_amortized17hc16d63ebec227d2dE+0x11c>
 80059ba:	e7ff      	b.n	80059bc <_ZN5alloc7raw_vec20RawVecInner$LT$A$GT$14grow_amortized17hc16d63ebec227d2dE+0xd6>
 80059bc:	e024      	b.n	8005a08 <_ZN5alloc7raw_vec20RawVecInner$LT$A$GT$14grow_amortized17hc16d63ebec227d2dE+0x122>
 80059be:	f249 5038 	movw	r0, #38200	; 0x9538
 80059c2:	f6c0 0000 	movt	r0, #2048	; 0x800
 80059c6:	6802      	ldr	r2, [r0, #0]
 80059c8:	6841      	ldr	r1, [r0, #4]
 80059ca:	9211      	str	r2, [sp, #68]	; 0x44
 80059cc:	9112      	str	r1, [sp, #72]	; 0x48
 80059ce:	6801      	ldr	r1, [r0, #0]
 80059d0:	6840      	ldr	r0, [r0, #4]
 80059d2:	910f      	str	r1, [sp, #60]	; 0x3c
 80059d4:	9010      	str	r0, [sp, #64]	; 0x40
 80059d6:	990f      	ldr	r1, [sp, #60]	; 0x3c
 80059d8:	9810      	ldr	r0, [sp, #64]	; 0x40
 80059da:	916a      	str	r1, [sp, #424]	; 0x1a8
 80059dc:	906b      	str	r0, [sp, #428]	; 0x1ac
 80059de:	9130      	str	r1, [sp, #192]	; 0xc0
 80059e0:	9031      	str	r0, [sp, #196]	; 0xc4
 80059e2:	9930      	ldr	r1, [sp, #192]	; 0xc0
 80059e4:	9831      	ldr	r0, [sp, #196]	; 0xc4
 80059e6:	910d      	str	r1, [sp, #52]	; 0x34
 80059e8:	900e      	str	r0, [sp, #56]	; 0x38
 80059ea:	990d      	ldr	r1, [sp, #52]	; 0x34
 80059ec:	980e      	ldr	r0, [sp, #56]	; 0x38
 80059ee:	9113      	str	r1, [sp, #76]	; 0x4c
 80059f0:	9014      	str	r0, [sp, #80]	; 0x50
 80059f2:	9913      	ldr	r1, [sp, #76]	; 0x4c
 80059f4:	9814      	ldr	r0, [sp, #80]	; 0x50
 80059f6:	916c      	str	r1, [sp, #432]	; 0x1b0
 80059f8:	906d      	str	r0, [sp, #436]	; 0x1b4
 80059fa:	910b      	str	r1, [sp, #44]	; 0x2c
 80059fc:	900c      	str	r0, [sp, #48]	; 0x30
 80059fe:	e0c7      	b.n	8005b90 <_ZN5alloc7raw_vec20RawVecInner$LT$A$GT$14grow_amortized17hc16d63ebec227d2dE+0x2aa>
 8005a00:	defe      	udf	#254	; 0xfe
 8005a02:	9804      	ldr	r0, [sp, #16]
 8005a04:	9015      	str	r0, [sp, #84]	; 0x54
 8005a06:	e002      	b.n	8005a0e <_ZN5alloc7raw_vec20RawVecInner$LT$A$GT$14grow_amortized17hc16d63ebec227d2dE+0x128>
 8005a08:	9816      	ldr	r0, [sp, #88]	; 0x58
 8005a0a:	9015      	str	r0, [sp, #84]	; 0x54
 8005a0c:	e7ff      	b.n	8005a0e <_ZN5alloc7raw_vec20RawVecInner$LT$A$GT$14grow_amortized17hc16d63ebec227d2dE+0x128>
 8005a0e:	9808      	ldr	r0, [sp, #32]
 8005a10:	a909      	add	r1, sp, #36	; 0x24
 8005a12:	9151      	str	r1, [sp, #324]	; 0x144
 8005a14:	2801      	cmp	r0, #1
 8005a16:	d103      	bne.n	8005a20 <_ZN5alloc7raw_vec20RawVecInner$LT$A$GT$14grow_amortized17hc16d63ebec227d2dE+0x13a>
 8005a18:	e7ff      	b.n	8005a1a <_ZN5alloc7raw_vec20RawVecInner$LT$A$GT$14grow_amortized17hc16d63ebec227d2dE+0x134>
 8005a1a:	2008      	movs	r0, #8
 8005a1c:	9019      	str	r0, [sp, #100]	; 0x64
 8005a1e:	e004      	b.n	8005a2a <_ZN5alloc7raw_vec20RawVecInner$LT$A$GT$14grow_amortized17hc16d63ebec227d2dE+0x144>
 8005a20:	9808      	ldr	r0, [sp, #32]
 8005a22:	f5b0 6f80 	cmp.w	r0, #1024	; 0x400
 8005a26:	d913      	bls.n	8005a50 <_ZN5alloc7raw_vec20RawVecInner$LT$A$GT$14grow_amortized17hc16d63ebec227d2dE+0x16a>
 8005a28:	e00f      	b.n	8005a4a <_ZN5alloc7raw_vec20RawVecInner$LT$A$GT$14grow_amortized17hc16d63ebec227d2dE+0x164>
 8005a2a:	9815      	ldr	r0, [sp, #84]	; 0x54
 8005a2c:	901a      	str	r0, [sp, #104]	; 0x68
 8005a2e:	a819      	add	r0, sp, #100	; 0x64
 8005a30:	a91a      	add	r1, sp, #104	; 0x68
 8005a32:	f7ff fb27 	bl	8005084 <_ZN4core3ops8function6FnOnce9call_once17h643619ed97b5d805E>
 8005a36:	f807 0cf5 	strb.w	r0, [r7, #-245]
 8005a3a:	f817 1cf5 	ldrb.w	r1, [r7, #-245]
 8005a3e:	1c48      	adds	r0, r1, #1
 8005a40:	b2c0      	uxtb	r0, r0
 8005a42:	2802      	cmp	r0, #2
 8005a44:	d308      	bcc.n	8005a58 <_ZN5alloc7raw_vec20RawVecInner$LT$A$GT$14grow_amortized17hc16d63ebec227d2dE+0x172>
 8005a46:	e7ff      	b.n	8005a48 <_ZN5alloc7raw_vec20RawVecInner$LT$A$GT$14grow_amortized17hc16d63ebec227d2dE+0x162>
 8005a48:	e009      	b.n	8005a5e <_ZN5alloc7raw_vec20RawVecInner$LT$A$GT$14grow_amortized17hc16d63ebec227d2dE+0x178>
 8005a4a:	2001      	movs	r0, #1
 8005a4c:	9019      	str	r0, [sp, #100]	; 0x64
 8005a4e:	e002      	b.n	8005a56 <_ZN5alloc7raw_vec20RawVecInner$LT$A$GT$14grow_amortized17hc16d63ebec227d2dE+0x170>
 8005a50:	2004      	movs	r0, #4
 8005a52:	9019      	str	r0, [sp, #100]	; 0x64
 8005a54:	e7ff      	b.n	8005a56 <_ZN5alloc7raw_vec20RawVecInner$LT$A$GT$14grow_amortized17hc16d63ebec227d2dE+0x170>
 8005a56:	e7e8      	b.n	8005a2a <_ZN5alloc7raw_vec20RawVecInner$LT$A$GT$14grow_amortized17hc16d63ebec227d2dE+0x144>
 8005a58:	981a      	ldr	r0, [sp, #104]	; 0x68
 8005a5a:	9018      	str	r0, [sp, #96]	; 0x60
 8005a5c:	e002      	b.n	8005a64 <_ZN5alloc7raw_vec20RawVecInner$LT$A$GT$14grow_amortized17hc16d63ebec227d2dE+0x17e>
 8005a5e:	9819      	ldr	r0, [sp, #100]	; 0x64
 8005a60:	9018      	str	r0, [sp, #96]	; 0x60
 8005a62:	e7ff      	b.n	8005a64 <_ZN5alloc7raw_vec20RawVecInner$LT$A$GT$14grow_amortized17hc16d63ebec227d2dE+0x17e>
 8005a64:	9a18      	ldr	r2, [sp, #96]	; 0x60
 8005a66:	9252      	str	r2, [sp, #328]	; 0x148
 8005a68:	9909      	ldr	r1, [sp, #36]	; 0x24
 8005a6a:	980a      	ldr	r0, [sp, #40]	; 0x28
 8005a6c:	9121      	str	r1, [sp, #132]	; 0x84
 8005a6e:	9022      	str	r0, [sp, #136]	; 0x88
 8005a70:	a835      	add	r0, sp, #212	; 0xd4
 8005a72:	a921      	add	r1, sp, #132	; 0x84
 8005a74:	f7ff fc50 	bl	8005318 <_ZN4core5alloc6layout6Layout6repeat17hed8d093ac719b8abE>
 8005a78:	9835      	ldr	r0, [sp, #212]	; 0xd4
 8005a7a:	b390      	cbz	r0, 8005ae2 <_ZN5alloc7raw_vec20RawVecInner$LT$A$GT$14grow_amortized17hc16d63ebec227d2dE+0x1fc>
 8005a7c:	e7ff      	b.n	8005a7e <_ZN5alloc7raw_vec20RawVecInner$LT$A$GT$14grow_amortized17hc16d63ebec227d2dE+0x198>
 8005a7e:	9907      	ldr	r1, [sp, #28]
 8005a80:	9a35      	ldr	r2, [sp, #212]	; 0xd4
 8005a82:	9836      	ldr	r0, [sp, #216]	; 0xd8
 8005a84:	9253      	str	r2, [sp, #332]	; 0x14c
 8005a86:	9054      	str	r0, [sp, #336]	; 0x150
 8005a88:	9b37      	ldr	r3, [sp, #220]	; 0xdc
 8005a8a:	9355      	str	r3, [sp, #340]	; 0x154
 8005a8c:	9233      	str	r2, [sp, #204]	; 0xcc
 8005a8e:	9034      	str	r0, [sp, #208]	; 0xd0
 8005a90:	9a33      	ldr	r2, [sp, #204]	; 0xcc
 8005a92:	9834      	ldr	r0, [sp, #208]	; 0xd0
 8005a94:	9256      	str	r2, [sp, #344]	; 0x158
 8005a96:	9057      	str	r0, [sp, #348]	; 0x15c
 8005a98:	921f      	str	r2, [sp, #124]	; 0x7c
 8005a9a:	9020      	str	r0, [sp, #128]	; 0x80
 8005a9c:	2000      	movs	r0, #0
 8005a9e:	901e      	str	r0, [sp, #120]	; 0x78
 8005aa0:	9b1f      	ldr	r3, [sp, #124]	; 0x7c
 8005aa2:	9a20      	ldr	r2, [sp, #128]	; 0x80
 8005aa4:	9358      	str	r3, [sp, #352]	; 0x160
 8005aa6:	9259      	str	r2, [sp, #356]	; 0x164
 8005aa8:	931c      	str	r3, [sp, #112]	; 0x70
 8005aaa:	921d      	str	r2, [sp, #116]	; 0x74
 8005aac:	901b      	str	r0, [sp, #108]	; 0x6c
 8005aae:	9a1c      	ldr	r2, [sp, #112]	; 0x70
 8005ab0:	9201      	str	r2, [sp, #4]
 8005ab2:	981d      	ldr	r0, [sp, #116]	; 0x74
 8005ab4:	9002      	str	r0, [sp, #8]
 8005ab6:	925a      	str	r2, [sp, #360]	; 0x168
 8005ab8:	905b      	str	r0, [sp, #364]	; 0x16c
 8005aba:	9a09      	ldr	r2, [sp, #36]	; 0x24
 8005abc:	9b0a      	ldr	r3, [sp, #40]	; 0x28
 8005abe:	a82b      	add	r0, sp, #172	; 0xac
 8005ac0:	9003      	str	r0, [sp, #12]
 8005ac2:	f7ff fec6 	bl	8005852 <_ZN5alloc7raw_vec20RawVecInner$LT$A$GT$14current_memory17h678898f300805a74E>
 8005ac6:	9807      	ldr	r0, [sp, #28]
 8005ac8:	9901      	ldr	r1, [sp, #4]
 8005aca:	9a02      	ldr	r2, [sp, #8]
 8005acc:	9b03      	ldr	r3, [sp, #12]
 8005ace:	3008      	adds	r0, #8
 8005ad0:	46ec      	mov	ip, sp
 8005ad2:	f8cc 0000 	str.w	r0, [ip]
 8005ad6:	a828      	add	r0, sp, #160	; 0xa0
 8005ad8:	f7ff fdd5 	bl	8005686 <_ZN5alloc7raw_vec11finish_grow17heb7c03e1dfbfed78E>
 8005adc:	9828      	ldr	r0, [sp, #160]	; 0xa0
 8005ade:	b320      	cbz	r0, 8005b2a <_ZN5alloc7raw_vec20RawVecInner$LT$A$GT$14grow_amortized17hc16d63ebec227d2dE+0x244>
 8005ae0:	e03e      	b.n	8005b60 <_ZN5alloc7raw_vec20RawVecInner$LT$A$GT$14grow_amortized17hc16d63ebec227d2dE+0x27a>
 8005ae2:	f249 5038 	movw	r0, #38200	; 0x9538
 8005ae6:	f6c0 0000 	movt	r0, #2048	; 0x800
 8005aea:	6802      	ldr	r2, [r0, #0]
 8005aec:	6841      	ldr	r1, [r0, #4]
 8005aee:	9233      	str	r2, [sp, #204]	; 0xcc
 8005af0:	9134      	str	r1, [sp, #208]	; 0xd0
 8005af2:	6801      	ldr	r1, [r0, #0]
 8005af4:	6840      	ldr	r0, [r0, #4]
 8005af6:	911f      	str	r1, [sp, #124]	; 0x7c
 8005af8:	9020      	str	r0, [sp, #128]	; 0x80
 8005afa:	2001      	movs	r0, #1
 8005afc:	901e      	str	r0, [sp, #120]	; 0x78
 8005afe:	9a1f      	ldr	r2, [sp, #124]	; 0x7c
 8005b00:	9920      	ldr	r1, [sp, #128]	; 0x80
 8005b02:	9266      	str	r2, [sp, #408]	; 0x198
 8005b04:	9167      	str	r1, [sp, #412]	; 0x19c
 8005b06:	9238      	str	r2, [sp, #224]	; 0xe0
 8005b08:	9139      	str	r1, [sp, #228]	; 0xe4
 8005b0a:	9a38      	ldr	r2, [sp, #224]	; 0xe0
 8005b0c:	9939      	ldr	r1, [sp, #228]	; 0xe4
 8005b0e:	921c      	str	r2, [sp, #112]	; 0x70
 8005b10:	911d      	str	r1, [sp, #116]	; 0x74
 8005b12:	901b      	str	r0, [sp, #108]	; 0x6c
 8005b14:	991c      	ldr	r1, [sp, #112]	; 0x70
 8005b16:	981d      	ldr	r0, [sp, #116]	; 0x74
 8005b18:	9123      	str	r1, [sp, #140]	; 0x8c
 8005b1a:	9024      	str	r0, [sp, #144]	; 0x90
 8005b1c:	9923      	ldr	r1, [sp, #140]	; 0x8c
 8005b1e:	9824      	ldr	r0, [sp, #144]	; 0x90
 8005b20:	9168      	str	r1, [sp, #416]	; 0x1a0
 8005b22:	9069      	str	r0, [sp, #420]	; 0x1a4
 8005b24:	910b      	str	r1, [sp, #44]	; 0x2c
 8005b26:	900c      	str	r0, [sp, #48]	; 0x30
 8005b28:	e031      	b.n	8005b8e <_ZN5alloc7raw_vec20RawVecInner$LT$A$GT$14grow_amortized17hc16d63ebec227d2dE+0x2a8>
 8005b2a:	9907      	ldr	r1, [sp, #28]
 8005b2c:	9a29      	ldr	r2, [sp, #164]	; 0xa4
 8005b2e:	982a      	ldr	r0, [sp, #168]	; 0xa8
 8005b30:	925c      	str	r2, [sp, #368]	; 0x170
 8005b32:	905d      	str	r0, [sp, #372]	; 0x174
 8005b34:	9226      	str	r2, [sp, #152]	; 0x98
 8005b36:	9027      	str	r0, [sp, #156]	; 0x9c
 8005b38:	2000      	movs	r0, #0
 8005b3a:	9025      	str	r0, [sp, #148]	; 0x94
 8005b3c:	9a26      	ldr	r2, [sp, #152]	; 0x98
 8005b3e:	9827      	ldr	r0, [sp, #156]	; 0x9c
 8005b40:	925e      	str	r2, [sp, #376]	; 0x178
 8005b42:	905f      	str	r0, [sp, #380]	; 0x17c
 8005b44:	9818      	ldr	r0, [sp, #96]	; 0x60
 8005b46:	9060      	str	r0, [sp, #384]	; 0x180
 8005b48:	9261      	str	r2, [sp, #388]	; 0x184
 8005b4a:	604a      	str	r2, [r1, #4]
 8005b4c:	6008      	str	r0, [r1, #0]
 8005b4e:	f249 5028 	movw	r0, #38184	; 0x9528
 8005b52:	f6c0 0000 	movt	r0, #2048	; 0x800
 8005b56:	6801      	ldr	r1, [r0, #0]
 8005b58:	6840      	ldr	r0, [r0, #4]
 8005b5a:	910b      	str	r1, [sp, #44]	; 0x2c
 8005b5c:	900c      	str	r0, [sp, #48]	; 0x30
 8005b5e:	e703      	b.n	8005968 <_ZN5alloc7raw_vec20RawVecInner$LT$A$GT$14grow_amortized17hc16d63ebec227d2dE+0x82>
 8005b60:	9929      	ldr	r1, [sp, #164]	; 0xa4
 8005b62:	982a      	ldr	r0, [sp, #168]	; 0xa8
 8005b64:	9162      	str	r1, [sp, #392]	; 0x188
 8005b66:	9063      	str	r0, [sp, #396]	; 0x18c
 8005b68:	913a      	str	r1, [sp, #232]	; 0xe8
 8005b6a:	903b      	str	r0, [sp, #236]	; 0xec
 8005b6c:	993a      	ldr	r1, [sp, #232]	; 0xe8
 8005b6e:	983b      	ldr	r0, [sp, #236]	; 0xec
 8005b70:	9126      	str	r1, [sp, #152]	; 0x98
 8005b72:	9027      	str	r0, [sp, #156]	; 0x9c
 8005b74:	2001      	movs	r0, #1
 8005b76:	9025      	str	r0, [sp, #148]	; 0x94
 8005b78:	9926      	ldr	r1, [sp, #152]	; 0x98
 8005b7a:	9827      	ldr	r0, [sp, #156]	; 0x9c
 8005b7c:	912e      	str	r1, [sp, #184]	; 0xb8
 8005b7e:	902f      	str	r0, [sp, #188]	; 0xbc
 8005b80:	992e      	ldr	r1, [sp, #184]	; 0xb8
 8005b82:	982f      	ldr	r0, [sp, #188]	; 0xbc
 8005b84:	9164      	str	r1, [sp, #400]	; 0x190
 8005b86:	9065      	str	r0, [sp, #404]	; 0x194
 8005b88:	910b      	str	r1, [sp, #44]	; 0x2c
 8005b8a:	900c      	str	r0, [sp, #48]	; 0x30
 8005b8c:	e7ff      	b.n	8005b8e <_ZN5alloc7raw_vec20RawVecInner$LT$A$GT$14grow_amortized17hc16d63ebec227d2dE+0x2a8>
 8005b8e:	e7ff      	b.n	8005b90 <_ZN5alloc7raw_vec20RawVecInner$LT$A$GT$14grow_amortized17hc16d63ebec227d2dE+0x2aa>
 8005b90:	e6ea      	b.n	8005968 <_ZN5alloc7raw_vec20RawVecInner$LT$A$GT$14grow_amortized17hc16d63ebec227d2dE+0x82>

08005b92 <_ZN5alloc7raw_vec20RawVecInner$LT$A$GT$15try_allocate_in17h734ccb71777c6068E>:
 8005b92:	b580      	push	{r7, lr}
 8005b94:	466f      	mov	r7, sp
 8005b96:	b0bc      	sub	sp, #240	; 0xf0
 8005b98:	469c      	mov	ip, r3
 8005b9a:	4696      	mov	lr, r2
 8005b9c:	460a      	mov	r2, r1
 8005b9e:	9202      	str	r2, [sp, #8]
 8005ba0:	9003      	str	r0, [sp, #12]
 8005ba2:	68bb      	ldr	r3, [r7, #8]
 8005ba4:	f249 5038 	movw	r0, #38200	; 0x9538
 8005ba8:	f6c0 0000 	movt	r0, #2048	; 0x800
 8005bac:	6801      	ldr	r1, [r0, #0]
 8005bae:	6840      	ldr	r0, [r0, #4]
 8005bb0:	f807 ecde 	strb.w	lr, [r7, #-222]
 8005bb4:	f8cd c014 	str.w	ip, [sp, #20]
 8005bb8:	9306      	str	r3, [sp, #24]
 8005bba:	921a      	str	r2, [sp, #104]	; 0x68
 8005bbc:	911d      	str	r1, [sp, #116]	; 0x74
 8005bbe:	901e      	str	r0, [sp, #120]	; 0x78
 8005bc0:	911f      	str	r1, [sp, #124]	; 0x7c
 8005bc2:	9020      	str	r0, [sp, #128]	; 0x80
 8005bc4:	9121      	str	r1, [sp, #132]	; 0x84
 8005bc6:	9022      	str	r0, [sp, #136]	; 0x88
 8005bc8:	9123      	str	r1, [sp, #140]	; 0x8c
 8005bca:	9024      	str	r0, [sp, #144]	; 0x90
 8005bcc:	9125      	str	r1, [sp, #148]	; 0x94
 8005bce:	9026      	str	r0, [sp, #152]	; 0x98
 8005bd0:	9127      	str	r1, [sp, #156]	; 0x9c
 8005bd2:	9028      	str	r0, [sp, #160]	; 0xa0
 8005bd4:	9905      	ldr	r1, [sp, #20]
 8005bd6:	9806      	ldr	r0, [sp, #24]
 8005bd8:	910c      	str	r1, [sp, #48]	; 0x30
 8005bda:	900d      	str	r0, [sp, #52]	; 0x34
 8005bdc:	a816      	add	r0, sp, #88	; 0x58
 8005bde:	a90c      	add	r1, sp, #48	; 0x30
 8005be0:	f7ff fb9a 	bl	8005318 <_ZN4core5alloc6layout6Layout6repeat17hed8d093ac719b8abE>
 8005be4:	9816      	ldr	r0, [sp, #88]	; 0x58
 8005be6:	b1e8      	cbz	r0, 8005c24 <_ZN5alloc7raw_vec20RawVecInner$LT$A$GT$15try_allocate_in17h734ccb71777c6068E+0x92>
 8005be8:	e7ff      	b.n	8005bea <_ZN5alloc7raw_vec20RawVecInner$LT$A$GT$15try_allocate_in17h734ccb71777c6068E+0x58>
 8005bea:	9916      	ldr	r1, [sp, #88]	; 0x58
 8005bec:	9817      	ldr	r0, [sp, #92]	; 0x5c
 8005bee:	9129      	str	r1, [sp, #164]	; 0xa4
 8005bf0:	902a      	str	r0, [sp, #168]	; 0xa8
 8005bf2:	9a18      	ldr	r2, [sp, #96]	; 0x60
 8005bf4:	922b      	str	r2, [sp, #172]	; 0xac
 8005bf6:	9114      	str	r1, [sp, #80]	; 0x50
 8005bf8:	9015      	str	r0, [sp, #84]	; 0x54
 8005bfa:	9914      	ldr	r1, [sp, #80]	; 0x50
 8005bfc:	9815      	ldr	r0, [sp, #84]	; 0x54
 8005bfe:	912c      	str	r1, [sp, #176]	; 0xb0
 8005c00:	902d      	str	r0, [sp, #180]	; 0xb4
 8005c02:	910a      	str	r1, [sp, #40]	; 0x28
 8005c04:	900b      	str	r0, [sp, #44]	; 0x2c
 8005c06:	2000      	movs	r0, #0
 8005c08:	9009      	str	r0, [sp, #36]	; 0x24
 8005c0a:	990a      	ldr	r1, [sp, #40]	; 0x28
 8005c0c:	9100      	str	r1, [sp, #0]
 8005c0e:	980b      	ldr	r0, [sp, #44]	; 0x2c
 8005c10:	9001      	str	r0, [sp, #4]
 8005c12:	912e      	str	r1, [sp, #184]	; 0xb8
 8005c14:	902f      	str	r0, [sp, #188]	; 0xbc
 8005c16:	9107      	str	r1, [sp, #28]
 8005c18:	9008      	str	r0, [sp, #32]
 8005c1a:	a907      	add	r1, sp, #28
 8005c1c:	9130      	str	r1, [sp, #192]	; 0xc0
 8005c1e:	9031      	str	r0, [sp, #196]	; 0xc4
 8005c20:	b180      	cbz	r0, 8005c44 <_ZN5alloc7raw_vec20RawVecInner$LT$A$GT$15try_allocate_in17h734ccb71777c6068E+0xb2>
 8005c22:	e01d      	b.n	8005c60 <_ZN5alloc7raw_vec20RawVecInner$LT$A$GT$15try_allocate_in17h734ccb71777c6068E+0xce>
 8005c24:	9903      	ldr	r1, [sp, #12]
 8005c26:	f249 5038 	movw	r0, #38200	; 0x9538
 8005c2a:	f6c0 0000 	movt	r0, #2048	; 0x800
 8005c2e:	6803      	ldr	r3, [r0, #0]
 8005c30:	6842      	ldr	r2, [r0, #4]
 8005c32:	9314      	str	r3, [sp, #80]	; 0x50
 8005c34:	9215      	str	r2, [sp, #84]	; 0x54
 8005c36:	6802      	ldr	r2, [r0, #0]
 8005c38:	6840      	ldr	r0, [r0, #4]
 8005c3a:	604a      	str	r2, [r1, #4]
 8005c3c:	6088      	str	r0, [r1, #8]
 8005c3e:	2001      	movs	r0, #1
 8005c40:	6008      	str	r0, [r1, #0]
 8005c42:	e05a      	b.n	8005cfa <_ZN5alloc7raw_vec20RawVecInner$LT$A$GT$15try_allocate_in17h734ccb71777c6068E+0x168>
 8005c44:	9903      	ldr	r1, [sp, #12]
 8005c46:	a805      	add	r0, sp, #20
 8005c48:	9032      	str	r0, [sp, #200]	; 0xc8
 8005c4a:	9805      	ldr	r0, [sp, #20]
 8005c4c:	9033      	str	r0, [sp, #204]	; 0xcc
 8005c4e:	9019      	str	r0, [sp, #100]	; 0x64
 8005c50:	9a19      	ldr	r2, [sp, #100]	; 0x64
 8005c52:	9234      	str	r2, [sp, #208]	; 0xd0
 8005c54:	9235      	str	r2, [sp, #212]	; 0xd4
 8005c56:	2000      	movs	r0, #0
 8005c58:	6048      	str	r0, [r1, #4]
 8005c5a:	608a      	str	r2, [r1, #8]
 8005c5c:	6008      	str	r0, [r1, #0]
 8005c5e:	e005      	b.n	8005c6c <_ZN5alloc7raw_vec20RawVecInner$LT$A$GT$15try_allocate_in17h734ccb71777c6068E+0xda>
 8005c60:	9801      	ldr	r0, [sp, #4]
 8005c62:	a907      	add	r1, sp, #28
 8005c64:	9136      	str	r1, [sp, #216]	; 0xd8
 8005c66:	2800      	cmp	r0, #0
 8005c68:	d407      	bmi.n	8005c7a <_ZN5alloc7raw_vec20RawVecInner$LT$A$GT$15try_allocate_in17h734ccb71777c6068E+0xe8>
 8005c6a:	e001      	b.n	8005c70 <_ZN5alloc7raw_vec20RawVecInner$LT$A$GT$15try_allocate_in17h734ccb71777c6068E+0xde>
 8005c6c:	b03c      	add	sp, #240	; 0xf0
 8005c6e:	bd80      	pop	{r7, pc}
 8005c70:	f817 0cde 	ldrb.w	r0, [r7, #-222]
 8005c74:	07c0      	lsls	r0, r0, #31
 8005c76:	b190      	cbz	r0, 8005c9e <_ZN5alloc7raw_vec20RawVecInner$LT$A$GT$15try_allocate_in17h734ccb71777c6068E+0x10c>
 8005c78:	e01a      	b.n	8005cb0 <_ZN5alloc7raw_vec20RawVecInner$LT$A$GT$15try_allocate_in17h734ccb71777c6068E+0x11e>
 8005c7a:	9903      	ldr	r1, [sp, #12]
 8005c7c:	f249 5038 	movw	r0, #38200	; 0x9538
 8005c80:	f6c0 0000 	movt	r0, #2048	; 0x800
 8005c84:	6802      	ldr	r2, [r0, #0]
 8005c86:	6840      	ldr	r0, [r0, #4]
 8005c88:	920e      	str	r2, [sp, #56]	; 0x38
 8005c8a:	900f      	str	r0, [sp, #60]	; 0x3c
 8005c8c:	9a0e      	ldr	r2, [sp, #56]	; 0x38
 8005c8e:	980f      	ldr	r0, [sp, #60]	; 0x3c
 8005c90:	923a      	str	r2, [sp, #232]	; 0xe8
 8005c92:	903b      	str	r0, [sp, #236]	; 0xec
 8005c94:	604a      	str	r2, [r1, #4]
 8005c96:	6088      	str	r0, [r1, #8]
 8005c98:	2001      	movs	r0, #1
 8005c9a:	6008      	str	r0, [r1, #0]
 8005c9c:	e02c      	b.n	8005cf8 <_ZN5alloc7raw_vec20RawVecInner$LT$A$GT$15try_allocate_in17h734ccb71777c6068E+0x166>
 8005c9e:	9a01      	ldr	r2, [sp, #4]
 8005ca0:	9900      	ldr	r1, [sp, #0]
 8005ca2:	f1a7 00dd 	sub.w	r0, r7, #221	; 0xdd
 8005ca6:	f000 fc14 	bl	80064d2 <_ZN63_$LT$alloc..alloc..Global$u20$as$u20$core..alloc..Allocator$GT$8allocate17h2f94815d8e11f350E>
 8005caa:	9010      	str	r0, [sp, #64]	; 0x40
 8005cac:	9111      	str	r1, [sp, #68]	; 0x44
 8005cae:	e008      	b.n	8005cc2 <_ZN5alloc7raw_vec20RawVecInner$LT$A$GT$15try_allocate_in17h734ccb71777c6068E+0x130>
 8005cb0:	9a01      	ldr	r2, [sp, #4]
 8005cb2:	9900      	ldr	r1, [sp, #0]
 8005cb4:	f1a7 00dd 	sub.w	r0, r7, #221	; 0xdd
 8005cb8:	f000 fbe7 	bl	800648a <_ZN63_$LT$alloc..alloc..Global$u20$as$u20$core..alloc..Allocator$GT$15allocate_zeroed17he1efe4a8b6acaf03E>
 8005cbc:	9010      	str	r0, [sp, #64]	; 0x40
 8005cbe:	9111      	str	r1, [sp, #68]	; 0x44
 8005cc0:	e7ff      	b.n	8005cc2 <_ZN5alloc7raw_vec20RawVecInner$LT$A$GT$15try_allocate_in17h734ccb71777c6068E+0x130>
 8005cc2:	9810      	ldr	r0, [sp, #64]	; 0x40
 8005cc4:	b160      	cbz	r0, 8005ce0 <_ZN5alloc7raw_vec20RawVecInner$LT$A$GT$15try_allocate_in17h734ccb71777c6068E+0x14e>
 8005cc6:	e7ff      	b.n	8005cc8 <_ZN5alloc7raw_vec20RawVecInner$LT$A$GT$15try_allocate_in17h734ccb71777c6068E+0x136>
 8005cc8:	9903      	ldr	r1, [sp, #12]
 8005cca:	9a02      	ldr	r2, [sp, #8]
 8005ccc:	9810      	ldr	r0, [sp, #64]	; 0x40
 8005cce:	9b11      	ldr	r3, [sp, #68]	; 0x44
 8005cd0:	9037      	str	r0, [sp, #220]	; 0xdc
 8005cd2:	9338      	str	r3, [sp, #224]	; 0xe0
 8005cd4:	9039      	str	r0, [sp, #228]	; 0xe4
 8005cd6:	604a      	str	r2, [r1, #4]
 8005cd8:	6088      	str	r0, [r1, #8]
 8005cda:	2000      	movs	r0, #0
 8005cdc:	6008      	str	r0, [r1, #0]
 8005cde:	e7c5      	b.n	8005c6c <_ZN5alloc7raw_vec20RawVecInner$LT$A$GT$15try_allocate_in17h734ccb71777c6068E+0xda>
 8005ce0:	9903      	ldr	r1, [sp, #12]
 8005ce2:	9801      	ldr	r0, [sp, #4]
 8005ce4:	9a00      	ldr	r2, [sp, #0]
 8005ce6:	9212      	str	r2, [sp, #72]	; 0x48
 8005ce8:	9013      	str	r0, [sp, #76]	; 0x4c
 8005cea:	9a12      	ldr	r2, [sp, #72]	; 0x48
 8005cec:	9813      	ldr	r0, [sp, #76]	; 0x4c
 8005cee:	604a      	str	r2, [r1, #4]
 8005cf0:	6088      	str	r0, [r1, #8]
 8005cf2:	2001      	movs	r0, #1
 8005cf4:	6008      	str	r0, [r1, #0]
 8005cf6:	e7ff      	b.n	8005cf8 <_ZN5alloc7raw_vec20RawVecInner$LT$A$GT$15try_allocate_in17h734ccb71777c6068E+0x166>
 8005cf8:	e7ff      	b.n	8005cfa <_ZN5alloc7raw_vec20RawVecInner$LT$A$GT$15try_allocate_in17h734ccb71777c6068E+0x168>
 8005cfa:	e7b7      	b.n	8005c6c <_ZN5alloc7raw_vec20RawVecInner$LT$A$GT$15try_allocate_in17h734ccb71777c6068E+0xda>

08005cfc <_ZN5alloc7raw_vec20RawVecInner$LT$A$GT$16with_capacity_in17he9ed08708e9181daE>:
 8005cfc:	b580      	push	{r7, lr}
 8005cfe:	466f      	mov	r7, sp
 8005d00:	b09a      	sub	sp, #104	; 0x68
 8005d02:	9302      	str	r3, [sp, #8]
 8005d04:	9204      	str	r2, [sp, #16]
 8005d06:	460b      	mov	r3, r1
 8005d08:	9303      	str	r3, [sp, #12]
 8005d0a:	4601      	mov	r1, r0
 8005d0c:	9804      	ldr	r0, [sp, #16]
 8005d0e:	9105      	str	r1, [sp, #20]
 8005d10:	910e      	str	r1, [sp, #56]	; 0x38
 8005d12:	9310      	str	r3, [sp, #64]	; 0x40
 8005d14:	9011      	str	r0, [sp, #68]	; 0x44
 8005d16:	2200      	movs	r2, #0
 8005d18:	9212      	str	r2, [sp, #72]	; 0x48
 8005d1a:	9213      	str	r2, [sp, #76]	; 0x4c
 8005d1c:	46ec      	mov	ip, sp
 8005d1e:	f8cc 0000 	str.w	r0, [ip]
 8005d22:	a806      	add	r0, sp, #24
 8005d24:	f7ff ff35 	bl	8005b92 <_ZN5alloc7raw_vec20RawVecInner$LT$A$GT$15try_allocate_in17h734ccb71777c6068E>
 8005d28:	9806      	ldr	r0, [sp, #24]
 8005d2a:	b978      	cbnz	r0, 8005d4c <_ZN5alloc7raw_vec20RawVecInner$LT$A$GT$16with_capacity_in17he9ed08708e9181daE+0x50>
 8005d2c:	e7ff      	b.n	8005d2e <_ZN5alloc7raw_vec20RawVecInner$LT$A$GT$16with_capacity_in17he9ed08708e9181daE+0x32>
 8005d2e:	9804      	ldr	r0, [sp, #16]
 8005d30:	9903      	ldr	r1, [sp, #12]
 8005d32:	9b07      	ldr	r3, [sp, #28]
 8005d34:	9a08      	ldr	r2, [sp, #32]
 8005d36:	9309      	str	r3, [sp, #36]	; 0x24
 8005d38:	920a      	str	r2, [sp, #40]	; 0x28
 8005d3a:	aa09      	add	r2, sp, #36	; 0x24
 8005d3c:	9214      	str	r2, [sp, #80]	; 0x50
 8005d3e:	910b      	str	r1, [sp, #44]	; 0x2c
 8005d40:	900c      	str	r0, [sp, #48]	; 0x30
 8005d42:	a90b      	add	r1, sp, #44	; 0x2c
 8005d44:	9115      	str	r1, [sp, #84]	; 0x54
 8005d46:	9016      	str	r0, [sp, #88]	; 0x58
 8005d48:	b138      	cbz	r0, 8005d5a <_ZN5alloc7raw_vec20RawVecInner$LT$A$GT$16with_capacity_in17he9ed08708e9181daE+0x5e>
 8005d4a:	e00a      	b.n	8005d62 <_ZN5alloc7raw_vec20RawVecInner$LT$A$GT$16with_capacity_in17he9ed08708e9181daE+0x66>
 8005d4c:	9a02      	ldr	r2, [sp, #8]
 8005d4e:	9807      	ldr	r0, [sp, #28]
 8005d50:	9908      	ldr	r1, [sp, #32]
 8005d52:	9018      	str	r0, [sp, #96]	; 0x60
 8005d54:	9119      	str	r1, [sp, #100]	; 0x64
 8005d56:	f001 f923 	bl	8006fa0 <_ZN5alloc7raw_vec12handle_error17he4e6fa0ef8598d63E>
 8005d5a:	f04f 30ff 	mov.w	r0, #4294967295
 8005d5e:	900d      	str	r0, [sp, #52]	; 0x34
 8005d60:	e002      	b.n	8005d68 <_ZN5alloc7raw_vec20RawVecInner$LT$A$GT$16with_capacity_in17he9ed08708e9181daE+0x6c>
 8005d62:	9809      	ldr	r0, [sp, #36]	; 0x24
 8005d64:	900d      	str	r0, [sp, #52]	; 0x34
 8005d66:	e7ff      	b.n	8005d68 <_ZN5alloc7raw_vec20RawVecInner$LT$A$GT$16with_capacity_in17he9ed08708e9181daE+0x6c>
 8005d68:	9905      	ldr	r1, [sp, #20]
 8005d6a:	9a0d      	ldr	r2, [sp, #52]	; 0x34
 8005d6c:	2000      	movs	r0, #0
 8005d6e:	4291      	cmp	r1, r2
 8005d70:	bf98      	it	ls
 8005d72:	2001      	movls	r0, #1
 8005d74:	4601      	mov	r1, r0
 8005d76:	9101      	str	r1, [sp, #4]
 8005d78:	f807 0c09 	strb.w	r0, [r7, #-9]
 8005d7c:	e7ff      	b.n	8005d7e <_ZN5alloc7raw_vec20RawVecInner$LT$A$GT$16with_capacity_in17he9ed08708e9181daE+0x82>
 8005d7e:	9801      	ldr	r0, [sp, #4]
 8005d80:	f000 0001 	and.w	r0, r0, #1
 8005d84:	f000 f90b 	bl	8005f9e <_ZN4core4hint16assert_unchecked18precondition_check17h5e71cde4293b3b38E>
 8005d88:	e7ff      	b.n	8005d8a <_ZN5alloc7raw_vec20RawVecInner$LT$A$GT$16with_capacity_in17he9ed08708e9181daE+0x8e>
 8005d8a:	9809      	ldr	r0, [sp, #36]	; 0x24
 8005d8c:	990a      	ldr	r1, [sp, #40]	; 0x28
 8005d8e:	b01a      	add	sp, #104	; 0x68
 8005d90:	bd80      	pop	{r7, pc}

08005d92 <_ZN4core3cmp5impls50_$LT$impl$u20$core..cmp..Ord$u20$for$u20$usize$GT$3cmp17h4c38a4a53078b72aE>:
 8005d92:	b082      	sub	sp, #8
 8005d94:	9000      	str	r0, [sp, #0]
 8005d96:	9101      	str	r1, [sp, #4]
 8005d98:	6802      	ldr	r2, [r0, #0]
 8005d9a:	680b      	ldr	r3, [r1, #0]
 8005d9c:	2000      	movs	r0, #0
 8005d9e:	429a      	cmp	r2, r3
 8005da0:	bf88      	it	hi
 8005da2:	2001      	movhi	r0, #1
 8005da4:	1e41      	subs	r1, r0, #1
 8005da6:	429a      	cmp	r2, r3
 8005da8:	bf38      	it	cc
 8005daa:	4608      	movcc	r0, r1
 8005dac:	b002      	add	sp, #8
 8005dae:	4770      	bx	lr

08005db0 <_ZN4core5slice3raw14from_raw_parts18precondition_check17h1a320b464919a4ecE>:
 8005db0:	b580      	push	{r7, lr}
 8005db2:	466f      	mov	r7, sp
 8005db4:	b096      	sub	sp, #88	; 0x58
 8005db6:	9302      	str	r3, [sp, #8]
 8005db8:	9203      	str	r2, [sp, #12]
 8005dba:	9104      	str	r1, [sp, #16]
 8005dbc:	9005      	str	r0, [sp, #20]
 8005dbe:	900d      	str	r0, [sp, #52]	; 0x34
 8005dc0:	910e      	str	r1, [sp, #56]	; 0x38
 8005dc2:	920f      	str	r2, [sp, #60]	; 0x3c
 8005dc4:	9310      	str	r3, [sp, #64]	; 0x40
 8005dc6:	2100      	movs	r1, #0
 8005dc8:	f807 1c12 	strb.w	r1, [r7, #-18]
 8005dcc:	f807 1c11 	strb.w	r1, [r7, #-17]
 8005dd0:	f24a 4184 	movw	r1, #42116	; 0xa484
 8005dd4:	f6c0 0100 	movt	r1, #2048	; 0x800
 8005dd8:	9112      	str	r1, [sp, #72]	; 0x48
 8005dda:	9013      	str	r0, [sp, #76]	; 0x4c
 8005ddc:	f04f 3055 	mov.w	r0, #1431655765	; 0x55555555
 8005de0:	ea00 0052 	and.w	r0, r0, r2, lsr #1
 8005de4:	1a10      	subs	r0, r2, r0
 8005de6:	f04f 3133 	mov.w	r1, #858993459	; 0x33333333
 8005dea:	ea01 0190 	and.w	r1, r1, r0, lsr #2
 8005dee:	f020 30cc 	bic.w	r0, r0, #3435973836	; 0xcccccccc
 8005df2:	4408      	add	r0, r1
 8005df4:	eb00 1010 	add.w	r0, r0, r0, lsr #4
 8005df8:	f020 30f0 	bic.w	r0, r0, #4042322160	; 0xf0f0f0f0
 8005dfc:	f04f 3101 	mov.w	r1, #16843009	; 0x1010101
 8005e00:	4348      	muls	r0, r1
 8005e02:	0e00      	lsrs	r0, r0, #24
 8005e04:	9014      	str	r0, [sp, #80]	; 0x50
 8005e06:	9814      	ldr	r0, [sp, #80]	; 0x50
 8005e08:	2801      	cmp	r0, #1
 8005e0a:	d108      	bne.n	8005e1e <_ZN4core5slice3raw14from_raw_parts18precondition_check17h1a320b464919a4ecE+0x6e>
 8005e0c:	e7ff      	b.n	8005e0e <_ZN4core5slice3raw14from_raw_parts18precondition_check17h1a320b464919a4ecE+0x5e>
 8005e0e:	9805      	ldr	r0, [sp, #20]
 8005e10:	9903      	ldr	r1, [sp, #12]
 8005e12:	4602      	mov	r2, r0
 8005e14:	9201      	str	r2, [sp, #4]
 8005e16:	3901      	subs	r1, #1
 8005e18:	4208      	tst	r0, r1
 8005e1a:	d01a      	beq.n	8005e52 <_ZN4core5slice3raw14from_raw_parts18precondition_check17h1a320b464919a4ecE+0xa2>
 8005e1c:	e01e      	b.n	8005e5c <_ZN4core5slice3raw14from_raw_parts18precondition_check17h1a320b464919a4ecE+0xac>
 8005e1e:	f24a 4084 	movw	r0, #42116	; 0xa484
 8005e22:	f6c0 0000 	movt	r0, #2048	; 0x800
 8005e26:	9006      	str	r0, [sp, #24]
 8005e28:	2001      	movs	r0, #1
 8005e2a:	9007      	str	r0, [sp, #28]
 8005e2c:	f249 5038 	movw	r0, #38200	; 0x9538
 8005e30:	f6c0 0000 	movt	r0, #2048	; 0x800
 8005e34:	6801      	ldr	r1, [r0, #0]
 8005e36:	6840      	ldr	r0, [r0, #4]
 8005e38:	910a      	str	r1, [sp, #40]	; 0x28
 8005e3a:	900b      	str	r0, [sp, #44]	; 0x2c
 8005e3c:	2004      	movs	r0, #4
 8005e3e:	9008      	str	r0, [sp, #32]
 8005e40:	2000      	movs	r0, #0
 8005e42:	9009      	str	r0, [sp, #36]	; 0x24
 8005e44:	f24a 612c 	movw	r1, #42540	; 0xa62c
 8005e48:	f6c0 0100 	movt	r1, #2048	; 0x800
 8005e4c:	a806      	add	r0, sp, #24
 8005e4e:	f001 fa4c 	bl	80072ea <_ZN4core9panicking9panic_fmt17h9bd7242b2f9f3cdaE>
 8005e52:	9801      	ldr	r0, [sp, #4]
 8005e54:	9905      	ldr	r1, [sp, #20]
 8005e56:	9115      	str	r1, [sp, #84]	; 0x54
 8005e58:	b910      	cbnz	r0, 8005e60 <_ZN4core5slice3raw14from_raw_parts18precondition_check17h1a320b464919a4ecE+0xb0>
 8005e5a:	e000      	b.n	8005e5e <_ZN4core5slice3raw14from_raw_parts18precondition_check17h1a320b464919a4ecE+0xae>
 8005e5c:	e7ff      	b.n	8005e5e <_ZN4core5slice3raw14from_raw_parts18precondition_check17h1a320b464919a4ecE+0xae>
 8005e5e:	e023      	b.n	8005ea8 <_ZN4core5slice3raw14from_raw_parts18precondition_check17h1a320b464919a4ecE+0xf8>
 8005e60:	9804      	ldr	r0, [sp, #16]
 8005e62:	fab0 f180 	clz	r1, r0
 8005e66:	0949      	lsrs	r1, r1, #5
 8005e68:	9100      	str	r1, [sp, #0]
 8005e6a:	b920      	cbnz	r0, 8005e76 <_ZN4core5slice3raw14from_raw_parts18precondition_check17h1a320b464919a4ecE+0xc6>
 8005e6c:	e7ff      	b.n	8005e6e <_ZN4core5slice3raw14from_raw_parts18precondition_check17h1a320b464919a4ecE+0xbe>
 8005e6e:	f04f 30ff 	mov.w	r0, #4294967295
 8005e72:	900c      	str	r0, [sp, #48]	; 0x30
 8005e74:	e003      	b.n	8005e7e <_ZN4core5slice3raw14from_raw_parts18precondition_check17h1a320b464919a4ecE+0xce>
 8005e76:	9800      	ldr	r0, [sp, #0]
 8005e78:	07c0      	lsls	r0, r0, #31
 8005e7a:	b960      	cbnz	r0, 8005e96 <_ZN4core5slice3raw14from_raw_parts18precondition_check17h1a320b464919a4ecE+0xe6>
 8005e7c:	e004      	b.n	8005e88 <_ZN4core5slice3raw14from_raw_parts18precondition_check17h1a320b464919a4ecE+0xd8>
 8005e7e:	9802      	ldr	r0, [sp, #8]
 8005e80:	990c      	ldr	r1, [sp, #48]	; 0x30
 8005e82:	4288      	cmp	r0, r1
 8005e84:	d90e      	bls.n	8005ea4 <_ZN4core5slice3raw14from_raw_parts18precondition_check17h1a320b464919a4ecE+0xf4>
 8005e86:	e00c      	b.n	8005ea2 <_ZN4core5slice3raw14from_raw_parts18precondition_check17h1a320b464919a4ecE+0xf2>
 8005e88:	9904      	ldr	r1, [sp, #16]
 8005e8a:	f06f 4000 	mvn.w	r0, #2147483648	; 0x80000000
 8005e8e:	fbb0 f0f1 	udiv	r0, r0, r1
 8005e92:	900c      	str	r0, [sp, #48]	; 0x30
 8005e94:	e7f3      	b.n	8005e7e <_ZN4core5slice3raw14from_raw_parts18precondition_check17h1a320b464919a4ecE+0xce>
 8005e96:	f24a 5000 	movw	r0, #42240	; 0xa500
 8005e9a:	f6c0 0000 	movt	r0, #2048	; 0x800
 8005e9e:	f002 fd60 	bl	8008962 <_ZN4core9panicking11panic_const23panic_const_div_by_zero17h8da6a53e5835dd9aE>
 8005ea2:	e001      	b.n	8005ea8 <_ZN4core5slice3raw14from_raw_parts18precondition_check17h1a320b464919a4ecE+0xf8>
 8005ea4:	b016      	add	sp, #88	; 0x58
 8005ea6:	bd80      	pop	{r7, pc}
 8005ea8:	f24a 5010 	movw	r0, #42256	; 0xa510
 8005eac:	f6c0 0000 	movt	r0, #2048	; 0x800
 8005eb0:	21a2      	movs	r1, #162	; 0xa2
 8005eb2:	f001 fa4c 	bl	800734e <_ZN4core9panicking14panic_nounwind17ha7168a7a4498f4fbE>

08005eb6 <_ZN13freertos_rust5hooks13FreeRtosHooks12do_on_assert17h8c9869cd6567fb23E>:
 8005eb6:	b580      	push	{r7, lr}
 8005eb8:	466f      	mov	r7, sp
 8005eba:	b082      	sub	sp, #8
 8005ebc:	9001      	str	r0, [sp, #4]
 8005ebe:	6800      	ldr	r0, [r0, #0]
 8005ec0:	4780      	blx	r0
 8005ec2:	b002      	add	sp, #8
 8005ec4:	bd80      	pop	{r7, pc}

08005ec6 <vAssertCalled>:
 8005ec6:	b580      	push	{r7, lr}
 8005ec8:	466f      	mov	r7, sp
 8005eca:	b0a8      	sub	sp, #160	; 0xa0
 8005ecc:	9103      	str	r1, [sp, #12]
 8005ece:	4601      	mov	r1, r0
 8005ed0:	9803      	ldr	r0, [sp, #12]
 8005ed2:	9004      	str	r0, [sp, #16]
 8005ed4:	911c      	str	r1, [sp, #112]	; 0x70
 8005ed6:	a80b      	add	r0, sp, #44	; 0x2c
 8005ed8:	f7ff fa64 	bl	80053a4 <_ZN13freertos_rust5utils17str_from_c_string17h25ac1611b0273e04E>
 8005edc:	980b      	ldr	r0, [sp, #44]	; 0x2c
 8005ede:	f1b0 4f00 	cmp.w	r0, #2147483648	; 0x80000000
 8005ee2:	d116      	bne.n	8005f12 <vAssertCalled+0x4c>
 8005ee4:	e7ff      	b.n	8005ee6 <vAssertCalled+0x20>
 8005ee6:	f89d 0030 	ldrb.w	r0, [sp, #48]	; 0x30
 8005eea:	f807 0c01 	strb.w	r0, [r7, #-1]
 8005eee:	f24a 6094 	movw	r0, #42644	; 0xa694
 8005ef2:	f6c0 0000 	movt	r0, #2048	; 0x800
 8005ef6:	4669      	mov	r1, sp
 8005ef8:	6008      	str	r0, [r1, #0]
 8005efa:	f24a 604c 	movw	r0, #42572	; 0xa64c
 8005efe:	f6c0 0000 	movt	r0, #2048	; 0x800
 8005f02:	f24a 633c 	movw	r3, #42556	; 0xa63c
 8005f06:	f6c0 0300 	movt	r3, #2048	; 0x800
 8005f0a:	212b      	movs	r1, #43	; 0x2b
 8005f0c:	1e7a      	subs	r2, r7, #1
 8005f0e:	f001 fa83 	bl	8007418 <_ZN4core6result13unwrap_failed17h155735d8bdfe0abbE>
 8005f12:	980b      	ldr	r0, [sp, #44]	; 0x2c
 8005f14:	990c      	ldr	r1, [sp, #48]	; 0x30
 8005f16:	9a0d      	ldr	r2, [sp, #52]	; 0x34
 8005f18:	920a      	str	r2, [sp, #40]	; 0x28
 8005f1a:	9109      	str	r1, [sp, #36]	; 0x24
 8005f1c:	9008      	str	r0, [sp, #32]
 8005f1e:	9808      	ldr	r0, [sp, #32]
 8005f20:	9909      	ldr	r1, [sp, #36]	; 0x24
 8005f22:	9a0a      	ldr	r2, [sp, #40]	; 0x28
 8005f24:	9207      	str	r2, [sp, #28]
 8005f26:	9106      	str	r1, [sp, #24]
 8005f28:	9005      	str	r0, [sp, #20]
 8005f2a:	f240 0008 	movw	r0, #8
 8005f2e:	f2c2 0000 	movt	r0, #8192	; 0x2000
 8005f32:	f7ff ffc0 	bl	8005eb6 <_ZN13freertos_rust5hooks13FreeRtosHooks12do_on_assert17h8c9869cd6567fb23E>
 8005f36:	a905      	add	r1, sp, #20
 8005f38:	911f      	str	r1, [sp, #124]	; 0x7c
 8005f3a:	f644 7039 	movw	r0, #20281	; 0x4f39
 8005f3e:	f6c0 0000 	movt	r0, #2048	; 0x800
 8005f42:	9020      	str	r0, [sp, #128]	; 0x80
 8005f44:	9121      	str	r1, [sp, #132]	; 0x84
 8005f46:	911d      	str	r1, [sp, #116]	; 0x74
 8005f48:	901e      	str	r0, [sp, #120]	; 0x78
 8005f4a:	981d      	ldr	r0, [sp, #116]	; 0x74
 8005f4c:	991e      	ldr	r1, [sp, #120]	; 0x78
 8005f4e:	9119      	str	r1, [sp, #100]	; 0x64
 8005f50:	9018      	str	r0, [sp, #96]	; 0x60
 8005f52:	a904      	add	r1, sp, #16
 8005f54:	9124      	str	r1, [sp, #144]	; 0x90
 8005f56:	f648 4059 	movw	r0, #35929	; 0x8c59
 8005f5a:	f6c0 0000 	movt	r0, #2048	; 0x800
 8005f5e:	9025      	str	r0, [sp, #148]	; 0x94
 8005f60:	9126      	str	r1, [sp, #152]	; 0x98
 8005f62:	9122      	str	r1, [sp, #136]	; 0x88
 8005f64:	9023      	str	r0, [sp, #140]	; 0x8c
 8005f66:	9822      	ldr	r0, [sp, #136]	; 0x88
 8005f68:	9923      	ldr	r1, [sp, #140]	; 0x8c
 8005f6a:	911b      	str	r1, [sp, #108]	; 0x6c
 8005f6c:	901a      	str	r0, [sp, #104]	; 0x68
 8005f6e:	9818      	ldr	r0, [sp, #96]	; 0x60
 8005f70:	9919      	ldr	r1, [sp, #100]	; 0x64
 8005f72:	9115      	str	r1, [sp, #84]	; 0x54
 8005f74:	9014      	str	r0, [sp, #80]	; 0x50
 8005f76:	981a      	ldr	r0, [sp, #104]	; 0x68
 8005f78:	991b      	ldr	r1, [sp, #108]	; 0x6c
 8005f7a:	9117      	str	r1, [sp, #92]	; 0x5c
 8005f7c:	9016      	str	r0, [sp, #88]	; 0x58
 8005f7e:	f24a 61b8 	movw	r1, #42680	; 0xa6b8
 8005f82:	f6c0 0100 	movt	r1, #2048	; 0x800
 8005f86:	a80e      	add	r0, sp, #56	; 0x38
 8005f88:	9002      	str	r0, [sp, #8]
 8005f8a:	aa14      	add	r2, sp, #80	; 0x50
 8005f8c:	f7ff fb53 	bl	8005636 <_ZN4core3fmt9Arguments6new_v117hc1e9a78dfe851e73E>
 8005f90:	9802      	ldr	r0, [sp, #8]
 8005f92:	f24a 61c8 	movw	r1, #42696	; 0xa6c8
 8005f96:	f6c0 0100 	movt	r1, #2048	; 0x800
 8005f9a:	f001 f9a6 	bl	80072ea <_ZN4core9panicking9panic_fmt17h9bd7242b2f9f3cdaE>

08005f9e <_ZN4core4hint16assert_unchecked18precondition_check17h5e71cde4293b3b38E>:
 8005f9e:	b580      	push	{r7, lr}
 8005fa0:	466f      	mov	r7, sp
 8005fa2:	b082      	sub	sp, #8
 8005fa4:	f807 0c01 	strb.w	r0, [r7, #-1]
 8005fa8:	b938      	cbnz	r0, 8005fba <_ZN4core4hint16assert_unchecked18precondition_check17h5e71cde4293b3b38E+0x1c>
 8005faa:	e7ff      	b.n	8005fac <_ZN4core4hint16assert_unchecked18precondition_check17h5e71cde4293b3b38E+0xe>
 8005fac:	f24a 60d8 	movw	r0, #42712	; 0xa6d8
 8005fb0:	f6c0 0000 	movt	r0, #2048	; 0x800
 8005fb4:	2168      	movs	r1, #104	; 0x68
 8005fb6:	f001 f9ca 	bl	800734e <_ZN4core9panicking14panic_nounwind17ha7168a7a4498f4fbE>
 8005fba:	b002      	add	sp, #8
 8005fbc:	bd80      	pop	{r7, pc}

08005fbe <_ZN4core3num23_$LT$impl$u20$usize$GT$13unchecked_mul18precondition_check17hd0a003b61a467fb7E>:
 8005fbe:	b580      	push	{r7, lr}
 8005fc0:	466f      	mov	r7, sp
 8005fc2:	b084      	sub	sp, #16
 8005fc4:	9000      	str	r0, [sp, #0]
 8005fc6:	9101      	str	r1, [sp, #4]
 8005fc8:	fba0 2001 	umull	r2, r0, r0, r1
 8005fcc:	2800      	cmp	r0, #0
 8005fce:	4601      	mov	r1, r0
 8005fd0:	bf18      	it	ne
 8005fd2:	2101      	movne	r1, #1
 8005fd4:	9202      	str	r2, [sp, #8]
 8005fd6:	f807 1c01 	strb.w	r1, [r7, #-1]
 8005fda:	b910      	cbnz	r0, 8005fe2 <_ZN4core3num23_$LT$impl$u20$usize$GT$13unchecked_mul18precondition_check17hd0a003b61a467fb7E+0x24>
 8005fdc:	e7ff      	b.n	8005fde <_ZN4core3num23_$LT$impl$u20$usize$GT$13unchecked_mul18precondition_check17hd0a003b61a467fb7E+0x20>
 8005fde:	b004      	add	sp, #16
 8005fe0:	bd80      	pop	{r7, pc}
 8005fe2:	f24a 7040 	movw	r0, #42816	; 0xa740
 8005fe6:	f6c0 0000 	movt	r0, #2048	; 0x800
 8005fea:	2145      	movs	r1, #69	; 0x45
 8005fec:	f001 f9af 	bl	800734e <_ZN4core9panicking14panic_nounwind17ha7168a7a4498f4fbE>

08005ff0 <_ZN5alloc5alloc12alloc_zeroed17h03e244da3cf1f627E>:
 8005ff0:	b580      	push	{r7, lr}
 8005ff2:	466f      	mov	r7, sp
 8005ff4:	b088      	sub	sp, #32
 8005ff6:	9000      	str	r0, [sp, #0]
 8005ff8:	9101      	str	r1, [sp, #4]
 8005ffa:	f240 001c 	movw	r0, #28
 8005ffe:	f2c2 0000 	movt	r0, #8192	; 0x2000
 8006002:	9003      	str	r0, [sp, #12]
 8006004:	e7ff      	b.n	8006006 <_ZN5alloc5alloc12alloc_zeroed17h03e244da3cf1f627E+0x16>
 8006006:	f240 001c 	movw	r0, #28
 800600a:	f2c2 0000 	movt	r0, #8192	; 0x2000
 800600e:	2101      	movs	r1, #1
 8006010:	2200      	movs	r2, #0
 8006012:	f000 fc15 	bl	8006840 <_ZN4core3ptr13read_volatile18precondition_check17ha72063d9daece2e8E>
 8006016:	e7ff      	b.n	8006018 <_ZN5alloc5alloc12alloc_zeroed17h03e244da3cf1f627E+0x28>
 8006018:	f240 001c 	movw	r0, #28
 800601c:	f2c2 0000 	movt	r0, #8192	; 0x2000
 8006020:	7800      	ldrb	r0, [r0, #0]
 8006022:	f807 0c0d 	strb.w	r0, [r7, #-13]
 8006026:	4669      	mov	r1, sp
 8006028:	9105      	str	r1, [sp, #20]
 800602a:	9801      	ldr	r0, [sp, #4]
 800602c:	9106      	str	r1, [sp, #24]
 800602e:	9900      	ldr	r1, [sp, #0]
 8006030:	9107      	str	r1, [sp, #28]
 8006032:	9102      	str	r1, [sp, #8]
 8006034:	9902      	ldr	r1, [sp, #8]
 8006036:	f7fb fc57 	bl	80018e8 <__rust_alloc_zeroed>
 800603a:	b008      	add	sp, #32
 800603c:	bd80      	pop	{r7, pc}

0800603e <_ZN5alloc5alloc15exchange_malloc17h9f9f45935c7630a4E>:
 800603e:	b580      	push	{r7, lr}
 8006040:	466f      	mov	r7, sp
 8006042:	b08c      	sub	sp, #48	; 0x30
 8006044:	9100      	str	r1, [sp, #0]
 8006046:	9001      	str	r0, [sp, #4]
 8006048:	9004      	str	r0, [sp, #16]
 800604a:	9105      	str	r1, [sp, #20]
 800604c:	2001      	movs	r0, #1
 800604e:	9006      	str	r0, [sp, #24]
 8006050:	e7ff      	b.n	8006052 <_ZN5alloc5alloc15exchange_malloc17h9f9f45935c7630a4E+0x14>
 8006052:	9900      	ldr	r1, [sp, #0]
 8006054:	9801      	ldr	r0, [sp, #4]
 8006056:	f7ff f948 	bl	80052ea <_ZN4core5alloc6layout6Layout25from_size_align_unchecked18precondition_check17hd0d7b8aa2bc75080E>
 800605a:	e7ff      	b.n	800605c <_ZN5alloc5alloc15exchange_malloc17h9f9f45935c7630a4E+0x1e>
 800605c:	9a01      	ldr	r2, [sp, #4]
 800605e:	9900      	ldr	r1, [sp, #0]
 8006060:	9107      	str	r1, [sp, #28]
 8006062:	9208      	str	r2, [sp, #32]
 8006064:	2001      	movs	r0, #1
 8006066:	2300      	movs	r3, #0
 8006068:	f000 f837 	bl	80060da <_ZN5alloc5alloc6Global10alloc_impl17hba009c79fa9f1e54E>
 800606c:	9002      	str	r0, [sp, #8]
 800606e:	9103      	str	r1, [sp, #12]
 8006070:	9802      	ldr	r0, [sp, #8]
 8006072:	b138      	cbz	r0, 8006084 <_ZN5alloc5alloc15exchange_malloc17h9f9f45935c7630a4E+0x46>
 8006074:	e7ff      	b.n	8006076 <_ZN5alloc5alloc15exchange_malloc17h9f9f45935c7630a4E+0x38>
 8006076:	9802      	ldr	r0, [sp, #8]
 8006078:	9903      	ldr	r1, [sp, #12]
 800607a:	9009      	str	r0, [sp, #36]	; 0x24
 800607c:	910a      	str	r1, [sp, #40]	; 0x28
 800607e:	900b      	str	r0, [sp, #44]	; 0x2c
 8006080:	b00c      	add	sp, #48	; 0x30
 8006082:	bd80      	pop	{r7, pc}
 8006084:	9901      	ldr	r1, [sp, #4]
 8006086:	9800      	ldr	r0, [sp, #0]
 8006088:	f000 ff92 	bl	8006fb0 <_ZN5alloc5alloc18handle_alloc_error17h99b8bd8515900e0aE>

0800608c <_ZN5alloc5alloc5alloc17hf928a760675b1343E>:
 800608c:	b580      	push	{r7, lr}
 800608e:	466f      	mov	r7, sp
 8006090:	b088      	sub	sp, #32
 8006092:	9000      	str	r0, [sp, #0]
 8006094:	9101      	str	r1, [sp, #4]
 8006096:	f240 001c 	movw	r0, #28
 800609a:	f2c2 0000 	movt	r0, #8192	; 0x2000
 800609e:	9003      	str	r0, [sp, #12]
 80060a0:	e7ff      	b.n	80060a2 <_ZN5alloc5alloc5alloc17hf928a760675b1343E+0x16>
 80060a2:	f240 001c 	movw	r0, #28
 80060a6:	f2c2 0000 	movt	r0, #8192	; 0x2000
 80060aa:	2101      	movs	r1, #1
 80060ac:	2200      	movs	r2, #0
 80060ae:	f000 fbc7 	bl	8006840 <_ZN4core3ptr13read_volatile18precondition_check17ha72063d9daece2e8E>
 80060b2:	e7ff      	b.n	80060b4 <_ZN5alloc5alloc5alloc17hf928a760675b1343E+0x28>
 80060b4:	f240 001c 	movw	r0, #28
 80060b8:	f2c2 0000 	movt	r0, #8192	; 0x2000
 80060bc:	7800      	ldrb	r0, [r0, #0]
 80060be:	f807 0c0d 	strb.w	r0, [r7, #-13]
 80060c2:	4669      	mov	r1, sp
 80060c4:	9105      	str	r1, [sp, #20]
 80060c6:	9801      	ldr	r0, [sp, #4]
 80060c8:	9106      	str	r1, [sp, #24]
 80060ca:	9900      	ldr	r1, [sp, #0]
 80060cc:	9107      	str	r1, [sp, #28]
 80060ce:	9102      	str	r1, [sp, #8]
 80060d0:	9902      	ldr	r1, [sp, #8]
 80060d2:	f7fb fbbd 	bl	8001850 <__rust_alloc>
 80060d6:	b008      	add	sp, #32
 80060d8:	bd80      	pop	{r7, pc}

080060da <_ZN5alloc5alloc6Global10alloc_impl17hba009c79fa9f1e54E>:
 80060da:	b580      	push	{r7, lr}
 80060dc:	466f      	mov	r7, sp
 80060de:	b0a8      	sub	sp, #160	; 0xa0
 80060e0:	469c      	mov	ip, r3
 80060e2:	f8cd c010 	str.w	ip, [sp, #16]
 80060e6:	9106      	str	r1, [sp, #24]
 80060e8:	9207      	str	r2, [sp, #28]
 80060ea:	9011      	str	r0, [sp, #68]	; 0x44
 80060ec:	f807 3c56 	strb.w	r3, [r7, #-86]
 80060f0:	2000      	movs	r0, #0
 80060f2:	9013      	str	r0, [sp, #76]	; 0x4c
 80060f4:	9014      	str	r0, [sp, #80]	; 0x50
 80060f6:	9015      	str	r0, [sp, #84]	; 0x54
 80060f8:	a806      	add	r0, sp, #24
 80060fa:	9018      	str	r0, [sp, #96]	; 0x60
 80060fc:	9807      	ldr	r0, [sp, #28]
 80060fe:	9005      	str	r0, [sp, #20]
 8006100:	9019      	str	r0, [sp, #100]	; 0x64
 8006102:	b950      	cbnz	r0, 800611a <_ZN5alloc5alloc6Global10alloc_impl17hba009c79fa9f1e54E+0x40>
 8006104:	e7ff      	b.n	8006106 <_ZN5alloc5alloc6Global10alloc_impl17hba009c79fa9f1e54E+0x2c>
 8006106:	a806      	add	r0, sp, #24
 8006108:	901a      	str	r0, [sp, #104]	; 0x68
 800610a:	9806      	ldr	r0, [sp, #24]
 800610c:	901b      	str	r0, [sp, #108]	; 0x6c
 800610e:	900e      	str	r0, [sp, #56]	; 0x38
 8006110:	980e      	ldr	r0, [sp, #56]	; 0x38
 8006112:	9003      	str	r0, [sp, #12]
 8006114:	901c      	str	r0, [sp, #112]	; 0x70
 8006116:	901d      	str	r0, [sp, #116]	; 0x74
 8006118:	e003      	b.n	8006122 <_ZN5alloc5alloc6Global10alloc_impl17hba009c79fa9f1e54E+0x48>
 800611a:	9804      	ldr	r0, [sp, #16]
 800611c:	07c0      	lsls	r0, r0, #31
 800611e:	b9e8      	cbnz	r0, 800615c <_ZN5alloc5alloc6Global10alloc_impl17hba009c79fa9f1e54E+0x82>
 8006120:	e016      	b.n	8006150 <_ZN5alloc5alloc6Global10alloc_impl17hba009c79fa9f1e54E+0x76>
 8006122:	9803      	ldr	r0, [sp, #12]
 8006124:	f7ff fa9e 	bl	8005664 <_ZN4core3ptr8non_null16NonNull$LT$T$GT$13new_unchecked18precondition_check17had037874fa2fd2fdE>
 8006128:	9803      	ldr	r0, [sp, #12]
 800612a:	901e      	str	r0, [sp, #120]	; 0x78
 800612c:	901f      	str	r0, [sp, #124]	; 0x7c
 800612e:	900f      	str	r0, [sp, #60]	; 0x3c
 8006130:	2000      	movs	r0, #0
 8006132:	9010      	str	r0, [sp, #64]	; 0x40
 8006134:	e7ff      	b.n	8006136 <_ZN5alloc5alloc6Global10alloc_impl17hba009c79fa9f1e54E+0x5c>
 8006136:	9803      	ldr	r0, [sp, #12]
 8006138:	f7ff fa94 	bl	8005664 <_ZN4core3ptr8non_null16NonNull$LT$T$GT$13new_unchecked18precondition_check17had037874fa2fd2fdE>
 800613c:	e7ff      	b.n	800613e <_ZN5alloc5alloc6Global10alloc_impl17hba009c79fa9f1e54E+0x64>
 800613e:	990f      	ldr	r1, [sp, #60]	; 0x3c
 8006140:	9810      	ldr	r0, [sp, #64]	; 0x40
 8006142:	9108      	str	r1, [sp, #32]
 8006144:	9009      	str	r0, [sp, #36]	; 0x24
 8006146:	e7ff      	b.n	8006148 <_ZN5alloc5alloc6Global10alloc_impl17hba009c79fa9f1e54E+0x6e>
 8006148:	9808      	ldr	r0, [sp, #32]
 800614a:	9909      	ldr	r1, [sp, #36]	; 0x24
 800614c:	b028      	add	sp, #160	; 0xa0
 800614e:	bd80      	pop	{r7, pc}
 8006150:	9806      	ldr	r0, [sp, #24]
 8006152:	9907      	ldr	r1, [sp, #28]
 8006154:	f7ff ff9a 	bl	800608c <_ZN5alloc5alloc5alloc17hf928a760675b1343E>
 8006158:	900a      	str	r0, [sp, #40]	; 0x28
 800615a:	e005      	b.n	8006168 <_ZN5alloc5alloc6Global10alloc_impl17hba009c79fa9f1e54E+0x8e>
 800615c:	9806      	ldr	r0, [sp, #24]
 800615e:	9907      	ldr	r1, [sp, #28]
 8006160:	f7ff ff46 	bl	8005ff0 <_ZN5alloc5alloc12alloc_zeroed17h03e244da3cf1f627E>
 8006164:	900a      	str	r0, [sp, #40]	; 0x28
 8006166:	e7ff      	b.n	8006168 <_ZN5alloc5alloc6Global10alloc_impl17hba009c79fa9f1e54E+0x8e>
 8006168:	980a      	ldr	r0, [sp, #40]	; 0x28
 800616a:	9002      	str	r0, [sp, #8]
 800616c:	9020      	str	r0, [sp, #128]	; 0x80
 800616e:	9021      	str	r0, [sp, #132]	; 0x84
 8006170:	b960      	cbnz	r0, 800618c <_ZN5alloc5alloc6Global10alloc_impl17hba009c79fa9f1e54E+0xb2>
 8006172:	e7ff      	b.n	8006174 <_ZN5alloc5alloc6Global10alloc_impl17hba009c79fa9f1e54E+0x9a>
 8006174:	2000      	movs	r0, #0
 8006176:	900d      	str	r0, [sp, #52]	; 0x34
 8006178:	900c      	str	r0, [sp, #48]	; 0x30
 800617a:	f249 5038 	movw	r0, #38200	; 0x9538
 800617e:	f6c0 0000 	movt	r0, #2048	; 0x800
 8006182:	6801      	ldr	r1, [r0, #0]
 8006184:	6840      	ldr	r0, [r0, #4]
 8006186:	9108      	str	r1, [sp, #32]
 8006188:	9009      	str	r0, [sp, #36]	; 0x24
 800618a:	e7dd      	b.n	8006148 <_ZN5alloc5alloc6Global10alloc_impl17hba009c79fa9f1e54E+0x6e>
 800618c:	e7ff      	b.n	800618e <_ZN5alloc5alloc6Global10alloc_impl17hba009c79fa9f1e54E+0xb4>
 800618e:	9802      	ldr	r0, [sp, #8]
 8006190:	f7ff fa68 	bl	8005664 <_ZN4core3ptr8non_null16NonNull$LT$T$GT$13new_unchecked18precondition_check17had037874fa2fd2fdE>
 8006194:	e7ff      	b.n	8006196 <_ZN5alloc5alloc6Global10alloc_impl17hba009c79fa9f1e54E+0xbc>
 8006196:	9805      	ldr	r0, [sp, #20]
 8006198:	9902      	ldr	r1, [sp, #8]
 800619a:	910d      	str	r1, [sp, #52]	; 0x34
 800619c:	990d      	ldr	r1, [sp, #52]	; 0x34
 800619e:	9122      	str	r1, [sp, #136]	; 0x88
 80061a0:	910c      	str	r1, [sp, #48]	; 0x30
 80061a2:	990c      	ldr	r1, [sp, #48]	; 0x30
 80061a4:	9123      	str	r1, [sp, #140]	; 0x8c
 80061a6:	910b      	str	r1, [sp, #44]	; 0x2c
 80061a8:	990b      	ldr	r1, [sp, #44]	; 0x2c
 80061aa:	9101      	str	r1, [sp, #4]
 80061ac:	9124      	str	r1, [sp, #144]	; 0x90
 80061ae:	9125      	str	r1, [sp, #148]	; 0x94
 80061b0:	9126      	str	r1, [sp, #152]	; 0x98
 80061b2:	9027      	str	r0, [sp, #156]	; 0x9c
 80061b4:	e7ff      	b.n	80061b6 <_ZN5alloc5alloc6Global10alloc_impl17hba009c79fa9f1e54E+0xdc>
 80061b6:	9801      	ldr	r0, [sp, #4]
 80061b8:	f7ff fa54 	bl	8005664 <_ZN4core3ptr8non_null16NonNull$LT$T$GT$13new_unchecked18precondition_check17had037874fa2fd2fdE>
 80061bc:	e7ff      	b.n	80061be <_ZN5alloc5alloc6Global10alloc_impl17hba009c79fa9f1e54E+0xe4>
 80061be:	9805      	ldr	r0, [sp, #20]
 80061c0:	9901      	ldr	r1, [sp, #4]
 80061c2:	9108      	str	r1, [sp, #32]
 80061c4:	9009      	str	r0, [sp, #36]	; 0x24
 80061c6:	e7bf      	b.n	8006148 <_ZN5alloc5alloc6Global10alloc_impl17hba009c79fa9f1e54E+0x6e>

080061c8 <_ZN5alloc5alloc6Global9grow_impl17h9659f19f8e737eceE>:
 80061c8:	b5d0      	push	{r4, r6, r7, lr}
 80061ca:	af02      	add	r7, sp, #8
 80061cc:	b0d2      	sub	sp, #328	; 0x148
 80061ce:	469e      	mov	lr, r3
 80061d0:	4614      	mov	r4, r2
 80061d2:	910a      	str	r1, [sp, #40]	; 0x28
 80061d4:	4602      	mov	r2, r0
 80061d6:	920b      	str	r2, [sp, #44]	; 0x2c
 80061d8:	6938      	ldr	r0, [r7, #16]
 80061da:	900c      	str	r0, [sp, #48]	; 0x30
 80061dc:	68fb      	ldr	r3, [r7, #12]
 80061de:	f8d7 c008 	ldr.w	ip, [r7, #8]
 80061e2:	940d      	str	r4, [sp, #52]	; 0x34
 80061e4:	f8cd e038 	str.w	lr, [sp, #56]	; 0x38
 80061e8:	f8cd c03c 	str.w	ip, [sp, #60]	; 0x3c
 80061ec:	9310      	str	r3, [sp, #64]	; 0x40
 80061ee:	9225      	str	r2, [sp, #148]	; 0x94
 80061f0:	9126      	str	r1, [sp, #152]	; 0x98
 80061f2:	f807 0cb3 	strb.w	r0, [r7, #-179]
 80061f6:	f24a 70d0 	movw	r0, #42960	; 0xa7d0
 80061fa:	f6c0 0000 	movt	r0, #2048	; 0x800
 80061fe:	9028      	str	r0, [sp, #160]	; 0xa0
 8006200:	2000      	movs	r0, #0
 8006202:	f807 0ca6 	strb.w	r0, [r7, #-166]
 8006206:	f807 0ca5 	strb.w	r0, [r7, #-165]
 800620a:	a80d      	add	r0, sp, #52	; 0x34
 800620c:	902c      	str	r0, [sp, #176]	; 0xb0
 800620e:	980e      	ldr	r0, [sp, #56]	; 0x38
 8006210:	9013      	str	r0, [sp, #76]	; 0x4c
 8006212:	9813      	ldr	r0, [sp, #76]	; 0x4c
 8006214:	b958      	cbnz	r0, 800622e <_ZN5alloc5alloc6Global9grow_impl17h9659f19f8e737eceE+0x66>
 8006216:	e7ff      	b.n	8006218 <_ZN5alloc5alloc6Global9grow_impl17h9659f19f8e737eceE+0x50>
 8006218:	980b      	ldr	r0, [sp, #44]	; 0x2c
 800621a:	9b0c      	ldr	r3, [sp, #48]	; 0x30
 800621c:	990f      	ldr	r1, [sp, #60]	; 0x3c
 800621e:	9a10      	ldr	r2, [sp, #64]	; 0x40
 8006220:	f003 0301 	and.w	r3, r3, #1
 8006224:	f7ff ff59 	bl	80060da <_ZN5alloc5alloc6Global10alloc_impl17hba009c79fa9f1e54E>
 8006228:	9011      	str	r0, [sp, #68]	; 0x44
 800622a:	9112      	str	r1, [sp, #72]	; 0x48
 800622c:	e012      	b.n	8006254 <_ZN5alloc5alloc6Global9grow_impl17h9659f19f8e737eceE+0x8c>
 800622e:	a813      	add	r0, sp, #76	; 0x4c
 8006230:	902d      	str	r0, [sp, #180]	; 0xb4
 8006232:	a80d      	add	r0, sp, #52	; 0x34
 8006234:	902e      	str	r0, [sp, #184]	; 0xb8
 8006236:	980d      	ldr	r0, [sp, #52]	; 0x34
 8006238:	9008      	str	r0, [sp, #32]
 800623a:	902f      	str	r0, [sp, #188]	; 0xbc
 800623c:	9020      	str	r0, [sp, #128]	; 0x80
 800623e:	9820      	ldr	r0, [sp, #128]	; 0x80
 8006240:	9009      	str	r0, [sp, #36]	; 0x24
 8006242:	a90f      	add	r1, sp, #60	; 0x3c
 8006244:	9130      	str	r1, [sp, #192]	; 0xc0
 8006246:	990f      	ldr	r1, [sp, #60]	; 0x3c
 8006248:	9131      	str	r1, [sp, #196]	; 0xc4
 800624a:	9121      	str	r1, [sp, #132]	; 0x84
 800624c:	9921      	ldr	r1, [sp, #132]	; 0x84
 800624e:	4288      	cmp	r0, r1
 8006250:	d011      	beq.n	8006276 <_ZN5alloc5alloc6Global9grow_impl17h9659f19f8e737eceE+0xae>
 8006252:	e003      	b.n	800625c <_ZN5alloc5alloc6Global9grow_impl17h9659f19f8e737eceE+0x94>
 8006254:	9811      	ldr	r0, [sp, #68]	; 0x44
 8006256:	9912      	ldr	r1, [sp, #72]	; 0x48
 8006258:	b052      	add	sp, #328	; 0x148
 800625a:	bdd0      	pop	{r4, r6, r7, pc}
 800625c:	980b      	ldr	r0, [sp, #44]	; 0x2c
 800625e:	9b0c      	ldr	r3, [sp, #48]	; 0x30
 8006260:	990f      	ldr	r1, [sp, #60]	; 0x3c
 8006262:	9a10      	ldr	r2, [sp, #64]	; 0x40
 8006264:	f003 0301 	and.w	r3, r3, #1
 8006268:	f7ff ff37 	bl	80060da <_ZN5alloc5alloc6Global10alloc_impl17hba009c79fa9f1e54E>
 800626c:	901c      	str	r0, [sp, #112]	; 0x70
 800626e:	911d      	str	r1, [sp, #116]	; 0x74
 8006270:	981c      	ldr	r0, [sp, #112]	; 0x70
 8006272:	b988      	cbnz	r0, 8006298 <_ZN5alloc5alloc6Global9grow_impl17h9659f19f8e737eceE+0xd0>
 8006274:	e017      	b.n	80062a6 <_ZN5alloc5alloc6Global9grow_impl17h9659f19f8e737eceE+0xde>
 8006276:	a80f      	add	r0, sp, #60	; 0x3c
 8006278:	903d      	str	r0, [sp, #244]	; 0xf4
 800627a:	9910      	ldr	r1, [sp, #64]	; 0x40
 800627c:	9106      	str	r1, [sp, #24]
 800627e:	913e      	str	r1, [sp, #248]	; 0xf8
 8006280:	a80d      	add	r0, sp, #52	; 0x34
 8006282:	903f      	str	r0, [sp, #252]	; 0xfc
 8006284:	9a13      	ldr	r2, [sp, #76]	; 0x4c
 8006286:	2000      	movs	r0, #0
 8006288:	4291      	cmp	r1, r2
 800628a:	bf28      	it	cs
 800628c:	2001      	movcs	r0, #1
 800628e:	4601      	mov	r1, r0
 8006290:	9107      	str	r1, [sp, #28]
 8006292:	f807 0c4d 	strb.w	r0, [r7, #-77]
 8006296:	e051      	b.n	800633c <_ZN5alloc5alloc6Global9grow_impl17h9659f19f8e737eceE+0x174>
 8006298:	991c      	ldr	r1, [sp, #112]	; 0x70
 800629a:	981d      	ldr	r0, [sp, #116]	; 0x74
 800629c:	9132      	str	r1, [sp, #200]	; 0xc8
 800629e:	9033      	str	r0, [sp, #204]	; 0xcc
 80062a0:	911a      	str	r1, [sp, #104]	; 0x68
 80062a2:	901b      	str	r0, [sp, #108]	; 0x6c
 80062a4:	e008      	b.n	80062b8 <_ZN5alloc5alloc6Global9grow_impl17h9659f19f8e737eceE+0xf0>
 80062a6:	f249 5038 	movw	r0, #38200	; 0x9538
 80062aa:	f6c0 0000 	movt	r0, #2048	; 0x800
 80062ae:	6801      	ldr	r1, [r0, #0]
 80062b0:	6840      	ldr	r0, [r0, #4]
 80062b2:	911a      	str	r1, [sp, #104]	; 0x68
 80062b4:	901b      	str	r0, [sp, #108]	; 0x6c
 80062b6:	e7ff      	b.n	80062b8 <_ZN5alloc5alloc6Global9grow_impl17h9659f19f8e737eceE+0xf0>
 80062b8:	981a      	ldr	r0, [sp, #104]	; 0x68
 80062ba:	b160      	cbz	r0, 80062d6 <_ZN5alloc5alloc6Global9grow_impl17h9659f19f8e737eceE+0x10e>
 80062bc:	e7ff      	b.n	80062be <_ZN5alloc5alloc6Global9grow_impl17h9659f19f8e737eceE+0xf6>
 80062be:	990a      	ldr	r1, [sp, #40]	; 0x28
 80062c0:	981a      	ldr	r0, [sp, #104]	; 0x68
 80062c2:	9004      	str	r0, [sp, #16]
 80062c4:	9a1b      	ldr	r2, [sp, #108]	; 0x6c
 80062c6:	9205      	str	r2, [sp, #20]
 80062c8:	9034      	str	r0, [sp, #208]	; 0xd0
 80062ca:	9235      	str	r2, [sp, #212]	; 0xd4
 80062cc:	9136      	str	r1, [sp, #216]	; 0xd8
 80062ce:	9137      	str	r1, [sp, #220]	; 0xdc
 80062d0:	9038      	str	r0, [sp, #224]	; 0xe0
 80062d2:	9039      	str	r0, [sp, #228]	; 0xe4
 80062d4:	e008      	b.n	80062e8 <_ZN5alloc5alloc6Global9grow_impl17h9659f19f8e737eceE+0x120>
 80062d6:	f249 5038 	movw	r0, #38200	; 0x9538
 80062da:	f6c0 0000 	movt	r0, #2048	; 0x800
 80062de:	6801      	ldr	r1, [r0, #0]
 80062e0:	6840      	ldr	r0, [r0, #4]
 80062e2:	9111      	str	r1, [sp, #68]	; 0x44
 80062e4:	9012      	str	r0, [sp, #72]	; 0x48
 80062e6:	e7b5      	b.n	8006254 <_ZN5alloc5alloc6Global9grow_impl17h9659f19f8e737eceE+0x8c>
 80062e8:	9904      	ldr	r1, [sp, #16]
 80062ea:	980a      	ldr	r0, [sp, #40]	; 0x28
 80062ec:	9a13      	ldr	r2, [sp, #76]	; 0x4c
 80062ee:	466b      	mov	r3, sp
 80062f0:	601a      	str	r2, [r3, #0]
 80062f2:	2301      	movs	r3, #1
 80062f4:	461a      	mov	r2, r3
 80062f6:	f000 f956 	bl	80065a6 <_ZN4core10intrinsics19copy_nonoverlapping18precondition_check17h11c88b660aa3e550E>
 80062fa:	e7ff      	b.n	80062fc <_ZN5alloc5alloc6Global9grow_impl17h9659f19f8e737eceE+0x134>
 80062fc:	990a      	ldr	r1, [sp, #40]	; 0x28
 80062fe:	9804      	ldr	r0, [sp, #16]
 8006300:	9a13      	ldr	r2, [sp, #76]	; 0x4c
 8006302:	f002 ff56 	bl	80091b2 <__aeabi_memcpy>
 8006306:	990d      	ldr	r1, [sp, #52]	; 0x34
 8006308:	980e      	ldr	r0, [sp, #56]	; 0x38
 800630a:	911e      	str	r1, [sp, #120]	; 0x78
 800630c:	901f      	str	r0, [sp, #124]	; 0x7c
 800630e:	a81e      	add	r0, sp, #120	; 0x78
 8006310:	903a      	str	r0, [sp, #232]	; 0xe8
 8006312:	9813      	ldr	r0, [sp, #76]	; 0x4c
 8006314:	b928      	cbnz	r0, 8006322 <_ZN5alloc5alloc6Global9grow_impl17h9659f19f8e737eceE+0x15a>
 8006316:	e7ff      	b.n	8006318 <_ZN5alloc5alloc6Global9grow_impl17h9659f19f8e737eceE+0x150>
 8006318:	9805      	ldr	r0, [sp, #20]
 800631a:	9904      	ldr	r1, [sp, #16]
 800631c:	9111      	str	r1, [sp, #68]	; 0x44
 800631e:	9012      	str	r0, [sp, #72]	; 0x48
 8006320:	e798      	b.n	8006254 <_ZN5alloc5alloc6Global9grow_impl17h9659f19f8e737eceE+0x8c>
 8006322:	9a09      	ldr	r2, [sp, #36]	; 0x24
 8006324:	980a      	ldr	r0, [sp, #40]	; 0x28
 8006326:	9b0d      	ldr	r3, [sp, #52]	; 0x34
 8006328:	990e      	ldr	r1, [sp, #56]	; 0x38
 800632a:	9323      	str	r3, [sp, #140]	; 0x8c
 800632c:	9124      	str	r1, [sp, #144]	; 0x90
 800632e:	a923      	add	r1, sp, #140	; 0x8c
 8006330:	913b      	str	r1, [sp, #236]	; 0xec
 8006332:	913c      	str	r1, [sp, #240]	; 0xf0
 8006334:	9913      	ldr	r1, [sp, #76]	; 0x4c
 8006336:	f7fb fa9d 	bl	8001874 <__rust_dealloc>
 800633a:	e7ed      	b.n	8006318 <_ZN5alloc5alloc6Global9grow_impl17h9659f19f8e737eceE+0x150>
 800633c:	9807      	ldr	r0, [sp, #28]
 800633e:	f000 0001 	and.w	r0, r0, #1
 8006342:	f7ff fe2c 	bl	8005f9e <_ZN4core4hint16assert_unchecked18precondition_check17h5e71cde4293b3b38E>
 8006346:	9908      	ldr	r1, [sp, #32]
 8006348:	980a      	ldr	r0, [sp, #40]	; 0x28
 800634a:	9a09      	ldr	r2, [sp, #36]	; 0x24
 800634c:	9b06      	ldr	r3, [sp, #24]
 800634e:	9041      	str	r0, [sp, #260]	; 0x104
 8006350:	9042      	str	r0, [sp, #264]	; 0x108
 8006352:	f8dd e034 	ldr.w	lr, [sp, #52]	; 0x34
 8006356:	f8dd c038 	ldr.w	ip, [sp, #56]	; 0x38
 800635a:	f8cd e054 	str.w	lr, [sp, #84]	; 0x54
 800635e:	f8cd c058 	str.w	ip, [sp, #88]	; 0x58
 8006362:	9343      	str	r3, [sp, #268]	; 0x10c
 8006364:	f10d 0c54 	add.w	ip, sp, #84	; 0x54
 8006368:	f8cd c110 	str.w	ip, [sp, #272]	; 0x110
 800636c:	f8cd c114 	str.w	ip, [sp, #276]	; 0x114
 8006370:	9146      	str	r1, [sp, #280]	; 0x118
 8006372:	9913      	ldr	r1, [sp, #76]	; 0x4c
 8006374:	f7fb fa98 	bl	80018a8 <__rust_realloc>
 8006378:	9014      	str	r0, [sp, #80]	; 0x50
 800637a:	9814      	ldr	r0, [sp, #80]	; 0x50
 800637c:	9047      	str	r0, [sp, #284]	; 0x11c
 800637e:	9814      	ldr	r0, [sp, #80]	; 0x50
 8006380:	9022      	str	r0, [sp, #136]	; 0x88
 8006382:	9822      	ldr	r0, [sp, #136]	; 0x88
 8006384:	9048      	str	r0, [sp, #288]	; 0x120
 8006386:	9814      	ldr	r0, [sp, #80]	; 0x50
 8006388:	b918      	cbnz	r0, 8006392 <_ZN5alloc5alloc6Global9grow_impl17h9659f19f8e737eceE+0x1ca>
 800638a:	e7ff      	b.n	800638c <_ZN5alloc5alloc6Global9grow_impl17h9659f19f8e737eceE+0x1c4>
 800638c:	2000      	movs	r0, #0
 800638e:	9019      	str	r0, [sp, #100]	; 0x64
 8006390:	e000      	b.n	8006394 <_ZN5alloc5alloc6Global9grow_impl17h9659f19f8e737eceE+0x1cc>
 8006392:	e002      	b.n	800639a <_ZN5alloc5alloc6Global9grow_impl17h9659f19f8e737eceE+0x1d2>
 8006394:	9819      	ldr	r0, [sp, #100]	; 0x64
 8006396:	b138      	cbz	r0, 80063a8 <_ZN5alloc5alloc6Global9grow_impl17h9659f19f8e737eceE+0x1e0>
 8006398:	e009      	b.n	80063ae <_ZN5alloc5alloc6Global9grow_impl17h9659f19f8e737eceE+0x1e6>
 800639a:	9814      	ldr	r0, [sp, #80]	; 0x50
 800639c:	f7ff f962 	bl	8005664 <_ZN4core3ptr8non_null16NonNull$LT$T$GT$13new_unchecked18precondition_check17had037874fa2fd2fdE>
 80063a0:	e7ff      	b.n	80063a2 <_ZN5alloc5alloc6Global9grow_impl17h9659f19f8e737eceE+0x1da>
 80063a2:	9822      	ldr	r0, [sp, #136]	; 0x88
 80063a4:	9019      	str	r0, [sp, #100]	; 0x64
 80063a6:	e7f5      	b.n	8006394 <_ZN5alloc5alloc6Global9grow_impl17h9659f19f8e737eceE+0x1cc>
 80063a8:	2000      	movs	r0, #0
 80063aa:	9018      	str	r0, [sp, #96]	; 0x60
 80063ac:	e003      	b.n	80063b6 <_ZN5alloc5alloc6Global9grow_impl17h9659f19f8e737eceE+0x1ee>
 80063ae:	9819      	ldr	r0, [sp, #100]	; 0x64
 80063b0:	9049      	str	r0, [sp, #292]	; 0x124
 80063b2:	9018      	str	r0, [sp, #96]	; 0x60
 80063b4:	e7ff      	b.n	80063b6 <_ZN5alloc5alloc6Global9grow_impl17h9659f19f8e737eceE+0x1ee>
 80063b6:	9818      	ldr	r0, [sp, #96]	; 0x60
 80063b8:	b120      	cbz	r0, 80063c4 <_ZN5alloc5alloc6Global9grow_impl17h9659f19f8e737eceE+0x1fc>
 80063ba:	e7ff      	b.n	80063bc <_ZN5alloc5alloc6Global9grow_impl17h9659f19f8e737eceE+0x1f4>
 80063bc:	9818      	ldr	r0, [sp, #96]	; 0x60
 80063be:	904a      	str	r0, [sp, #296]	; 0x128
 80063c0:	9017      	str	r0, [sp, #92]	; 0x5c
 80063c2:	e002      	b.n	80063ca <_ZN5alloc5alloc6Global9grow_impl17h9659f19f8e737eceE+0x202>
 80063c4:	2000      	movs	r0, #0
 80063c6:	9017      	str	r0, [sp, #92]	; 0x5c
 80063c8:	e7ff      	b.n	80063ca <_ZN5alloc5alloc6Global9grow_impl17h9659f19f8e737eceE+0x202>
 80063ca:	9817      	ldr	r0, [sp, #92]	; 0x5c
 80063cc:	b138      	cbz	r0, 80063de <_ZN5alloc5alloc6Global9grow_impl17h9659f19f8e737eceE+0x216>
 80063ce:	e7ff      	b.n	80063d0 <_ZN5alloc5alloc6Global9grow_impl17h9659f19f8e737eceE+0x208>
 80063d0:	980c      	ldr	r0, [sp, #48]	; 0x30
 80063d2:	9917      	ldr	r1, [sp, #92]	; 0x5c
 80063d4:	9103      	str	r1, [sp, #12]
 80063d6:	914b      	str	r1, [sp, #300]	; 0x12c
 80063d8:	07c0      	lsls	r0, r0, #31
 80063da:	b978      	cbnz	r0, 80063fc <_ZN5alloc5alloc6Global9grow_impl17h9659f19f8e737eceE+0x234>
 80063dc:	e008      	b.n	80063f0 <_ZN5alloc5alloc6Global9grow_impl17h9659f19f8e737eceE+0x228>
 80063de:	f249 5038 	movw	r0, #38200	; 0x9538
 80063e2:	f6c0 0000 	movt	r0, #2048	; 0x800
 80063e6:	6801      	ldr	r1, [r0, #0]
 80063e8:	6840      	ldr	r0, [r0, #4]
 80063ea:	9111      	str	r1, [sp, #68]	; 0x44
 80063ec:	9012      	str	r0, [sp, #72]	; 0x48
 80063ee:	e731      	b.n	8006254 <_ZN5alloc5alloc6Global9grow_impl17h9659f19f8e737eceE+0x8c>
 80063f0:	9806      	ldr	r0, [sp, #24]
 80063f2:	9903      	ldr	r1, [sp, #12]
 80063f4:	914f      	str	r1, [sp, #316]	; 0x13c
 80063f6:	9150      	str	r1, [sp, #320]	; 0x140
 80063f8:	9051      	str	r0, [sp, #324]	; 0x144
 80063fa:	e01c      	b.n	8006436 <_ZN5alloc5alloc6Global9grow_impl17h9659f19f8e737eceE+0x26e>
 80063fc:	9806      	ldr	r0, [sp, #24]
 80063fe:	9914      	ldr	r1, [sp, #80]	; 0x50
 8006400:	914c      	str	r1, [sp, #304]	; 0x130
 8006402:	9914      	ldr	r1, [sp, #80]	; 0x50
 8006404:	9a13      	ldr	r2, [sp, #76]	; 0x4c
 8006406:	4411      	add	r1, r2
 8006408:	460a      	mov	r2, r1
 800640a:	9201      	str	r2, [sp, #4]
 800640c:	914d      	str	r1, [sp, #308]	; 0x134
 800640e:	9913      	ldr	r1, [sp, #76]	; 0x4c
 8006410:	1a40      	subs	r0, r0, r1
 8006412:	4601      	mov	r1, r0
 8006414:	9102      	str	r1, [sp, #8]
 8006416:	904e      	str	r0, [sp, #312]	; 0x138
 8006418:	e7ff      	b.n	800641a <_ZN5alloc5alloc6Global9grow_impl17h9659f19f8e737eceE+0x252>
 800641a:	9801      	ldr	r0, [sp, #4]
 800641c:	9902      	ldr	r1, [sp, #8]
 800641e:	fab1 f181 	clz	r1, r1
 8006422:	094a      	lsrs	r2, r1, #5
 8006424:	2101      	movs	r1, #1
 8006426:	f000 f85f 	bl	80064e8 <_ZN4core10intrinsics11write_bytes18precondition_check17h8ecc3309d23fb6fbE>
 800642a:	e7ff      	b.n	800642c <_ZN5alloc5alloc6Global9grow_impl17h9659f19f8e737eceE+0x264>
 800642c:	9902      	ldr	r1, [sp, #8]
 800642e:	9801      	ldr	r0, [sp, #4]
 8006430:	f002 ffa1 	bl	8009376 <__aeabi_memclr>
 8006434:	e7dc      	b.n	80063f0 <_ZN5alloc5alloc6Global9grow_impl17h9659f19f8e737eceE+0x228>
 8006436:	9803      	ldr	r0, [sp, #12]
 8006438:	f7ff f914 	bl	8005664 <_ZN4core3ptr8non_null16NonNull$LT$T$GT$13new_unchecked18precondition_check17had037874fa2fd2fdE>
 800643c:	e7ff      	b.n	800643e <_ZN5alloc5alloc6Global9grow_impl17h9659f19f8e737eceE+0x276>
 800643e:	9806      	ldr	r0, [sp, #24]
 8006440:	9903      	ldr	r1, [sp, #12]
 8006442:	9111      	str	r1, [sp, #68]	; 0x44
 8006444:	9012      	str	r0, [sp, #72]	; 0x48
 8006446:	e705      	b.n	8006254 <_ZN5alloc5alloc6Global9grow_impl17h9659f19f8e737eceE+0x8c>

08006448 <_ZN63_$LT$alloc..alloc..Global$u20$as$u20$core..alloc..Allocator$GT$10deallocate17h940e4e017005d7c6E>:
 8006448:	b580      	push	{r7, lr}
 800644a:	466f      	mov	r7, sp
 800644c:	b08e      	sub	sp, #56	; 0x38
 800644e:	9100      	str	r1, [sp, #0]
 8006450:	9202      	str	r2, [sp, #8]
 8006452:	9303      	str	r3, [sp, #12]
 8006454:	9007      	str	r0, [sp, #28]
 8006456:	9108      	str	r1, [sp, #32]
 8006458:	a802      	add	r0, sp, #8
 800645a:	9009      	str	r0, [sp, #36]	; 0x24
 800645c:	9803      	ldr	r0, [sp, #12]
 800645e:	9001      	str	r0, [sp, #4]
 8006460:	b910      	cbnz	r0, 8006468 <_ZN63_$LT$alloc..alloc..Global$u20$as$u20$core..alloc..Allocator$GT$10deallocate17h940e4e017005d7c6E+0x20>
 8006462:	e7ff      	b.n	8006464 <_ZN63_$LT$alloc..alloc..Global$u20$as$u20$core..alloc..Allocator$GT$10deallocate17h940e4e017005d7c6E+0x1c>
 8006464:	b00e      	add	sp, #56	; 0x38
 8006466:	bd80      	pop	{r7, pc}
 8006468:	9901      	ldr	r1, [sp, #4]
 800646a:	9800      	ldr	r0, [sp, #0]
 800646c:	900a      	str	r0, [sp, #40]	; 0x28
 800646e:	9b02      	ldr	r3, [sp, #8]
 8006470:	9a03      	ldr	r2, [sp, #12]
 8006472:	9304      	str	r3, [sp, #16]
 8006474:	9205      	str	r2, [sp, #20]
 8006476:	aa04      	add	r2, sp, #16
 8006478:	920b      	str	r2, [sp, #44]	; 0x2c
 800647a:	920c      	str	r2, [sp, #48]	; 0x30
 800647c:	9a02      	ldr	r2, [sp, #8]
 800647e:	920d      	str	r2, [sp, #52]	; 0x34
 8006480:	9206      	str	r2, [sp, #24]
 8006482:	9a06      	ldr	r2, [sp, #24]
 8006484:	f7fb f9f6 	bl	8001874 <__rust_dealloc>
 8006488:	e7ec      	b.n	8006464 <_ZN63_$LT$alloc..alloc..Global$u20$as$u20$core..alloc..Allocator$GT$10deallocate17h940e4e017005d7c6E+0x1c>

0800648a <_ZN63_$LT$alloc..alloc..Global$u20$as$u20$core..alloc..Allocator$GT$15allocate_zeroed17he1efe4a8b6acaf03E>:
 800648a:	b580      	push	{r7, lr}
 800648c:	466f      	mov	r7, sp
 800648e:	b084      	sub	sp, #16
 8006490:	9001      	str	r0, [sp, #4]
 8006492:	9102      	str	r1, [sp, #8]
 8006494:	9203      	str	r2, [sp, #12]
 8006496:	2301      	movs	r3, #1
 8006498:	f7ff fe1f 	bl	80060da <_ZN5alloc5alloc6Global10alloc_impl17hba009c79fa9f1e54E>
 800649c:	b004      	add	sp, #16
 800649e:	bd80      	pop	{r7, pc}

080064a0 <_ZN63_$LT$alloc..alloc..Global$u20$as$u20$core..alloc..Allocator$GT$4grow17h1913efbb3fc93210E>:
 80064a0:	b5b0      	push	{r4, r5, r7, lr}
 80064a2:	af02      	add	r7, sp, #8
 80064a4:	b08a      	sub	sp, #40	; 0x28
 80064a6:	68fc      	ldr	r4, [r7, #12]
 80064a8:	f8d7 c008 	ldr.w	ip, [r7, #8]
 80064ac:	9004      	str	r0, [sp, #16]
 80064ae:	9105      	str	r1, [sp, #20]
 80064b0:	9206      	str	r2, [sp, #24]
 80064b2:	9307      	str	r3, [sp, #28]
 80064b4:	f8cd c020 	str.w	ip, [sp, #32]
 80064b8:	9409      	str	r4, [sp, #36]	; 0x24
 80064ba:	46ee      	mov	lr, sp
 80064bc:	2500      	movs	r5, #0
 80064be:	f8ce 5008 	str.w	r5, [lr, #8]
 80064c2:	f8ce 4004 	str.w	r4, [lr, #4]
 80064c6:	f8ce c000 	str.w	ip, [lr]
 80064ca:	f7ff fe7d 	bl	80061c8 <_ZN5alloc5alloc6Global9grow_impl17h9659f19f8e737eceE>
 80064ce:	b00a      	add	sp, #40	; 0x28
 80064d0:	bdb0      	pop	{r4, r5, r7, pc}

080064d2 <_ZN63_$LT$alloc..alloc..Global$u20$as$u20$core..alloc..Allocator$GT$8allocate17h2f94815d8e11f350E>:
 80064d2:	b580      	push	{r7, lr}
 80064d4:	466f      	mov	r7, sp
 80064d6:	b084      	sub	sp, #16
 80064d8:	9001      	str	r0, [sp, #4]
 80064da:	9102      	str	r1, [sp, #8]
 80064dc:	9203      	str	r2, [sp, #12]
 80064de:	2300      	movs	r3, #0
 80064e0:	f7ff fdfb 	bl	80060da <_ZN5alloc5alloc6Global10alloc_impl17hba009c79fa9f1e54E>
 80064e4:	b004      	add	sp, #16
 80064e6:	bd80      	pop	{r7, pc}

080064e8 <_ZN4core10intrinsics11write_bytes18precondition_check17h8ecc3309d23fb6fbE>:
 80064e8:	b580      	push	{r7, lr}
 80064ea:	466f      	mov	r7, sp
 80064ec:	b090      	sub	sp, #64	; 0x40
 80064ee:	9101      	str	r1, [sp, #4]
 80064f0:	9002      	str	r0, [sp, #8]
 80064f2:	4613      	mov	r3, r2
 80064f4:	9303      	str	r3, [sp, #12]
 80064f6:	900a      	str	r0, [sp, #40]	; 0x28
 80064f8:	910b      	str	r1, [sp, #44]	; 0x2c
 80064fa:	f807 2c0d 	strb.w	r2, [r7, #-13]
 80064fe:	f64a 0004 	movw	r0, #43012	; 0xa804
 8006502:	f6c0 0000 	movt	r0, #2048	; 0x800
 8006506:	900d      	str	r0, [sp, #52]	; 0x34
 8006508:	f04f 3055 	mov.w	r0, #1431655765	; 0x55555555
 800650c:	ea00 0051 	and.w	r0, r0, r1, lsr #1
 8006510:	1a08      	subs	r0, r1, r0
 8006512:	f04f 3133 	mov.w	r1, #858993459	; 0x33333333
 8006516:	ea01 0190 	and.w	r1, r1, r0, lsr #2
 800651a:	f020 30cc 	bic.w	r0, r0, #3435973836	; 0xcccccccc
 800651e:	4408      	add	r0, r1
 8006520:	eb00 1010 	add.w	r0, r0, r0, lsr #4
 8006524:	f020 30f0 	bic.w	r0, r0, #4042322160	; 0xf0f0f0f0
 8006528:	f04f 3101 	mov.w	r1, #16843009	; 0x1010101
 800652c:	4348      	muls	r0, r1
 800652e:	0e00      	lsrs	r0, r0, #24
 8006530:	900e      	str	r0, [sp, #56]	; 0x38
 8006532:	980e      	ldr	r0, [sp, #56]	; 0x38
 8006534:	2801      	cmp	r0, #1
 8006536:	d108      	bne.n	800654a <_ZN4core10intrinsics11write_bytes18precondition_check17h8ecc3309d23fb6fbE+0x62>
 8006538:	e7ff      	b.n	800653a <_ZN4core10intrinsics11write_bytes18precondition_check17h8ecc3309d23fb6fbE+0x52>
 800653a:	9802      	ldr	r0, [sp, #8]
 800653c:	9901      	ldr	r1, [sp, #4]
 800653e:	4602      	mov	r2, r0
 8006540:	9200      	str	r2, [sp, #0]
 8006542:	3901      	subs	r1, #1
 8006544:	4208      	tst	r0, r1
 8006546:	d01a      	beq.n	800657e <_ZN4core10intrinsics11write_bytes18precondition_check17h8ecc3309d23fb6fbE+0x96>
 8006548:	e01d      	b.n	8006586 <_ZN4core10intrinsics11write_bytes18precondition_check17h8ecc3309d23fb6fbE+0x9e>
 800654a:	f64a 0004 	movw	r0, #43012	; 0xa804
 800654e:	f6c0 0000 	movt	r0, #2048	; 0x800
 8006552:	9004      	str	r0, [sp, #16]
 8006554:	2001      	movs	r0, #1
 8006556:	9005      	str	r0, [sp, #20]
 8006558:	f249 5038 	movw	r0, #38200	; 0x9538
 800655c:	f6c0 0000 	movt	r0, #2048	; 0x800
 8006560:	6801      	ldr	r1, [r0, #0]
 8006562:	6840      	ldr	r0, [r0, #4]
 8006564:	9108      	str	r1, [sp, #32]
 8006566:	9009      	str	r0, [sp, #36]	; 0x24
 8006568:	2004      	movs	r0, #4
 800656a:	9006      	str	r0, [sp, #24]
 800656c:	2000      	movs	r0, #0
 800656e:	9007      	str	r0, [sp, #28]
 8006570:	f64a 01f4 	movw	r1, #43252	; 0xa8f4
 8006574:	f6c0 0100 	movt	r1, #2048	; 0x800
 8006578:	a804      	add	r0, sp, #16
 800657a:	f000 feb6 	bl	80072ea <_ZN4core9panicking9panic_fmt17h9bd7242b2f9f3cdaE>
 800657e:	9803      	ldr	r0, [sp, #12]
 8006580:	07c0      	lsls	r0, r0, #31
 8006582:	b930      	cbnz	r0, 8006592 <_ZN4core10intrinsics11write_bytes18precondition_check17h8ecc3309d23fb6fbE+0xaa>
 8006584:	e000      	b.n	8006588 <_ZN4core10intrinsics11write_bytes18precondition_check17h8ecc3309d23fb6fbE+0xa0>
 8006586:	e005      	b.n	8006594 <_ZN4core10intrinsics11write_bytes18precondition_check17h8ecc3309d23fb6fbE+0xac>
 8006588:	9800      	ldr	r0, [sp, #0]
 800658a:	9902      	ldr	r1, [sp, #8]
 800658c:	910f      	str	r1, [sp, #60]	; 0x3c
 800658e:	b940      	cbnz	r0, 80065a2 <_ZN4core10intrinsics11write_bytes18precondition_check17h8ecc3309d23fb6fbE+0xba>
 8006590:	e000      	b.n	8006594 <_ZN4core10intrinsics11write_bytes18precondition_check17h8ecc3309d23fb6fbE+0xac>
 8006592:	e006      	b.n	80065a2 <_ZN4core10intrinsics11write_bytes18precondition_check17h8ecc3309d23fb6fbE+0xba>
 8006594:	f64a 000c 	movw	r0, #43020	; 0xa80c
 8006598:	f6c0 0000 	movt	r0, #2048	; 0x800
 800659c:	216f      	movs	r1, #111	; 0x6f
 800659e:	f000 fed6 	bl	800734e <_ZN4core9panicking14panic_nounwind17ha7168a7a4498f4fbE>
 80065a2:	b010      	add	sp, #64	; 0x40
 80065a4:	bd80      	pop	{r7, pc}

080065a6 <_ZN4core10intrinsics19copy_nonoverlapping18precondition_check17h11c88b660aa3e550E>:
 80065a6:	b580      	push	{r7, lr}
 80065a8:	466f      	mov	r7, sp
 80065aa:	b0a6      	sub	sp, #152	; 0x98
 80065ac:	9303      	str	r3, [sp, #12]
 80065ae:	9204      	str	r2, [sp, #16]
 80065b0:	9105      	str	r1, [sp, #20]
 80065b2:	4684      	mov	ip, r0
 80065b4:	f8cd c018 	str.w	ip, [sp, #24]
 80065b8:	68b8      	ldr	r0, [r7, #8]
 80065ba:	9007      	str	r0, [sp, #28]
 80065bc:	f8cd c06c 	str.w	ip, [sp, #108]	; 0x6c
 80065c0:	911c      	str	r1, [sp, #112]	; 0x70
 80065c2:	921d      	str	r2, [sp, #116]	; 0x74
 80065c4:	931e      	str	r3, [sp, #120]	; 0x78
 80065c6:	f64a 0104 	movw	r1, #43012	; 0xa804
 80065ca:	f6c0 0100 	movt	r1, #2048	; 0x800
 80065ce:	911f      	str	r1, [sp, #124]	; 0x7c
 80065d0:	9120      	str	r1, [sp, #128]	; 0x80
 80065d2:	bb20      	cbnz	r0, 800661e <_ZN4core10intrinsics19copy_nonoverlapping18precondition_check17h11c88b660aa3e550E+0x78>
 80065d4:	e7ff      	b.n	80065d6 <_ZN4core10intrinsics19copy_nonoverlapping18precondition_check17h11c88b660aa3e550E+0x30>
 80065d6:	9803      	ldr	r0, [sp, #12]
 80065d8:	2101      	movs	r1, #1
 80065da:	f807 1c75 	strb.w	r1, [r7, #-117]
 80065de:	9009      	str	r0, [sp, #36]	; 0x24
 80065e0:	f817 1c75 	ldrb.w	r1, [r7, #-117]
 80065e4:	f001 0101 	and.w	r1, r1, #1
 80065e8:	f807 1c6d 	strb.w	r1, [r7, #-109]
 80065ec:	f04f 3155 	mov.w	r1, #1431655765	; 0x55555555
 80065f0:	ea01 0150 	and.w	r1, r1, r0, lsr #1
 80065f4:	1a40      	subs	r0, r0, r1
 80065f6:	f04f 3133 	mov.w	r1, #858993459	; 0x33333333
 80065fa:	ea01 0190 	and.w	r1, r1, r0, lsr #2
 80065fe:	f020 30cc 	bic.w	r0, r0, #3435973836	; 0xcccccccc
 8006602:	4408      	add	r0, r1
 8006604:	eb00 1010 	add.w	r0, r0, r0, lsr #4
 8006608:	f020 30f0 	bic.w	r0, r0, #4042322160	; 0xf0f0f0f0
 800660c:	f04f 3101 	mov.w	r1, #16843009	; 0x1010101
 8006610:	4348      	muls	r0, r1
 8006612:	0e00      	lsrs	r0, r0, #24
 8006614:	9014      	str	r0, [sp, #80]	; 0x50
 8006616:	9814      	ldr	r0, [sp, #80]	; 0x50
 8006618:	2801      	cmp	r0, #1
 800661a:	d027      	beq.n	800666c <_ZN4core10intrinsics19copy_nonoverlapping18precondition_check17h11c88b660aa3e550E+0xc6>
 800661c:	e032      	b.n	8006684 <_ZN4core10intrinsics19copy_nonoverlapping18precondition_check17h11c88b660aa3e550E+0xde>
 800661e:	9803      	ldr	r0, [sp, #12]
 8006620:	9904      	ldr	r1, [sp, #16]
 8006622:	fab1 f181 	clz	r1, r1
 8006626:	0949      	lsrs	r1, r1, #5
 8006628:	f807 1c75 	strb.w	r1, [r7, #-117]
 800662c:	9009      	str	r0, [sp, #36]	; 0x24
 800662e:	f817 1c75 	ldrb.w	r1, [r7, #-117]
 8006632:	f001 0101 	and.w	r1, r1, #1
 8006636:	f807 1c6d 	strb.w	r1, [r7, #-109]
 800663a:	f04f 3155 	mov.w	r1, #1431655765	; 0x55555555
 800663e:	ea01 0150 	and.w	r1, r1, r0, lsr #1
 8006642:	1a40      	subs	r0, r0, r1
 8006644:	f04f 3133 	mov.w	r1, #858993459	; 0x33333333
 8006648:	ea01 0190 	and.w	r1, r1, r0, lsr #2
 800664c:	f020 30cc 	bic.w	r0, r0, #3435973836	; 0xcccccccc
 8006650:	4408      	add	r0, r1
 8006652:	eb00 1010 	add.w	r0, r0, r0, lsr #4
 8006656:	f020 30f0 	bic.w	r0, r0, #4042322160	; 0xf0f0f0f0
 800665a:	f04f 3101 	mov.w	r1, #16843009	; 0x1010101
 800665e:	4348      	muls	r0, r1
 8006660:	0e00      	lsrs	r0, r0, #24
 8006662:	9014      	str	r0, [sp, #80]	; 0x50
 8006664:	9814      	ldr	r0, [sp, #80]	; 0x50
 8006666:	2801      	cmp	r0, #1
 8006668:	d029      	beq.n	80066be <_ZN4core10intrinsics19copy_nonoverlapping18precondition_check17h11c88b660aa3e550E+0x118>
 800666a:	e00b      	b.n	8006684 <_ZN4core10intrinsics19copy_nonoverlapping18precondition_check17h11c88b660aa3e550E+0xde>
 800666c:	9803      	ldr	r0, [sp, #12]
 800666e:	9906      	ldr	r1, [sp, #24]
 8006670:	9112      	str	r1, [sp, #72]	; 0x48
 8006672:	3801      	subs	r0, #1
 8006674:	9013      	str	r0, [sp, #76]	; 0x4c
 8006676:	9812      	ldr	r0, [sp, #72]	; 0x48
 8006678:	9913      	ldr	r1, [sp, #76]	; 0x4c
 800667a:	4008      	ands	r0, r1
 800667c:	9011      	str	r0, [sp, #68]	; 0x44
 800667e:	9811      	ldr	r0, [sp, #68]	; 0x44
 8006680:	b1d0      	cbz	r0, 80066b8 <_ZN4core10intrinsics19copy_nonoverlapping18precondition_check17h11c88b660aa3e550E+0x112>
 8006682:	e01a      	b.n	80066ba <_ZN4core10intrinsics19copy_nonoverlapping18precondition_check17h11c88b660aa3e550E+0x114>
 8006684:	f64a 0004 	movw	r0, #43012	; 0xa804
 8006688:	f6c0 0000 	movt	r0, #2048	; 0x800
 800668c:	900b      	str	r0, [sp, #44]	; 0x2c
 800668e:	2001      	movs	r0, #1
 8006690:	900c      	str	r0, [sp, #48]	; 0x30
 8006692:	f249 5038 	movw	r0, #38200	; 0x9538
 8006696:	f6c0 0000 	movt	r0, #2048	; 0x800
 800669a:	6801      	ldr	r1, [r0, #0]
 800669c:	6840      	ldr	r0, [r0, #4]
 800669e:	910f      	str	r1, [sp, #60]	; 0x3c
 80066a0:	9010      	str	r0, [sp, #64]	; 0x40
 80066a2:	2004      	movs	r0, #4
 80066a4:	900d      	str	r0, [sp, #52]	; 0x34
 80066a6:	2000      	movs	r0, #0
 80066a8:	900e      	str	r0, [sp, #56]	; 0x38
 80066aa:	f64a 01f4 	movw	r1, #43252	; 0xa8f4
 80066ae:	f6c0 0100 	movt	r1, #2048	; 0x800
 80066b2:	a80b      	add	r0, sp, #44	; 0x2c
 80066b4:	f000 fe19 	bl	80072ea <_ZN4core9panicking9panic_fmt17h9bd7242b2f9f3cdaE>
 80066b8:	e000      	b.n	80066bc <_ZN4core10intrinsics19copy_nonoverlapping18precondition_check17h11c88b660aa3e550E+0x116>
 80066ba:	e018      	b.n	80066ee <_ZN4core10intrinsics19copy_nonoverlapping18precondition_check17h11c88b660aa3e550E+0x148>
 80066bc:	e018      	b.n	80066f0 <_ZN4core10intrinsics19copy_nonoverlapping18precondition_check17h11c88b660aa3e550E+0x14a>
 80066be:	9803      	ldr	r0, [sp, #12]
 80066c0:	9906      	ldr	r1, [sp, #24]
 80066c2:	9112      	str	r1, [sp, #72]	; 0x48
 80066c4:	3801      	subs	r0, #1
 80066c6:	9013      	str	r0, [sp, #76]	; 0x4c
 80066c8:	9812      	ldr	r0, [sp, #72]	; 0x48
 80066ca:	9913      	ldr	r1, [sp, #76]	; 0x4c
 80066cc:	4008      	ands	r0, r1
 80066ce:	9011      	str	r0, [sp, #68]	; 0x44
 80066d0:	9811      	ldr	r0, [sp, #68]	; 0x44
 80066d2:	2800      	cmp	r0, #0
 80066d4:	d1f1      	bne.n	80066ba <_ZN4core10intrinsics19copy_nonoverlapping18precondition_check17h11c88b660aa3e550E+0x114>
 80066d6:	e7ff      	b.n	80066d8 <_ZN4core10intrinsics19copy_nonoverlapping18precondition_check17h11c88b660aa3e550E+0x132>
 80066d8:	f817 0c6d 	ldrb.w	r0, [r7, #-109]
 80066dc:	07c0      	lsls	r0, r0, #31
 80066de:	2800      	cmp	r0, #0
 80066e0:	d1ec      	bne.n	80066bc <_ZN4core10intrinsics19copy_nonoverlapping18precondition_check17h11c88b660aa3e550E+0x116>
 80066e2:	e7ff      	b.n	80066e4 <_ZN4core10intrinsics19copy_nonoverlapping18precondition_check17h11c88b660aa3e550E+0x13e>
 80066e4:	9806      	ldr	r0, [sp, #24]
 80066e6:	9021      	str	r0, [sp, #132]	; 0x84
 80066e8:	9812      	ldr	r0, [sp, #72]	; 0x48
 80066ea:	b908      	cbnz	r0, 80066f0 <_ZN4core10intrinsics19copy_nonoverlapping18precondition_check17h11c88b660aa3e550E+0x14a>
 80066ec:	e7ff      	b.n	80066ee <_ZN4core10intrinsics19copy_nonoverlapping18precondition_check17h11c88b660aa3e550E+0x148>
 80066ee:	e061      	b.n	80067b4 <_ZN4core10intrinsics19copy_nonoverlapping18precondition_check17h11c88b660aa3e550E+0x20e>
 80066f0:	9803      	ldr	r0, [sp, #12]
 80066f2:	9905      	ldr	r1, [sp, #20]
 80066f4:	9122      	str	r1, [sp, #136]	; 0x88
 80066f6:	f817 1c75 	ldrb.w	r1, [r7, #-117]
 80066fa:	460a      	mov	r2, r1
 80066fc:	9202      	str	r2, [sp, #8]
 80066fe:	f001 0101 	and.w	r1, r1, #1
 8006702:	f807 1c09 	strb.w	r1, [r7, #-9]
 8006706:	f04f 3155 	mov.w	r1, #1431655765	; 0x55555555
 800670a:	ea01 0150 	and.w	r1, r1, r0, lsr #1
 800670e:	1a40      	subs	r0, r0, r1
 8006710:	f04f 3133 	mov.w	r1, #858993459	; 0x33333333
 8006714:	ea01 0190 	and.w	r1, r1, r0, lsr #2
 8006718:	f020 30cc 	bic.w	r0, r0, #3435973836	; 0xcccccccc
 800671c:	4408      	add	r0, r1
 800671e:	eb00 1010 	add.w	r0, r0, r0, lsr #4
 8006722:	f020 30f0 	bic.w	r0, r0, #4042322160	; 0xf0f0f0f0
 8006726:	f04f 3101 	mov.w	r1, #16843009	; 0x1010101
 800672a:	4348      	muls	r0, r1
 800672c:	0e00      	lsrs	r0, r0, #24
 800672e:	9024      	str	r0, [sp, #144]	; 0x90
 8006730:	9824      	ldr	r0, [sp, #144]	; 0x90
 8006732:	2801      	cmp	r0, #1
 8006734:	d107      	bne.n	8006746 <_ZN4core10intrinsics19copy_nonoverlapping18precondition_check17h11c88b660aa3e550E+0x1a0>
 8006736:	e7ff      	b.n	8006738 <_ZN4core10intrinsics19copy_nonoverlapping18precondition_check17h11c88b660aa3e550E+0x192>
 8006738:	9805      	ldr	r0, [sp, #20]
 800673a:	4601      	mov	r1, r0
 800673c:	9101      	str	r1, [sp, #4]
 800673e:	9913      	ldr	r1, [sp, #76]	; 0x4c
 8006740:	4208      	tst	r0, r1
 8006742:	d01a      	beq.n	800677a <_ZN4core10intrinsics19copy_nonoverlapping18precondition_check17h11c88b660aa3e550E+0x1d4>
 8006744:	e01d      	b.n	8006782 <_ZN4core10intrinsics19copy_nonoverlapping18precondition_check17h11c88b660aa3e550E+0x1dc>
 8006746:	f64a 0004 	movw	r0, #43012	; 0xa804
 800674a:	f6c0 0000 	movt	r0, #2048	; 0x800
 800674e:	9015      	str	r0, [sp, #84]	; 0x54
 8006750:	2001      	movs	r0, #1
 8006752:	9016      	str	r0, [sp, #88]	; 0x58
 8006754:	f249 5038 	movw	r0, #38200	; 0x9538
 8006758:	f6c0 0000 	movt	r0, #2048	; 0x800
 800675c:	6801      	ldr	r1, [r0, #0]
 800675e:	6840      	ldr	r0, [r0, #4]
 8006760:	9119      	str	r1, [sp, #100]	; 0x64
 8006762:	901a      	str	r0, [sp, #104]	; 0x68
 8006764:	2004      	movs	r0, #4
 8006766:	9017      	str	r0, [sp, #92]	; 0x5c
 8006768:	2000      	movs	r0, #0
 800676a:	9018      	str	r0, [sp, #96]	; 0x60
 800676c:	f64a 01f4 	movw	r1, #43252	; 0xa8f4
 8006770:	f6c0 0100 	movt	r1, #2048	; 0x800
 8006774:	a815      	add	r0, sp, #84	; 0x54
 8006776:	f000 fdb8 	bl	80072ea <_ZN4core9panicking9panic_fmt17h9bd7242b2f9f3cdaE>
 800677a:	9802      	ldr	r0, [sp, #8]
 800677c:	07c0      	lsls	r0, r0, #31
 800677e:	b930      	cbnz	r0, 800678e <_ZN4core10intrinsics19copy_nonoverlapping18precondition_check17h11c88b660aa3e550E+0x1e8>
 8006780:	e000      	b.n	8006784 <_ZN4core10intrinsics19copy_nonoverlapping18precondition_check17h11c88b660aa3e550E+0x1de>
 8006782:	e005      	b.n	8006790 <_ZN4core10intrinsics19copy_nonoverlapping18precondition_check17h11c88b660aa3e550E+0x1ea>
 8006784:	9801      	ldr	r0, [sp, #4]
 8006786:	9905      	ldr	r1, [sp, #20]
 8006788:	9125      	str	r1, [sp, #148]	; 0x94
 800678a:	b910      	cbnz	r0, 8006792 <_ZN4core10intrinsics19copy_nonoverlapping18precondition_check17h11c88b660aa3e550E+0x1ec>
 800678c:	e000      	b.n	8006790 <_ZN4core10intrinsics19copy_nonoverlapping18precondition_check17h11c88b660aa3e550E+0x1ea>
 800678e:	e000      	b.n	8006792 <_ZN4core10intrinsics19copy_nonoverlapping18precondition_check17h11c88b660aa3e550E+0x1ec>
 8006790:	e010      	b.n	80067b4 <_ZN4core10intrinsics19copy_nonoverlapping18precondition_check17h11c88b660aa3e550E+0x20e>
 8006792:	9b07      	ldr	r3, [sp, #28]
 8006794:	9a04      	ldr	r2, [sp, #16]
 8006796:	9905      	ldr	r1, [sp, #20]
 8006798:	9806      	ldr	r0, [sp, #24]
 800679a:	f000 f80c 	bl	80067b6 <_ZN4core9ub_checks17is_nonoverlapping7runtime17he7d449c99971208dE>
 800679e:	b938      	cbnz	r0, 80067b0 <_ZN4core10intrinsics19copy_nonoverlapping18precondition_check17h11c88b660aa3e550E+0x20a>
 80067a0:	e7ff      	b.n	80067a2 <_ZN4core10intrinsics19copy_nonoverlapping18precondition_check17h11c88b660aa3e550E+0x1fc>
 80067a2:	f64a 1004 	movw	r0, #43268	; 0xa904
 80067a6:	f6c0 0000 	movt	r0, #2048	; 0x800
 80067aa:	21a6      	movs	r1, #166	; 0xa6
 80067ac:	f000 fdcf 	bl	800734e <_ZN4core9panicking14panic_nounwind17ha7168a7a4498f4fbE>
 80067b0:	b026      	add	sp, #152	; 0x98
 80067b2:	bd80      	pop	{r7, pc}
 80067b4:	e7f5      	b.n	80067a2 <_ZN4core10intrinsics19copy_nonoverlapping18precondition_check17h11c88b660aa3e550E+0x1fc>

080067b6 <_ZN4core9ub_checks17is_nonoverlapping7runtime17he7d449c99971208dE>:
 80067b6:	b580      	push	{r7, lr}
 80067b8:	466f      	mov	r7, sp
 80067ba:	b092      	sub	sp, #72	; 0x48
 80067bc:	9007      	str	r0, [sp, #28]
 80067be:	9108      	str	r1, [sp, #32]
 80067c0:	9209      	str	r2, [sp, #36]	; 0x24
 80067c2:	930a      	str	r3, [sp, #40]	; 0x28
 80067c4:	4684      	mov	ip, r0
 80067c6:	f8cd c004 	str.w	ip, [sp, #4]
 80067ca:	900b      	str	r0, [sp, #44]	; 0x2c
 80067cc:	4608      	mov	r0, r1
 80067ce:	9002      	str	r0, [sp, #8]
 80067d0:	910c      	str	r1, [sp, #48]	; 0x30
 80067d2:	fba2 1003 	umull	r1, r0, r2, r3
 80067d6:	2800      	cmp	r0, #0
 80067d8:	bf18      	it	ne
 80067da:	2001      	movne	r0, #1
 80067dc:	460a      	mov	r2, r1
 80067de:	9203      	str	r2, [sp, #12]
 80067e0:	910d      	str	r1, [sp, #52]	; 0x34
 80067e2:	f807 0c0d 	strb.w	r0, [r7, #-13]
 80067e6:	910f      	str	r1, [sp, #60]	; 0x3c
 80067e8:	f807 0c05 	strb.w	r0, [r7, #-5]
 80067ec:	f817 0c05 	ldrb.w	r0, [r7, #-5]
 80067f0:	07c0      	lsls	r0, r0, #31
 80067f2:	b960      	cbnz	r0, 800680e <_ZN4core9ub_checks17is_nonoverlapping7runtime17he7d449c99971208dE+0x58>
 80067f4:	e7ff      	b.n	80067f6 <_ZN4core9ub_checks17is_nonoverlapping7runtime17he7d449c99971208dE+0x40>
 80067f6:	9801      	ldr	r0, [sp, #4]
 80067f8:	9902      	ldr	r1, [sp, #8]
 80067fa:	9a03      	ldr	r2, [sp, #12]
 80067fc:	9205      	str	r2, [sp, #20]
 80067fe:	2201      	movs	r2, #1
 8006800:	9204      	str	r2, [sp, #16]
 8006802:	9a05      	ldr	r2, [sp, #20]
 8006804:	9200      	str	r2, [sp, #0]
 8006806:	9211      	str	r2, [sp, #68]	; 0x44
 8006808:	4288      	cmp	r0, r1
 800680a:	d30c      	bcc.n	8006826 <_ZN4core9ub_checks17is_nonoverlapping7runtime17he7d449c99971208dE+0x70>
 800680c:	e006      	b.n	800681c <_ZN4core9ub_checks17is_nonoverlapping7runtime17he7d449c99971208dE+0x66>
 800680e:	f64a 10aa 	movw	r0, #43434	; 0xa9aa
 8006812:	f6c0 0000 	movt	r0, #2048	; 0x800
 8006816:	213d      	movs	r1, #61	; 0x3d
 8006818:	f000 fd99 	bl	800734e <_ZN4core9panicking14panic_nounwind17ha7168a7a4498f4fbE>
 800681c:	9801      	ldr	r0, [sp, #4]
 800681e:	9902      	ldr	r1, [sp, #8]
 8006820:	1a40      	subs	r0, r0, r1
 8006822:	9006      	str	r0, [sp, #24]
 8006824:	e004      	b.n	8006830 <_ZN4core9ub_checks17is_nonoverlapping7runtime17he7d449c99971208dE+0x7a>
 8006826:	9802      	ldr	r0, [sp, #8]
 8006828:	9901      	ldr	r1, [sp, #4]
 800682a:	1a40      	subs	r0, r0, r1
 800682c:	9006      	str	r0, [sp, #24]
 800682e:	e7ff      	b.n	8006830 <_ZN4core9ub_checks17is_nonoverlapping7runtime17he7d449c99971208dE+0x7a>
 8006830:	9a00      	ldr	r2, [sp, #0]
 8006832:	9906      	ldr	r1, [sp, #24]
 8006834:	2000      	movs	r0, #0
 8006836:	4291      	cmp	r1, r2
 8006838:	bf28      	it	cs
 800683a:	2001      	movcs	r0, #1
 800683c:	b012      	add	sp, #72	; 0x48
 800683e:	bd80      	pop	{r7, pc}

08006840 <_ZN4core3ptr13read_volatile18precondition_check17ha72063d9daece2e8E>:
 8006840:	b580      	push	{r7, lr}
 8006842:	466f      	mov	r7, sp
 8006844:	b090      	sub	sp, #64	; 0x40
 8006846:	9101      	str	r1, [sp, #4]
 8006848:	9002      	str	r0, [sp, #8]
 800684a:	4613      	mov	r3, r2
 800684c:	9303      	str	r3, [sp, #12]
 800684e:	900a      	str	r0, [sp, #40]	; 0x28
 8006850:	910b      	str	r1, [sp, #44]	; 0x2c
 8006852:	f807 2c0d 	strb.w	r2, [r7, #-13]
 8006856:	f64a 2014 	movw	r0, #43540	; 0xaa14
 800685a:	f6c0 0000 	movt	r0, #2048	; 0x800
 800685e:	900d      	str	r0, [sp, #52]	; 0x34
 8006860:	f04f 3055 	mov.w	r0, #1431655765	; 0x55555555
 8006864:	ea00 0051 	and.w	r0, r0, r1, lsr #1
 8006868:	1a08      	subs	r0, r1, r0
 800686a:	f04f 3133 	mov.w	r1, #858993459	; 0x33333333
 800686e:	ea01 0190 	and.w	r1, r1, r0, lsr #2
 8006872:	f020 30cc 	bic.w	r0, r0, #3435973836	; 0xcccccccc
 8006876:	4408      	add	r0, r1
 8006878:	eb00 1010 	add.w	r0, r0, r0, lsr #4
 800687c:	f020 30f0 	bic.w	r0, r0, #4042322160	; 0xf0f0f0f0
 8006880:	f04f 3101 	mov.w	r1, #16843009	; 0x1010101
 8006884:	4348      	muls	r0, r1
 8006886:	0e00      	lsrs	r0, r0, #24
 8006888:	900e      	str	r0, [sp, #56]	; 0x38
 800688a:	980e      	ldr	r0, [sp, #56]	; 0x38
 800688c:	2801      	cmp	r0, #1
 800688e:	d108      	bne.n	80068a2 <_ZN4core3ptr13read_volatile18precondition_check17ha72063d9daece2e8E+0x62>
 8006890:	e7ff      	b.n	8006892 <_ZN4core3ptr13read_volatile18precondition_check17ha72063d9daece2e8E+0x52>
 8006892:	9802      	ldr	r0, [sp, #8]
 8006894:	9901      	ldr	r1, [sp, #4]
 8006896:	4602      	mov	r2, r0
 8006898:	9200      	str	r2, [sp, #0]
 800689a:	3901      	subs	r1, #1
 800689c:	4208      	tst	r0, r1
 800689e:	d01a      	beq.n	80068d6 <_ZN4core3ptr13read_volatile18precondition_check17ha72063d9daece2e8E+0x96>
 80068a0:	e01d      	b.n	80068de <_ZN4core3ptr13read_volatile18precondition_check17ha72063d9daece2e8E+0x9e>
 80068a2:	f64a 2014 	movw	r0, #43540	; 0xaa14
 80068a6:	f6c0 0000 	movt	r0, #2048	; 0x800
 80068aa:	9004      	str	r0, [sp, #16]
 80068ac:	2001      	movs	r0, #1
 80068ae:	9005      	str	r0, [sp, #20]
 80068b0:	f249 5038 	movw	r0, #38200	; 0x9538
 80068b4:	f6c0 0000 	movt	r0, #2048	; 0x800
 80068b8:	6801      	ldr	r1, [r0, #0]
 80068ba:	6840      	ldr	r0, [r0, #4]
 80068bc:	9108      	str	r1, [sp, #32]
 80068be:	9009      	str	r0, [sp, #36]	; 0x24
 80068c0:	2004      	movs	r0, #4
 80068c2:	9006      	str	r0, [sp, #24]
 80068c4:	2000      	movs	r0, #0
 80068c6:	9007      	str	r0, [sp, #28]
 80068c8:	f64a 3104 	movw	r1, #43780	; 0xab04
 80068cc:	f6c0 0100 	movt	r1, #2048	; 0x800
 80068d0:	a804      	add	r0, sp, #16
 80068d2:	f000 fd0a 	bl	80072ea <_ZN4core9panicking9panic_fmt17h9bd7242b2f9f3cdaE>
 80068d6:	9803      	ldr	r0, [sp, #12]
 80068d8:	07c0      	lsls	r0, r0, #31
 80068da:	b930      	cbnz	r0, 80068ea <_ZN4core3ptr13read_volatile18precondition_check17ha72063d9daece2e8E+0xaa>
 80068dc:	e000      	b.n	80068e0 <_ZN4core3ptr13read_volatile18precondition_check17ha72063d9daece2e8E+0xa0>
 80068de:	e005      	b.n	80068ec <_ZN4core3ptr13read_volatile18precondition_check17ha72063d9daece2e8E+0xac>
 80068e0:	9800      	ldr	r0, [sp, #0]
 80068e2:	9902      	ldr	r1, [sp, #8]
 80068e4:	910f      	str	r1, [sp, #60]	; 0x3c
 80068e6:	b940      	cbnz	r0, 80068fa <_ZN4core3ptr13read_volatile18precondition_check17ha72063d9daece2e8E+0xba>
 80068e8:	e000      	b.n	80068ec <_ZN4core3ptr13read_volatile18precondition_check17ha72063d9daece2e8E+0xac>
 80068ea:	e006      	b.n	80068fa <_ZN4core3ptr13read_volatile18precondition_check17ha72063d9daece2e8E+0xba>
 80068ec:	f64a 201c 	movw	r0, #43548	; 0xaa1c
 80068f0:	f6c0 0000 	movt	r0, #2048	; 0x800
 80068f4:	216e      	movs	r1, #110	; 0x6e
 80068f6:	f000 fd2a 	bl	800734e <_ZN4core9panicking14panic_nounwind17ha7168a7a4498f4fbE>
 80068fa:	b010      	add	sp, #64	; 0x40
 80068fc:	bd80      	pop	{r7, pc}

080068fe <_ZN2r08zero_bss17h5c95e33a037a1a3eE>:
 80068fe:	b580      	push	{r7, lr}
 8006900:	466f      	mov	r7, sp
 8006902:	b094      	sub	sp, #80	; 0x50
 8006904:	9106      	str	r1, [sp, #24]
 8006906:	9007      	str	r0, [sp, #28]
 8006908:	9108      	str	r1, [sp, #32]
 800690a:	e7ff      	b.n	800690c <_ZN2r08zero_bss17h5c95e33a037a1a3eE+0xe>
 800690c:	9906      	ldr	r1, [sp, #24]
 800690e:	9807      	ldr	r0, [sp, #28]
 8006910:	4288      	cmp	r0, r1
 8006912:	d302      	bcc.n	800691a <_ZN2r08zero_bss17h5c95e33a037a1a3eE+0x1c>
 8006914:	e7ff      	b.n	8006916 <_ZN2r08zero_bss17h5c95e33a037a1a3eE+0x18>
 8006916:	b014      	add	sp, #80	; 0x50
 8006918:	bd80      	pop	{r7, pc}
 800691a:	9807      	ldr	r0, [sp, #28]
 800691c:	9002      	str	r0, [sp, #8]
 800691e:	2100      	movs	r1, #0
 8006920:	9101      	str	r1, [sp, #4]
 8006922:	f807 1c25 	strb.w	r1, [r7, #-37]
 8006926:	2001      	movs	r0, #1
 8006928:	9003      	str	r0, [sp, #12]
 800692a:	900b      	str	r0, [sp, #44]	; 0x2c
 800692c:	f807 1c1d 	strb.w	r1, [r7, #-29]
 8006930:	900d      	str	r0, [sp, #52]	; 0x34
 8006932:	a809      	add	r0, sp, #36	; 0x24
 8006934:	900e      	str	r0, [sp, #56]	; 0x38
 8006936:	900f      	str	r0, [sp, #60]	; 0x3c
 8006938:	f807 1c26 	strb.w	r1, [r7, #-38]
 800693c:	f817 1c26 	ldrb.w	r1, [r7, #-38]
 8006940:	f001 0201 	and.w	r2, r1, #1
 8006944:	2104      	movs	r1, #4
 8006946:	9104      	str	r1, [sp, #16]
 8006948:	f000 f845 	bl	80069d6 <_ZN4core10intrinsics11write_bytes18precondition_check17ha81d4462c33a5aa9E>
 800694c:	9901      	ldr	r1, [sp, #4]
 800694e:	9802      	ldr	r0, [sp, #8]
 8006950:	9109      	str	r1, [sp, #36]	; 0x24
 8006952:	9909      	ldr	r1, [sp, #36]	; 0x24
 8006954:	9110      	str	r1, [sp, #64]	; 0x40
 8006956:	9111      	str	r1, [sp, #68]	; 0x44
 8006958:	f000 f89c 	bl	8006a94 <_ZN4core3ptr14write_volatile17hd6de69c464e82e6cE>
 800695c:	9903      	ldr	r1, [sp, #12]
 800695e:	9a04      	ldr	r2, [sp, #16]
 8006960:	9807      	ldr	r0, [sp, #28]
 8006962:	9005      	str	r0, [sp, #20]
 8006964:	9012      	str	r0, [sp, #72]	; 0x48
 8006966:	9113      	str	r1, [sp, #76]	; 0x4c
 8006968:	f000 f912 	bl	8006b90 <_ZN4core3ptr7mut_ptr31_$LT$impl$u20$$BP$mut$u20$T$GT$6offset18precondition_check17h1ce4e6c96dc4a9adE>
 800696c:	9805      	ldr	r0, [sp, #20]
 800696e:	3004      	adds	r0, #4
 8006970:	9007      	str	r0, [sp, #28]
 8006972:	e7cb      	b.n	800690c <_ZN2r08zero_bss17h5c95e33a037a1a3eE+0xe>

08006974 <_ZN2r09init_data17h1db645cdf22301c4E>:
 8006974:	b580      	push	{r7, lr}
 8006976:	466f      	mov	r7, sp
 8006978:	b08e      	sub	sp, #56	; 0x38
 800697a:	9106      	str	r1, [sp, #24]
 800697c:	9007      	str	r0, [sp, #28]
 800697e:	9208      	str	r2, [sp, #32]
 8006980:	9109      	str	r1, [sp, #36]	; 0x24
 8006982:	e7ff      	b.n	8006984 <_ZN2r09init_data17h1db645cdf22301c4E+0x10>
 8006984:	9906      	ldr	r1, [sp, #24]
 8006986:	9807      	ldr	r0, [sp, #28]
 8006988:	4288      	cmp	r0, r1
 800698a:	d302      	bcc.n	8006992 <_ZN2r09init_data17h1db645cdf22301c4E+0x1e>
 800698c:	e7ff      	b.n	800698e <_ZN2r09init_data17h1db645cdf22301c4E+0x1a>
 800698e:	b00e      	add	sp, #56	; 0x38
 8006990:	bd80      	pop	{r7, pc}
 8006992:	9807      	ldr	r0, [sp, #28]
 8006994:	9001      	str	r0, [sp, #4]
 8006996:	9808      	ldr	r0, [sp, #32]
 8006998:	f000 f8ef 	bl	8006b7a <_ZN4core3ptr4read17hebcef83131374391E>
 800699c:	4601      	mov	r1, r0
 800699e:	9801      	ldr	r0, [sp, #4]
 80069a0:	f000 f8f0 	bl	8006b84 <_ZN4core3ptr5write17h5a00ca70574f5735E>
 80069a4:	9807      	ldr	r0, [sp, #28]
 80069a6:	9002      	str	r0, [sp, #8]
 80069a8:	900a      	str	r0, [sp, #40]	; 0x28
 80069aa:	2101      	movs	r1, #1
 80069ac:	9103      	str	r1, [sp, #12]
 80069ae:	910b      	str	r1, [sp, #44]	; 0x2c
 80069b0:	2204      	movs	r2, #4
 80069b2:	9204      	str	r2, [sp, #16]
 80069b4:	f000 f8ec 	bl	8006b90 <_ZN4core3ptr7mut_ptr31_$LT$impl$u20$$BP$mut$u20$T$GT$6offset18precondition_check17h1ce4e6c96dc4a9adE>
 80069b8:	9802      	ldr	r0, [sp, #8]
 80069ba:	9903      	ldr	r1, [sp, #12]
 80069bc:	9a04      	ldr	r2, [sp, #16]
 80069be:	3004      	adds	r0, #4
 80069c0:	9007      	str	r0, [sp, #28]
 80069c2:	9808      	ldr	r0, [sp, #32]
 80069c4:	9005      	str	r0, [sp, #20]
 80069c6:	900c      	str	r0, [sp, #48]	; 0x30
 80069c8:	910d      	str	r1, [sp, #52]	; 0x34
 80069ca:	f000 f920 	bl	8006c0e <_ZN4core3ptr9const_ptr33_$LT$impl$u20$$BP$const$u20$T$GT$6offset18precondition_check17h040c0546698b503bE>
 80069ce:	9805      	ldr	r0, [sp, #20]
 80069d0:	3004      	adds	r0, #4
 80069d2:	9008      	str	r0, [sp, #32]
 80069d4:	e7d6      	b.n	8006984 <_ZN2r09init_data17h1db645cdf22301c4E+0x10>

080069d6 <_ZN4core10intrinsics11write_bytes18precondition_check17ha81d4462c33a5aa9E>:
 80069d6:	b580      	push	{r7, lr}
 80069d8:	466f      	mov	r7, sp
 80069da:	b090      	sub	sp, #64	; 0x40
 80069dc:	9101      	str	r1, [sp, #4]
 80069de:	9002      	str	r0, [sp, #8]
 80069e0:	4613      	mov	r3, r2
 80069e2:	9303      	str	r3, [sp, #12]
 80069e4:	900a      	str	r0, [sp, #40]	; 0x28
 80069e6:	910b      	str	r1, [sp, #44]	; 0x2c
 80069e8:	f807 2c0d 	strb.w	r2, [r7, #-13]
 80069ec:	f64a 3040 	movw	r0, #43840	; 0xab40
 80069f0:	f6c0 0000 	movt	r0, #2048	; 0x800
 80069f4:	900d      	str	r0, [sp, #52]	; 0x34
 80069f6:	f04f 3055 	mov.w	r0, #1431655765	; 0x55555555
 80069fa:	ea00 0051 	and.w	r0, r0, r1, lsr #1
 80069fe:	1a08      	subs	r0, r1, r0
 8006a00:	f04f 3133 	mov.w	r1, #858993459	; 0x33333333
 8006a04:	ea01 0190 	and.w	r1, r1, r0, lsr #2
 8006a08:	f020 30cc 	bic.w	r0, r0, #3435973836	; 0xcccccccc
 8006a0c:	4408      	add	r0, r1
 8006a0e:	eb00 1010 	add.w	r0, r0, r0, lsr #4
 8006a12:	f020 30f0 	bic.w	r0, r0, #4042322160	; 0xf0f0f0f0
 8006a16:	f04f 3101 	mov.w	r1, #16843009	; 0x1010101
 8006a1a:	4348      	muls	r0, r1
 8006a1c:	0e00      	lsrs	r0, r0, #24
 8006a1e:	900e      	str	r0, [sp, #56]	; 0x38
 8006a20:	980e      	ldr	r0, [sp, #56]	; 0x38
 8006a22:	2801      	cmp	r0, #1
 8006a24:	d108      	bne.n	8006a38 <_ZN4core10intrinsics11write_bytes18precondition_check17ha81d4462c33a5aa9E+0x62>
 8006a26:	e7ff      	b.n	8006a28 <_ZN4core10intrinsics11write_bytes18precondition_check17ha81d4462c33a5aa9E+0x52>
 8006a28:	9802      	ldr	r0, [sp, #8]
 8006a2a:	9901      	ldr	r1, [sp, #4]
 8006a2c:	4602      	mov	r2, r0
 8006a2e:	9200      	str	r2, [sp, #0]
 8006a30:	3901      	subs	r1, #1
 8006a32:	4208      	tst	r0, r1
 8006a34:	d01a      	beq.n	8006a6c <_ZN4core10intrinsics11write_bytes18precondition_check17ha81d4462c33a5aa9E+0x96>
 8006a36:	e01d      	b.n	8006a74 <_ZN4core10intrinsics11write_bytes18precondition_check17ha81d4462c33a5aa9E+0x9e>
 8006a38:	f64a 3040 	movw	r0, #43840	; 0xab40
 8006a3c:	f6c0 0000 	movt	r0, #2048	; 0x800
 8006a40:	9004      	str	r0, [sp, #16]
 8006a42:	2001      	movs	r0, #1
 8006a44:	9005      	str	r0, [sp, #20]
 8006a46:	f249 5038 	movw	r0, #38200	; 0x9538
 8006a4a:	f6c0 0000 	movt	r0, #2048	; 0x800
 8006a4e:	6801      	ldr	r1, [r0, #0]
 8006a50:	6840      	ldr	r0, [r0, #4]
 8006a52:	9108      	str	r1, [sp, #32]
 8006a54:	9009      	str	r0, [sp, #36]	; 0x24
 8006a56:	2004      	movs	r0, #4
 8006a58:	9006      	str	r0, [sp, #24]
 8006a5a:	2000      	movs	r0, #0
 8006a5c:	9007      	str	r0, [sp, #28]
 8006a5e:	f64a 4130 	movw	r1, #44080	; 0xac30
 8006a62:	f6c0 0100 	movt	r1, #2048	; 0x800
 8006a66:	a804      	add	r0, sp, #16
 8006a68:	f000 fc3f 	bl	80072ea <_ZN4core9panicking9panic_fmt17h9bd7242b2f9f3cdaE>
 8006a6c:	9803      	ldr	r0, [sp, #12]
 8006a6e:	07c0      	lsls	r0, r0, #31
 8006a70:	b930      	cbnz	r0, 8006a80 <_ZN4core10intrinsics11write_bytes18precondition_check17ha81d4462c33a5aa9E+0xaa>
 8006a72:	e000      	b.n	8006a76 <_ZN4core10intrinsics11write_bytes18precondition_check17ha81d4462c33a5aa9E+0xa0>
 8006a74:	e005      	b.n	8006a82 <_ZN4core10intrinsics11write_bytes18precondition_check17ha81d4462c33a5aa9E+0xac>
 8006a76:	9800      	ldr	r0, [sp, #0]
 8006a78:	9902      	ldr	r1, [sp, #8]
 8006a7a:	910f      	str	r1, [sp, #60]	; 0x3c
 8006a7c:	b940      	cbnz	r0, 8006a90 <_ZN4core10intrinsics11write_bytes18precondition_check17ha81d4462c33a5aa9E+0xba>
 8006a7e:	e000      	b.n	8006a82 <_ZN4core10intrinsics11write_bytes18precondition_check17ha81d4462c33a5aa9E+0xac>
 8006a80:	e006      	b.n	8006a90 <_ZN4core10intrinsics11write_bytes18precondition_check17ha81d4462c33a5aa9E+0xba>
 8006a82:	f64a 3048 	movw	r0, #43848	; 0xab48
 8006a86:	f6c0 0000 	movt	r0, #2048	; 0x800
 8006a8a:	216f      	movs	r1, #111	; 0x6f
 8006a8c:	f000 fc5f 	bl	800734e <_ZN4core9panicking14panic_nounwind17ha7168a7a4498f4fbE>
 8006a90:	b010      	add	sp, #64	; 0x40
 8006a92:	bd80      	pop	{r7, pc}

08006a94 <_ZN4core3ptr14write_volatile17hd6de69c464e82e6cE>:
 8006a94:	b580      	push	{r7, lr}
 8006a96:	466f      	mov	r7, sp
 8006a98:	b084      	sub	sp, #16
 8006a9a:	9100      	str	r1, [sp, #0]
 8006a9c:	9001      	str	r0, [sp, #4]
 8006a9e:	9002      	str	r0, [sp, #8]
 8006aa0:	9103      	str	r1, [sp, #12]
 8006aa2:	e7ff      	b.n	8006aa4 <_ZN4core3ptr14write_volatile17hd6de69c464e82e6cE+0x10>
 8006aa4:	9801      	ldr	r0, [sp, #4]
 8006aa6:	2104      	movs	r1, #4
 8006aa8:	2200      	movs	r2, #0
 8006aaa:	f000 f806 	bl	8006aba <_ZN4core3ptr14write_volatile18precondition_check17h1c9da0cda2beeab1E>
 8006aae:	e7ff      	b.n	8006ab0 <_ZN4core3ptr14write_volatile17hd6de69c464e82e6cE+0x1c>
 8006ab0:	9800      	ldr	r0, [sp, #0]
 8006ab2:	9901      	ldr	r1, [sp, #4]
 8006ab4:	6008      	str	r0, [r1, #0]
 8006ab6:	b004      	add	sp, #16
 8006ab8:	bd80      	pop	{r7, pc}

08006aba <_ZN4core3ptr14write_volatile18precondition_check17h1c9da0cda2beeab1E>:
 8006aba:	b580      	push	{r7, lr}
 8006abc:	466f      	mov	r7, sp
 8006abe:	b092      	sub	sp, #72	; 0x48
 8006ac0:	9102      	str	r1, [sp, #8]
 8006ac2:	9003      	str	r0, [sp, #12]
 8006ac4:	4613      	mov	r3, r2
 8006ac6:	9304      	str	r3, [sp, #16]
 8006ac8:	900b      	str	r0, [sp, #44]	; 0x2c
 8006aca:	910c      	str	r1, [sp, #48]	; 0x30
 8006acc:	f807 2c11 	strb.w	r2, [r7, #-17]
 8006ad0:	f64a 3240 	movw	r2, #43840	; 0xab40
 8006ad4:	f6c0 0200 	movt	r2, #2048	; 0x800
 8006ad8:	920e      	str	r2, [sp, #56]	; 0x38
 8006ada:	900f      	str	r0, [sp, #60]	; 0x3c
 8006adc:	f04f 3055 	mov.w	r0, #1431655765	; 0x55555555
 8006ae0:	ea00 0051 	and.w	r0, r0, r1, lsr #1
 8006ae4:	1a08      	subs	r0, r1, r0
 8006ae6:	f04f 3133 	mov.w	r1, #858993459	; 0x33333333
 8006aea:	ea01 0190 	and.w	r1, r1, r0, lsr #2
 8006aee:	f020 30cc 	bic.w	r0, r0, #3435973836	; 0xcccccccc
 8006af2:	4408      	add	r0, r1
 8006af4:	eb00 1010 	add.w	r0, r0, r0, lsr #4
 8006af8:	f020 30f0 	bic.w	r0, r0, #4042322160	; 0xf0f0f0f0
 8006afc:	f04f 3101 	mov.w	r1, #16843009	; 0x1010101
 8006b00:	4348      	muls	r0, r1
 8006b02:	0e00      	lsrs	r0, r0, #24
 8006b04:	9010      	str	r0, [sp, #64]	; 0x40
 8006b06:	9810      	ldr	r0, [sp, #64]	; 0x40
 8006b08:	2801      	cmp	r0, #1
 8006b0a:	d108      	bne.n	8006b1e <_ZN4core3ptr14write_volatile18precondition_check17h1c9da0cda2beeab1E+0x64>
 8006b0c:	e7ff      	b.n	8006b0e <_ZN4core3ptr14write_volatile18precondition_check17h1c9da0cda2beeab1E+0x54>
 8006b0e:	9803      	ldr	r0, [sp, #12]
 8006b10:	9902      	ldr	r1, [sp, #8]
 8006b12:	4602      	mov	r2, r0
 8006b14:	9201      	str	r2, [sp, #4]
 8006b16:	3901      	subs	r1, #1
 8006b18:	4208      	tst	r0, r1
 8006b1a:	d01a      	beq.n	8006b52 <_ZN4core3ptr14write_volatile18precondition_check17h1c9da0cda2beeab1E+0x98>
 8006b1c:	e01d      	b.n	8006b5a <_ZN4core3ptr14write_volatile18precondition_check17h1c9da0cda2beeab1E+0xa0>
 8006b1e:	f64a 3040 	movw	r0, #43840	; 0xab40
 8006b22:	f6c0 0000 	movt	r0, #2048	; 0x800
 8006b26:	9005      	str	r0, [sp, #20]
 8006b28:	2001      	movs	r0, #1
 8006b2a:	9006      	str	r0, [sp, #24]
 8006b2c:	f249 5038 	movw	r0, #38200	; 0x9538
 8006b30:	f6c0 0000 	movt	r0, #2048	; 0x800
 8006b34:	6801      	ldr	r1, [r0, #0]
 8006b36:	6840      	ldr	r0, [r0, #4]
 8006b38:	9109      	str	r1, [sp, #36]	; 0x24
 8006b3a:	900a      	str	r0, [sp, #40]	; 0x28
 8006b3c:	2004      	movs	r0, #4
 8006b3e:	9007      	str	r0, [sp, #28]
 8006b40:	2000      	movs	r0, #0
 8006b42:	9008      	str	r0, [sp, #32]
 8006b44:	f64a 4130 	movw	r1, #44080	; 0xac30
 8006b48:	f6c0 0100 	movt	r1, #2048	; 0x800
 8006b4c:	a805      	add	r0, sp, #20
 8006b4e:	f000 fbcc 	bl	80072ea <_ZN4core9panicking9panic_fmt17h9bd7242b2f9f3cdaE>
 8006b52:	9804      	ldr	r0, [sp, #16]
 8006b54:	07c0      	lsls	r0, r0, #31
 8006b56:	b930      	cbnz	r0, 8006b66 <_ZN4core3ptr14write_volatile18precondition_check17h1c9da0cda2beeab1E+0xac>
 8006b58:	e000      	b.n	8006b5c <_ZN4core3ptr14write_volatile18precondition_check17h1c9da0cda2beeab1E+0xa2>
 8006b5a:	e005      	b.n	8006b68 <_ZN4core3ptr14write_volatile18precondition_check17h1c9da0cda2beeab1E+0xae>
 8006b5c:	9801      	ldr	r0, [sp, #4]
 8006b5e:	9903      	ldr	r1, [sp, #12]
 8006b60:	9111      	str	r1, [sp, #68]	; 0x44
 8006b62:	b940      	cbnz	r0, 8006b76 <_ZN4core3ptr14write_volatile18precondition_check17h1c9da0cda2beeab1E+0xbc>
 8006b64:	e000      	b.n	8006b68 <_ZN4core3ptr14write_volatile18precondition_check17h1c9da0cda2beeab1E+0xae>
 8006b66:	e006      	b.n	8006b76 <_ZN4core3ptr14write_volatile18precondition_check17h1c9da0cda2beeab1E+0xbc>
 8006b68:	f64a 4040 	movw	r0, #44096	; 0xac40
 8006b6c:	f6c0 0000 	movt	r0, #2048	; 0x800
 8006b70:	216f      	movs	r1, #111	; 0x6f
 8006b72:	f000 fbec 	bl	800734e <_ZN4core9panicking14panic_nounwind17ha7168a7a4498f4fbE>
 8006b76:	b012      	add	sp, #72	; 0x48
 8006b78:	bd80      	pop	{r7, pc}

08006b7a <_ZN4core3ptr4read17hebcef83131374391E>:
 8006b7a:	b081      	sub	sp, #4
 8006b7c:	9000      	str	r0, [sp, #0]
 8006b7e:	6800      	ldr	r0, [r0, #0]
 8006b80:	b001      	add	sp, #4
 8006b82:	4770      	bx	lr

08006b84 <_ZN4core3ptr5write17h5a00ca70574f5735E>:
 8006b84:	b082      	sub	sp, #8
 8006b86:	9000      	str	r0, [sp, #0]
 8006b88:	9101      	str	r1, [sp, #4]
 8006b8a:	6001      	str	r1, [r0, #0]
 8006b8c:	b002      	add	sp, #8
 8006b8e:	4770      	bx	lr

08006b90 <_ZN4core3ptr7mut_ptr31_$LT$impl$u20$$BP$mut$u20$T$GT$6offset18precondition_check17h1ce4e6c96dc4a9adE>:
 8006b90:	b580      	push	{r7, lr}
 8006b92:	466f      	mov	r7, sp
 8006b94:	b092      	sub	sp, #72	; 0x48
 8006b96:	9101      	str	r1, [sp, #4]
 8006b98:	4601      	mov	r1, r0
 8006b9a:	9801      	ldr	r0, [sp, #4]
 8006b9c:	9102      	str	r1, [sp, #8]
 8006b9e:	9104      	str	r1, [sp, #16]
 8006ba0:	9005      	str	r0, [sp, #20]
 8006ba2:	9206      	str	r2, [sp, #24]
 8006ba4:	9207      	str	r2, [sp, #28]
 8006ba6:	fb00 f102 	mul.w	r1, r0, r2
 8006baa:	fb50 f002 	smmul	r0, r0, r2
 8006bae:	ebb0 70e1 	subs.w	r0, r0, r1, asr #31
 8006bb2:	bf18      	it	ne
 8006bb4:	2001      	movne	r0, #1
 8006bb6:	460a      	mov	r2, r1
 8006bb8:	9203      	str	r2, [sp, #12]
 8006bba:	9108      	str	r1, [sp, #32]
 8006bbc:	f807 0c21 	strb.w	r0, [r7, #-33]
 8006bc0:	910a      	str	r1, [sp, #40]	; 0x28
 8006bc2:	f807 0c19 	strb.w	r0, [r7, #-25]
 8006bc6:	f817 0c19 	ldrb.w	r0, [r7, #-25]
 8006bca:	07c0      	lsls	r0, r0, #31
 8006bcc:	b9a8      	cbnz	r0, 8006bfa <_ZN4core3ptr7mut_ptr31_$LT$impl$u20$$BP$mut$u20$T$GT$6offset18precondition_check17h1ce4e6c96dc4a9adE+0x6a>
 8006bce:	e7ff      	b.n	8006bd0 <_ZN4core3ptr7mut_ptr31_$LT$impl$u20$$BP$mut$u20$T$GT$6offset18precondition_check17h1ce4e6c96dc4a9adE+0x40>
 8006bd0:	9a03      	ldr	r2, [sp, #12]
 8006bd2:	9802      	ldr	r0, [sp, #8]
 8006bd4:	900c      	str	r0, [sp, #48]	; 0x30
 8006bd6:	920d      	str	r2, [sp, #52]	; 0x34
 8006bd8:	1883      	adds	r3, r0, r2
 8006bda:	f04f 0100 	mov.w	r1, #0
 8006bde:	f141 0000 	adc.w	r0, r1, #0
 8006be2:	930e      	str	r3, [sp, #56]	; 0x38
 8006be4:	f807 0c09 	strb.w	r0, [r7, #-9]
 8006be8:	9310      	str	r3, [sp, #64]	; 0x40
 8006bea:	2a00      	cmp	r2, #0
 8006bec:	bf48      	it	mi
 8006bee:	2101      	movmi	r1, #1
 8006bf0:	4048      	eors	r0, r1
 8006bf2:	f807 0c01 	strb.w	r0, [r7, #-1]
 8006bf6:	b140      	cbz	r0, 8006c0a <_ZN4core3ptr7mut_ptr31_$LT$impl$u20$$BP$mut$u20$T$GT$6offset18precondition_check17h1ce4e6c96dc4a9adE+0x7a>
 8006bf8:	e000      	b.n	8006bfc <_ZN4core3ptr7mut_ptr31_$LT$impl$u20$$BP$mut$u20$T$GT$6offset18precondition_check17h1ce4e6c96dc4a9adE+0x6c>
 8006bfa:	e7ff      	b.n	8006bfc <_ZN4core3ptr7mut_ptr31_$LT$impl$u20$$BP$mut$u20$T$GT$6offset18precondition_check17h1ce4e6c96dc4a9adE+0x6c>
 8006bfc:	f64a 40af 	movw	r0, #44207	; 0xacaf
 8006c00:	f6c0 0000 	movt	r0, #2048	; 0x800
 8006c04:	215d      	movs	r1, #93	; 0x5d
 8006c06:	f000 fba2 	bl	800734e <_ZN4core9panicking14panic_nounwind17ha7168a7a4498f4fbE>
 8006c0a:	b012      	add	sp, #72	; 0x48
 8006c0c:	bd80      	pop	{r7, pc}

08006c0e <_ZN4core3ptr9const_ptr33_$LT$impl$u20$$BP$const$u20$T$GT$6offset18precondition_check17h040c0546698b503bE>:
 8006c0e:	b580      	push	{r7, lr}
 8006c10:	466f      	mov	r7, sp
 8006c12:	b092      	sub	sp, #72	; 0x48
 8006c14:	9101      	str	r1, [sp, #4]
 8006c16:	4601      	mov	r1, r0
 8006c18:	9801      	ldr	r0, [sp, #4]
 8006c1a:	9102      	str	r1, [sp, #8]
 8006c1c:	9104      	str	r1, [sp, #16]
 8006c1e:	9005      	str	r0, [sp, #20]
 8006c20:	9206      	str	r2, [sp, #24]
 8006c22:	9207      	str	r2, [sp, #28]
 8006c24:	fb00 f102 	mul.w	r1, r0, r2
 8006c28:	fb50 f002 	smmul	r0, r0, r2
 8006c2c:	ebb0 70e1 	subs.w	r0, r0, r1, asr #31
 8006c30:	bf18      	it	ne
 8006c32:	2001      	movne	r0, #1
 8006c34:	460a      	mov	r2, r1
 8006c36:	9203      	str	r2, [sp, #12]
 8006c38:	9108      	str	r1, [sp, #32]
 8006c3a:	f807 0c21 	strb.w	r0, [r7, #-33]
 8006c3e:	910a      	str	r1, [sp, #40]	; 0x28
 8006c40:	f807 0c19 	strb.w	r0, [r7, #-25]
 8006c44:	f817 0c19 	ldrb.w	r0, [r7, #-25]
 8006c48:	07c0      	lsls	r0, r0, #31
 8006c4a:	b9a8      	cbnz	r0, 8006c78 <_ZN4core3ptr9const_ptr33_$LT$impl$u20$$BP$const$u20$T$GT$6offset18precondition_check17h040c0546698b503bE+0x6a>
 8006c4c:	e7ff      	b.n	8006c4e <_ZN4core3ptr9const_ptr33_$LT$impl$u20$$BP$const$u20$T$GT$6offset18precondition_check17h040c0546698b503bE+0x40>
 8006c4e:	9a03      	ldr	r2, [sp, #12]
 8006c50:	9802      	ldr	r0, [sp, #8]
 8006c52:	900c      	str	r0, [sp, #48]	; 0x30
 8006c54:	920d      	str	r2, [sp, #52]	; 0x34
 8006c56:	1883      	adds	r3, r0, r2
 8006c58:	f04f 0100 	mov.w	r1, #0
 8006c5c:	f141 0000 	adc.w	r0, r1, #0
 8006c60:	930e      	str	r3, [sp, #56]	; 0x38
 8006c62:	f807 0c09 	strb.w	r0, [r7, #-9]
 8006c66:	9310      	str	r3, [sp, #64]	; 0x40
 8006c68:	2a00      	cmp	r2, #0
 8006c6a:	bf48      	it	mi
 8006c6c:	2101      	movmi	r1, #1
 8006c6e:	4048      	eors	r0, r1
 8006c70:	f807 0c01 	strb.w	r0, [r7, #-1]
 8006c74:	b140      	cbz	r0, 8006c88 <_ZN4core3ptr9const_ptr33_$LT$impl$u20$$BP$const$u20$T$GT$6offset18precondition_check17h040c0546698b503bE+0x7a>
 8006c76:	e000      	b.n	8006c7a <_ZN4core3ptr9const_ptr33_$LT$impl$u20$$BP$const$u20$T$GT$6offset18precondition_check17h040c0546698b503bE+0x6c>
 8006c78:	e7ff      	b.n	8006c7a <_ZN4core3ptr9const_ptr33_$LT$impl$u20$$BP$const$u20$T$GT$6offset18precondition_check17h040c0546698b503bE+0x6c>
 8006c7a:	f64a 40af 	movw	r0, #44207	; 0xacaf
 8006c7e:	f6c0 0000 	movt	r0, #2048	; 0x800
 8006c82:	215d      	movs	r1, #93	; 0x5d
 8006c84:	f000 fb63 	bl	800734e <_ZN4core9panicking14panic_nounwind17ha7168a7a4498f4fbE>
 8006c88:	b012      	add	sp, #72	; 0x48
 8006c8a:	bd80      	pop	{r7, pc}

08006c8c <_ZN4core4sync6atomic14compiler_fence17h26d2c8b173011792E>:
 8006c8c:	b580      	push	{r7, lr}
 8006c8e:	466f      	mov	r7, sp
 8006c90:	b08a      	sub	sp, #40	; 0x28
 8006c92:	f807 0c1d 	strb.w	r0, [r7, #-29]
 8006c96:	f64a 5040 	movw	r0, #44352	; 0xad40
 8006c9a:	f6c0 0000 	movt	r0, #2048	; 0x800
 8006c9e:	9009      	str	r0, [sp, #36]	; 0x24
 8006ca0:	f817 0c1d 	ldrb.w	r0, [r7, #-29]
 8006ca4:	9001      	str	r0, [sp, #4]
 8006ca6:	9901      	ldr	r1, [sp, #4]
 8006ca8:	e8df f001 	tbb	[pc, r1]
 8006cac:	201f1e04 	.word	0x201f1e04
 8006cb0:	0021      	.short	0x0021
 8006cb2:	defe      	udf	#254	; 0xfe
 8006cb4:	f64a 5040 	movw	r0, #44352	; 0xad40
 8006cb8:	f6c0 0000 	movt	r0, #2048	; 0x800
 8006cbc:	9003      	str	r0, [sp, #12]
 8006cbe:	2001      	movs	r0, #1
 8006cc0:	9004      	str	r0, [sp, #16]
 8006cc2:	f249 5038 	movw	r0, #38200	; 0x9538
 8006cc6:	f6c0 0000 	movt	r0, #2048	; 0x800
 8006cca:	6801      	ldr	r1, [r0, #0]
 8006ccc:	6840      	ldr	r0, [r0, #4]
 8006cce:	9107      	str	r1, [sp, #28]
 8006cd0:	9008      	str	r0, [sp, #32]
 8006cd2:	2004      	movs	r0, #4
 8006cd4:	9005      	str	r0, [sp, #20]
 8006cd6:	2000      	movs	r0, #0
 8006cd8:	9006      	str	r0, [sp, #24]
 8006cda:	f64a 51c0 	movw	r1, #44480	; 0xadc0
 8006cde:	f6c0 0100 	movt	r1, #2048	; 0x800
 8006ce2:	a803      	add	r0, sp, #12
 8006ce4:	f000 fb01 	bl	80072ea <_ZN4core9panicking9panic_fmt17h9bd7242b2f9f3cdaE>
 8006ce8:	e002      	b.n	8006cf0 <_ZN4core4sync6atomic14compiler_fence17h26d2c8b173011792E+0x64>
 8006cea:	e001      	b.n	8006cf0 <_ZN4core4sync6atomic14compiler_fence17h26d2c8b173011792E+0x64>
 8006cec:	e000      	b.n	8006cf0 <_ZN4core4sync6atomic14compiler_fence17h26d2c8b173011792E+0x64>
 8006cee:	e7ff      	b.n	8006cf0 <_ZN4core4sync6atomic14compiler_fence17h26d2c8b173011792E+0x64>
 8006cf0:	b00a      	add	sp, #40	; 0x28
 8006cf2:	bd80      	pop	{r7, pc}

08006cf4 <ResetTrampoline>:
 8006cf4:	b580      	push	{r7, lr}
 8006cf6:	466f      	mov	r7, sp
 8006cf8:	f7fa fe08 	bl	800190c <main>

08006cfc <DefaultHandler_>:
 8006cfc:	b580      	push	{r7, lr}
 8006cfe:	466f      	mov	r7, sp
 8006d00:	b082      	sub	sp, #8
 8006d02:	e7ff      	b.n	8006d04 <DefaultHandler_+0x8>
 8006d04:	2004      	movs	r0, #4
 8006d06:	f807 0c01 	strb.w	r0, [r7, #-1]
 8006d0a:	f817 0c01 	ldrb.w	r0, [r7, #-1]
 8006d0e:	f7ff ffbd 	bl	8006c8c <_ZN4core4sync6atomic14compiler_fence17h26d2c8b173011792E>
 8006d12:	e7f7      	b.n	8006d04 <DefaultHandler_+0x8>

08006d14 <DefaultPreInit>:
 8006d14:	4770      	bx	lr

08006d16 <_ZN4core3ptr13read_volatile17h9bc3363220c5f51bE>:
 8006d16:	b580      	push	{r7, lr}
 8006d18:	466f      	mov	r7, sp
 8006d1a:	b084      	sub	sp, #16
 8006d1c:	9001      	str	r0, [sp, #4]
 8006d1e:	9002      	str	r0, [sp, #8]
 8006d20:	e7ff      	b.n	8006d22 <_ZN4core3ptr13read_volatile17h9bc3363220c5f51bE+0xc>
 8006d22:	9801      	ldr	r0, [sp, #4]
 8006d24:	2104      	movs	r1, #4
 8006d26:	2200      	movs	r2, #0
 8006d28:	f000 f807 	bl	8006d3a <_ZN4core3ptr13read_volatile18precondition_check17h57ad3a4cbf3202afE>
 8006d2c:	e7ff      	b.n	8006d2e <_ZN4core3ptr13read_volatile17h9bc3363220c5f51bE+0x18>
 8006d2e:	9801      	ldr	r0, [sp, #4]
 8006d30:	6800      	ldr	r0, [r0, #0]
 8006d32:	9003      	str	r0, [sp, #12]
 8006d34:	9803      	ldr	r0, [sp, #12]
 8006d36:	b004      	add	sp, #16
 8006d38:	bd80      	pop	{r7, pc}

08006d3a <_ZN4core3ptr13read_volatile18precondition_check17h57ad3a4cbf3202afE>:
 8006d3a:	b580      	push	{r7, lr}
 8006d3c:	466f      	mov	r7, sp
 8006d3e:	b090      	sub	sp, #64	; 0x40
 8006d40:	9101      	str	r1, [sp, #4]
 8006d42:	9002      	str	r0, [sp, #8]
 8006d44:	4613      	mov	r3, r2
 8006d46:	9303      	str	r3, [sp, #12]
 8006d48:	900a      	str	r0, [sp, #40]	; 0x28
 8006d4a:	910b      	str	r1, [sp, #44]	; 0x2c
 8006d4c:	f807 2c0d 	strb.w	r2, [r7, #-13]
 8006d50:	f64a 50fc 	movw	r0, #44540	; 0xadfc
 8006d54:	f6c0 0000 	movt	r0, #2048	; 0x800
 8006d58:	900d      	str	r0, [sp, #52]	; 0x34
 8006d5a:	f04f 3055 	mov.w	r0, #1431655765	; 0x55555555
 8006d5e:	ea00 0051 	and.w	r0, r0, r1, lsr #1
 8006d62:	1a08      	subs	r0, r1, r0
 8006d64:	f04f 3133 	mov.w	r1, #858993459	; 0x33333333
 8006d68:	ea01 0190 	and.w	r1, r1, r0, lsr #2
 8006d6c:	f020 30cc 	bic.w	r0, r0, #3435973836	; 0xcccccccc
 8006d70:	4408      	add	r0, r1
 8006d72:	eb00 1010 	add.w	r0, r0, r0, lsr #4
 8006d76:	f020 30f0 	bic.w	r0, r0, #4042322160	; 0xf0f0f0f0
 8006d7a:	f04f 3101 	mov.w	r1, #16843009	; 0x1010101
 8006d7e:	4348      	muls	r0, r1
 8006d80:	0e00      	lsrs	r0, r0, #24
 8006d82:	900e      	str	r0, [sp, #56]	; 0x38
 8006d84:	980e      	ldr	r0, [sp, #56]	; 0x38
 8006d86:	2801      	cmp	r0, #1
 8006d88:	d108      	bne.n	8006d9c <_ZN4core3ptr13read_volatile18precondition_check17h57ad3a4cbf3202afE+0x62>
 8006d8a:	e7ff      	b.n	8006d8c <_ZN4core3ptr13read_volatile18precondition_check17h57ad3a4cbf3202afE+0x52>
 8006d8c:	9802      	ldr	r0, [sp, #8]
 8006d8e:	9901      	ldr	r1, [sp, #4]
 8006d90:	4602      	mov	r2, r0
 8006d92:	9200      	str	r2, [sp, #0]
 8006d94:	3901      	subs	r1, #1
 8006d96:	4208      	tst	r0, r1
 8006d98:	d01a      	beq.n	8006dd0 <_ZN4core3ptr13read_volatile18precondition_check17h57ad3a4cbf3202afE+0x96>
 8006d9a:	e01d      	b.n	8006dd8 <_ZN4core3ptr13read_volatile18precondition_check17h57ad3a4cbf3202afE+0x9e>
 8006d9c:	f64a 50fc 	movw	r0, #44540	; 0xadfc
 8006da0:	f6c0 0000 	movt	r0, #2048	; 0x800
 8006da4:	9004      	str	r0, [sp, #16]
 8006da6:	2001      	movs	r0, #1
 8006da8:	9005      	str	r0, [sp, #20]
 8006daa:	f249 5038 	movw	r0, #38200	; 0x9538
 8006dae:	f6c0 0000 	movt	r0, #2048	; 0x800
 8006db2:	6801      	ldr	r1, [r0, #0]
 8006db4:	6840      	ldr	r0, [r0, #4]
 8006db6:	9108      	str	r1, [sp, #32]
 8006db8:	9009      	str	r0, [sp, #36]	; 0x24
 8006dba:	2004      	movs	r0, #4
 8006dbc:	9006      	str	r0, [sp, #24]
 8006dbe:	2000      	movs	r0, #0
 8006dc0:	9007      	str	r0, [sp, #28]
 8006dc2:	f64a 61ec 	movw	r1, #44780	; 0xaeec
 8006dc6:	f6c0 0100 	movt	r1, #2048	; 0x800
 8006dca:	a804      	add	r0, sp, #16
 8006dcc:	f000 fa8d 	bl	80072ea <_ZN4core9panicking9panic_fmt17h9bd7242b2f9f3cdaE>
 8006dd0:	9803      	ldr	r0, [sp, #12]
 8006dd2:	07c0      	lsls	r0, r0, #31
 8006dd4:	b930      	cbnz	r0, 8006de4 <_ZN4core3ptr13read_volatile18precondition_check17h57ad3a4cbf3202afE+0xaa>
 8006dd6:	e000      	b.n	8006dda <_ZN4core3ptr13read_volatile18precondition_check17h57ad3a4cbf3202afE+0xa0>
 8006dd8:	e005      	b.n	8006de6 <_ZN4core3ptr13read_volatile18precondition_check17h57ad3a4cbf3202afE+0xac>
 8006dda:	9800      	ldr	r0, [sp, #0]
 8006ddc:	9902      	ldr	r1, [sp, #8]
 8006dde:	910f      	str	r1, [sp, #60]	; 0x3c
 8006de0:	b940      	cbnz	r0, 8006df4 <_ZN4core3ptr13read_volatile18precondition_check17h57ad3a4cbf3202afE+0xba>
 8006de2:	e000      	b.n	8006de6 <_ZN4core3ptr13read_volatile18precondition_check17h57ad3a4cbf3202afE+0xac>
 8006de4:	e006      	b.n	8006df4 <_ZN4core3ptr13read_volatile18precondition_check17h57ad3a4cbf3202afE+0xba>
 8006de6:	f64a 6004 	movw	r0, #44548	; 0xae04
 8006dea:	f6c0 0000 	movt	r0, #2048	; 0x800
 8006dee:	216e      	movs	r1, #110	; 0x6e
 8006df0:	f000 faad 	bl	800734e <_ZN4core9panicking14panic_nounwind17ha7168a7a4498f4fbE>
 8006df4:	b010      	add	sp, #64	; 0x40
 8006df6:	bd80      	pop	{r7, pc}

08006df8 <_ZN4core3ptr14write_volatile17h95f0c23d25d35e43E>:
 8006df8:	b580      	push	{r7, lr}
 8006dfa:	466f      	mov	r7, sp
 8006dfc:	b084      	sub	sp, #16
 8006dfe:	9000      	str	r0, [sp, #0]
 8006e00:	460a      	mov	r2, r1
 8006e02:	9201      	str	r2, [sp, #4]
 8006e04:	9002      	str	r0, [sp, #8]
 8006e06:	f807 1c01 	strb.w	r1, [r7, #-1]
 8006e0a:	e7ff      	b.n	8006e0c <_ZN4core3ptr14write_volatile17h95f0c23d25d35e43E+0x14>
 8006e0c:	9800      	ldr	r0, [sp, #0]
 8006e0e:	2101      	movs	r1, #1
 8006e10:	2200      	movs	r2, #0
 8006e12:	f000 f806 	bl	8006e22 <_ZN4core3ptr14write_volatile18precondition_check17h1f6d909c3b13bc55E>
 8006e16:	e7ff      	b.n	8006e18 <_ZN4core3ptr14write_volatile17h95f0c23d25d35e43E+0x20>
 8006e18:	9801      	ldr	r0, [sp, #4]
 8006e1a:	9900      	ldr	r1, [sp, #0]
 8006e1c:	7008      	strb	r0, [r1, #0]
 8006e1e:	b004      	add	sp, #16
 8006e20:	bd80      	pop	{r7, pc}

08006e22 <_ZN4core3ptr14write_volatile18precondition_check17h1f6d909c3b13bc55E>:
 8006e22:	b580      	push	{r7, lr}
 8006e24:	466f      	mov	r7, sp
 8006e26:	b092      	sub	sp, #72	; 0x48
 8006e28:	9102      	str	r1, [sp, #8]
 8006e2a:	9003      	str	r0, [sp, #12]
 8006e2c:	4613      	mov	r3, r2
 8006e2e:	9304      	str	r3, [sp, #16]
 8006e30:	900b      	str	r0, [sp, #44]	; 0x2c
 8006e32:	910c      	str	r1, [sp, #48]	; 0x30
 8006e34:	f807 2c11 	strb.w	r2, [r7, #-17]
 8006e38:	f64a 52fc 	movw	r2, #44540	; 0xadfc
 8006e3c:	f6c0 0200 	movt	r2, #2048	; 0x800
 8006e40:	920e      	str	r2, [sp, #56]	; 0x38
 8006e42:	900f      	str	r0, [sp, #60]	; 0x3c
 8006e44:	f04f 3055 	mov.w	r0, #1431655765	; 0x55555555
 8006e48:	ea00 0051 	and.w	r0, r0, r1, lsr #1
 8006e4c:	1a08      	subs	r0, r1, r0
 8006e4e:	f04f 3133 	mov.w	r1, #858993459	; 0x33333333
 8006e52:	ea01 0190 	and.w	r1, r1, r0, lsr #2
 8006e56:	f020 30cc 	bic.w	r0, r0, #3435973836	; 0xcccccccc
 8006e5a:	4408      	add	r0, r1
 8006e5c:	eb00 1010 	add.w	r0, r0, r0, lsr #4
 8006e60:	f020 30f0 	bic.w	r0, r0, #4042322160	; 0xf0f0f0f0
 8006e64:	f04f 3101 	mov.w	r1, #16843009	; 0x1010101
 8006e68:	4348      	muls	r0, r1
 8006e6a:	0e00      	lsrs	r0, r0, #24
 8006e6c:	9010      	str	r0, [sp, #64]	; 0x40
 8006e6e:	9810      	ldr	r0, [sp, #64]	; 0x40
 8006e70:	2801      	cmp	r0, #1
 8006e72:	d108      	bne.n	8006e86 <_ZN4core3ptr14write_volatile18precondition_check17h1f6d909c3b13bc55E+0x64>
 8006e74:	e7ff      	b.n	8006e76 <_ZN4core3ptr14write_volatile18precondition_check17h1f6d909c3b13bc55E+0x54>
 8006e76:	9803      	ldr	r0, [sp, #12]
 8006e78:	9902      	ldr	r1, [sp, #8]
 8006e7a:	4602      	mov	r2, r0
 8006e7c:	9201      	str	r2, [sp, #4]
 8006e7e:	3901      	subs	r1, #1
 8006e80:	4208      	tst	r0, r1
 8006e82:	d01a      	beq.n	8006eba <_ZN4core3ptr14write_volatile18precondition_check17h1f6d909c3b13bc55E+0x98>
 8006e84:	e01d      	b.n	8006ec2 <_ZN4core3ptr14write_volatile18precondition_check17h1f6d909c3b13bc55E+0xa0>
 8006e86:	f64a 50fc 	movw	r0, #44540	; 0xadfc
 8006e8a:	f6c0 0000 	movt	r0, #2048	; 0x800
 8006e8e:	9005      	str	r0, [sp, #20]
 8006e90:	2001      	movs	r0, #1
 8006e92:	9006      	str	r0, [sp, #24]
 8006e94:	f249 5038 	movw	r0, #38200	; 0x9538
 8006e98:	f6c0 0000 	movt	r0, #2048	; 0x800
 8006e9c:	6801      	ldr	r1, [r0, #0]
 8006e9e:	6840      	ldr	r0, [r0, #4]
 8006ea0:	9109      	str	r1, [sp, #36]	; 0x24
 8006ea2:	900a      	str	r0, [sp, #40]	; 0x28
 8006ea4:	2004      	movs	r0, #4
 8006ea6:	9007      	str	r0, [sp, #28]
 8006ea8:	2000      	movs	r0, #0
 8006eaa:	9008      	str	r0, [sp, #32]
 8006eac:	f64a 61ec 	movw	r1, #44780	; 0xaeec
 8006eb0:	f6c0 0100 	movt	r1, #2048	; 0x800
 8006eb4:	a805      	add	r0, sp, #20
 8006eb6:	f000 fa18 	bl	80072ea <_ZN4core9panicking9panic_fmt17h9bd7242b2f9f3cdaE>
 8006eba:	9804      	ldr	r0, [sp, #16]
 8006ebc:	07c0      	lsls	r0, r0, #31
 8006ebe:	b930      	cbnz	r0, 8006ece <_ZN4core3ptr14write_volatile18precondition_check17h1f6d909c3b13bc55E+0xac>
 8006ec0:	e000      	b.n	8006ec4 <_ZN4core3ptr14write_volatile18precondition_check17h1f6d909c3b13bc55E+0xa2>
 8006ec2:	e005      	b.n	8006ed0 <_ZN4core3ptr14write_volatile18precondition_check17h1f6d909c3b13bc55E+0xae>
 8006ec4:	9801      	ldr	r0, [sp, #4]
 8006ec6:	9903      	ldr	r1, [sp, #12]
 8006ec8:	9111      	str	r1, [sp, #68]	; 0x44
 8006eca:	b940      	cbnz	r0, 8006ede <_ZN4core3ptr14write_volatile18precondition_check17h1f6d909c3b13bc55E+0xbc>
 8006ecc:	e000      	b.n	8006ed0 <_ZN4core3ptr14write_volatile18precondition_check17h1f6d909c3b13bc55E+0xae>
 8006ece:	e006      	b.n	8006ede <_ZN4core3ptr14write_volatile18precondition_check17h1f6d909c3b13bc55E+0xbc>
 8006ed0:	f64a 60fc 	movw	r0, #44796	; 0xaefc
 8006ed4:	f6c0 0000 	movt	r0, #2048	; 0x800
 8006ed8:	216f      	movs	r1, #111	; 0x6f
 8006eda:	f000 fa38 	bl	800734e <_ZN4core9panicking14panic_nounwind17ha7168a7a4498f4fbE>
 8006ede:	b012      	add	sp, #72	; 0x48
 8006ee0:	bd80      	pop	{r7, pc}

08006ee2 <__bkpt>:
 8006ee2:	be00      	bkpt	0x0000
 8006ee4:	4770      	bx	lr

08006ee6 <__cpsid>:
 8006ee6:	b672      	cpsid	i
 8006ee8:	4770      	bx	lr

08006eea <__cpsie>:
 8006eea:	b662      	cpsie	i
 8006eec:	4770      	bx	lr

08006eee <__primask_r>:
 8006eee:	f3ef 8010 	mrs	r0, PRIMASK
 8006ef2:	4770      	bx	lr

08006ef4 <_ZN10bare_metal15CriticalSection3new17h1e47e708cc669354E>:
 8006ef4:	4770      	bx	lr
 8006ef6:	d4d4      	bmi.n	8006ea2 <_ZN4core3ptr14write_volatile18precondition_check17h1f6d909c3b13bc55E+0x80>

08006ef8 <_ZN4core4sync6atomic14compiler_fence17h1915a4aed89e5e59E>:
 8006ef8:	b580      	push	{r7, lr}
 8006efa:	466f      	mov	r7, sp
 8006efc:	b08a      	sub	sp, #40	; 0x28
 8006efe:	f807 0c1d 	strb.w	r0, [r7, #-29]
 8006f02:	f64a 70a0 	movw	r0, #44960	; 0xafa0
 8006f06:	f6c0 0000 	movt	r0, #2048	; 0x800
 8006f0a:	9009      	str	r0, [sp, #36]	; 0x24
 8006f0c:	f817 0c1d 	ldrb.w	r0, [r7, #-29]
 8006f10:	9001      	str	r0, [sp, #4]
 8006f12:	9901      	ldr	r1, [sp, #4]
 8006f14:	e8df f001 	tbb	[pc, r1]
 8006f18:	201f1e04 	.word	0x201f1e04
 8006f1c:	0021      	.short	0x0021
 8006f1e:	defe      	udf	#254	; 0xfe
 8006f20:	f64a 70a0 	movw	r0, #44960	; 0xafa0
 8006f24:	f6c0 0000 	movt	r0, #2048	; 0x800
 8006f28:	9003      	str	r0, [sp, #12]
 8006f2a:	2001      	movs	r0, #1
 8006f2c:	9004      	str	r0, [sp, #16]
 8006f2e:	f249 5038 	movw	r0, #38200	; 0x9538
 8006f32:	f6c0 0000 	movt	r0, #2048	; 0x800
 8006f36:	6801      	ldr	r1, [r0, #0]
 8006f38:	6840      	ldr	r0, [r0, #4]
 8006f3a:	9107      	str	r1, [sp, #28]
 8006f3c:	9008      	str	r0, [sp, #32]
 8006f3e:	2004      	movs	r0, #4
 8006f40:	9005      	str	r0, [sp, #20]
 8006f42:	2000      	movs	r0, #0
 8006f44:	9006      	str	r0, [sp, #24]
 8006f46:	f24b 0120 	movw	r1, #45088	; 0xb020
 8006f4a:	f6c0 0100 	movt	r1, #2048	; 0x800
 8006f4e:	a803      	add	r0, sp, #12
 8006f50:	f000 f9cb 	bl	80072ea <_ZN4core9panicking9panic_fmt17h9bd7242b2f9f3cdaE>
 8006f54:	e002      	b.n	8006f5c <_ZN4core4sync6atomic14compiler_fence17h1915a4aed89e5e59E+0x64>
 8006f56:	e001      	b.n	8006f5c <_ZN4core4sync6atomic14compiler_fence17h1915a4aed89e5e59E+0x64>
 8006f58:	e000      	b.n	8006f5c <_ZN4core4sync6atomic14compiler_fence17h1915a4aed89e5e59E+0x64>
 8006f5a:	e7ff      	b.n	8006f5c <_ZN4core4sync6atomic14compiler_fence17h1915a4aed89e5e59E+0x64>
 8006f5c:	b00a      	add	sp, #40	; 0x28
 8006f5e:	bd80      	pop	{r7, pc}

08006f60 <rust_begin_unwind>:
 8006f60:	b580      	push	{r7, lr}
 8006f62:	466f      	mov	r7, sp
 8006f64:	b082      	sub	sp, #8
 8006f66:	9001      	str	r0, [sp, #4]
 8006f68:	e7ff      	b.n	8006f6a <rust_begin_unwind+0xa>
 8006f6a:	2004      	movs	r0, #4
 8006f6c:	f807 0c05 	strb.w	r0, [r7, #-5]
 8006f70:	f817 0c05 	ldrb.w	r0, [r7, #-5]
 8006f74:	f7ff ffc0 	bl	8006ef8 <_ZN4core4sync6atomic14compiler_fence17h1915a4aed89e5e59E>
 8006f78:	e7f7      	b.n	8006f6a <rust_begin_unwind+0xa>

08006f7a <_ZN5alloc7raw_vec17capacity_overflow17h21c06c3ee55bc043E>:
 8006f7a:	b580      	push	{r7, lr}
 8006f7c:	466f      	mov	r7, sp
 8006f7e:	b086      	sub	sp, #24
 8006f80:	4601      	mov	r1, r0
 8006f82:	2000      	movs	r0, #0
 8006f84:	2201      	movs	r2, #1
 8006f86:	9004      	str	r0, [sp, #16]
 8006f88:	9201      	str	r2, [sp, #4]
 8006f8a:	f24b 0244 	movw	r2, #45124	; 0xb044
 8006f8e:	9003      	str	r0, [sp, #12]
 8006f90:	2004      	movs	r0, #4
 8006f92:	f6c0 0200 	movt	r2, #2048	; 0x800
 8006f96:	9002      	str	r0, [sp, #8]
 8006f98:	4668      	mov	r0, sp
 8006f9a:	9200      	str	r2, [sp, #0]
 8006f9c:	f000 f9a5 	bl	80072ea <_ZN4core9panicking9panic_fmt17h9bd7242b2f9f3cdaE>

08006fa0 <_ZN5alloc7raw_vec12handle_error17he4e6fa0ef8598d63E>:
 8006fa0:	b580      	push	{r7, lr}
 8006fa2:	466f      	mov	r7, sp
 8006fa4:	b910      	cbnz	r0, 8006fac <_ZN5alloc7raw_vec12handle_error17he4e6fa0ef8598d63E+0xc>
 8006fa6:	4610      	mov	r0, r2
 8006fa8:	f7ff ffe7 	bl	8006f7a <_ZN5alloc7raw_vec17capacity_overflow17h21c06c3ee55bc043E>
 8006fac:	f000 f800 	bl	8006fb0 <_ZN5alloc5alloc18handle_alloc_error17h99b8bd8515900e0aE>

08006fb0 <_ZN5alloc5alloc18handle_alloc_error17h99b8bd8515900e0aE>:
 8006fb0:	b580      	push	{r7, lr}
 8006fb2:	466f      	mov	r7, sp
 8006fb4:	4602      	mov	r2, r0
 8006fb6:	4608      	mov	r0, r1
 8006fb8:	4611      	mov	r1, r2
 8006fba:	f7fa fdeb 	bl	8001b94 <__rust_alloc_error_handler>

08006fbe <_ZN71_$LT$core..ops..range..Range$LT$Idx$GT$$u20$as$u20$core..fmt..Debug$GT$3fmt17h68b0d44417b069eaE>:
 8006fbe:	b5b0      	push	{r4, r5, r7, lr}
 8006fc0:	af02      	add	r7, sp, #8
 8006fc2:	460c      	mov	r4, r1
 8006fc4:	4605      	mov	r5, r0
 8006fc6:	f001 fd36 	bl	8008a36 <_ZN4core3fmt3num50_$LT$impl$u20$core..fmt..Debug$u20$for$u20$u32$GT$3fmt17h390a893846b95b3fE>
 8006fca:	b948      	cbnz	r0, 8006fe0 <_ZN71_$LT$core..ops..range..Range$LT$Idx$GT$$u20$as$u20$core..fmt..Debug$GT$3fmt17h68b0d44417b069eaE+0x22>
 8006fcc:	e9d4 0105 	ldrd	r0, r1, [r4, #20]
 8006fd0:	2202      	movs	r2, #2
 8006fd2:	68cb      	ldr	r3, [r1, #12]
 8006fd4:	f24b 01f4 	movw	r1, #45300	; 0xb0f4
 8006fd8:	f6c0 0100 	movt	r1, #2048	; 0x800
 8006fdc:	4798      	blx	r3
 8006fde:	b108      	cbz	r0, 8006fe4 <_ZN71_$LT$core..ops..range..Range$LT$Idx$GT$$u20$as$u20$core..fmt..Debug$GT$3fmt17h68b0d44417b069eaE+0x26>
 8006fe0:	2001      	movs	r0, #1
 8006fe2:	bdb0      	pop	{r4, r5, r7, pc}
 8006fe4:	1d28      	adds	r0, r5, #4
 8006fe6:	4621      	mov	r1, r4
 8006fe8:	e8bd 40b0 	ldmia.w	sp!, {r4, r5, r7, lr}
 8006fec:	f001 bd23 	b.w	8008a36 <_ZN4core3fmt3num50_$LT$impl$u20$core..fmt..Debug$u20$for$u20$u32$GT$3fmt17h390a893846b95b3fE>

08006ff0 <_ZN4core4char7methods22_$LT$impl$u20$char$GT$16escape_debug_ext17h90614ed5d68634ffE>:
 8006ff0:	b5f0      	push	{r4, r5, r6, r7, lr}
 8006ff2:	af03      	add	r7, sp, #12
 8006ff4:	f84d bd04 	str.w	fp, [sp, #-4]!
 8006ff8:	b086      	sub	sp, #24
 8006ffa:	2927      	cmp	r1, #39	; 0x27
 8006ffc:	d838      	bhi.n	8007070 <_ZN4core4char7methods22_$LT$impl$u20$char$GT$16escape_debug_ext17h90614ed5d68634ffE+0x80>
 8006ffe:	e8df f011 	tbh	[pc, r1, lsl #1]
 8007002:	0028      	.short	0x0028
 8007004:	00480048 	.word	0x00480048
 8007008:	00480048 	.word	0x00480048
 800700c:	00480048 	.word	0x00480048
 8007010:	00480048 	.word	0x00480048
 8007014:	00a600d5 	.word	0x00a600d5
 8007018:	00480048 	.word	0x00480048
 800701c:	004800c6 	.word	0x004800c6
 8007020:	00480048 	.word	0x00480048
 8007024:	00480048 	.word	0x00480048
 8007028:	00480048 	.word	0x00480048
 800702c:	00480048 	.word	0x00480048
 8007030:	00480048 	.word	0x00480048
 8007034:	00480048 	.word	0x00480048
 8007038:	00480048 	.word	0x00480048
 800703c:	00480048 	.word	0x00480048
 8007040:	00480048 	.word	0x00480048
 8007044:	00e40048 	.word	0x00e40048
 8007048:	00480048 	.word	0x00480048
 800704c:	00480048 	.word	0x00480048
 8007050:	00b5      	.short	0x00b5
 8007052:	2100      	movs	r1, #0
 8007054:	f8c0 1006 	str.w	r1, [r0, #6]
 8007058:	f8c0 1002 	str.w	r1, [r0, #2]
 800705c:	f44f 7100 	mov.w	r1, #512	; 0x200
 8007060:	8141      	strh	r1, [r0, #10]
 8007062:	f243 015c 	movw	r1, #12380	; 0x305c
 8007066:	8001      	strh	r1, [r0, #0]
 8007068:	b006      	add	sp, #24
 800706a:	f85d bb04 	ldr.w	fp, [sp], #4
 800706e:	bdf0      	pop	{r4, r5, r6, r7, pc}
 8007070:	295c      	cmp	r1, #92	; 0x5c
 8007072:	d10e      	bne.n	8007092 <_ZN4core4char7methods22_$LT$impl$u20$char$GT$16escape_debug_ext17h90614ed5d68634ffE+0xa2>
 8007074:	2100      	movs	r1, #0
 8007076:	f8c0 1006 	str.w	r1, [r0, #6]
 800707a:	f8c0 1002 	str.w	r1, [r0, #2]
 800707e:	f44f 7100 	mov.w	r1, #512	; 0x200
 8007082:	8141      	strh	r1, [r0, #10]
 8007084:	f645 415c 	movw	r1, #23644	; 0x5c5c
 8007088:	8001      	strh	r1, [r0, #0]
 800708a:	b006      	add	sp, #24
 800708c:	f85d bb04 	ldr.w	fp, [sp], #4
 8007090:	bdf0      	pop	{r4, r5, r6, r7, pc}
 8007092:	f5b1 7f40 	cmp.w	r1, #768	; 0x300
 8007096:	f0c0 809a 	bcc.w	80071ce <_ZN4core4char7methods22_$LT$impl$u20$char$GT$16escape_debug_ext17h90614ed5d68634ffE+0x1de>
 800709a:	07d2      	lsls	r2, r2, #31
 800709c:	f000 8097 	beq.w	80071ce <_ZN4core4char7methods22_$LT$impl$u20$char$GT$16escape_debug_ext17h90614ed5d68634ffE+0x1de>
 80070a0:	4604      	mov	r4, r0
 80070a2:	4608      	mov	r0, r1
 80070a4:	460d      	mov	r5, r1
 80070a6:	f001 fe96 	bl	8008dd6 <_ZN4core7unicode12unicode_data15grapheme_extend11lookup_slow17he273a959c6f8bb98E>
 80070aa:	4602      	mov	r2, r0
 80070ac:	4629      	mov	r1, r5
 80070ae:	4620      	mov	r0, r4
 80070b0:	2a00      	cmp	r2, #0
 80070b2:	f000 808c 	beq.w	80071ce <_ZN4core4char7methods22_$LT$impl$u20$char$GT$16escape_debug_ext17h90614ed5d68634ffE+0x1de>
 80070b6:	f24a 13dc 	movw	r3, #41436	; 0xa1dc
 80070ba:	0d0a      	lsrs	r2, r1, #20
 80070bc:	f6c0 0300 	movt	r3, #2048	; 0x800
 80070c0:	f3c1 4403 	ubfx	r4, r1, #16, #4
 80070c4:	5c9d      	ldrb	r5, [r3, r2]
 80070c6:	f001 020f 	and.w	r2, r1, #15
 80070ca:	f813 e004 	ldrb.w	lr, [r3, r4]
 80070ce:	f813 c002 	ldrb.w	ip, [r3, r2]
 80070d2:	f3c1 3203 	ubfx	r2, r1, #12, #4
 80070d6:	f3c1 2403 	ubfx	r4, r1, #8, #4
 80070da:	f3c1 1603 	ubfx	r6, r1, #4, #4
 80070de:	f041 0101 	orr.w	r1, r1, #1
 80070e2:	5c9a      	ldrb	r2, [r3, r2]
 80070e4:	5d1c      	ldrb	r4, [r3, r4]
 80070e6:	5d9b      	ldrb	r3, [r3, r6]
 80070e8:	fab1 f181 	clz	r1, r1
 80070ec:	2600      	movs	r6, #0
 80070ee:	f88d 3007 	strb.w	r3, [sp, #7]
 80070f2:	f88d 2005 	strb.w	r2, [sp, #5]
 80070f6:	088a      	lsrs	r2, r1, #2
 80070f8:	f88d 6002 	strb.w	r6, [sp, #2]
 80070fc:	466b      	mov	r3, sp
 80070fe:	f8ad 6000 	strh.w	r6, [sp]
 8007102:	267b      	movs	r6, #123	; 0x7b
 8007104:	f88d 5003 	strb.w	r5, [sp, #3]
 8007108:	f88d 4006 	strb.w	r4, [sp, #6]
 800710c:	f88d e004 	strb.w	lr, [sp, #4]
 8007110:	549e      	strb	r6, [r3, r2]
 8007112:	f06f 0201 	mvn.w	r2, #1
 8007116:	eb02 0291 	add.w	r2, r2, r1, lsr #2
 800711a:	265c      	movs	r6, #92	; 0x5c
 800711c:	eb03 0191 	add.w	r1, r3, r1, lsr #2
 8007120:	549e      	strb	r6, [r3, r2]
 8007122:	2375      	movs	r3, #117	; 0x75
 8007124:	267d      	movs	r6, #125	; 0x7d
 8007126:	f801 3c01 	strb.w	r3, [r1, #-1]
 800712a:	e9dd 1300 	ldrd	r1, r3, [sp]
 800712e:	f88d 6009 	strb.w	r6, [sp, #9]
 8007132:	f88d c008 	strb.w	ip, [sp, #8]
 8007136:	f8bd 6008 	ldrh.w	r6, [sp, #8]
 800713a:	e9c0 1300 	strd	r1, r3, [r0]
 800713e:	210a      	movs	r1, #10
 8007140:	8106      	strh	r6, [r0, #8]
 8007142:	72c1      	strb	r1, [r0, #11]
 8007144:	7282      	strb	r2, [r0, #10]
 8007146:	b006      	add	sp, #24
 8007148:	f85d bb04 	ldr.w	fp, [sp], #4
 800714c:	bdf0      	pop	{r4, r5, r6, r7, pc}
 800714e:	2100      	movs	r1, #0
 8007150:	f8c0 1006 	str.w	r1, [r0, #6]
 8007154:	f8c0 1002 	str.w	r1, [r0, #2]
 8007158:	f44f 7100 	mov.w	r1, #512	; 0x200
 800715c:	8141      	strh	r1, [r0, #10]
 800715e:	f646 615c 	movw	r1, #28252	; 0x6e5c
 8007162:	8001      	strh	r1, [r0, #0]
 8007164:	b006      	add	sp, #24
 8007166:	f85d bb04 	ldr.w	fp, [sp], #4
 800716a:	bdf0      	pop	{r4, r5, r6, r7, pc}
 800716c:	05d2      	lsls	r2, r2, #23
 800716e:	d52e      	bpl.n	80071ce <_ZN4core4char7methods22_$LT$impl$u20$char$GT$16escape_debug_ext17h90614ed5d68634ffE+0x1de>
 8007170:	2100      	movs	r1, #0
 8007172:	f8c0 1006 	str.w	r1, [r0, #6]
 8007176:	f8c0 1002 	str.w	r1, [r0, #2]
 800717a:	f44f 7100 	mov.w	r1, #512	; 0x200
 800717e:	8141      	strh	r1, [r0, #10]
 8007180:	f242 715c 	movw	r1, #10076	; 0x275c
 8007184:	8001      	strh	r1, [r0, #0]
 8007186:	b006      	add	sp, #24
 8007188:	f85d bb04 	ldr.w	fp, [sp], #4
 800718c:	bdf0      	pop	{r4, r5, r6, r7, pc}
 800718e:	2100      	movs	r1, #0
 8007190:	f8c0 1006 	str.w	r1, [r0, #6]
 8007194:	f8c0 1002 	str.w	r1, [r0, #2]
 8007198:	f44f 7100 	mov.w	r1, #512	; 0x200
 800719c:	8141      	strh	r1, [r0, #10]
 800719e:	f247 215c 	movw	r1, #29276	; 0x725c
 80071a2:	8001      	strh	r1, [r0, #0]
 80071a4:	b006      	add	sp, #24
 80071a6:	f85d bb04 	ldr.w	fp, [sp], #4
 80071aa:	bdf0      	pop	{r4, r5, r6, r7, pc}
 80071ac:	2100      	movs	r1, #0
 80071ae:	f8c0 1006 	str.w	r1, [r0, #6]
 80071b2:	f8c0 1002 	str.w	r1, [r0, #2]
 80071b6:	f44f 7100 	mov.w	r1, #512	; 0x200
 80071ba:	8141      	strh	r1, [r0, #10]
 80071bc:	f247 415c 	movw	r1, #29788	; 0x745c
 80071c0:	8001      	strh	r1, [r0, #0]
 80071c2:	b006      	add	sp, #24
 80071c4:	f85d bb04 	ldr.w	fp, [sp], #4
 80071c8:	bdf0      	pop	{r4, r5, r6, r7, pc}
 80071ca:	03d2      	lsls	r2, r2, #15
 80071cc:	d458      	bmi.n	8007280 <_ZN4core4char7methods22_$LT$impl$u20$char$GT$16escape_debug_ext17h90614ed5d68634ffE+0x290>
 80071ce:	4604      	mov	r4, r0
 80071d0:	4608      	mov	r0, r1
 80071d2:	460d      	mov	r5, r1
 80071d4:	f001 fab2 	bl	800873c <_ZN4core7unicode9printable12is_printable17h54060d40a7d0836cE>
 80071d8:	b130      	cbz	r0, 80071e8 <_ZN4core4char7methods22_$LT$impl$u20$char$GT$16escape_debug_ext17h90614ed5d68634ffE+0x1f8>
 80071da:	2080      	movs	r0, #128	; 0x80
 80071dc:	6065      	str	r5, [r4, #4]
 80071de:	7020      	strb	r0, [r4, #0]
 80071e0:	b006      	add	sp, #24
 80071e2:	f85d bb04 	ldr.w	fp, [sp], #4
 80071e6:	bdf0      	pop	{r4, r5, r6, r7, pc}
 80071e8:	f24a 11dc 	movw	r1, #41436	; 0xa1dc
 80071ec:	0d28      	lsrs	r0, r5, #20
 80071ee:	f6c0 0100 	movt	r1, #2048	; 0x800
 80071f2:	f3c5 4303 	ubfx	r3, r5, #16, #4
 80071f6:	f811 e000 	ldrb.w	lr, [r1, r0]
 80071fa:	f005 000f 	and.w	r0, r5, #15
 80071fe:	f3c5 3603 	ubfx	r6, r5, #12, #4
 8007202:	f811 c000 	ldrb.w	ip, [r1, r0]
 8007206:	f3c5 2003 	ubfx	r0, r5, #8, #4
 800720a:	f3c5 1203 	ubfx	r2, r5, #4, #4
 800720e:	5c08      	ldrb	r0, [r1, r0]
 8007210:	5ccb      	ldrb	r3, [r1, r3]
 8007212:	f88d 0012 	strb.w	r0, [sp, #18]
 8007216:	f045 0001 	orr.w	r0, r5, #1
 800721a:	5d8e      	ldrb	r6, [r1, r6]
 800721c:	5c89      	ldrb	r1, [r1, r2]
 800721e:	2200      	movs	r2, #0
 8007220:	fab0 f080 	clz	r0, r0
 8007224:	f88d 200e 	strb.w	r2, [sp, #14]
 8007228:	f8ad 200c 	strh.w	r2, [sp, #12]
 800722c:	aa03      	add	r2, sp, #12
 800722e:	f88d 1013 	strb.w	r1, [sp, #19]
 8007232:	0881      	lsrs	r1, r0, #2
 8007234:	f88d 3010 	strb.w	r3, [sp, #16]
 8007238:	237b      	movs	r3, #123	; 0x7b
 800723a:	f88d e00f 	strb.w	lr, [sp, #15]
 800723e:	f88d 6011 	strb.w	r6, [sp, #17]
 8007242:	5453      	strb	r3, [r2, r1]
 8007244:	f06f 0101 	mvn.w	r1, #1
 8007248:	eb01 0190 	add.w	r1, r1, r0, lsr #2
 800724c:	235c      	movs	r3, #92	; 0x5c
 800724e:	eb02 0090 	add.w	r0, r2, r0, lsr #2
 8007252:	5453      	strb	r3, [r2, r1]
 8007254:	2275      	movs	r2, #117	; 0x75
 8007256:	237d      	movs	r3, #125	; 0x7d
 8007258:	f800 2c01 	strb.w	r2, [r0, #-1]
 800725c:	e9dd 0203 	ldrd	r0, r2, [sp, #12]
 8007260:	f88d 3015 	strb.w	r3, [sp, #21]
 8007264:	f88d c014 	strb.w	ip, [sp, #20]
 8007268:	f8bd 3014 	ldrh.w	r3, [sp, #20]
 800726c:	e9c4 0200 	strd	r0, r2, [r4]
 8007270:	200a      	movs	r0, #10
 8007272:	8123      	strh	r3, [r4, #8]
 8007274:	72e0      	strb	r0, [r4, #11]
 8007276:	72a1      	strb	r1, [r4, #10]
 8007278:	b006      	add	sp, #24
 800727a:	f85d bb04 	ldr.w	fp, [sp], #4
 800727e:	bdf0      	pop	{r4, r5, r6, r7, pc}
 8007280:	2100      	movs	r1, #0
 8007282:	f8c0 1006 	str.w	r1, [r0, #6]
 8007286:	f8c0 1002 	str.w	r1, [r0, #2]
 800728a:	f44f 7100 	mov.w	r1, #512	; 0x200
 800728e:	8141      	strh	r1, [r0, #10]
 8007290:	f242 215c 	movw	r1, #8796	; 0x225c
 8007294:	8001      	strh	r1, [r0, #0]
 8007296:	b006      	add	sp, #24
 8007298:	f85d bb04 	ldr.w	fp, [sp], #4
 800729c:	bdf0      	pop	{r4, r5, r6, r7, pc}

0800729e <_ZN4core6option13unwrap_failed17he8f5396282508463E>:
 800729e:	b580      	push	{r7, lr}
 80072a0:	466f      	mov	r7, sp
 80072a2:	4602      	mov	r2, r0
 80072a4:	f24b 00fa 	movw	r0, #45306	; 0xb0fa
 80072a8:	f6c0 0000 	movt	r0, #2048	; 0x800
 80072ac:	212b      	movs	r1, #43	; 0x2b
 80072ae:	f000 f83b 	bl	8007328 <_ZN4core9panicking5panic17h3d328557175627ceE>

080072b2 <_ZN4core6option13expect_failed17hb8cbd1cd2662a847E>:
 80072b2:	b580      	push	{r7, lr}
 80072b4:	466f      	mov	r7, sp
 80072b6:	b08a      	sub	sp, #40	; 0x28
 80072b8:	e9cd 0100 	strd	r0, r1, [sp]
 80072bc:	2000      	movs	r0, #0
 80072be:	9006      	str	r0, [sp, #24]
 80072c0:	2001      	movs	r0, #1
 80072c2:	9003      	str	r0, [sp, #12]
 80072c4:	f249 5130 	movw	r1, #38192	; 0x9530
 80072c8:	9005      	str	r0, [sp, #20]
 80072ca:	a808      	add	r0, sp, #32
 80072cc:	9004      	str	r0, [sp, #16]
 80072ce:	f648 504f 	movw	r0, #36175	; 0x8d4f
 80072d2:	f6c0 0000 	movt	r0, #2048	; 0x800
 80072d6:	f6c0 0100 	movt	r1, #2048	; 0x800
 80072da:	9009      	str	r0, [sp, #36]	; 0x24
 80072dc:	4668      	mov	r0, sp
 80072de:	9008      	str	r0, [sp, #32]
 80072e0:	a802      	add	r0, sp, #8
 80072e2:	9102      	str	r1, [sp, #8]
 80072e4:	4611      	mov	r1, r2
 80072e6:	f000 f800 	bl	80072ea <_ZN4core9panicking9panic_fmt17h9bd7242b2f9f3cdaE>

080072ea <_ZN4core9panicking9panic_fmt17h9bd7242b2f9f3cdaE>:
 80072ea:	b580      	push	{r7, lr}
 80072ec:	466f      	mov	r7, sp
 80072ee:	b084      	sub	sp, #16
 80072f0:	e9cd 0101 	strd	r0, r1, [sp, #4]
 80072f4:	a801      	add	r0, sp, #4
 80072f6:	2201      	movs	r2, #1
 80072f8:	f8ad 200c 	strh.w	r2, [sp, #12]
 80072fc:	f7ff fe30 	bl	8006f60 <rust_begin_unwind>

08007300 <_ZN4core9panicking18panic_nounwind_fmt17h7659526d20701f50E>:
 8007300:	b580      	push	{r7, lr}
 8007302:	466f      	mov	r7, sp
 8007304:	b08a      	sub	sp, #40	; 0x28
 8007306:	f10d 0c04 	add.w	ip, sp, #4
 800730a:	e890 4370 	ldmia.w	r0, {r4, r5, r6, r8, r9, lr}
 800730e:	2000      	movs	r0, #0
 8007310:	4663      	mov	r3, ip
 8007312:	e883 4370 	stmia.w	r3, {r4, r5, r6, r8, r9, lr}
 8007316:	f88d 0024 	strb.w	r0, [sp, #36]	; 0x24
 800731a:	a807      	add	r0, sp, #28
 800731c:	f88d 1025 	strb.w	r1, [sp, #37]	; 0x25
 8007320:	e9cd c207 	strd	ip, r2, [sp, #28]
 8007324:	f7ff fe1c 	bl	8006f60 <rust_begin_unwind>

08007328 <_ZN4core9panicking5panic17h3d328557175627ceE>:
 8007328:	b580      	push	{r7, lr}
 800732a:	466f      	mov	r7, sp
 800732c:	b088      	sub	sp, #32
 800732e:	4694      	mov	ip, r2
 8007330:	2201      	movs	r2, #1
 8007332:	9201      	str	r2, [sp, #4]
 8007334:	aa06      	add	r2, sp, #24
 8007336:	2300      	movs	r3, #0
 8007338:	e9cd 0106 	strd	r0, r1, [sp, #24]
 800733c:	9200      	str	r2, [sp, #0]
 800733e:	2204      	movs	r2, #4
 8007340:	4668      	mov	r0, sp
 8007342:	4661      	mov	r1, ip
 8007344:	9304      	str	r3, [sp, #16]
 8007346:	9303      	str	r3, [sp, #12]
 8007348:	9202      	str	r2, [sp, #8]
 800734a:	f7ff ffce 	bl	80072ea <_ZN4core9panicking9panic_fmt17h9bd7242b2f9f3cdaE>

0800734e <_ZN4core9panicking14panic_nounwind17ha7168a7a4498f4fbE>:
 800734e:	b580      	push	{r7, lr}
 8007350:	466f      	mov	r7, sp
 8007352:	b088      	sub	sp, #32
 8007354:	2200      	movs	r2, #0
 8007356:	e9cd 0106 	strd	r0, r1, [sp, #24]
 800735a:	9204      	str	r2, [sp, #16]
 800735c:	2301      	movs	r3, #1
 800735e:	9203      	str	r2, [sp, #12]
 8007360:	2204      	movs	r2, #4
 8007362:	9202      	str	r2, [sp, #8]
 8007364:	f24b 123c 	movw	r2, #45372	; 0xb13c
 8007368:	f6c0 0200 	movt	r2, #2048	; 0x800
 800736c:	4668      	mov	r0, sp
 800736e:	2100      	movs	r1, #0
 8007370:	9301      	str	r3, [sp, #4]
 8007372:	ab06      	add	r3, sp, #24
 8007374:	9300      	str	r3, [sp, #0]
 8007376:	f7ff ffc3 	bl	8007300 <_ZN4core9panicking18panic_nounwind_fmt17h7659526d20701f50E>
 800737a:	d4d4      	bmi.n	8007326 <_ZN4core9panicking18panic_nounwind_fmt17h7659526d20701f50E+0x26>

0800737c <_ZN4core9panicking18panic_bounds_check17h533996232d7df350E>:
 800737c:	b580      	push	{r7, lr}
 800737e:	466f      	mov	r7, sp
 8007380:	b08c      	sub	sp, #48	; 0x30
 8007382:	e9cd 0100 	strd	r0, r1, [sp]
 8007386:	2000      	movs	r0, #0
 8007388:	9006      	str	r0, [sp, #24]
 800738a:	2002      	movs	r0, #2
 800738c:	4908      	ldr	r1, [pc, #32]	; (80073b0 <_ZN4core9panicking18panic_bounds_check17h533996232d7df350E+0x34>)
 800738e:	9102      	str	r1, [sp, #8]
 8007390:	4669      	mov	r1, sp
 8007392:	9003      	str	r0, [sp, #12]
 8007394:	9005      	str	r0, [sp, #20]
 8007396:	a808      	add	r0, sp, #32
 8007398:	9004      	str	r0, [sp, #16]
 800739a:	4806      	ldr	r0, [pc, #24]	; (80073b4 <_ZN4core9panicking18panic_bounds_check17h533996232d7df350E+0x38>)
 800739c:	e9cd 0109 	strd	r0, r1, [sp, #36]	; 0x24
 80073a0:	4611      	mov	r1, r2
 80073a2:	900b      	str	r0, [sp, #44]	; 0x2c
 80073a4:	a801      	add	r0, sp, #4
 80073a6:	9008      	str	r0, [sp, #32]
 80073a8:	a802      	add	r0, sp, #8
 80073aa:	f7ff ff9e 	bl	80072ea <_ZN4core9panicking9panic_fmt17h9bd7242b2f9f3cdaE>
 80073ae:	bf00      	nop
 80073b0:	0800b1a0 	.word	0x0800b1a0
 80073b4:	08008c59 	.word	0x08008c59

080073b8 <_ZN4core9panicking36panic_misaligned_pointer_dereference17h10ed728bfca2432fE>:
 80073b8:	b580      	push	{r7, lr}
 80073ba:	466f      	mov	r7, sp
 80073bc:	b09c      	sub	sp, #112	; 0x70
 80073be:	e9cd 0100 	strd	r0, r1, [sp]
 80073c2:	2401      	movs	r4, #1
 80073c4:	4812      	ldr	r0, [pc, #72]	; (8007410 <_ZN4core9panicking36panic_misaligned_pointer_dereference17h10ed728bfca2432fE+0x58>)
 80073c6:	2304      	movs	r3, #4
 80073c8:	900b      	str	r0, [sp, #44]	; 0x2c
 80073ca:	a901      	add	r1, sp, #4
 80073cc:	e9cd 0109 	strd	r0, r1, [sp, #36]	; 0x24
 80073d0:	4668      	mov	r0, sp
 80073d2:	9008      	str	r0, [sp, #32]
 80073d4:	2002      	movs	r0, #2
 80073d6:	9007      	str	r0, [sp, #28]
 80073d8:	a90c      	add	r1, sp, #48	; 0x30
 80073da:	9106      	str	r1, [sp, #24]
 80073dc:	490d      	ldr	r1, [pc, #52]	; (8007414 <_ZN4core9panicking36panic_misaligned_pointer_dereference17h10ed728bfca2432fE+0x5c>)
 80073de:	9102      	str	r1, [sp, #8]
 80073e0:	2103      	movs	r1, #3
 80073e2:	9419      	str	r4, [sp, #100]	; 0x64
 80073e4:	2420      	movs	r4, #32
 80073e6:	f88d 106c 	strb.w	r1, [sp, #108]	; 0x6c
 80073ea:	f88d 104c 	strb.w	r1, [sp, #76]	; 0x4c
 80073ee:	2100      	movs	r1, #0
 80073f0:	9003      	str	r0, [sp, #12]
 80073f2:	931a      	str	r3, [sp, #104]	; 0x68
 80073f4:	9418      	str	r4, [sp, #96]	; 0x60
 80073f6:	9016      	str	r0, [sp, #88]	; 0x58
 80073f8:	9014      	str	r0, [sp, #80]	; 0x50
 80073fa:	9312      	str	r3, [sp, #72]	; 0x48
 80073fc:	e9cd 4110 	strd	r4, r1, [sp, #64]	; 0x40
 8007400:	900e      	str	r0, [sp, #56]	; 0x38
 8007402:	900c      	str	r0, [sp, #48]	; 0x30
 8007404:	9005      	str	r0, [sp, #20]
 8007406:	a808      	add	r0, sp, #32
 8007408:	9004      	str	r0, [sp, #16]
 800740a:	a802      	add	r0, sp, #8
 800740c:	f7ff ff78 	bl	8007300 <_ZN4core9panicking18panic_nounwind_fmt17h7659526d20701f50E>
 8007410:	08008989 	.word	0x08008989
 8007414:	0800b1f0 	.word	0x0800b1f0

08007418 <_ZN4core6result13unwrap_failed17h155735d8bdfe0abbE>:
 8007418:	b580      	push	{r7, lr}
 800741a:	466f      	mov	r7, sp
 800741c:	b08e      	sub	sp, #56	; 0x38
 800741e:	e88d 000f 	stmia.w	sp, {r0, r1, r2, r3}
 8007422:	2000      	movs	r0, #0
 8007424:	f24b 2104 	movw	r1, #45572	; 0xb204
 8007428:	9008      	str	r0, [sp, #32]
 800742a:	2002      	movs	r0, #2
 800742c:	9005      	str	r0, [sp, #20]
 800742e:	f6c0 0100 	movt	r1, #2048	; 0x800
 8007432:	9007      	str	r0, [sp, #28]
 8007434:	a80a      	add	r0, sp, #40	; 0x28
 8007436:	9006      	str	r0, [sp, #24]
 8007438:	f648 5047 	movw	r0, #36167	; 0x8d47
 800743c:	f6c0 0000 	movt	r0, #2048	; 0x800
 8007440:	f8d7 c008 	ldr.w	ip, [r7, #8]
 8007444:	900d      	str	r0, [sp, #52]	; 0x34
 8007446:	a802      	add	r0, sp, #8
 8007448:	900c      	str	r0, [sp, #48]	; 0x30
 800744a:	f648 504f 	movw	r0, #36175	; 0x8d4f
 800744e:	f6c0 0000 	movt	r0, #2048	; 0x800
 8007452:	9104      	str	r1, [sp, #16]
 8007454:	900b      	str	r0, [sp, #44]	; 0x2c
 8007456:	4668      	mov	r0, sp
 8007458:	900a      	str	r0, [sp, #40]	; 0x28
 800745a:	a804      	add	r0, sp, #16
 800745c:	4661      	mov	r1, ip
 800745e:	f7ff ff44 	bl	80072ea <_ZN4core9panicking9panic_fmt17h9bd7242b2f9f3cdaE>
 8007462:	d4d4      	bmi.n	800740e <_ZN4core9panicking36panic_misaligned_pointer_dereference17h10ed728bfca2432fE+0x56>

08007464 <_ZN4core3fmt9Formatter12pad_integral17hbec66179281cb47dE>:
 8007464:	b5f0      	push	{r4, r5, r6, r7, lr}
 8007466:	af03      	add	r7, sp, #12
 8007468:	e92d 0f00 	stmdb	sp!, {r8, r9, sl, fp}
 800746c:	b087      	sub	sp, #28
 800746e:	f8d7 900c 	ldr.w	r9, [r7, #12]
 8007472:	461c      	mov	r4, r3
 8007474:	4615      	mov	r5, r2
 8007476:	2900      	cmp	r1, #0
 8007478:	d04e      	beq.n	8007518 <_ZN4core3fmt9Formatter12pad_integral17hbec66179281cb47dE+0xb4>
 800747a:	f8d0 b01c 	ldr.w	fp, [r0, #28]
 800747e:	222b      	movs	r2, #43	; 0x2b
 8007480:	f01b 0101 	ands.w	r1, fp, #1
 8007484:	bf08      	it	eq
 8007486:	f44f 1288 	moveq.w	r2, #1114112	; 0x110000
 800748a:	eb01 0a09 	add.w	sl, r1, r9
 800748e:	f8d7 8008 	ldr.w	r8, [r7, #8]
 8007492:	ea5f 714b 	movs.w	r1, fp, lsl #29
 8007496:	d549      	bpl.n	800752c <_ZN4core3fmt9Formatter12pad_integral17hbec66179281cb47dE+0xc8>
 8007498:	2c10      	cmp	r4, #16
 800749a:	9206      	str	r2, [sp, #24]
 800749c:	d258      	bcs.n	8007550 <_ZN4core3fmt9Formatter12pad_integral17hbec66179281cb47dE+0xec>
 800749e:	2c00      	cmp	r4, #0
 80074a0:	d062      	beq.n	8007568 <_ZN4core3fmt9Formatter12pad_integral17hbec66179281cb47dE+0x104>
 80074a2:	f004 0c03 	and.w	ip, r4, #3
 80074a6:	08a2      	lsrs	r2, r4, #2
 80074a8:	f04f 0100 	mov.w	r1, #0
 80074ac:	d05e      	beq.n	800756c <_ZN4core3fmt9Formatter12pad_integral17hbec66179281cb47dE+0x108>
 80074ae:	f002 0203 	and.w	r2, r2, #3
 80074b2:	f8cd 8010 	str.w	r8, [sp, #16]
 80074b6:	f105 0801 	add.w	r8, r5, #1
 80074ba:	e9cd 4902 	strd	r4, r9, [sp, #8]
 80074be:	eba1 0e82 	sub.w	lr, r1, r2, lsl #2
 80074c2:	f06f 0203 	mvn.w	r2, #3
 80074c6:	9505      	str	r5, [sp, #20]
 80074c8:	eb08 0502 	add.w	r5, r8, r2
 80074cc:	3204      	adds	r2, #4
 80074ce:	f995 3003 	ldrsb.w	r3, [r5, #3]
 80074d2:	f995 4006 	ldrsb.w	r4, [r5, #6]
 80074d6:	f995 6005 	ldrsb.w	r6, [r5, #5]
 80074da:	f113 0f41 	cmn.w	r3, #65	; 0x41
 80074de:	f995 5004 	ldrsb.w	r5, [r5, #4]
 80074e2:	bfc8      	it	gt
 80074e4:	3101      	addgt	r1, #1
 80074e6:	eb0e 0302 	add.w	r3, lr, r2
 80074ea:	f115 0f41 	cmn.w	r5, #65	; 0x41
 80074ee:	bfc8      	it	gt
 80074f0:	3101      	addgt	r1, #1
 80074f2:	f116 0f41 	cmn.w	r6, #65	; 0x41
 80074f6:	bfc8      	it	gt
 80074f8:	3101      	addgt	r1, #1
 80074fa:	f114 0f41 	cmn.w	r4, #65	; 0x41
 80074fe:	bfc8      	it	gt
 8007500:	3101      	addgt	r1, #1
 8007502:	3304      	adds	r3, #4
 8007504:	d1e0      	bne.n	80074c8 <_ZN4core3fmt9Formatter12pad_integral17hbec66179281cb47dE+0x64>
 8007506:	e9dd 8504 	ldrd	r8, r5, [sp, #16]
 800750a:	3204      	adds	r2, #4
 800750c:	e9dd 4902 	ldrd	r4, r9, [sp, #8]
 8007510:	f1bc 0f00 	cmp.w	ip, #0
 8007514:	d12e      	bne.n	8007574 <_ZN4core3fmt9Formatter12pad_integral17hbec66179281cb47dE+0x110>
 8007516:	e045      	b.n	80075a4 <_ZN4core3fmt9Formatter12pad_integral17hbec66179281cb47dE+0x140>
 8007518:	f8d0 b01c 	ldr.w	fp, [r0, #28]
 800751c:	f109 0a01 	add.w	sl, r9, #1
 8007520:	222d      	movs	r2, #45	; 0x2d
 8007522:	f8d7 8008 	ldr.w	r8, [r7, #8]
 8007526:	ea5f 714b 	movs.w	r1, fp, lsl #29
 800752a:	d4b5      	bmi.n	8007498 <_ZN4core3fmt9Formatter12pad_integral17hbec66179281cb47dE+0x34>
 800752c:	2500      	movs	r5, #0
 800752e:	6801      	ldr	r1, [r0, #0]
 8007530:	bbe9      	cbnz	r1, 80075ae <_ZN4core3fmt9Formatter12pad_integral17hbec66179281cb47dE+0x14a>
 8007532:	4621      	mov	r1, r4
 8007534:	e9d0 4605 	ldrd	r4, r6, [r0, #20]
 8007538:	9100      	str	r1, [sp, #0]
 800753a:	4631      	mov	r1, r6
 800753c:	462b      	mov	r3, r5
 800753e:	4620      	mov	r0, r4
 8007540:	f000 f8f1 	bl	8007726 <_ZN4core3fmt9Formatter12pad_integral12write_prefix17ha1589e2b1349d165E>
 8007544:	b160      	cbz	r0, 8007560 <_ZN4core3fmt9Formatter12pad_integral17hbec66179281cb47dE+0xfc>
 8007546:	2001      	movs	r0, #1
 8007548:	b007      	add	sp, #28
 800754a:	e8bd 0f00 	ldmia.w	sp!, {r8, r9, sl, fp}
 800754e:	bdf0      	pop	{r4, r5, r6, r7, pc}
 8007550:	4606      	mov	r6, r0
 8007552:	4628      	mov	r0, r5
 8007554:	4621      	mov	r1, r4
 8007556:	f000 fc9e 	bl	8007e96 <_ZN4core3str5count14do_count_chars17h272bd3abab41287cE>
 800755a:	4601      	mov	r1, r0
 800755c:	4630      	mov	r0, r6
 800755e:	e021      	b.n	80075a4 <_ZN4core3fmt9Formatter12pad_integral17hbec66179281cb47dE+0x140>
 8007560:	68f3      	ldr	r3, [r6, #12]
 8007562:	4620      	mov	r0, r4
 8007564:	4641      	mov	r1, r8
 8007566:	e078      	b.n	800765a <_ZN4core3fmt9Formatter12pad_integral17hbec66179281cb47dE+0x1f6>
 8007568:	2100      	movs	r1, #0
 800756a:	e01b      	b.n	80075a4 <_ZN4core3fmt9Formatter12pad_integral17hbec66179281cb47dE+0x140>
 800756c:	2200      	movs	r2, #0
 800756e:	f1bc 0f00 	cmp.w	ip, #0
 8007572:	d017      	beq.n	80075a4 <_ZN4core3fmt9Formatter12pad_integral17hbec66179281cb47dE+0x140>
 8007574:	56ab      	ldrsb	r3, [r5, r2]
 8007576:	f113 0f41 	cmn.w	r3, #65	; 0x41
 800757a:	bfc8      	it	gt
 800757c:	3101      	addgt	r1, #1
 800757e:	f1bc 0f01 	cmp.w	ip, #1
 8007582:	d00f      	beq.n	80075a4 <_ZN4core3fmt9Formatter12pad_integral17hbec66179281cb47dE+0x140>
 8007584:	442a      	add	r2, r5
 8007586:	f992 3001 	ldrsb.w	r3, [r2, #1]
 800758a:	f113 0f41 	cmn.w	r3, #65	; 0x41
 800758e:	bfc8      	it	gt
 8007590:	3101      	addgt	r1, #1
 8007592:	f1bc 0f02 	cmp.w	ip, #2
 8007596:	d005      	beq.n	80075a4 <_ZN4core3fmt9Formatter12pad_integral17hbec66179281cb47dE+0x140>
 8007598:	f992 2002 	ldrsb.w	r2, [r2, #2]
 800759c:	f112 0f41 	cmn.w	r2, #65	; 0x41
 80075a0:	bfc8      	it	gt
 80075a2:	3101      	addgt	r1, #1
 80075a4:	9a06      	ldr	r2, [sp, #24]
 80075a6:	448a      	add	sl, r1
 80075a8:	6801      	ldr	r1, [r0, #0]
 80075aa:	2900      	cmp	r1, #0
 80075ac:	d0c1      	beq.n	8007532 <_ZN4core3fmt9Formatter12pad_integral17hbec66179281cb47dE+0xce>
 80075ae:	e9cd 8504 	strd	r8, r5, [sp, #16]
 80075b2:	f8d0 8004 	ldr.w	r8, [r0, #4]
 80075b6:	45d0      	cmp	r8, sl
 80075b8:	d912      	bls.n	80075e0 <_ZN4core3fmt9Formatter12pad_integral17hbec66179281cb47dE+0x17c>
 80075ba:	ea5f 710b 	movs.w	r1, fp, lsl #28
 80075be:	d41e      	bmi.n	80075fe <_ZN4core3fmt9Formatter12pad_integral17hbec66179281cb47dE+0x19a>
 80075c0:	f890 1020 	ldrb.w	r1, [r0, #32]
 80075c4:	eba8 030a 	sub.w	r3, r8, sl
 80075c8:	9206      	str	r2, [sp, #24]
 80075ca:	46ca      	mov	sl, r9
 80075cc:	46a3      	mov	fp, r4
 80075ce:	4699      	mov	r9, r3
 80075d0:	e8df f001 	tbb	[pc, r1]
 80075d4:	0255025b 	.word	0x0255025b
 80075d8:	4649      	mov	r1, r9
 80075da:	f04f 0900 	mov.w	r9, #0
 80075de:	e054      	b.n	800768a <_ZN4core3fmt9Formatter12pad_integral17hbec66179281cb47dE+0x226>
 80075e0:	4621      	mov	r1, r4
 80075e2:	e9d0 4605 	ldrd	r4, r6, [r0, #20]
 80075e6:	9100      	str	r1, [sp, #0]
 80075e8:	4631      	mov	r1, r6
 80075ea:	9b05      	ldr	r3, [sp, #20]
 80075ec:	4620      	mov	r0, r4
 80075ee:	f000 f89a 	bl	8007726 <_ZN4core3fmt9Formatter12pad_integral12write_prefix17ha1589e2b1349d165E>
 80075f2:	b378      	cbz	r0, 8007654 <_ZN4core3fmt9Formatter12pad_integral17hbec66179281cb47dE+0x1f0>
 80075f4:	2001      	movs	r0, #1
 80075f6:	b007      	add	sp, #28
 80075f8:	e8bd 0f00 	ldmia.w	sp!, {r8, r9, sl, fp}
 80075fc:	bdf0      	pop	{r4, r5, r6, r7, pc}
 80075fe:	2130      	movs	r1, #48	; 0x30
 8007600:	f8d0 b010 	ldr.w	fp, [r0, #16]
 8007604:	4623      	mov	r3, r4
 8007606:	6101      	str	r1, [r0, #16]
 8007608:	2101      	movs	r1, #1
 800760a:	f890 5020 	ldrb.w	r5, [r0, #32]
 800760e:	e9d0 4605 	ldrd	r4, r6, [r0, #20]
 8007612:	f880 1020 	strb.w	r1, [r0, #32]
 8007616:	4631      	mov	r1, r6
 8007618:	9003      	str	r0, [sp, #12]
 800761a:	9300      	str	r3, [sp, #0]
 800761c:	4620      	mov	r0, r4
 800761e:	9b05      	ldr	r3, [sp, #20]
 8007620:	f000 f881 	bl	8007726 <_ZN4core3fmt9Formatter12pad_integral12write_prefix17ha1589e2b1349d165E>
 8007624:	4601      	mov	r1, r0
 8007626:	2001      	movs	r0, #1
 8007628:	2900      	cmp	r1, #0
 800762a:	f47f af8d 	bne.w	8007548 <_ZN4core3fmt9Formatter12pad_integral17hbec66179281cb47dE+0xe4>
 800762e:	9506      	str	r5, [sp, #24]
 8007630:	eba8 000a 	sub.w	r0, r8, sl
 8007634:	f8dd 8010 	ldr.w	r8, [sp, #16]
 8007638:	1c45      	adds	r5, r0, #1
 800763a:	3d01      	subs	r5, #1
 800763c:	d014      	beq.n	8007668 <_ZN4core3fmt9Formatter12pad_integral17hbec66179281cb47dE+0x204>
 800763e:	6932      	ldr	r2, [r6, #16]
 8007640:	4620      	mov	r0, r4
 8007642:	2130      	movs	r1, #48	; 0x30
 8007644:	4790      	blx	r2
 8007646:	2800      	cmp	r0, #0
 8007648:	d0f7      	beq.n	800763a <_ZN4core3fmt9Formatter12pad_integral17hbec66179281cb47dE+0x1d6>
 800764a:	2001      	movs	r0, #1
 800764c:	b007      	add	sp, #28
 800764e:	e8bd 0f00 	ldmia.w	sp!, {r8, r9, sl, fp}
 8007652:	bdf0      	pop	{r4, r5, r6, r7, pc}
 8007654:	68f3      	ldr	r3, [r6, #12]
 8007656:	4620      	mov	r0, r4
 8007658:	9904      	ldr	r1, [sp, #16]
 800765a:	464a      	mov	r2, r9
 800765c:	b007      	add	sp, #28
 800765e:	e8bd 0f00 	ldmia.w	sp!, {r8, r9, sl, fp}
 8007662:	e8bd 40f0 	ldmia.w	sp!, {r4, r5, r6, r7, lr}
 8007666:	4718      	bx	r3
 8007668:	68f3      	ldr	r3, [r6, #12]
 800766a:	4620      	mov	r0, r4
 800766c:	4641      	mov	r1, r8
 800766e:	464a      	mov	r2, r9
 8007670:	4798      	blx	r3
 8007672:	b3b8      	cbz	r0, 80076e4 <_ZN4core3fmt9Formatter12pad_integral17hbec66179281cb47dE+0x280>
 8007674:	2001      	movs	r0, #1
 8007676:	b007      	add	sp, #28
 8007678:	e8bd 0f00 	ldmia.w	sp!, {r8, r9, sl, fp}
 800767c:	bdf0      	pop	{r4, r5, r6, r7, pc}
 800767e:	f109 0201 	add.w	r2, r9, #1
 8007682:	ea4f 0159 	mov.w	r1, r9, lsr #1
 8007686:	ea4f 0952 	mov.w	r9, r2, lsr #1
 800768a:	e9d0 6404 	ldrd	r6, r4, [r0, #16]
 800768e:	1c4d      	adds	r5, r1, #1
 8007690:	f8d0 8018 	ldr.w	r8, [r0, #24]
 8007694:	3d01      	subs	r5, #1
 8007696:	d00b      	beq.n	80076b0 <_ZN4core3fmt9Formatter12pad_integral17hbec66179281cb47dE+0x24c>
 8007698:	f8d8 2010 	ldr.w	r2, [r8, #16]
 800769c:	4620      	mov	r0, r4
 800769e:	4631      	mov	r1, r6
 80076a0:	4790      	blx	r2
 80076a2:	2800      	cmp	r0, #0
 80076a4:	d0f6      	beq.n	8007694 <_ZN4core3fmt9Formatter12pad_integral17hbec66179281cb47dE+0x230>
 80076a6:	2001      	movs	r0, #1
 80076a8:	b007      	add	sp, #28
 80076aa:	e8bd 0f00 	ldmia.w	sp!, {r8, r9, sl, fp}
 80076ae:	bdf0      	pop	{r4, r5, r6, r7, pc}
 80076b0:	f8cd b000 	str.w	fp, [sp]
 80076b4:	4620      	mov	r0, r4
 80076b6:	e9dd 3205 	ldrd	r3, r2, [sp, #20]
 80076ba:	4641      	mov	r1, r8
 80076bc:	f000 f833 	bl	8007726 <_ZN4core3fmt9Formatter12pad_integral12write_prefix17ha1589e2b1349d165E>
 80076c0:	b120      	cbz	r0, 80076cc <_ZN4core3fmt9Formatter12pad_integral17hbec66179281cb47dE+0x268>
 80076c2:	2001      	movs	r0, #1
 80076c4:	b007      	add	sp, #28
 80076c6:	e8bd 0f00 	ldmia.w	sp!, {r8, r9, sl, fp}
 80076ca:	bdf0      	pop	{r4, r5, r6, r7, pc}
 80076cc:	f8d8 300c 	ldr.w	r3, [r8, #12]
 80076d0:	4620      	mov	r0, r4
 80076d2:	9904      	ldr	r1, [sp, #16]
 80076d4:	4652      	mov	r2, sl
 80076d6:	4798      	blx	r3
 80076d8:	b178      	cbz	r0, 80076fa <_ZN4core3fmt9Formatter12pad_integral17hbec66179281cb47dE+0x296>
 80076da:	2001      	movs	r0, #1
 80076dc:	b007      	add	sp, #28
 80076de:	e8bd 0f00 	ldmia.w	sp!, {r8, r9, sl, fp}
 80076e2:	bdf0      	pop	{r4, r5, r6, r7, pc}
 80076e4:	9803      	ldr	r0, [sp, #12]
 80076e6:	9906      	ldr	r1, [sp, #24]
 80076e8:	f880 1020 	strb.w	r1, [r0, #32]
 80076ec:	f8c0 b010 	str.w	fp, [r0, #16]
 80076f0:	2000      	movs	r0, #0
 80076f2:	b007      	add	sp, #28
 80076f4:	e8bd 0f00 	ldmia.w	sp!, {r8, r9, sl, fp}
 80076f8:	bdf0      	pop	{r4, r5, r6, r7, pc}
 80076fa:	2500      	movs	r5, #0
 80076fc:	45a9      	cmp	r9, r5
 80076fe:	d009      	beq.n	8007714 <_ZN4core3fmt9Formatter12pad_integral17hbec66179281cb47dE+0x2b0>
 8007700:	f8d8 2010 	ldr.w	r2, [r8, #16]
 8007704:	4620      	mov	r0, r4
 8007706:	4631      	mov	r1, r6
 8007708:	4790      	blx	r2
 800770a:	3501      	adds	r5, #1
 800770c:	2800      	cmp	r0, #0
 800770e:	d0f5      	beq.n	80076fc <_ZN4core3fmt9Formatter12pad_integral17hbec66179281cb47dE+0x298>
 8007710:	1e69      	subs	r1, r5, #1
 8007712:	e000      	b.n	8007716 <_ZN4core3fmt9Formatter12pad_integral17hbec66179281cb47dE+0x2b2>
 8007714:	4649      	mov	r1, r9
 8007716:	2000      	movs	r0, #0
 8007718:	4549      	cmp	r1, r9
 800771a:	bf38      	it	cc
 800771c:	2001      	movcc	r0, #1
 800771e:	b007      	add	sp, #28
 8007720:	e8bd 0f00 	ldmia.w	sp!, {r8, r9, sl, fp}
 8007724:	bdf0      	pop	{r4, r5, r6, r7, pc}

08007726 <_ZN4core3fmt9Formatter12pad_integral12write_prefix17ha1589e2b1349d165E>:
 8007726:	b5f0      	push	{r4, r5, r6, r7, lr}
 8007728:	af03      	add	r7, sp, #12
 800772a:	f84d 8d04 	str.w	r8, [sp, #-4]!
 800772e:	f8d7 8008 	ldr.w	r8, [r7, #8]
 8007732:	461c      	mov	r4, r3
 8007734:	460e      	mov	r6, r1
 8007736:	f5b2 1f88 	cmp.w	r2, #1114112	; 0x110000
 800773a:	d00a      	beq.n	8007752 <_ZN4core3fmt9Formatter12pad_integral12write_prefix17ha1589e2b1349d165E+0x2c>
 800773c:	6933      	ldr	r3, [r6, #16]
 800773e:	4611      	mov	r1, r2
 8007740:	4605      	mov	r5, r0
 8007742:	4798      	blx	r3
 8007744:	4601      	mov	r1, r0
 8007746:	4628      	mov	r0, r5
 8007748:	b119      	cbz	r1, 8007752 <_ZN4core3fmt9Formatter12pad_integral12write_prefix17ha1589e2b1349d165E+0x2c>
 800774a:	2001      	movs	r0, #1
 800774c:	f85d 8b04 	ldr.w	r8, [sp], #4
 8007750:	bdf0      	pop	{r4, r5, r6, r7, pc}
 8007752:	b13c      	cbz	r4, 8007764 <_ZN4core3fmt9Formatter12pad_integral12write_prefix17ha1589e2b1349d165E+0x3e>
 8007754:	68f3      	ldr	r3, [r6, #12]
 8007756:	4621      	mov	r1, r4
 8007758:	4642      	mov	r2, r8
 800775a:	f85d 8b04 	ldr.w	r8, [sp], #4
 800775e:	e8bd 40f0 	ldmia.w	sp!, {r4, r5, r6, r7, lr}
 8007762:	4718      	bx	r3
 8007764:	2000      	movs	r0, #0
 8007766:	f85d 8b04 	ldr.w	r8, [sp], #4
 800776a:	bdf0      	pop	{r4, r5, r6, r7, pc}

0800776c <_ZN4core3fmt9Formatter3pad17h3b34e20a8eeb34cfE>:
 800776c:	b5f0      	push	{r4, r5, r6, r7, lr}
 800776e:	af03      	add	r7, sp, #12
 8007770:	e92d 0f00 	stmdb	sp!, {r8, r9, sl, fp}
 8007774:	b081      	sub	sp, #4
 8007776:	460d      	mov	r5, r1
 8007778:	f8d0 c000 	ldr.w	ip, [r0]
 800777c:	6881      	ldr	r1, [r0, #8]
 800777e:	f1bc 0f00 	cmp.w	ip, #0
 8007782:	bf08      	it	eq
 8007784:	ea5f 73c1 	movseq.w	r3, r1, lsl #31
 8007788:	d037      	beq.n	80077fa <_ZN4core3fmt9Formatter3pad17h3b34e20a8eeb34cfE+0x8e>
 800778a:	07c9      	lsls	r1, r1, #31
 800778c:	d030      	beq.n	80077f0 <_ZN4core3fmt9Formatter3pad17h3b34e20a8eeb34cfE+0x84>
 800778e:	68c6      	ldr	r6, [r0, #12]
 8007790:	eb05 0e02 	add.w	lr, r5, r2
 8007794:	f04f 0800 	mov.w	r8, #0
 8007798:	4629      	mov	r1, r5
 800779a:	b9e6      	cbnz	r6, 80077d6 <_ZN4core3fmt9Formatter3pad17h3b34e20a8eeb34cfE+0x6a>
 800779c:	4571      	cmp	r1, lr
 800779e:	d027      	beq.n	80077f0 <_ZN4core3fmt9Formatter3pad17h3b34e20a8eeb34cfE+0x84>
 80077a0:	f991 1000 	ldrsb.w	r1, [r1]
 80077a4:	f1b1 3fff 	cmp.w	r1, #4294967295
 80077a8:	bfdc      	itt	le
 80077aa:	b2c9      	uxtble	r1, r1
 80077ac:	29e0      	cmple	r1, #224	; 0xe0
 80077ae:	f1b8 0f00 	cmp.w	r8, #0
 80077b2:	d026      	beq.n	8007802 <_ZN4core3fmt9Formatter3pad17h3b34e20a8eeb34cfE+0x96>
 80077b4:	4590      	cmp	r8, r2
 80077b6:	d223      	bcs.n	8007800 <_ZN4core3fmt9Formatter3pad17h3b34e20a8eeb34cfE+0x94>
 80077b8:	f915 1008 	ldrsb.w	r1, [r5, r8]
 80077bc:	f111 0f40 	cmn.w	r1, #64	; 0x40
 80077c0:	da1f      	bge.n	8007802 <_ZN4core3fmt9Formatter3pad17h3b34e20a8eeb34cfE+0x96>
 80077c2:	2100      	movs	r1, #0
 80077c4:	e01e      	b.n	8007804 <_ZN4core3fmt9Formatter3pad17h3b34e20a8eeb34cfE+0x98>
 80077c6:	29f0      	cmp	r1, #240	; 0xf0
 80077c8:	bf2c      	ite	cs
 80077ca:	1d21      	addcs	r1, r4, #4
 80077cc:	1ce1      	addcc	r1, r4, #3
 80077ce:	1b0b      	subs	r3, r1, r4
 80077d0:	3e01      	subs	r6, #1
 80077d2:	4498      	add	r8, r3
 80077d4:	d0e2      	beq.n	800779c <_ZN4core3fmt9Formatter3pad17h3b34e20a8eeb34cfE+0x30>
 80077d6:	4571      	cmp	r1, lr
 80077d8:	d00a      	beq.n	80077f0 <_ZN4core3fmt9Formatter3pad17h3b34e20a8eeb34cfE+0x84>
 80077da:	460c      	mov	r4, r1
 80077dc:	f911 3b01 	ldrsb.w	r3, [r1], #1
 80077e0:	f1b3 3fff 	cmp.w	r3, #4294967295
 80077e4:	dcf3      	bgt.n	80077ce <_ZN4core3fmt9Formatter3pad17h3b34e20a8eeb34cfE+0x62>
 80077e6:	b2d9      	uxtb	r1, r3
 80077e8:	29e0      	cmp	r1, #224	; 0xe0
 80077ea:	d2ec      	bcs.n	80077c6 <_ZN4core3fmt9Formatter3pad17h3b34e20a8eeb34cfE+0x5a>
 80077ec:	1ca1      	adds	r1, r4, #2
 80077ee:	e7ee      	b.n	80077ce <_ZN4core3fmt9Formatter3pad17h3b34e20a8eeb34cfE+0x62>
 80077f0:	4690      	mov	r8, r2
 80077f2:	f1bc 0f00 	cmp.w	ip, #0
 80077f6:	d10c      	bne.n	8007812 <_ZN4core3fmt9Formatter3pad17h3b34e20a8eeb34cfE+0xa6>
 80077f8:	e07d      	b.n	80078f6 <_ZN4core3fmt9Formatter3pad17h3b34e20a8eeb34cfE+0x18a>
 80077fa:	e9d0 0105 	ldrd	r0, r1, [r0, #20]
 80077fe:	e07d      	b.n	80078fc <_ZN4core3fmt9Formatter3pad17h3b34e20a8eeb34cfE+0x190>
 8007800:	d1df      	bne.n	80077c2 <_ZN4core3fmt9Formatter3pad17h3b34e20a8eeb34cfE+0x56>
 8007802:	4629      	mov	r1, r5
 8007804:	2900      	cmp	r1, #0
 8007806:	bf0c      	ite	eq
 8007808:	4690      	moveq	r8, r2
 800780a:	460d      	movne	r5, r1
 800780c:	f1bc 0f00 	cmp.w	ip, #0
 8007810:	d071      	beq.n	80078f6 <_ZN4core3fmt9Formatter3pad17h3b34e20a8eeb34cfE+0x18a>
 8007812:	f8d0 9004 	ldr.w	r9, [r0, #4]
 8007816:	f1b8 0f10 	cmp.w	r8, #16
 800781a:	d237      	bcs.n	800788c <_ZN4core3fmt9Formatter3pad17h3b34e20a8eeb34cfE+0x120>
 800781c:	f1b8 0f00 	cmp.w	r8, #0
 8007820:	d03c      	beq.n	800789c <_ZN4core3fmt9Formatter3pad17h3b34e20a8eeb34cfE+0x130>
 8007822:	f008 0c03 	and.w	ip, r8, #3
 8007826:	ea5f 0298 	movs.w	r2, r8, lsr #2
 800782a:	f04f 0100 	mov.w	r1, #0
 800782e:	d037      	beq.n	80078a0 <_ZN4core3fmt9Formatter3pad17h3b34e20a8eeb34cfE+0x134>
 8007830:	f002 0203 	and.w	r2, r2, #3
 8007834:	f105 0a01 	add.w	sl, r5, #1
 8007838:	46ab      	mov	fp, r5
 800783a:	eba1 0e82 	sub.w	lr, r1, r2, lsl #2
 800783e:	f06f 0203 	mvn.w	r2, #3
 8007842:	eb0a 0402 	add.w	r4, sl, r2
 8007846:	3204      	adds	r2, #4
 8007848:	f994 6003 	ldrsb.w	r6, [r4, #3]
 800784c:	f994 3006 	ldrsb.w	r3, [r4, #6]
 8007850:	f994 5005 	ldrsb.w	r5, [r4, #5]
 8007854:	f116 0f41 	cmn.w	r6, #65	; 0x41
 8007858:	f994 4004 	ldrsb.w	r4, [r4, #4]
 800785c:	bfc8      	it	gt
 800785e:	3101      	addgt	r1, #1
 8007860:	f114 0f41 	cmn.w	r4, #65	; 0x41
 8007864:	bfc8      	it	gt
 8007866:	3101      	addgt	r1, #1
 8007868:	f115 0f41 	cmn.w	r5, #65	; 0x41
 800786c:	bfc8      	it	gt
 800786e:	3101      	addgt	r1, #1
 8007870:	f113 0f41 	cmn.w	r3, #65	; 0x41
 8007874:	eb0e 0302 	add.w	r3, lr, r2
 8007878:	bfc8      	it	gt
 800787a:	3101      	addgt	r1, #1
 800787c:	3304      	adds	r3, #4
 800787e:	d1e0      	bne.n	8007842 <_ZN4core3fmt9Formatter3pad17h3b34e20a8eeb34cfE+0xd6>
 8007880:	3204      	adds	r2, #4
 8007882:	465d      	mov	r5, fp
 8007884:	f1bc 0f00 	cmp.w	ip, #0
 8007888:	d10e      	bne.n	80078a8 <_ZN4core3fmt9Formatter3pad17h3b34e20a8eeb34cfE+0x13c>
 800788a:	e025      	b.n	80078d8 <_ZN4core3fmt9Formatter3pad17h3b34e20a8eeb34cfE+0x16c>
 800788c:	4606      	mov	r6, r0
 800788e:	4628      	mov	r0, r5
 8007890:	4641      	mov	r1, r8
 8007892:	f000 fb00 	bl	8007e96 <_ZN4core3str5count14do_count_chars17h272bd3abab41287cE>
 8007896:	4601      	mov	r1, r0
 8007898:	4630      	mov	r0, r6
 800789a:	e01d      	b.n	80078d8 <_ZN4core3fmt9Formatter3pad17h3b34e20a8eeb34cfE+0x16c>
 800789c:	2100      	movs	r1, #0
 800789e:	e01b      	b.n	80078d8 <_ZN4core3fmt9Formatter3pad17h3b34e20a8eeb34cfE+0x16c>
 80078a0:	2200      	movs	r2, #0
 80078a2:	f1bc 0f00 	cmp.w	ip, #0
 80078a6:	d017      	beq.n	80078d8 <_ZN4core3fmt9Formatter3pad17h3b34e20a8eeb34cfE+0x16c>
 80078a8:	56ab      	ldrsb	r3, [r5, r2]
 80078aa:	f113 0f41 	cmn.w	r3, #65	; 0x41
 80078ae:	bfc8      	it	gt
 80078b0:	3101      	addgt	r1, #1
 80078b2:	f1bc 0f01 	cmp.w	ip, #1
 80078b6:	d00f      	beq.n	80078d8 <_ZN4core3fmt9Formatter3pad17h3b34e20a8eeb34cfE+0x16c>
 80078b8:	442a      	add	r2, r5
 80078ba:	f992 3001 	ldrsb.w	r3, [r2, #1]
 80078be:	f113 0f41 	cmn.w	r3, #65	; 0x41
 80078c2:	bfc8      	it	gt
 80078c4:	3101      	addgt	r1, #1
 80078c6:	f1bc 0f02 	cmp.w	ip, #2
 80078ca:	d005      	beq.n	80078d8 <_ZN4core3fmt9Formatter3pad17h3b34e20a8eeb34cfE+0x16c>
 80078cc:	f992 2002 	ldrsb.w	r2, [r2, #2]
 80078d0:	f112 0f41 	cmn.w	r2, #65	; 0x41
 80078d4:	bfc8      	it	gt
 80078d6:	3101      	addgt	r1, #1
 80078d8:	4589      	cmp	r9, r1
 80078da:	d90c      	bls.n	80078f6 <_ZN4core3fmt9Formatter3pad17h3b34e20a8eeb34cfE+0x18a>
 80078dc:	f890 2020 	ldrb.w	r2, [r0, #32]
 80078e0:	eba9 0901 	sub.w	r9, r9, r1
 80078e4:	2100      	movs	r1, #0
 80078e6:	e8df f002 	tbb	[pc, r2]
 80078ea:	0217      	.short	0x0217
 80078ec:	1711      	.short	0x1711
 80078ee:	4649      	mov	r1, r9
 80078f0:	f04f 0900 	mov.w	r9, #0
 80078f4:	e010      	b.n	8007918 <_ZN4core3fmt9Formatter3pad17h3b34e20a8eeb34cfE+0x1ac>
 80078f6:	e9d0 0105 	ldrd	r0, r1, [r0, #20]
 80078fa:	4642      	mov	r2, r8
 80078fc:	68cb      	ldr	r3, [r1, #12]
 80078fe:	4629      	mov	r1, r5
 8007900:	b001      	add	sp, #4
 8007902:	e8bd 0f00 	ldmia.w	sp!, {r8, r9, sl, fp}
 8007906:	e8bd 40f0 	ldmia.w	sp!, {r4, r5, r6, r7, lr}
 800790a:	4718      	bx	r3
 800790c:	f109 0201 	add.w	r2, r9, #1
 8007910:	ea4f 0159 	mov.w	r1, r9, lsr #1
 8007914:	ea4f 0952 	mov.w	r9, r2, lsr #1
 8007918:	e9d0 ab04 	ldrd	sl, fp, [r0, #16]
 800791c:	1c4c      	adds	r4, r1, #1
 800791e:	6986      	ldr	r6, [r0, #24]
 8007920:	3c01      	subs	r4, #1
 8007922:	d006      	beq.n	8007932 <_ZN4core3fmt9Formatter3pad17h3b34e20a8eeb34cfE+0x1c6>
 8007924:	6932      	ldr	r2, [r6, #16]
 8007926:	4658      	mov	r0, fp
 8007928:	4651      	mov	r1, sl
 800792a:	4790      	blx	r2
 800792c:	2800      	cmp	r0, #0
 800792e:	d0f7      	beq.n	8007920 <_ZN4core3fmt9Formatter3pad17h3b34e20a8eeb34cfE+0x1b4>
 8007930:	e005      	b.n	800793e <_ZN4core3fmt9Formatter3pad17h3b34e20a8eeb34cfE+0x1d2>
 8007932:	68f3      	ldr	r3, [r6, #12]
 8007934:	4658      	mov	r0, fp
 8007936:	4629      	mov	r1, r5
 8007938:	4642      	mov	r2, r8
 800793a:	4798      	blx	r3
 800793c:	b120      	cbz	r0, 8007948 <_ZN4core3fmt9Formatter3pad17h3b34e20a8eeb34cfE+0x1dc>
 800793e:	2001      	movs	r0, #1
 8007940:	b001      	add	sp, #4
 8007942:	e8bd 0f00 	ldmia.w	sp!, {r8, r9, sl, fp}
 8007946:	bdf0      	pop	{r4, r5, r6, r7, pc}
 8007948:	2500      	movs	r5, #0
 800794a:	45a9      	cmp	r9, r5
 800794c:	d008      	beq.n	8007960 <_ZN4core3fmt9Formatter3pad17h3b34e20a8eeb34cfE+0x1f4>
 800794e:	6932      	ldr	r2, [r6, #16]
 8007950:	4658      	mov	r0, fp
 8007952:	4651      	mov	r1, sl
 8007954:	4790      	blx	r2
 8007956:	3501      	adds	r5, #1
 8007958:	2800      	cmp	r0, #0
 800795a:	d0f6      	beq.n	800794a <_ZN4core3fmt9Formatter3pad17h3b34e20a8eeb34cfE+0x1de>
 800795c:	1e69      	subs	r1, r5, #1
 800795e:	e000      	b.n	8007962 <_ZN4core3fmt9Formatter3pad17h3b34e20a8eeb34cfE+0x1f6>
 8007960:	4649      	mov	r1, r9
 8007962:	2000      	movs	r0, #0
 8007964:	4549      	cmp	r1, r9
 8007966:	bf38      	it	cc
 8007968:	2001      	movcc	r0, #1
 800796a:	b001      	add	sp, #4
 800796c:	e8bd 0f00 	ldmia.w	sp!, {r8, r9, sl, fp}
 8007970:	bdf0      	pop	{r4, r5, r6, r7, pc}

08007972 <_ZN4core3fmt9Formatter9write_str17h9d7295ed75e9ebc7E>:
 8007972:	e9d0 0305 	ldrd	r0, r3, [r0, #20]
 8007976:	68db      	ldr	r3, [r3, #12]
 8007978:	4718      	bx	r3

0800797a <_ZN40_$LT$str$u20$as$u20$core..fmt..Debug$GT$3fmt17h738baae4fc87b105E>:
 800797a:	b5f0      	push	{r4, r5, r6, r7, lr}
 800797c:	af03      	add	r7, sp, #12
 800797e:	e92d 0f00 	stmdb	sp!, {r8, r9, sl, fp}
 8007982:	b08b      	sub	sp, #44	; 0x2c
 8007984:	e9d2 6405 	ldrd	r6, r4, [r2, #20]
 8007988:	460d      	mov	r5, r1
 800798a:	f8d4 a010 	ldr.w	sl, [r4, #16]
 800798e:	4680      	mov	r8, r0
 8007990:	2122      	movs	r1, #34	; 0x22
 8007992:	4630      	mov	r0, r6
 8007994:	47d0      	blx	sl
 8007996:	2800      	cmp	r0, #0
 8007998:	f040 8104 	bne.w	8007ba4 <_ZN40_$LT$str$u20$as$u20$core..fmt..Debug$GT$3fmt17h738baae4fc87b105E+0x22a>
 800799c:	2d00      	cmp	r5, #0
 800799e:	9607      	str	r6, [sp, #28]
 80079a0:	f000 80ce 	beq.w	8007b40 <_ZN40_$LT$str$u20$as$u20$core..fmt..Debug$GT$3fmt17h738baae4fc87b105E+0x1c6>
 80079a4:	f10d 0920 	add.w	r9, sp, #32
 80079a8:	2600      	movs	r6, #0
 80079aa:	f04f 0b00 	mov.w	fp, #0
 80079ae:	4268      	negs	r0, r5
 80079b0:	e9cd a403 	strd	sl, r4, [sp, #12]
 80079b4:	9001      	str	r0, [sp, #4]
 80079b6:	e9cd 5805 	strd	r5, r8, [sp, #20]
 80079ba:	e007      	b.n	80079cc <_ZN40_$LT$str$u20$as$u20$core..fmt..Debug$GT$3fmt17h738baae4fc87b105E+0x52>
 80079bc:	2101      	movs	r1, #1
 80079be:	4459      	add	r1, fp
 80079c0:	ebb4 0508 	subs.w	r5, r4, r8
 80079c4:	eb01 0b0a 	add.w	fp, r1, sl
 80079c8:	f000 80bf 	beq.w	8007b4a <_ZN40_$LT$str$u20$as$u20$core..fmt..Debug$GT$3fmt17h738baae4fc87b105E+0x1d0>
 80079cc:	eb08 0405 	add.w	r4, r8, r5
 80079d0:	4269      	negs	r1, r5
 80079d2:	f04f 0a00 	mov.w	sl, #0
 80079d6:	f818 200a 	ldrb.w	r2, [r8, sl]
 80079da:	f1a2 037f 	sub.w	r3, r2, #127	; 0x7f
 80079de:	f113 0f5f 	cmn.w	r3, #95	; 0x5f
 80079e2:	d309      	bcc.n	80079f8 <_ZN40_$LT$str$u20$as$u20$core..fmt..Debug$GT$3fmt17h738baae4fc87b105E+0x7e>
 80079e4:	2a22      	cmp	r2, #34	; 0x22
 80079e6:	bf18      	it	ne
 80079e8:	2a5c      	cmpne	r2, #92	; 0x5c
 80079ea:	d005      	beq.n	80079f8 <_ZN40_$LT$str$u20$as$u20$core..fmt..Debug$GT$3fmt17h738baae4fc87b105E+0x7e>
 80079ec:	f10a 0a01 	add.w	sl, sl, #1
 80079f0:	eb11 020a 	adds.w	r2, r1, sl
 80079f4:	d1ef      	bne.n	80079d6 <_ZN40_$LT$str$u20$as$u20$core..fmt..Debug$GT$3fmt17h738baae4fc87b105E+0x5c>
 80079f6:	e0a7      	b.n	8007b48 <_ZN40_$LT$str$u20$as$u20$core..fmt..Debug$GT$3fmt17h738baae4fc87b105E+0x1ce>
 80079f8:	eb08 000a 	add.w	r0, r8, sl
 80079fc:	4680      	mov	r8, r0
 80079fe:	f918 1b01 	ldrsb.w	r1, [r8], #1
 8007a02:	f1b1 3fff 	cmp.w	r1, #4294967295
 8007a06:	b2cd      	uxtb	r5, r1
 8007a08:	dc25      	bgt.n	8007a56 <_ZN40_$LT$str$u20$as$u20$core..fmt..Debug$GT$3fmt17h738baae4fc87b105E+0xdc>
 8007a0a:	f898 2000 	ldrb.w	r2, [r8]
 8007a0e:	f005 011f 	and.w	r1, r5, #31
 8007a12:	f100 0802 	add.w	r8, r0, #2
 8007a16:	2de0      	cmp	r5, #224	; 0xe0
 8007a18:	f002 023f 	and.w	r2, r2, #63	; 0x3f
 8007a1c:	d316      	bcc.n	8007a4c <_ZN40_$LT$str$u20$as$u20$core..fmt..Debug$GT$3fmt17h738baae4fc87b105E+0xd2>
 8007a1e:	f898 3000 	ldrb.w	r3, [r8]
 8007a22:	f100 0803 	add.w	r8, r0, #3
 8007a26:	2df0      	cmp	r5, #240	; 0xf0
 8007a28:	f003 033f 	and.w	r3, r3, #63	; 0x3f
 8007a2c:	ea43 1282 	orr.w	r2, r3, r2, lsl #6
 8007a30:	d30f      	bcc.n	8007a52 <_ZN40_$LT$str$u20$as$u20$core..fmt..Debug$GT$3fmt17h738baae4fc87b105E+0xd8>
 8007a32:	f898 3000 	ldrb.w	r3, [r8]
 8007a36:	f001 0107 	and.w	r1, r1, #7
 8007a3a:	f100 0804 	add.w	r8, r0, #4
 8007a3e:	f003 033f 	and.w	r3, r3, #63	; 0x3f
 8007a42:	ea43 1282 	orr.w	r2, r3, r2, lsl #6
 8007a46:	ea42 4581 	orr.w	r5, r2, r1, lsl #18
 8007a4a:	e004      	b.n	8007a56 <_ZN40_$LT$str$u20$as$u20$core..fmt..Debug$GT$3fmt17h738baae4fc87b105E+0xdc>
 8007a4c:	ea42 1581 	orr.w	r5, r2, r1, lsl #6
 8007a50:	e001      	b.n	8007a56 <_ZN40_$LT$str$u20$as$u20$core..fmt..Debug$GT$3fmt17h738baae4fc87b105E+0xdc>
 8007a52:	ea42 3501 	orr.w	r5, r2, r1, lsl #12
 8007a56:	4648      	mov	r0, r9
 8007a58:	4629      	mov	r1, r5
 8007a5a:	f04f 1201 	mov.w	r2, #65537	; 0x10001
 8007a5e:	f7ff fac7 	bl	8006ff0 <_ZN4core4char7methods22_$LT$impl$u20$char$GT$16escape_debug_ext17h90614ed5d68634ffE>
 8007a62:	f89d 0020 	ldrb.w	r0, [sp, #32]
 8007a66:	2880      	cmp	r0, #128	; 0x80
 8007a68:	d05c      	beq.n	8007b24 <_ZN40_$LT$str$u20$as$u20$core..fmt..Debug$GT$3fmt17h738baae4fc87b105E+0x1aa>
 8007a6a:	f89d 002a 	ldrb.w	r0, [sp, #42]	; 0x2a
 8007a6e:	f89d 102b 	ldrb.w	r1, [sp, #43]	; 0x2b
 8007a72:	1a08      	subs	r0, r1, r0
 8007a74:	b2c0      	uxtb	r0, r0
 8007a76:	2801      	cmp	r0, #1
 8007a78:	d054      	beq.n	8007b24 <_ZN40_$LT$str$u20$as$u20$core..fmt..Debug$GT$3fmt17h738baae4fc87b105E+0x1aa>
 8007a7a:	eb0b 030a 	add.w	r3, fp, sl
 8007a7e:	429e      	cmp	r6, r3
 8007a80:	f200 809c 	bhi.w	8007bbc <_ZN40_$LT$str$u20$as$u20$core..fmt..Debug$GT$3fmt17h738baae4fc87b105E+0x242>
 8007a84:	b156      	cbz	r6, 8007a9c <_ZN40_$LT$str$u20$as$u20$core..fmt..Debug$GT$3fmt17h738baae4fc87b105E+0x122>
 8007a86:	9805      	ldr	r0, [sp, #20]
 8007a88:	4286      	cmp	r6, r0
 8007a8a:	d205      	bcs.n	8007a98 <_ZN40_$LT$str$u20$as$u20$core..fmt..Debug$GT$3fmt17h738baae4fc87b105E+0x11e>
 8007a8c:	9806      	ldr	r0, [sp, #24]
 8007a8e:	5780      	ldrsb	r0, [r0, r6]
 8007a90:	f110 0f41 	cmn.w	r0, #65	; 0x41
 8007a94:	dc02      	bgt.n	8007a9c <_ZN40_$LT$str$u20$as$u20$core..fmt..Debug$GT$3fmt17h738baae4fc87b105E+0x122>
 8007a96:	e091      	b.n	8007bbc <_ZN40_$LT$str$u20$as$u20$core..fmt..Debug$GT$3fmt17h738baae4fc87b105E+0x242>
 8007a98:	f040 8090 	bne.w	8007bbc <_ZN40_$LT$str$u20$as$u20$core..fmt..Debug$GT$3fmt17h738baae4fc87b105E+0x242>
 8007a9c:	b173      	cbz	r3, 8007abc <_ZN40_$LT$str$u20$as$u20$core..fmt..Debug$GT$3fmt17h738baae4fc87b105E+0x142>
 8007a9e:	9805      	ldr	r0, [sp, #20]
 8007aa0:	4283      	cmp	r3, r0
 8007aa2:	d207      	bcs.n	8007ab4 <_ZN40_$LT$str$u20$as$u20$core..fmt..Debug$GT$3fmt17h738baae4fc87b105E+0x13a>
 8007aa4:	9806      	ldr	r0, [sp, #24]
 8007aa6:	4458      	add	r0, fp
 8007aa8:	f910 000a 	ldrsb.w	r0, [r0, sl]
 8007aac:	f110 0f41 	cmn.w	r0, #65	; 0x41
 8007ab0:	dc04      	bgt.n	8007abc <_ZN40_$LT$str$u20$as$u20$core..fmt..Debug$GT$3fmt17h738baae4fc87b105E+0x142>
 8007ab2:	e083      	b.n	8007bbc <_ZN40_$LT$str$u20$as$u20$core..fmt..Debug$GT$3fmt17h738baae4fc87b105E+0x242>
 8007ab4:	9801      	ldr	r0, [sp, #4]
 8007ab6:	18c0      	adds	r0, r0, r3
 8007ab8:	f040 8080 	bne.w	8007bbc <_ZN40_$LT$str$u20$as$u20$core..fmt..Debug$GT$3fmt17h738baae4fc87b105E+0x242>
 8007abc:	9a04      	ldr	r2, [sp, #16]
 8007abe:	9806      	ldr	r0, [sp, #24]
 8007ac0:	9402      	str	r4, [sp, #8]
 8007ac2:	9c07      	ldr	r4, [sp, #28]
 8007ac4:	1981      	adds	r1, r0, r6
 8007ac6:	ebab 0006 	sub.w	r0, fp, r6
 8007aca:	68d6      	ldr	r6, [r2, #12]
 8007acc:	eb00 020a 	add.w	r2, r0, sl
 8007ad0:	4620      	mov	r0, r4
 8007ad2:	47b0      	blx	r6
 8007ad4:	2800      	cmp	r0, #0
 8007ad6:	d165      	bne.n	8007ba4 <_ZN40_$LT$str$u20$as$u20$core..fmt..Debug$GT$3fmt17h738baae4fc87b105E+0x22a>
 8007ad8:	f89d 0020 	ldrb.w	r0, [sp, #32]
 8007adc:	2880      	cmp	r0, #128	; 0x80
 8007ade:	d104      	bne.n	8007aea <_ZN40_$LT$str$u20$as$u20$core..fmt..Debug$GT$3fmt17h738baae4fc87b105E+0x170>
 8007ae0:	9909      	ldr	r1, [sp, #36]	; 0x24
 8007ae2:	4620      	mov	r0, r4
 8007ae4:	9a03      	ldr	r2, [sp, #12]
 8007ae6:	4790      	blx	r2
 8007ae8:	e008      	b.n	8007afc <_ZN40_$LT$str$u20$as$u20$core..fmt..Debug$GT$3fmt17h738baae4fc87b105E+0x182>
 8007aea:	f89d 002a 	ldrb.w	r0, [sp, #42]	; 0x2a
 8007aee:	f89d 202b 	ldrb.w	r2, [sp, #43]	; 0x2b
 8007af2:	eb09 0100 	add.w	r1, r9, r0
 8007af6:	1a12      	subs	r2, r2, r0
 8007af8:	4620      	mov	r0, r4
 8007afa:	47b0      	blx	r6
 8007afc:	2800      	cmp	r0, #0
 8007afe:	d151      	bne.n	8007ba4 <_ZN40_$LT$str$u20$as$u20$core..fmt..Debug$GT$3fmt17h738baae4fc87b105E+0x22a>
 8007b00:	2d80      	cmp	r5, #128	; 0x80
 8007b02:	d201      	bcs.n	8007b08 <_ZN40_$LT$str$u20$as$u20$core..fmt..Debug$GT$3fmt17h738baae4fc87b105E+0x18e>
 8007b04:	2001      	movs	r0, #1
 8007b06:	e009      	b.n	8007b1c <_ZN40_$LT$str$u20$as$u20$core..fmt..Debug$GT$3fmt17h738baae4fc87b105E+0x1a2>
 8007b08:	f5b5 6f00 	cmp.w	r5, #2048	; 0x800
 8007b0c:	d201      	bcs.n	8007b12 <_ZN40_$LT$str$u20$as$u20$core..fmt..Debug$GT$3fmt17h738baae4fc87b105E+0x198>
 8007b0e:	2002      	movs	r0, #2
 8007b10:	e004      	b.n	8007b1c <_ZN40_$LT$str$u20$as$u20$core..fmt..Debug$GT$3fmt17h738baae4fc87b105E+0x1a2>
 8007b12:	2004      	movs	r0, #4
 8007b14:	f5b5 3f80 	cmp.w	r5, #65536	; 0x10000
 8007b18:	bf38      	it	cc
 8007b1a:	2003      	movcc	r0, #3
 8007b1c:	4458      	add	r0, fp
 8007b1e:	9c02      	ldr	r4, [sp, #8]
 8007b20:	eb00 060a 	add.w	r6, r0, sl
 8007b24:	2d80      	cmp	r5, #128	; 0x80
 8007b26:	f4ff af49 	bcc.w	80079bc <_ZN40_$LT$str$u20$as$u20$core..fmt..Debug$GT$3fmt17h738baae4fc87b105E+0x42>
 8007b2a:	f5b5 6f00 	cmp.w	r5, #2048	; 0x800
 8007b2e:	d201      	bcs.n	8007b34 <_ZN40_$LT$str$u20$as$u20$core..fmt..Debug$GT$3fmt17h738baae4fc87b105E+0x1ba>
 8007b30:	2102      	movs	r1, #2
 8007b32:	e744      	b.n	80079be <_ZN40_$LT$str$u20$as$u20$core..fmt..Debug$GT$3fmt17h738baae4fc87b105E+0x44>
 8007b34:	2104      	movs	r1, #4
 8007b36:	f5b5 3f80 	cmp.w	r5, #65536	; 0x10000
 8007b3a:	bf38      	it	cc
 8007b3c:	2103      	movcc	r1, #3
 8007b3e:	e73e      	b.n	80079be <_ZN40_$LT$str$u20$as$u20$core..fmt..Debug$GT$3fmt17h738baae4fc87b105E+0x44>
 8007b40:	f04f 0b00 	mov.w	fp, #0
 8007b44:	2600      	movs	r6, #0
 8007b46:	e024      	b.n	8007b92 <_ZN40_$LT$str$u20$as$u20$core..fmt..Debug$GT$3fmt17h738baae4fc87b105E+0x218>
 8007b48:	44ab      	add	fp, r5
 8007b4a:	f8dd 8018 	ldr.w	r8, [sp, #24]
 8007b4e:	455e      	cmp	r6, fp
 8007b50:	d83e      	bhi.n	8007bd0 <_ZN40_$LT$str$u20$as$u20$core..fmt..Debug$GT$3fmt17h738baae4fc87b105E+0x256>
 8007b52:	e9dd a403 	ldrd	sl, r4, [sp, #12]
 8007b56:	9905      	ldr	r1, [sp, #20]
 8007b58:	b13e      	cbz	r6, 8007b6a <_ZN40_$LT$str$u20$as$u20$core..fmt..Debug$GT$3fmt17h738baae4fc87b105E+0x1f0>
 8007b5a:	428e      	cmp	r6, r1
 8007b5c:	d20c      	bcs.n	8007b78 <_ZN40_$LT$str$u20$as$u20$core..fmt..Debug$GT$3fmt17h738baae4fc87b105E+0x1fe>
 8007b5e:	f918 0006 	ldrsb.w	r0, [r8, r6]
 8007b62:	f110 0f41 	cmn.w	r0, #65	; 0x41
 8007b66:	dc08      	bgt.n	8007b7a <_ZN40_$LT$str$u20$as$u20$core..fmt..Debug$GT$3fmt17h738baae4fc87b105E+0x200>
 8007b68:	e033      	b.n	8007bd2 <_ZN40_$LT$str$u20$as$u20$core..fmt..Debug$GT$3fmt17h738baae4fc87b105E+0x258>
 8007b6a:	2600      	movs	r6, #0
 8007b6c:	f1bb 0f00 	cmp.w	fp, #0
 8007b70:	d106      	bne.n	8007b80 <_ZN40_$LT$str$u20$as$u20$core..fmt..Debug$GT$3fmt17h738baae4fc87b105E+0x206>
 8007b72:	f04f 0b00 	mov.w	fp, #0
 8007b76:	e00c      	b.n	8007b92 <_ZN40_$LT$str$u20$as$u20$core..fmt..Debug$GT$3fmt17h738baae4fc87b105E+0x218>
 8007b78:	d12b      	bne.n	8007bd2 <_ZN40_$LT$str$u20$as$u20$core..fmt..Debug$GT$3fmt17h738baae4fc87b105E+0x258>
 8007b7a:	f1bb 0f00 	cmp.w	fp, #0
 8007b7e:	d0f8      	beq.n	8007b72 <_ZN40_$LT$str$u20$as$u20$core..fmt..Debug$GT$3fmt17h738baae4fc87b105E+0x1f8>
 8007b80:	458b      	cmp	fp, r1
 8007b82:	d205      	bcs.n	8007b90 <_ZN40_$LT$str$u20$as$u20$core..fmt..Debug$GT$3fmt17h738baae4fc87b105E+0x216>
 8007b84:	f918 000b 	ldrsb.w	r0, [r8, fp]
 8007b88:	f110 0f41 	cmn.w	r0, #65	; 0x41
 8007b8c:	dc01      	bgt.n	8007b92 <_ZN40_$LT$str$u20$as$u20$core..fmt..Debug$GT$3fmt17h738baae4fc87b105E+0x218>
 8007b8e:	e020      	b.n	8007bd2 <_ZN40_$LT$str$u20$as$u20$core..fmt..Debug$GT$3fmt17h738baae4fc87b105E+0x258>
 8007b90:	d11f      	bne.n	8007bd2 <_ZN40_$LT$str$u20$as$u20$core..fmt..Debug$GT$3fmt17h738baae4fc87b105E+0x258>
 8007b92:	68e3      	ldr	r3, [r4, #12]
 8007b94:	eb08 0106 	add.w	r1, r8, r6
 8007b98:	9c07      	ldr	r4, [sp, #28]
 8007b9a:	ebab 0206 	sub.w	r2, fp, r6
 8007b9e:	4620      	mov	r0, r4
 8007ba0:	4798      	blx	r3
 8007ba2:	b120      	cbz	r0, 8007bae <_ZN40_$LT$str$u20$as$u20$core..fmt..Debug$GT$3fmt17h738baae4fc87b105E+0x234>
 8007ba4:	2001      	movs	r0, #1
 8007ba6:	b00b      	add	sp, #44	; 0x2c
 8007ba8:	e8bd 0f00 	ldmia.w	sp!, {r8, r9, sl, fp}
 8007bac:	bdf0      	pop	{r4, r5, r6, r7, pc}
 8007bae:	4620      	mov	r0, r4
 8007bb0:	2122      	movs	r1, #34	; 0x22
 8007bb2:	47d0      	blx	sl
 8007bb4:	b00b      	add	sp, #44	; 0x2c
 8007bb6:	e8bd 0f00 	ldmia.w	sp!, {r8, r9, sl, fp}
 8007bba:	bdf0      	pop	{r4, r5, r6, r7, pc}
 8007bbc:	f24b 20f4 	movw	r0, #45812	; 0xb2f4
 8007bc0:	4632      	mov	r2, r6
 8007bc2:	f6c0 0000 	movt	r0, #2048	; 0x800
 8007bc6:	9000      	str	r0, [sp, #0]
 8007bc8:	e9dd 1005 	ldrd	r1, r0, [sp, #20]
 8007bcc:	f000 fbc8 	bl	8008360 <_ZN4core3str16slice_error_fail17hd36a1e4d59eb3bd2E>
 8007bd0:	9905      	ldr	r1, [sp, #20]
 8007bd2:	f24b 3004 	movw	r0, #45828	; 0xb304
 8007bd6:	4632      	mov	r2, r6
 8007bd8:	f6c0 0000 	movt	r0, #2048	; 0x800
 8007bdc:	465b      	mov	r3, fp
 8007bde:	9000      	str	r0, [sp, #0]
 8007be0:	4640      	mov	r0, r8
 8007be2:	f000 fbbd 	bl	8008360 <_ZN4core3str16slice_error_fail17hd36a1e4d59eb3bd2E>

08007be6 <_ZN42_$LT$str$u20$as$u20$core..fmt..Display$GT$3fmt17h5b0b46fef26f96b8E>:
 8007be6:	460b      	mov	r3, r1
 8007be8:	4601      	mov	r1, r0
 8007bea:	4610      	mov	r0, r2
 8007bec:	461a      	mov	r2, r3
 8007bee:	f7ff bdbd 	b.w	800776c <_ZN4core3fmt9Formatter3pad17h3b34e20a8eeb34cfE>

08007bf2 <_ZN41_$LT$char$u20$as$u20$core..fmt..Debug$GT$3fmt17h6029528eaa42b8a0E>:
 8007bf2:	b5f0      	push	{r4, r5, r6, r7, lr}
 8007bf4:	af03      	add	r7, sp, #12
 8007bf6:	f84d 8d04 	str.w	r8, [sp, #-4]!
 8007bfa:	b084      	sub	sp, #16
 8007bfc:	e9d1 4605 	ldrd	r4, r6, [r1, #20]
 8007c00:	4605      	mov	r5, r0
 8007c02:	f8d6 8010 	ldr.w	r8, [r6, #16]
 8007c06:	2127      	movs	r1, #39	; 0x27
 8007c08:	4620      	mov	r0, r4
 8007c0a:	47c0      	blx	r8
 8007c0c:	bb00      	cbnz	r0, 8007c50 <_ZN41_$LT$char$u20$as$u20$core..fmt..Debug$GT$3fmt17h6029528eaa42b8a0E+0x5e>
 8007c0e:	6829      	ldr	r1, [r5, #0]
 8007c10:	ad01      	add	r5, sp, #4
 8007c12:	f240 1201 	movw	r2, #257	; 0x101
 8007c16:	4628      	mov	r0, r5
 8007c18:	f7ff f9ea 	bl	8006ff0 <_ZN4core4char7methods22_$LT$impl$u20$char$GT$16escape_debug_ext17h90614ed5d68634ffE>
 8007c1c:	f89d 0004 	ldrb.w	r0, [sp, #4]
 8007c20:	2880      	cmp	r0, #128	; 0x80
 8007c22:	d10a      	bne.n	8007c3a <_ZN41_$LT$char$u20$as$u20$core..fmt..Debug$GT$3fmt17h6029528eaa42b8a0E+0x48>
 8007c24:	9902      	ldr	r1, [sp, #8]
 8007c26:	4620      	mov	r0, r4
 8007c28:	47c0      	blx	r8
 8007c2a:	b988      	cbnz	r0, 8007c50 <_ZN41_$LT$char$u20$as$u20$core..fmt..Debug$GT$3fmt17h6029528eaa42b8a0E+0x5e>
 8007c2c:	4620      	mov	r0, r4
 8007c2e:	2127      	movs	r1, #39	; 0x27
 8007c30:	47c0      	blx	r8
 8007c32:	b004      	add	sp, #16
 8007c34:	f85d 8b04 	ldr.w	r8, [sp], #4
 8007c38:	bdf0      	pop	{r4, r5, r6, r7, pc}
 8007c3a:	f89d 000e 	ldrb.w	r0, [sp, #14]
 8007c3e:	f89d 200f 	ldrb.w	r2, [sp, #15]
 8007c42:	68f3      	ldr	r3, [r6, #12]
 8007c44:	1829      	adds	r1, r5, r0
 8007c46:	1a12      	subs	r2, r2, r0
 8007c48:	4620      	mov	r0, r4
 8007c4a:	4798      	blx	r3
 8007c4c:	2800      	cmp	r0, #0
 8007c4e:	d0ed      	beq.n	8007c2c <_ZN41_$LT$char$u20$as$u20$core..fmt..Debug$GT$3fmt17h6029528eaa42b8a0E+0x3a>
 8007c50:	2001      	movs	r0, #1
 8007c52:	b004      	add	sp, #16
 8007c54:	f85d 8b04 	ldr.w	r8, [sp], #4
 8007c58:	bdf0      	pop	{r4, r5, r6, r7, pc}

08007c5a <_ZN4core5slice5index24slice_end_index_len_fail17h1c9907114f72d946E>:
 8007c5a:	b580      	push	{r7, lr}
 8007c5c:	466f      	mov	r7, sp
 8007c5e:	f001 f87c 	bl	8008d5a <_ZN4core5slice5index24slice_end_index_len_fail8do_panic7runtime17h84526c2728adb6b9E>

08007c62 <_ZN4core5slice5index22slice_index_order_fail17hee7cce77c7ae4cb0E>:
 8007c62:	b580      	push	{r7, lr}
 8007c64:	466f      	mov	r7, sp
 8007c66:	f001 f897 	bl	8008d98 <_ZN4core5slice5index22slice_index_order_fail8do_panic7runtime17h26834a34a2700333E>

08007c6a <_ZN4core3str8converts9from_utf817h7cfd819998da3b6cE>:
 8007c6a:	b5f0      	push	{r4, r5, r6, r7, lr}
 8007c6c:	af03      	add	r7, sp, #12
 8007c6e:	e92d 0f00 	stmdb	sp!, {r8, r9, sl, fp}
 8007c72:	f1b2 0c07 	subs.w	ip, r2, #7
 8007c76:	bf38      	it	cc
 8007c78:	f04f 0c00 	movcc.w	ip, #0
 8007c7c:	2a00      	cmp	r2, #0
 8007c7e:	f000 80eb 	beq.w	8007e58 <_ZN4core3str8converts9from_utf817h7cfd819998da3b6cE+0x1ee>
 8007c82:	1ccb      	adds	r3, r1, #3
 8007c84:	f24b 3827 	movw	r8, #45863	; 0xb327
 8007c88:	f023 0303 	bic.w	r3, r3, #3
 8007c8c:	f1c2 0a00 	rsb	sl, r2, #0
 8007c90:	eba3 0e01 	sub.w	lr, r3, r1
 8007c94:	f04f 0b00 	mov.w	fp, #0
 8007c98:	f6c0 0800 	movt	r8, #2048	; 0x800
 8007c9c:	e004      	b.n	8007ca8 <_ZN4core3str8converts9from_utf817h7cfd819998da3b6cE+0x3e>
 8007c9e:	f105 0b01 	add.w	fp, r5, #1
 8007ca2:	4593      	cmp	fp, r2
 8007ca4:	f080 80d8 	bcs.w	8007e58 <_ZN4core3str8converts9from_utf817h7cfd819998da3b6cE+0x1ee>
 8007ca8:	f911 500b 	ldrsb.w	r5, [r1, fp]
 8007cac:	2d00      	cmp	r5, #0
 8007cae:	d458      	bmi.n	8007d62 <_ZN4core3str8converts9from_utf817h7cfd819998da3b6cE+0xf8>
 8007cb0:	ebae 050b 	sub.w	r5, lr, fp
 8007cb4:	07ad      	lsls	r5, r5, #30
 8007cb6:	d004      	beq.n	8007cc2 <_ZN4core3str8converts9from_utf817h7cfd819998da3b6cE+0x58>
 8007cb8:	f10b 0b01 	add.w	fp, fp, #1
 8007cbc:	e7f1      	b.n	8007ca2 <_ZN4core3str8converts9from_utf817h7cfd819998da3b6cE+0x38>
 8007cbe:	f10b 0b20 	add.w	fp, fp, #32
 8007cc2:	45e3      	cmp	fp, ip
 8007cc4:	d227      	bcs.n	8007d16 <_ZN4core3str8converts9from_utf817h7cfd819998da3b6cE+0xac>
 8007cc6:	eb01 050b 	add.w	r5, r1, fp
 8007cca:	f851 600b 	ldr.w	r6, [r1, fp]
 8007cce:	686c      	ldr	r4, [r5, #4]
 8007cd0:	4334      	orrs	r4, r6
 8007cd2:	f014 3f80 	tst.w	r4, #2155905152	; 0x80808080
 8007cd6:	d11e      	bne.n	8007d16 <_ZN4core3str8converts9from_utf817h7cfd819998da3b6cE+0xac>
 8007cd8:	f10b 0608 	add.w	r6, fp, #8
 8007cdc:	4566      	cmp	r6, ip
 8007cde:	d219      	bcs.n	8007d14 <_ZN4core3str8converts9from_utf817h7cfd819998da3b6cE+0xaa>
 8007ce0:	e9d5 4302 	ldrd	r4, r3, [r5, #8]
 8007ce4:	4323      	orrs	r3, r4
 8007ce6:	f013 3f80 	tst.w	r3, #2155905152	; 0x80808080
 8007cea:	d113      	bne.n	8007d14 <_ZN4core3str8converts9from_utf817h7cfd819998da3b6cE+0xaa>
 8007cec:	f10b 0610 	add.w	r6, fp, #16
 8007cf0:	4566      	cmp	r6, ip
 8007cf2:	d20f      	bcs.n	8007d14 <_ZN4core3str8converts9from_utf817h7cfd819998da3b6cE+0xaa>
 8007cf4:	e9d5 3404 	ldrd	r3, r4, [r5, #16]
 8007cf8:	4323      	orrs	r3, r4
 8007cfa:	f013 3f80 	tst.w	r3, #2155905152	; 0x80808080
 8007cfe:	d109      	bne.n	8007d14 <_ZN4core3str8converts9from_utf817h7cfd819998da3b6cE+0xaa>
 8007d00:	f10b 0618 	add.w	r6, fp, #24
 8007d04:	4566      	cmp	r6, ip
 8007d06:	d205      	bcs.n	8007d14 <_ZN4core3str8converts9from_utf817h7cfd819998da3b6cE+0xaa>
 8007d08:	e9d5 3406 	ldrd	r3, r4, [r5, #24]
 8007d0c:	4323      	orrs	r3, r4
 8007d0e:	f013 3f80 	tst.w	r3, #2155905152	; 0x80808080
 8007d12:	d0d4      	beq.n	8007cbe <_ZN4core3str8converts9from_utf817h7cfd819998da3b6cE+0x54>
 8007d14:	46b3      	mov	fp, r6
 8007d16:	4593      	cmp	fp, r2
 8007d18:	d2c3      	bcs.n	8007ca2 <_ZN4core3str8converts9from_utf817h7cfd819998da3b6cE+0x38>
 8007d1a:	f911 300b 	ldrsb.w	r3, [r1, fp]
 8007d1e:	2b00      	cmp	r3, #0
 8007d20:	d4bf      	bmi.n	8007ca2 <_ZN4core3str8converts9from_utf817h7cfd819998da3b6cE+0x38>
 8007d22:	eb0a 050b 	add.w	r5, sl, fp
 8007d26:	1c6b      	adds	r3, r5, #1
 8007d28:	f000 8096 	beq.w	8007e58 <_ZN4core3str8converts9from_utf817h7cfd819998da3b6cE+0x1ee>
 8007d2c:	eb01 060b 	add.w	r6, r1, fp
 8007d30:	f996 3001 	ldrsb.w	r3, [r6, #1]
 8007d34:	2b00      	cmp	r3, #0
 8007d36:	d4bf      	bmi.n	8007cb8 <_ZN4core3str8converts9from_utf817h7cfd819998da3b6cE+0x4e>
 8007d38:	1cab      	adds	r3, r5, #2
 8007d3a:	f000 808d 	beq.w	8007e58 <_ZN4core3str8converts9from_utf817h7cfd819998da3b6cE+0x1ee>
 8007d3e:	f996 3002 	ldrsb.w	r3, [r6, #2]
 8007d42:	2b00      	cmp	r3, #0
 8007d44:	f100 8082 	bmi.w	8007e4c <_ZN4core3str8converts9from_utf817h7cfd819998da3b6cE+0x1e2>
 8007d48:	1ceb      	adds	r3, r5, #3
 8007d4a:	f000 8085 	beq.w	8007e58 <_ZN4core3str8converts9from_utf817h7cfd819998da3b6cE+0x1ee>
 8007d4e:	f996 3003 	ldrsb.w	r3, [r6, #3]
 8007d52:	2b00      	cmp	r3, #0
 8007d54:	d47d      	bmi.n	8007e52 <_ZN4core3str8converts9from_utf817h7cfd819998da3b6cE+0x1e8>
 8007d56:	f10b 0b04 	add.w	fp, fp, #4
 8007d5a:	eb1a 030b 	adds.w	r3, sl, fp
 8007d5e:	d1dc      	bne.n	8007d1a <_ZN4core3str8converts9from_utf817h7cfd819998da3b6cE+0xb0>
 8007d60:	e07a      	b.n	8007e58 <_ZN4core3str8converts9from_utf817h7cfd819998da3b6cE+0x1ee>
 8007d62:	b2ed      	uxtb	r5, r5
 8007d64:	f818 6005 	ldrb.w	r6, [r8, r5]
 8007d68:	2e04      	cmp	r6, #4
 8007d6a:	d01b      	beq.n	8007da4 <_ZN4core3str8converts9from_utf817h7cfd819998da3b6cE+0x13a>
 8007d6c:	2e03      	cmp	r6, #3
 8007d6e:	d00b      	beq.n	8007d88 <_ZN4core3str8converts9from_utf817h7cfd819998da3b6cE+0x11e>
 8007d70:	2e02      	cmp	r6, #2
 8007d72:	d17a      	bne.n	8007e6a <_ZN4core3str8converts9from_utf817h7cfd819998da3b6cE+0x200>
 8007d74:	f10b 0501 	add.w	r5, fp, #1
 8007d78:	4295      	cmp	r5, r2
 8007d7a:	d274      	bcs.n	8007e66 <_ZN4core3str8converts9from_utf817h7cfd819998da3b6cE+0x1fc>
 8007d7c:	574b      	ldrsb	r3, [r1, r5]
 8007d7e:	f113 0f41 	cmn.w	r3, #65	; 0x41
 8007d82:	f77f af8c 	ble.w	8007c9e <_ZN4core3str8converts9from_utf817h7cfd819998da3b6cE+0x34>
 8007d86:	e070      	b.n	8007e6a <_ZN4core3str8converts9from_utf817h7cfd819998da3b6cE+0x200>
 8007d88:	f10b 0601 	add.w	r6, fp, #1
 8007d8c:	4296      	cmp	r6, r2
 8007d8e:	d26a      	bcs.n	8007e66 <_ZN4core3str8converts9from_utf817h7cfd819998da3b6cE+0x1fc>
 8007d90:	5d8e      	ldrb	r6, [r1, r6]
 8007d92:	2de0      	cmp	r5, #224	; 0xe0
 8007d94:	d014      	beq.n	8007dc0 <_ZN4core3str8converts9from_utf817h7cfd819998da3b6cE+0x156>
 8007d96:	2ded      	cmp	r5, #237	; 0xed
 8007d98:	d11c      	bne.n	8007dd4 <_ZN4core3str8converts9from_utf817h7cfd819998da3b6cE+0x16a>
 8007d9a:	b273      	sxtb	r3, r6
 8007d9c:	f113 0f61 	cmn.w	r3, #97	; 0x61
 8007da0:	dd4a      	ble.n	8007e38 <_ZN4core3str8converts9from_utf817h7cfd819998da3b6cE+0x1ce>
 8007da2:	e062      	b.n	8007e6a <_ZN4core3str8converts9from_utf817h7cfd819998da3b6cE+0x200>
 8007da4:	f10b 0601 	add.w	r6, fp, #1
 8007da8:	4296      	cmp	r6, r2
 8007daa:	d25c      	bcs.n	8007e66 <_ZN4core3str8converts9from_utf817h7cfd819998da3b6cE+0x1fc>
 8007dac:	5d8e      	ldrb	r6, [r1, r6]
 8007dae:	2df0      	cmp	r5, #240	; 0xf0
 8007db0:	d00b      	beq.n	8007dca <_ZN4core3str8converts9from_utf817h7cfd819998da3b6cE+0x160>
 8007db2:	2df4      	cmp	r5, #244	; 0xf4
 8007db4:	d117      	bne.n	8007de6 <_ZN4core3str8converts9from_utf817h7cfd819998da3b6cE+0x17c>
 8007db6:	b273      	sxtb	r3, r6
 8007db8:	f113 0f71 	cmn.w	r3, #113	; 0x71
 8007dbc:	dd1f      	ble.n	8007dfe <_ZN4core3str8converts9from_utf817h7cfd819998da3b6cE+0x194>
 8007dbe:	e054      	b.n	8007e6a <_ZN4core3str8converts9from_utf817h7cfd819998da3b6cE+0x200>
 8007dc0:	f006 03e0 	and.w	r3, r6, #224	; 0xe0
 8007dc4:	2ba0      	cmp	r3, #160	; 0xa0
 8007dc6:	d037      	beq.n	8007e38 <_ZN4core3str8converts9from_utf817h7cfd819998da3b6cE+0x1ce>
 8007dc8:	e04f      	b.n	8007e6a <_ZN4core3str8converts9from_utf817h7cfd819998da3b6cE+0x200>
 8007dca:	f1a6 0390 	sub.w	r3, r6, #144	; 0x90
 8007dce:	2b30      	cmp	r3, #48	; 0x30
 8007dd0:	d315      	bcc.n	8007dfe <_ZN4core3str8converts9from_utf817h7cfd819998da3b6cE+0x194>
 8007dd2:	e04a      	b.n	8007e6a <_ZN4core3str8converts9from_utf817h7cfd819998da3b6cE+0x200>
 8007dd4:	f1a5 03e1 	sub.w	r3, r5, #225	; 0xe1
 8007dd8:	b276      	sxtb	r6, r6
 8007dda:	2b0c      	cmp	r3, #12
 8007ddc:	d221      	bcs.n	8007e22 <_ZN4core3str8converts9from_utf817h7cfd819998da3b6cE+0x1b8>
 8007dde:	f116 0f40 	cmn.w	r6, #64	; 0x40
 8007de2:	db29      	blt.n	8007e38 <_ZN4core3str8converts9from_utf817h7cfd819998da3b6cE+0x1ce>
 8007de4:	e041      	b.n	8007e6a <_ZN4core3str8converts9from_utf817h7cfd819998da3b6cE+0x200>
 8007de6:	f1a5 03f1 	sub.w	r3, r5, #241	; 0xf1
 8007dea:	f04f 0901 	mov.w	r9, #1
 8007dee:	2b02      	cmp	r3, #2
 8007df0:	d83d      	bhi.n	8007e6e <_ZN4core3str8converts9from_utf817h7cfd819998da3b6cE+0x204>
 8007df2:	b273      	sxtb	r3, r6
 8007df4:	f113 0f40 	cmn.w	r3, #64	; 0x40
 8007df8:	f04f 0501 	mov.w	r5, #1
 8007dfc:	da40      	bge.n	8007e80 <_ZN4core3str8converts9from_utf817h7cfd819998da3b6cE+0x216>
 8007dfe:	f10b 0502 	add.w	r5, fp, #2
 8007e02:	4295      	cmp	r5, r2
 8007e04:	d22f      	bcs.n	8007e66 <_ZN4core3str8converts9from_utf817h7cfd819998da3b6cE+0x1fc>
 8007e06:	574b      	ldrsb	r3, [r1, r5]
 8007e08:	f113 0f41 	cmn.w	r3, #65	; 0x41
 8007e0c:	dc31      	bgt.n	8007e72 <_ZN4core3str8converts9from_utf817h7cfd819998da3b6cE+0x208>
 8007e0e:	f10b 0503 	add.w	r5, fp, #3
 8007e12:	4295      	cmp	r5, r2
 8007e14:	d227      	bcs.n	8007e66 <_ZN4core3str8converts9from_utf817h7cfd819998da3b6cE+0x1fc>
 8007e16:	574b      	ldrsb	r3, [r1, r5]
 8007e18:	f113 0f41 	cmn.w	r3, #65	; 0x41
 8007e1c:	f77f af3f 	ble.w	8007c9e <_ZN4core3str8converts9from_utf817h7cfd819998da3b6cE+0x34>
 8007e20:	e02b      	b.n	8007e7a <_ZN4core3str8converts9from_utf817h7cfd819998da3b6cE+0x210>
 8007e22:	f005 03fe 	and.w	r3, r5, #254	; 0xfe
 8007e26:	f04f 0901 	mov.w	r9, #1
 8007e2a:	2bee      	cmp	r3, #238	; 0xee
 8007e2c:	d11f      	bne.n	8007e6e <_ZN4core3str8converts9from_utf817h7cfd819998da3b6cE+0x204>
 8007e2e:	f116 0f40 	cmn.w	r6, #64	; 0x40
 8007e32:	f04f 0501 	mov.w	r5, #1
 8007e36:	da23      	bge.n	8007e80 <_ZN4core3str8converts9from_utf817h7cfd819998da3b6cE+0x216>
 8007e38:	f10b 0502 	add.w	r5, fp, #2
 8007e3c:	4295      	cmp	r5, r2
 8007e3e:	d212      	bcs.n	8007e66 <_ZN4core3str8converts9from_utf817h7cfd819998da3b6cE+0x1fc>
 8007e40:	574b      	ldrsb	r3, [r1, r5]
 8007e42:	f113 0f41 	cmn.w	r3, #65	; 0x41
 8007e46:	f77f af2a 	ble.w	8007c9e <_ZN4core3str8converts9from_utf817h7cfd819998da3b6cE+0x34>
 8007e4a:	e012      	b.n	8007e72 <_ZN4core3str8converts9from_utf817h7cfd819998da3b6cE+0x208>
 8007e4c:	f10b 0b02 	add.w	fp, fp, #2
 8007e50:	e727      	b.n	8007ca2 <_ZN4core3str8converts9from_utf817h7cfd819998da3b6cE+0x38>
 8007e52:	f10b 0b03 	add.w	fp, fp, #3
 8007e56:	e724      	b.n	8007ca2 <_ZN4core3str8converts9from_utf817h7cfd819998da3b6cE+0x38>
 8007e58:	e9c0 1201 	strd	r1, r2, [r0, #4]
 8007e5c:	2100      	movs	r1, #0
 8007e5e:	6001      	str	r1, [r0, #0]
 8007e60:	e8bd 0f00 	ldmia.w	sp!, {r8, r9, sl, fp}
 8007e64:	bdf0      	pop	{r4, r5, r6, r7, pc}
 8007e66:	2500      	movs	r5, #0
 8007e68:	e00a      	b.n	8007e80 <_ZN4core3str8converts9from_utf817h7cfd819998da3b6cE+0x216>
 8007e6a:	f04f 0901 	mov.w	r9, #1
 8007e6e:	2501      	movs	r5, #1
 8007e70:	e006      	b.n	8007e80 <_ZN4core3str8converts9from_utf817h7cfd819998da3b6cE+0x216>
 8007e72:	2501      	movs	r5, #1
 8007e74:	f04f 0902 	mov.w	r9, #2
 8007e78:	e002      	b.n	8007e80 <_ZN4core3str8converts9from_utf817h7cfd819998da3b6cE+0x216>
 8007e7a:	2501      	movs	r5, #1
 8007e7c:	f04f 0903 	mov.w	r9, #3
 8007e80:	fa5f f189 	uxtb.w	r1, r9
 8007e84:	ea45 2101 	orr.w	r1, r5, r1, lsl #8
 8007e88:	e9c0 b101 	strd	fp, r1, [r0, #4]
 8007e8c:	2101      	movs	r1, #1
 8007e8e:	6001      	str	r1, [r0, #0]
 8007e90:	e8bd 0f00 	ldmia.w	sp!, {r8, r9, sl, fp}
 8007e94:	bdf0      	pop	{r4, r5, r6, r7, pc}

08007e96 <_ZN4core3str5count14do_count_chars17h272bd3abab41287cE>:
 8007e96:	b5f0      	push	{r4, r5, r6, r7, lr}
 8007e98:	af03      	add	r7, sp, #12
 8007e9a:	e92d 0f00 	stmdb	sp!, {r8, r9, sl, fp}
 8007e9e:	b082      	sub	sp, #8
 8007ea0:	4681      	mov	r9, r0
 8007ea2:	3003      	adds	r0, #3
 8007ea4:	f020 0a03 	bic.w	sl, r0, #3
 8007ea8:	ebaa 0809 	sub.w	r8, sl, r9
 8007eac:	4541      	cmp	r1, r8
 8007eae:	d30a      	bcc.n	8007ec6 <_ZN4core3str5count14do_count_chars17h272bd3abab41287cE+0x30>
 8007eb0:	eba1 0e08 	sub.w	lr, r1, r8
 8007eb4:	ea5f 0c9e 	movs.w	ip, lr, lsr #2
 8007eb8:	d005      	beq.n	8007ec6 <_ZN4core3str5count14do_count_chars17h272bd3abab41287cE+0x30>
 8007eba:	f00e 0203 	and.w	r2, lr, #3
 8007ebe:	45ca      	cmp	sl, r9
 8007ec0:	d15a      	bne.n	8007f78 <_ZN4core3str5count14do_count_chars17h272bd3abab41287cE+0xe2>
 8007ec2:	2000      	movs	r0, #0
 8007ec4:	e0a0      	b.n	8008008 <_ZN4core3str5count14do_count_chars17h272bd3abab41287cE+0x172>
 8007ec6:	b389      	cbz	r1, 8007f2c <_ZN4core3str5count14do_count_chars17h272bd3abab41287cE+0x96>
 8007ec8:	f001 0c03 	and.w	ip, r1, #3
 8007ecc:	088a      	lsrs	r2, r1, #2
 8007ece:	f04f 0000 	mov.w	r0, #0
 8007ed2:	d030      	beq.n	8007f36 <_ZN4core3str5count14do_count_chars17h272bd3abab41287cE+0xa0>
 8007ed4:	eba0 0e82 	sub.w	lr, r0, r2, lsl #2
 8007ed8:	f109 0601 	add.w	r6, r9, #1
 8007edc:	f06f 0503 	mvn.w	r5, #3
 8007ee0:	1973      	adds	r3, r6, r5
 8007ee2:	3504      	adds	r5, #4
 8007ee4:	f993 1003 	ldrsb.w	r1, [r3, #3]
 8007ee8:	f993 4006 	ldrsb.w	r4, [r3, #6]
 8007eec:	f993 2005 	ldrsb.w	r2, [r3, #5]
 8007ef0:	f111 0f41 	cmn.w	r1, #65	; 0x41
 8007ef4:	f993 3004 	ldrsb.w	r3, [r3, #4]
 8007ef8:	bfc8      	it	gt
 8007efa:	3001      	addgt	r0, #1
 8007efc:	eb0e 0105 	add.w	r1, lr, r5
 8007f00:	f113 0f41 	cmn.w	r3, #65	; 0x41
 8007f04:	bfc8      	it	gt
 8007f06:	3001      	addgt	r0, #1
 8007f08:	f112 0f41 	cmn.w	r2, #65	; 0x41
 8007f0c:	bfc8      	it	gt
 8007f0e:	3001      	addgt	r0, #1
 8007f10:	f114 0f41 	cmn.w	r4, #65	; 0x41
 8007f14:	bfc8      	it	gt
 8007f16:	3001      	addgt	r0, #1
 8007f18:	3104      	adds	r1, #4
 8007f1a:	d1e1      	bne.n	8007ee0 <_ZN4core3str5count14do_count_chars17h272bd3abab41287cE+0x4a>
 8007f1c:	1d2a      	adds	r2, r5, #4
 8007f1e:	f1bc 0f00 	cmp.w	ip, #0
 8007f22:	d10c      	bne.n	8007f3e <_ZN4core3str5count14do_count_chars17h272bd3abab41287cE+0xa8>
 8007f24:	b002      	add	sp, #8
 8007f26:	e8bd 0f00 	ldmia.w	sp!, {r8, r9, sl, fp}
 8007f2a:	bdf0      	pop	{r4, r5, r6, r7, pc}
 8007f2c:	2000      	movs	r0, #0
 8007f2e:	b002      	add	sp, #8
 8007f30:	e8bd 0f00 	ldmia.w	sp!, {r8, r9, sl, fp}
 8007f34:	bdf0      	pop	{r4, r5, r6, r7, pc}
 8007f36:	2200      	movs	r2, #0
 8007f38:	f1bc 0f00 	cmp.w	ip, #0
 8007f3c:	d0f2      	beq.n	8007f24 <_ZN4core3str5count14do_count_chars17h272bd3abab41287cE+0x8e>
 8007f3e:	f919 1002 	ldrsb.w	r1, [r9, r2]
 8007f42:	f111 0f41 	cmn.w	r1, #65	; 0x41
 8007f46:	bfc8      	it	gt
 8007f48:	3001      	addgt	r0, #1
 8007f4a:	f1bc 0f01 	cmp.w	ip, #1
 8007f4e:	d0e9      	beq.n	8007f24 <_ZN4core3str5count14do_count_chars17h272bd3abab41287cE+0x8e>
 8007f50:	444a      	add	r2, r9
 8007f52:	f992 1001 	ldrsb.w	r1, [r2, #1]
 8007f56:	f111 0f41 	cmn.w	r1, #65	; 0x41
 8007f5a:	bfc8      	it	gt
 8007f5c:	3001      	addgt	r0, #1
 8007f5e:	f1bc 0f02 	cmp.w	ip, #2
 8007f62:	d0df      	beq.n	8007f24 <_ZN4core3str5count14do_count_chars17h272bd3abab41287cE+0x8e>
 8007f64:	f992 1002 	ldrsb.w	r1, [r2, #2]
 8007f68:	f111 0f41 	cmn.w	r1, #65	; 0x41
 8007f6c:	bfc8      	it	gt
 8007f6e:	3001      	addgt	r0, #1
 8007f70:	b002      	add	sp, #8
 8007f72:	e8bd 0f00 	ldmia.w	sp!, {r8, r9, sl, fp}
 8007f76:	bdf0      	pop	{r4, r5, r6, r7, pc}
 8007f78:	eba9 000a 	sub.w	r0, r9, sl
 8007f7c:	f110 0f04 	cmn.w	r0, #4
 8007f80:	d902      	bls.n	8007f88 <_ZN4core3str5count14do_count_chars17h272bd3abab41287cE+0xf2>
 8007f82:	2000      	movs	r0, #0
 8007f84:	2500      	movs	r5, #0
 8007f86:	e023      	b.n	8007fd0 <_ZN4core3str5count14do_count_chars17h272bd3abab41287cE+0x13a>
 8007f88:	f109 0b01 	add.w	fp, r9, #1
 8007f8c:	2000      	movs	r0, #0
 8007f8e:	f06f 0603 	mvn.w	r6, #3
 8007f92:	eb0b 0506 	add.w	r5, fp, r6
 8007f96:	f995 4003 	ldrsb.w	r4, [r5, #3]
 8007f9a:	f995 3006 	ldrsb.w	r3, [r5, #6]
 8007f9e:	f995 1005 	ldrsb.w	r1, [r5, #5]
 8007fa2:	f114 0f41 	cmn.w	r4, #65	; 0x41
 8007fa6:	f995 5004 	ldrsb.w	r5, [r5, #4]
 8007faa:	bfc8      	it	gt
 8007fac:	3001      	addgt	r0, #1
 8007fae:	f115 0f41 	cmn.w	r5, #65	; 0x41
 8007fb2:	bfc8      	it	gt
 8007fb4:	3001      	addgt	r0, #1
 8007fb6:	f111 0f41 	cmn.w	r1, #65	; 0x41
 8007fba:	bfc8      	it	gt
 8007fbc:	3001      	addgt	r0, #1
 8007fbe:	f113 0f41 	cmn.w	r3, #65	; 0x41
 8007fc2:	bfc8      	it	gt
 8007fc4:	3001      	addgt	r0, #1
 8007fc6:	f116 0508 	adds.w	r5, r6, #8
 8007fca:	f106 0604 	add.w	r6, r6, #4
 8007fce:	d1e0      	bne.n	8007f92 <_ZN4core3str5count14do_count_chars17h272bd3abab41287cE+0xfc>
 8007fd0:	45ca      	cmp	sl, r9
 8007fd2:	d019      	beq.n	8008008 <_ZN4core3str5count14do_count_chars17h272bd3abab41287cE+0x172>
 8007fd4:	f919 1005 	ldrsb.w	r1, [r9, r5]
 8007fd8:	f111 0f41 	cmn.w	r1, #65	; 0x41
 8007fdc:	bfc8      	it	gt
 8007fde:	3001      	addgt	r0, #1
 8007fe0:	f1b8 0f01 	cmp.w	r8, #1
 8007fe4:	d010      	beq.n	8008008 <_ZN4core3str5count14do_count_chars17h272bd3abab41287cE+0x172>
 8007fe6:	eb09 0105 	add.w	r1, r9, r5
 8007fea:	f991 3001 	ldrsb.w	r3, [r1, #1]
 8007fee:	f113 0f41 	cmn.w	r3, #65	; 0x41
 8007ff2:	bfc8      	it	gt
 8007ff4:	3001      	addgt	r0, #1
 8007ff6:	f1b8 0f02 	cmp.w	r8, #2
 8007ffa:	d005      	beq.n	8008008 <_ZN4core3str5count14do_count_chars17h272bd3abab41287cE+0x172>
 8007ffc:	f991 1002 	ldrsb.w	r1, [r1, #2]
 8008000:	f111 0f41 	cmn.w	r1, #65	; 0x41
 8008004:	bfc8      	it	gt
 8008006:	3001      	addgt	r0, #1
 8008008:	eb09 0408 	add.w	r4, r9, r8
 800800c:	2300      	movs	r3, #0
 800800e:	b1c2      	cbz	r2, 8008042 <_ZN4core3str5count14do_count_chars17h272bd3abab41287cE+0x1ac>
 8008010:	f02e 0103 	bic.w	r1, lr, #3
 8008014:	4421      	add	r1, r4
 8008016:	f991 6000 	ldrsb.w	r6, [r1]
 800801a:	f116 0f41 	cmn.w	r6, #65	; 0x41
 800801e:	bfc8      	it	gt
 8008020:	2301      	movgt	r3, #1
 8008022:	2a01      	cmp	r2, #1
 8008024:	d00d      	beq.n	8008042 <_ZN4core3str5count14do_count_chars17h272bd3abab41287cE+0x1ac>
 8008026:	f991 6001 	ldrsb.w	r6, [r1, #1]
 800802a:	f116 0f41 	cmn.w	r6, #65	; 0x41
 800802e:	bfc8      	it	gt
 8008030:	3301      	addgt	r3, #1
 8008032:	2a02      	cmp	r2, #2
 8008034:	d005      	beq.n	8008042 <_ZN4core3str5count14do_count_chars17h272bd3abab41287cE+0x1ac>
 8008036:	f991 1002 	ldrsb.w	r1, [r1, #2]
 800803a:	f111 0f41 	cmn.w	r1, #65	; 0x41
 800803e:	bfc8      	it	gt
 8008040:	3301      	addgt	r3, #1
 8008042:	4418      	add	r0, r3
 8008044:	e012      	b.n	800806c <_ZN4core3str5count14do_count_chars17h272bd3abab41287cE+0x1d6>
 8008046:	f04f 0800 	mov.w	r8, #0
 800804a:	fa3f f288 	uxtb16	r2, r8
 800804e:	fa3f f398 	uxtb16	r3, r8, ror #8
 8008052:	441a      	add	r2, r3
 8008054:	ebac 0c0b 	sub.w	ip, ip, fp
 8008058:	eb0a 048b 	add.w	r4, sl, fp, lsl #2
 800805c:	f01b 0103 	ands.w	r1, fp, #3
 8008060:	eb02 4202 	add.w	r2, r2, r2, lsl #16
 8008064:	eb00 4012 	add.w	r0, r0, r2, lsr #16
 8008068:	f040 8149 	bne.w	80082fe <_ZN4core3str5count14do_count_chars17h272bd3abab41287cE+0x468>
 800806c:	f1bc 0f00 	cmp.w	ip, #0
 8008070:	f43f af58 	beq.w	8007f24 <_ZN4core3str5count14do_count_chars17h272bd3abab41287cE+0x8e>
 8008074:	f1bc 0fc0 	cmp.w	ip, #192	; 0xc0
 8008078:	46e3      	mov	fp, ip
 800807a:	bf28      	it	cs
 800807c:	f04f 0bc0 	movcs.w	fp, #192	; 0xc0
 8008080:	46a2      	mov	sl, r4
 8008082:	f1bc 0f04 	cmp.w	ip, #4
 8008086:	d3de      	bcc.n	8008046 <_ZN4core3str5count14do_count_chars17h272bd3abab41287cE+0x1b0>
 8008088:	f06f 010f 	mvn.w	r1, #15
 800808c:	2201      	movs	r2, #1
 800808e:	eb01 018b 	add.w	r1, r1, fp, lsl #2
 8008092:	2930      	cmp	r1, #48	; 0x30
 8008094:	eb02 1211 	add.w	r2, r2, r1, lsr #4
 8008098:	e9cd 2a00 	strd	r2, sl, [sp]
 800809c:	d203      	bcs.n	80080a6 <_ZN4core3str5count14do_count_chars17h272bd3abab41287cE+0x210>
 800809e:	f04f 0800 	mov.w	r8, #0
 80080a2:	4654      	mov	r4, sl
 80080a4:	e0ab      	b.n	80081fe <_ZN4core3str5count14do_count_chars17h272bd3abab41287cE+0x368>
 80080a6:	f022 0903 	bic.w	r9, r2, #3
 80080aa:	f04f 0800 	mov.w	r8, #0
 80080ae:	4654      	mov	r4, sl
 80080b0:	e894 040e 	ldmia.w	r4, {r1, r2, r3, sl}
 80080b4:	f1b9 0904 	subs.w	r9, r9, #4
 80080b8:	69a6      	ldr	r6, [r4, #24]
 80080ba:	ea6f 0e01 	mvn.w	lr, r1
 80080be:	ea4f 15de 	mov.w	r5, lr, lsr #7
 80080c2:	ea45 1191 	orr.w	r1, r5, r1, lsr #6
 80080c6:	ea6f 0502 	mvn.w	r5, r2
 80080ca:	f021 31fe 	bic.w	r1, r1, #4278124286	; 0xfefefefe
 80080ce:	ea4f 15d5 	mov.w	r5, r5, lsr #7
 80080d2:	ea45 1292 	orr.w	r2, r5, r2, lsr #6
 80080d6:	4441      	add	r1, r8
 80080d8:	f022 32fe 	bic.w	r2, r2, #4278124286	; 0xfefefefe
 80080dc:	440a      	add	r2, r1
 80080de:	ea6f 0103 	mvn.w	r1, r3
 80080e2:	ea4f 15d1 	mov.w	r5, r1, lsr #7
 80080e6:	ea45 1393 	orr.w	r3, r5, r3, lsr #6
 80080ea:	f023 33fe 	bic.w	r3, r3, #4278124286	; 0xfefefefe
 80080ee:	6925      	ldr	r5, [r4, #16]
 80080f0:	441a      	add	r2, r3
 80080f2:	ea6f 030a 	mvn.w	r3, sl
 80080f6:	ea4f 13d3 	mov.w	r3, r3, lsr #7
 80080fa:	6961      	ldr	r1, [r4, #20]
 80080fc:	ea43 139a 	orr.w	r3, r3, sl, lsr #6
 8008100:	f8d4 8038 	ldr.w	r8, [r4, #56]	; 0x38
 8008104:	f023 33fe 	bic.w	r3, r3, #4278124286	; 0xfefefefe
 8008108:	f8d4 e03c 	ldr.w	lr, [r4, #60]	; 0x3c
 800810c:	441a      	add	r2, r3
 800810e:	ea6f 0305 	mvn.w	r3, r5
 8008112:	ea4f 13d3 	mov.w	r3, r3, lsr #7
 8008116:	ea43 1395 	orr.w	r3, r3, r5, lsr #6
 800811a:	69e5      	ldr	r5, [r4, #28]
 800811c:	f023 33fe 	bic.w	r3, r3, #4278124286	; 0xfefefefe
 8008120:	441a      	add	r2, r3
 8008122:	ea6f 0301 	mvn.w	r3, r1
 8008126:	ea4f 13d3 	mov.w	r3, r3, lsr #7
 800812a:	ea43 1191 	orr.w	r1, r3, r1, lsr #6
 800812e:	f021 31fe 	bic.w	r1, r1, #4278124286	; 0xfefefefe
 8008132:	6a23      	ldr	r3, [r4, #32]
 8008134:	4411      	add	r1, r2
 8008136:	ea6f 0206 	mvn.w	r2, r6
 800813a:	ea4f 12d2 	mov.w	r2, r2, lsr #7
 800813e:	ea42 1296 	orr.w	r2, r2, r6, lsr #6
 8008142:	6a66      	ldr	r6, [r4, #36]	; 0x24
 8008144:	f022 32fe 	bic.w	r2, r2, #4278124286	; 0xfefefefe
 8008148:	4411      	add	r1, r2
 800814a:	ea6f 0205 	mvn.w	r2, r5
 800814e:	ea4f 12d2 	mov.w	r2, r2, lsr #7
 8008152:	ea42 1295 	orr.w	r2, r2, r5, lsr #6
 8008156:	6aa5      	ldr	r5, [r4, #40]	; 0x28
 8008158:	f022 32fe 	bic.w	r2, r2, #4278124286	; 0xfefefefe
 800815c:	4411      	add	r1, r2
 800815e:	ea6f 0203 	mvn.w	r2, r3
 8008162:	ea4f 12d2 	mov.w	r2, r2, lsr #7
 8008166:	ea42 1293 	orr.w	r2, r2, r3, lsr #6
 800816a:	6ae3      	ldr	r3, [r4, #44]	; 0x2c
 800816c:	f022 32fe 	bic.w	r2, r2, #4278124286	; 0xfefefefe
 8008170:	4411      	add	r1, r2
 8008172:	ea6f 0206 	mvn.w	r2, r6
 8008176:	ea4f 12d2 	mov.w	r2, r2, lsr #7
 800817a:	ea42 1296 	orr.w	r2, r2, r6, lsr #6
 800817e:	6b26      	ldr	r6, [r4, #48]	; 0x30
 8008180:	f022 32fe 	bic.w	r2, r2, #4278124286	; 0xfefefefe
 8008184:	4411      	add	r1, r2
 8008186:	ea6f 0205 	mvn.w	r2, r5
 800818a:	ea4f 12d2 	mov.w	r2, r2, lsr #7
 800818e:	ea42 1295 	orr.w	r2, r2, r5, lsr #6
 8008192:	6b65      	ldr	r5, [r4, #52]	; 0x34
 8008194:	f022 32fe 	bic.w	r2, r2, #4278124286	; 0xfefefefe
 8008198:	f104 0440 	add.w	r4, r4, #64	; 0x40
 800819c:	4411      	add	r1, r2
 800819e:	ea6f 0203 	mvn.w	r2, r3
 80081a2:	ea4f 12d2 	mov.w	r2, r2, lsr #7
 80081a6:	ea42 1293 	orr.w	r2, r2, r3, lsr #6
 80081aa:	f022 32fe 	bic.w	r2, r2, #4278124286	; 0xfefefefe
 80081ae:	4411      	add	r1, r2
 80081b0:	ea6f 0206 	mvn.w	r2, r6
 80081b4:	ea4f 12d2 	mov.w	r2, r2, lsr #7
 80081b8:	ea42 1296 	orr.w	r2, r2, r6, lsr #6
 80081bc:	f022 32fe 	bic.w	r2, r2, #4278124286	; 0xfefefefe
 80081c0:	4411      	add	r1, r2
 80081c2:	ea6f 0205 	mvn.w	r2, r5
 80081c6:	ea4f 12d2 	mov.w	r2, r2, lsr #7
 80081ca:	ea42 1295 	orr.w	r2, r2, r5, lsr #6
 80081ce:	f022 32fe 	bic.w	r2, r2, #4278124286	; 0xfefefefe
 80081d2:	4411      	add	r1, r2
 80081d4:	ea6f 0208 	mvn.w	r2, r8
 80081d8:	ea4f 12d2 	mov.w	r2, r2, lsr #7
 80081dc:	ea42 1298 	orr.w	r2, r2, r8, lsr #6
 80081e0:	f022 32fe 	bic.w	r2, r2, #4278124286	; 0xfefefefe
 80081e4:	4411      	add	r1, r2
 80081e6:	ea6f 020e 	mvn.w	r2, lr
 80081ea:	ea4f 12d2 	mov.w	r2, r2, lsr #7
 80081ee:	ea42 129e 	orr.w	r2, r2, lr, lsr #6
 80081f2:	f022 32fe 	bic.w	r2, r2, #4278124286	; 0xfefefefe
 80081f6:	eb02 0801 	add.w	r8, r2, r1
 80081fa:	f47f af59 	bne.w	80080b0 <_ZN4core3str5count14do_count_chars17h272bd3abab41287cE+0x21a>
 80081fe:	9900      	ldr	r1, [sp, #0]
 8008200:	f8dd a004 	ldr.w	sl, [sp, #4]
 8008204:	f011 0e03 	ands.w	lr, r1, #3
 8008208:	f43f af1f 	beq.w	800804a <_ZN4core3str5count14do_count_chars17h272bd3abab41287cE+0x1b4>
 800820c:	e894 004c 	ldmia.w	r4, {r2, r3, r6}
 8008210:	f1be 0f01 	cmp.w	lr, #1
 8008214:	68e5      	ldr	r5, [r4, #12]
 8008216:	ea6f 0102 	mvn.w	r1, r2
 800821a:	ea4f 11d1 	mov.w	r1, r1, lsr #7
 800821e:	ea41 1192 	orr.w	r1, r1, r2, lsr #6
 8008222:	ea6f 0203 	mvn.w	r2, r3
 8008226:	ea4f 12d2 	mov.w	r2, r2, lsr #7
 800822a:	f021 31fe 	bic.w	r1, r1, #4278124286	; 0xfefefefe
 800822e:	ea42 1293 	orr.w	r2, r2, r3, lsr #6
 8008232:	4441      	add	r1, r8
 8008234:	f022 32fe 	bic.w	r2, r2, #4278124286	; 0xfefefefe
 8008238:	4411      	add	r1, r2
 800823a:	ea6f 0206 	mvn.w	r2, r6
 800823e:	ea4f 12d2 	mov.w	r2, r2, lsr #7
 8008242:	ea42 1296 	orr.w	r2, r2, r6, lsr #6
 8008246:	f022 32fe 	bic.w	r2, r2, #4278124286	; 0xfefefefe
 800824a:	4411      	add	r1, r2
 800824c:	ea6f 0205 	mvn.w	r2, r5
 8008250:	ea4f 12d2 	mov.w	r2, r2, lsr #7
 8008254:	ea42 1295 	orr.w	r2, r2, r5, lsr #6
 8008258:	f022 32fe 	bic.w	r2, r2, #4278124286	; 0xfefefefe
 800825c:	eb02 0801 	add.w	r8, r2, r1
 8008260:	f43f aef3 	beq.w	800804a <_ZN4core3str5count14do_count_chars17h272bd3abab41287cE+0x1b4>
 8008264:	f104 0510 	add.w	r5, r4, #16
 8008268:	f1be 0f02 	cmp.w	lr, #2
 800826c:	cd2e      	ldmia	r5, {r1, r2, r3, r5}
 800826e:	ea6f 0601 	mvn.w	r6, r1
 8008272:	ea4f 16d6 	mov.w	r6, r6, lsr #7
 8008276:	ea46 1191 	orr.w	r1, r6, r1, lsr #6
 800827a:	ea6f 0602 	mvn.w	r6, r2
 800827e:	f021 31fe 	bic.w	r1, r1, #4278124286	; 0xfefefefe
 8008282:	ea4f 16d6 	mov.w	r6, r6, lsr #7
 8008286:	ea46 1292 	orr.w	r2, r6, r2, lsr #6
 800828a:	4441      	add	r1, r8
 800828c:	f022 32fe 	bic.w	r2, r2, #4278124286	; 0xfefefefe
 8008290:	4411      	add	r1, r2
 8008292:	ea6f 0203 	mvn.w	r2, r3
 8008296:	ea4f 12d2 	mov.w	r2, r2, lsr #7
 800829a:	ea42 1293 	orr.w	r2, r2, r3, lsr #6
 800829e:	f022 32fe 	bic.w	r2, r2, #4278124286	; 0xfefefefe
 80082a2:	4411      	add	r1, r2
 80082a4:	ea6f 0205 	mvn.w	r2, r5
 80082a8:	ea4f 12d2 	mov.w	r2, r2, lsr #7
 80082ac:	ea42 1295 	orr.w	r2, r2, r5, lsr #6
 80082b0:	f022 32fe 	bic.w	r2, r2, #4278124286	; 0xfefefefe
 80082b4:	eb02 0801 	add.w	r8, r2, r1
 80082b8:	f43f aec7 	beq.w	800804a <_ZN4core3str5count14do_count_chars17h272bd3abab41287cE+0x1b4>
 80082bc:	f104 0620 	add.w	r6, r4, #32
 80082c0:	ce4e      	ldmia	r6, {r1, r2, r3, r6}
 80082c2:	43cd      	mvns	r5, r1
 80082c4:	09ed      	lsrs	r5, r5, #7
 80082c6:	ea45 1191 	orr.w	r1, r5, r1, lsr #6
 80082ca:	43d5      	mvns	r5, r2
 80082cc:	f021 31fe 	bic.w	r1, r1, #4278124286	; 0xfefefefe
 80082d0:	09ed      	lsrs	r5, r5, #7
 80082d2:	ea45 1292 	orr.w	r2, r5, r2, lsr #6
 80082d6:	4441      	add	r1, r8
 80082d8:	f022 32fe 	bic.w	r2, r2, #4278124286	; 0xfefefefe
 80082dc:	4411      	add	r1, r2
 80082de:	43da      	mvns	r2, r3
 80082e0:	09d2      	lsrs	r2, r2, #7
 80082e2:	ea42 1293 	orr.w	r2, r2, r3, lsr #6
 80082e6:	f022 32fe 	bic.w	r2, r2, #4278124286	; 0xfefefefe
 80082ea:	4411      	add	r1, r2
 80082ec:	43f2      	mvns	r2, r6
 80082ee:	09d2      	lsrs	r2, r2, #7
 80082f0:	ea42 1296 	orr.w	r2, r2, r6, lsr #6
 80082f4:	f022 32fe 	bic.w	r2, r2, #4278124286	; 0xfefefefe
 80082f8:	eb02 0801 	add.w	r8, r2, r1
 80082fc:	e6a5      	b.n	800804a <_ZN4core3str5count14do_count_chars17h272bd3abab41287cE+0x1b4>
 80082fe:	f00b 03fc 	and.w	r3, fp, #252	; 0xfc
 8008302:	2901      	cmp	r1, #1
 8008304:	f85a 2023 	ldr.w	r2, [sl, r3, lsl #2]
 8008308:	ea6f 0602 	mvn.w	r6, r2
 800830c:	ea4f 16d6 	mov.w	r6, r6, lsr #7
 8008310:	ea46 1292 	orr.w	r2, r6, r2, lsr #6
 8008314:	f022 32fe 	bic.w	r2, r2, #4278124286	; 0xfefefefe
 8008318:	d015      	beq.n	8008346 <_ZN4core3str5count14do_count_chars17h272bd3abab41287cE+0x4b0>
 800831a:	eb0a 0383 	add.w	r3, sl, r3, lsl #2
 800831e:	2902      	cmp	r1, #2
 8008320:	685e      	ldr	r6, [r3, #4]
 8008322:	ea6f 0506 	mvn.w	r5, r6
 8008326:	ea4f 15d5 	mov.w	r5, r5, lsr #7
 800832a:	ea45 1696 	orr.w	r6, r5, r6, lsr #6
 800832e:	f026 36fe 	bic.w	r6, r6, #4278124286	; 0xfefefefe
 8008332:	4432      	add	r2, r6
 8008334:	d007      	beq.n	8008346 <_ZN4core3str5count14do_count_chars17h272bd3abab41287cE+0x4b0>
 8008336:	6899      	ldr	r1, [r3, #8]
 8008338:	43cb      	mvns	r3, r1
 800833a:	09db      	lsrs	r3, r3, #7
 800833c:	ea43 1191 	orr.w	r1, r3, r1, lsr #6
 8008340:	f021 31fe 	bic.w	r1, r1, #4278124286	; 0xfefefefe
 8008344:	440a      	add	r2, r1
 8008346:	fa3f f182 	uxtb16	r1, r2
 800834a:	fa3f f292 	uxtb16	r2, r2, ror #8
 800834e:	4411      	add	r1, r2
 8008350:	eb01 4101 	add.w	r1, r1, r1, lsl #16
 8008354:	eb00 4011 	add.w	r0, r0, r1, lsr #16
 8008358:	b002      	add	sp, #8
 800835a:	e8bd 0f00 	ldmia.w	sp!, {r8, r9, sl, fp}
 800835e:	bdf0      	pop	{r4, r5, r6, r7, pc}

08008360 <_ZN4core3str16slice_error_fail17hd36a1e4d59eb3bd2E>:
 8008360:	b580      	push	{r7, lr}
 8008362:	466f      	mov	r7, sp
 8008364:	b082      	sub	sp, #8
 8008366:	f8d7 c008 	ldr.w	ip, [r7, #8]
 800836a:	f8cd c000 	str.w	ip, [sp]
 800836e:	f000 f800 	bl	8008372 <_ZN4core3str19slice_error_fail_rt17hd0b84079039de6d4E>

08008372 <_ZN4core3str19slice_error_fail_rt17hd0b84079039de6d4E>:
 8008372:	b580      	push	{r7, lr}
 8008374:	466f      	mov	r7, sp
 8008376:	b09c      	sub	sp, #112	; 0x70
 8008378:	468c      	mov	ip, r1
 800837a:	68b9      	ldr	r1, [r7, #8]
 800837c:	f5bc 7f80 	cmp.w	ip, #256	; 0x100
 8008380:	e9cd 2302 	strd	r2, r3, [sp, #8]
 8008384:	d90d      	bls.n	80083a2 <_ZN4core3str19slice_error_fail_rt17hd0b84079039de6d4E+0x30>
 8008386:	f990 5100 	ldrsb.w	r5, [r0, #256]	; 0x100
 800838a:	f115 0f41 	cmn.w	r5, #65	; 0x41
 800838e:	dd0d      	ble.n	80083ac <_ZN4core3str19slice_error_fail_rt17hd0b84079039de6d4E+0x3a>
 8008390:	2503      	movs	r5, #3
 8008392:	f105 0efd 	add.w	lr, r5, #253	; 0xfd
 8008396:	f910 400e 	ldrsb.w	r4, [r0, lr]
 800839a:	f114 0f41 	cmn.w	r4, #65	; 0x41
 800839e:	dd12      	ble.n	80083c6 <_ZN4core3str19slice_error_fail_rt17hd0b84079039de6d4E+0x54>
 80083a0:	e025      	b.n	80083ee <_ZN4core3str19slice_error_fail_rt17hd0b84079039de6d4E+0x7c>
 80083a2:	e9cd 0c04 	strd	r0, ip, [sp, #16]
 80083a6:	2500      	movs	r5, #0
 80083a8:	2401      	movs	r4, #1
 80083aa:	e027      	b.n	80083fc <_ZN4core3str19slice_error_fail_rt17hd0b84079039de6d4E+0x8a>
 80083ac:	f990 50ff 	ldrsb.w	r5, [r0, #255]	; 0xff
 80083b0:	f115 0f41 	cmn.w	r5, #65	; 0x41
 80083b4:	dd0d      	ble.n	80083d2 <_ZN4core3str19slice_error_fail_rt17hd0b84079039de6d4E+0x60>
 80083b6:	2502      	movs	r5, #2
 80083b8:	f105 0efd 	add.w	lr, r5, #253	; 0xfd
 80083bc:	f910 400e 	ldrsb.w	r4, [r0, lr]
 80083c0:	f114 0f41 	cmn.w	r4, #65	; 0x41
 80083c4:	dc13      	bgt.n	80083ee <_ZN4core3str19slice_error_fail_rt17hd0b84079039de6d4E+0x7c>
 80083c6:	9100      	str	r1, [sp, #0]
 80083c8:	4661      	mov	r1, ip
 80083ca:	2200      	movs	r2, #0
 80083cc:	4673      	mov	r3, lr
 80083ce:	f7ff ffc7 	bl	8008360 <_ZN4core3str16slice_error_fail17hd36a1e4d59eb3bd2E>
 80083d2:	f990 40fe 	ldrsb.w	r4, [r0, #254]	; 0xfe
 80083d6:	2500      	movs	r5, #0
 80083d8:	f114 0f41 	cmn.w	r4, #65	; 0x41
 80083dc:	bfc8      	it	gt
 80083de:	2501      	movgt	r5, #1
 80083e0:	f105 0efd 	add.w	lr, r5, #253	; 0xfd
 80083e4:	f910 400e 	ldrsb.w	r4, [r0, lr]
 80083e8:	f114 0f41 	cmn.w	r4, #65	; 0x41
 80083ec:	ddeb      	ble.n	80083c6 <_ZN4core3str19slice_error_fail_rt17hd0b84079039de6d4E+0x54>
 80083ee:	f24b 4427 	movw	r4, #46119	; 0xb427
 80083f2:	2505      	movs	r5, #5
 80083f4:	f6c0 0400 	movt	r4, #2048	; 0x800
 80083f8:	e9cd 0e04 	strd	r0, lr, [sp, #16]
 80083fc:	4562      	cmp	r2, ip
 80083fe:	e9cd 4506 	strd	r4, r5, [sp, #24]
 8008402:	bf98      	it	ls
 8008404:	4563      	cmpls	r3, ip
 8008406:	d923      	bls.n	8008450 <_ZN4core3str19slice_error_fail_rt17hd0b84079039de6d4E+0xde>
 8008408:	2000      	movs	r0, #0
 800840a:	4562      	cmp	r2, ip
 800840c:	bf88      	it	hi
 800840e:	4613      	movhi	r3, r2
 8008410:	f24b 42d4 	movw	r2, #46292	; 0xb4d4
 8008414:	9010      	str	r0, [sp, #64]	; 0x40
 8008416:	2003      	movs	r0, #3
 8008418:	f6c0 0200 	movt	r2, #2048	; 0x800
 800841c:	900d      	str	r0, [sp, #52]	; 0x34
 800841e:	900f      	str	r0, [sp, #60]	; 0x3c
 8008420:	a812      	add	r0, sp, #72	; 0x48
 8008422:	920c      	str	r2, [sp, #48]	; 0x30
 8008424:	aa06      	add	r2, sp, #24
 8008426:	900e      	str	r0, [sp, #56]	; 0x38
 8008428:	f648 504f 	movw	r0, #36175	; 0x8d4f
 800842c:	f6c0 0000 	movt	r0, #2048	; 0x800
 8008430:	930a      	str	r3, [sp, #40]	; 0x28
 8008432:	9017      	str	r0, [sp, #92]	; 0x5c
 8008434:	e9cd 0215 	strd	r0, r2, [sp, #84]	; 0x54
 8008438:	a804      	add	r0, sp, #16
 800843a:	9014      	str	r0, [sp, #80]	; 0x50
 800843c:	f648 4059 	movw	r0, #35929	; 0x8c59
 8008440:	f6c0 0000 	movt	r0, #2048	; 0x800
 8008444:	9013      	str	r0, [sp, #76]	; 0x4c
 8008446:	a80a      	add	r0, sp, #40	; 0x28
 8008448:	9012      	str	r0, [sp, #72]	; 0x48
 800844a:	a80c      	add	r0, sp, #48	; 0x30
 800844c:	f7fe ff4d 	bl	80072ea <_ZN4core9panicking9panic_fmt17h9bd7242b2f9f3cdaE>
 8008450:	429a      	cmp	r2, r3
 8008452:	d922      	bls.n	800849a <_ZN4core3str19slice_error_fail_rt17hd0b84079039de6d4E+0x128>
 8008454:	2000      	movs	r0, #0
 8008456:	f24b 423c 	movw	r2, #46140	; 0xb43c
 800845a:	9010      	str	r0, [sp, #64]	; 0x40
 800845c:	2004      	movs	r0, #4
 800845e:	f6c0 0200 	movt	r2, #2048	; 0x800
 8008462:	900d      	str	r0, [sp, #52]	; 0x34
 8008464:	900f      	str	r0, [sp, #60]	; 0x3c
 8008466:	a812      	add	r0, sp, #72	; 0x48
 8008468:	920c      	str	r2, [sp, #48]	; 0x30
 800846a:	aa06      	add	r2, sp, #24
 800846c:	900e      	str	r0, [sp, #56]	; 0x38
 800846e:	f648 504f 	movw	r0, #36175	; 0x8d4f
 8008472:	f6c0 0000 	movt	r0, #2048	; 0x800
 8008476:	e9cd 0217 	strd	r0, r2, [sp, #92]	; 0x5c
 800847a:	aa03      	add	r2, sp, #12
 800847c:	9019      	str	r0, [sp, #100]	; 0x64
 800847e:	a804      	add	r0, sp, #16
 8008480:	9016      	str	r0, [sp, #88]	; 0x58
 8008482:	f648 4059 	movw	r0, #35929	; 0x8c59
 8008486:	f6c0 0000 	movt	r0, #2048	; 0x800
 800848a:	9015      	str	r0, [sp, #84]	; 0x54
 800848c:	e9cd 0213 	strd	r0, r2, [sp, #76]	; 0x4c
 8008490:	a802      	add	r0, sp, #8
 8008492:	9012      	str	r0, [sp, #72]	; 0x48
 8008494:	a80c      	add	r0, sp, #48	; 0x30
 8008496:	f7fe ff28 	bl	80072ea <_ZN4core9panicking9panic_fmt17h9bd7242b2f9f3cdaE>
 800849a:	b14a      	cbz	r2, 80084b0 <_ZN4core3str19slice_error_fail_rt17hd0b84079039de6d4E+0x13e>
 800849c:	4562      	cmp	r2, ip
 800849e:	d207      	bcs.n	80084b0 <_ZN4core3str19slice_error_fail_rt17hd0b84079039de6d4E+0x13e>
 80084a0:	5682      	ldrsb	r2, [r0, r2]
 80084a2:	ab02      	add	r3, sp, #8
 80084a4:	ad03      	add	r5, sp, #12
 80084a6:	f112 0f41 	cmn.w	r2, #65	; 0x41
 80084aa:	bfd8      	it	le
 80084ac:	461d      	movle	r5, r3
 80084ae:	682b      	ldr	r3, [r5, #0]
 80084b0:	4563      	cmp	r3, ip
 80084b2:	4662      	mov	r2, ip
 80084b4:	9308      	str	r3, [sp, #32]
 80084b6:	d23f      	bcs.n	8008538 <_ZN4core3str19slice_error_fail_rt17hd0b84079039de6d4E+0x1c6>
 80084b8:	f1b3 0e03 	subs.w	lr, r3, #3
 80084bc:	f103 0401 	add.w	r4, r3, #1
 80084c0:	bf38      	it	cc
 80084c2:	f04f 0e00 	movcc.w	lr, #0
 80084c6:	4574      	cmp	r4, lr
 80084c8:	d207      	bcs.n	80084da <_ZN4core3str19slice_error_fail_rt17hd0b84079039de6d4E+0x168>
 80084ca:	f24b 42ec 	movw	r2, #46316	; 0xb4ec
 80084ce:	4670      	mov	r0, lr
 80084d0:	f6c0 0200 	movt	r2, #2048	; 0x800
 80084d4:	4621      	mov	r1, r4
 80084d6:	f7ff fbc4 	bl	8007c62 <_ZN4core5slice5index22slice_index_order_fail17hee7cce77c7ae4cb0E>
 80084da:	4574      	cmp	r4, lr
 80084dc:	d02a      	beq.n	8008534 <_ZN4core3str19slice_error_fail_rt17hd0b84079039de6d4E+0x1c2>
 80084de:	56c5      	ldrsb	r5, [r0, r3]
 80084e0:	eba4 020e 	sub.w	r2, r4, lr
 80084e4:	f115 0f41 	cmn.w	r5, #65	; 0x41
 80084e8:	dd01      	ble.n	80084ee <_ZN4core3str19slice_error_fail_rt17hd0b84079039de6d4E+0x17c>
 80084ea:	1e55      	subs	r5, r2, #1
 80084ec:	e022      	b.n	8008534 <_ZN4core3str19slice_error_fail_rt17hd0b84079039de6d4E+0x1c2>
 80084ee:	459e      	cmp	lr, r3
 80084f0:	d020      	beq.n	8008534 <_ZN4core3str19slice_error_fail_rt17hd0b84079039de6d4E+0x1c2>
 80084f2:	1903      	adds	r3, r0, r4
 80084f4:	461d      	mov	r5, r3
 80084f6:	f915 4d02 	ldrsb.w	r4, [r5, #-2]!
 80084fa:	f114 0f41 	cmn.w	r4, #65	; 0x41
 80084fe:	dd01      	ble.n	8008504 <_ZN4core3str19slice_error_fail_rt17hd0b84079039de6d4E+0x192>
 8008500:	1e95      	subs	r5, r2, #2
 8008502:	e017      	b.n	8008534 <_ZN4core3str19slice_error_fail_rt17hd0b84079039de6d4E+0x1c2>
 8008504:	eb00 040e 	add.w	r4, r0, lr
 8008508:	42ac      	cmp	r4, r5
 800850a:	d013      	beq.n	8008534 <_ZN4core3str19slice_error_fail_rt17hd0b84079039de6d4E+0x1c2>
 800850c:	461d      	mov	r5, r3
 800850e:	f915 6d03 	ldrsb.w	r6, [r5, #-3]!
 8008512:	f116 0f41 	cmn.w	r6, #65	; 0x41
 8008516:	dd01      	ble.n	800851c <_ZN4core3str19slice_error_fail_rt17hd0b84079039de6d4E+0x1aa>
 8008518:	1ed5      	subs	r5, r2, #3
 800851a:	e00b      	b.n	8008534 <_ZN4core3str19slice_error_fail_rt17hd0b84079039de6d4E+0x1c2>
 800851c:	42ac      	cmp	r4, r5
 800851e:	d009      	beq.n	8008534 <_ZN4core3str19slice_error_fail_rt17hd0b84079039de6d4E+0x1c2>
 8008520:	f913 5d04 	ldrsb.w	r5, [r3, #-4]!
 8008524:	f115 0f41 	cmn.w	r5, #65	; 0x41
 8008528:	dd01      	ble.n	800852e <_ZN4core3str19slice_error_fail_rt17hd0b84079039de6d4E+0x1bc>
 800852a:	1f15      	subs	r5, r2, #4
 800852c:	e002      	b.n	8008534 <_ZN4core3str19slice_error_fail_rt17hd0b84079039de6d4E+0x1c2>
 800852e:	429c      	cmp	r4, r3
 8008530:	bf18      	it	ne
 8008532:	1f55      	subne	r5, r2, #5
 8008534:	eb05 020e 	add.w	r2, r5, lr
 8008538:	b922      	cbnz	r2, 8008544 <_ZN4core3str19slice_error_fail_rt17hd0b84079039de6d4E+0x1d2>
 800853a:	4562      	cmp	r2, ip
 800853c:	d109      	bne.n	8008552 <_ZN4core3str19slice_error_fail_rt17hd0b84079039de6d4E+0x1e0>
 800853e:	4608      	mov	r0, r1
 8008540:	f7fe fead 	bl	800729e <_ZN4core6option13unwrap_failed17he8f5396282508463E>
 8008544:	4562      	cmp	r2, ip
 8008546:	d20e      	bcs.n	8008566 <_ZN4core3str19slice_error_fail_rt17hd0b84079039de6d4E+0x1f4>
 8008548:	5683      	ldrsb	r3, [r0, r2]
 800854a:	f113 0f41 	cmn.w	r3, #65	; 0x41
 800854e:	dcf4      	bgt.n	800853a <_ZN4core3str19slice_error_fail_rt17hd0b84079039de6d4E+0x1c8>
 8008550:	e00a      	b.n	8008568 <_ZN4core3str19slice_error_fail_rt17hd0b84079039de6d4E+0x1f6>
 8008552:	4410      	add	r0, r2
 8008554:	f990 3000 	ldrsb.w	r3, [r0]
 8008558:	f1b3 3fff 	cmp.w	r3, #4294967295
 800855c:	b2dd      	uxtb	r5, r3
 800855e:	dd08      	ble.n	8008572 <_ZN4core3str19slice_error_fail_rt17hd0b84079039de6d4E+0x200>
 8008560:	9509      	str	r5, [sp, #36]	; 0x24
 8008562:	2301      	movs	r3, #1
 8008564:	e034      	b.n	80085d0 <_ZN4core3str19slice_error_fail_rt17hd0b84079039de6d4E+0x25e>
 8008566:	d0e8      	beq.n	800853a <_ZN4core3str19slice_error_fail_rt17hd0b84079039de6d4E+0x1c8>
 8008568:	9100      	str	r1, [sp, #0]
 800856a:	4661      	mov	r1, ip
 800856c:	4663      	mov	r3, ip
 800856e:	f7ff fef7 	bl	8008360 <_ZN4core3str16slice_error_fail17hd36a1e4d59eb3bd2E>
 8008572:	7846      	ldrb	r6, [r0, #1]
 8008574:	f005 031f 	and.w	r3, r5, #31
 8008578:	2ddf      	cmp	r5, #223	; 0xdf
 800857a:	f006 043f 	and.w	r4, r6, #63	; 0x3f
 800857e:	d913      	bls.n	80085a8 <_ZN4core3str19slice_error_fail_rt17hd0b84079039de6d4E+0x236>
 8008580:	7886      	ldrb	r6, [r0, #2]
 8008582:	2df0      	cmp	r5, #240	; 0xf0
 8008584:	f006 063f 	and.w	r6, r6, #63	; 0x3f
 8008588:	ea46 1484 	orr.w	r4, r6, r4, lsl #6
 800858c:	d30f      	bcc.n	80085ae <_ZN4core3str19slice_error_fail_rt17hd0b84079039de6d4E+0x23c>
 800858e:	78c0      	ldrb	r0, [r0, #3]
 8008590:	f003 0307 	and.w	r3, r3, #7
 8008594:	f000 003f 	and.w	r0, r0, #63	; 0x3f
 8008598:	ea40 1084 	orr.w	r0, r0, r4, lsl #6
 800859c:	ea40 4083 	orr.w	r0, r0, r3, lsl #18
 80085a0:	f5b0 1f88 	cmp.w	r0, #1114112	; 0x110000
 80085a4:	d0cb      	beq.n	800853e <_ZN4core3str19slice_error_fail_rt17hd0b84079039de6d4E+0x1cc>
 80085a6:	e004      	b.n	80085b2 <_ZN4core3str19slice_error_fail_rt17hd0b84079039de6d4E+0x240>
 80085a8:	ea44 1083 	orr.w	r0, r4, r3, lsl #6
 80085ac:	e001      	b.n	80085b2 <_ZN4core3str19slice_error_fail_rt17hd0b84079039de6d4E+0x240>
 80085ae:	ea44 3003 	orr.w	r0, r4, r3, lsl #12
 80085b2:	2880      	cmp	r0, #128	; 0x80
 80085b4:	9009      	str	r0, [sp, #36]	; 0x24
 80085b6:	d201      	bcs.n	80085bc <_ZN4core3str19slice_error_fail_rt17hd0b84079039de6d4E+0x24a>
 80085b8:	2301      	movs	r3, #1
 80085ba:	e009      	b.n	80085d0 <_ZN4core3str19slice_error_fail_rt17hd0b84079039de6d4E+0x25e>
 80085bc:	f5b0 6f00 	cmp.w	r0, #2048	; 0x800
 80085c0:	d201      	bcs.n	80085c6 <_ZN4core3str19slice_error_fail_rt17hd0b84079039de6d4E+0x254>
 80085c2:	2302      	movs	r3, #2
 80085c4:	e004      	b.n	80085d0 <_ZN4core3str19slice_error_fail_rt17hd0b84079039de6d4E+0x25e>
 80085c6:	2304      	movs	r3, #4
 80085c8:	f5b0 3f80 	cmp.w	r0, #65536	; 0x10000
 80085cc:	bf38      	it	cc
 80085ce:	2303      	movcc	r3, #3
 80085d0:	1898      	adds	r0, r3, r2
 80085d2:	e9cd 200a 	strd	r2, r0, [sp, #40]	; 0x28
 80085d6:	2000      	movs	r0, #0
 80085d8:	f24b 4294 	movw	r2, #46228	; 0xb494
 80085dc:	9010      	str	r0, [sp, #64]	; 0x40
 80085de:	2005      	movs	r0, #5
 80085e0:	f6c0 0200 	movt	r2, #2048	; 0x800
 80085e4:	900d      	str	r0, [sp, #52]	; 0x34
 80085e6:	900f      	str	r0, [sp, #60]	; 0x3c
 80085e8:	a812      	add	r0, sp, #72	; 0x48
 80085ea:	920c      	str	r2, [sp, #48]	; 0x30
 80085ec:	aa06      	add	r2, sp, #24
 80085ee:	900e      	str	r0, [sp, #56]	; 0x38
 80085f0:	f648 504f 	movw	r0, #36175	; 0x8d4f
 80085f4:	f6c0 0000 	movt	r0, #2048	; 0x800
 80085f8:	901b      	str	r0, [sp, #108]	; 0x6c
 80085fa:	e9cd 0219 	strd	r0, r2, [sp, #100]	; 0x64
 80085fe:	a804      	add	r0, sp, #16
 8008600:	9018      	str	r0, [sp, #96]	; 0x60
 8008602:	f646 70bf 	movw	r0, #28607	; 0x6fbf
 8008606:	f6c0 0000 	movt	r0, #2048	; 0x800
 800860a:	9017      	str	r0, [sp, #92]	; 0x5c
 800860c:	a80a      	add	r0, sp, #40	; 0x28
 800860e:	9016      	str	r0, [sp, #88]	; 0x58
 8008610:	f647 30f3 	movw	r0, #31731	; 0x7bf3
 8008614:	f6c0 0000 	movt	r0, #2048	; 0x800
 8008618:	9015      	str	r0, [sp, #84]	; 0x54
 800861a:	a809      	add	r0, sp, #36	; 0x24
 800861c:	9014      	str	r0, [sp, #80]	; 0x50
 800861e:	f648 4059 	movw	r0, #35929	; 0x8c59
 8008622:	f6c0 0000 	movt	r0, #2048	; 0x800
 8008626:	9013      	str	r0, [sp, #76]	; 0x4c
 8008628:	a808      	add	r0, sp, #32
 800862a:	9012      	str	r0, [sp, #72]	; 0x48
 800862c:	a80c      	add	r0, sp, #48	; 0x30
 800862e:	f7fe fe5c 	bl	80072ea <_ZN4core9panicking9panic_fmt17h9bd7242b2f9f3cdaE>

08008632 <_ZN4core7unicode9printable5check17hda56621a1ea2c079E>:
 8008632:	b5f0      	push	{r4, r5, r6, r7, lr}
 8008634:	af03      	add	r7, sp, #12
 8008636:	e92d 0f00 	stmdb	sp!, {r8, r9, sl, fp}
 800863a:	b081      	sub	sp, #4
 800863c:	fa1f fa80 	uxth.w	sl, r0
 8008640:	b3aa      	cbz	r2, 80086ae <_ZN4core7unicode9printable5check17hda56621a1ea2c079E+0x7c>
 8008642:	f8d7 c008 	ldr.w	ip, [r7, #8]
 8008646:	eb01 0842 	add.w	r8, r1, r2, lsl #1
 800864a:	ea4f 291a 	mov.w	r9, sl, lsr #8
 800864e:	fa5f fb80 	uxtb.w	fp, r0
 8008652:	f04f 0e00 	mov.w	lr, #0
 8008656:	f811 4b02 	ldrb.w	r4, [r1], #2
 800865a:	4670      	mov	r0, lr
 800865c:	f811 2c01 	ldrb.w	r2, [r1, #-1]
 8008660:	454c      	cmp	r4, r9
 8008662:	4496      	add	lr, r2
 8008664:	d120      	bne.n	80086a8 <_ZN4core7unicode9printable5check17hda56621a1ea2c079E+0x76>
 8008666:	4586      	cmp	lr, r0
 8008668:	d359      	bcc.n	800871e <_ZN4core7unicode9printable5check17hda56621a1ea2c079E+0xec>
 800866a:	45e6      	cmp	lr, ip
 800866c:	d85e      	bhi.n	800872c <_ZN4core7unicode9printable5check17hda56621a1ea2c079E+0xfa>
 800866e:	181c      	adds	r4, r3, r0
 8008670:	18a0      	adds	r0, r4, r2
 8008672:	b1d2      	cbz	r2, 80086aa <_ZN4core7unicode9printable5check17hda56621a1ea2c079E+0x78>
 8008674:	4625      	mov	r5, r4
 8008676:	f815 6b01 	ldrb.w	r6, [r5], #1
 800867a:	455e      	cmp	r6, fp
 800867c:	d03b      	beq.n	80086f6 <_ZN4core7unicode9printable5check17hda56621a1ea2c079E+0xc4>
 800867e:	4285      	cmp	r5, r0
 8008680:	d013      	beq.n	80086aa <_ZN4core7unicode9printable5check17hda56621a1ea2c079E+0x78>
 8008682:	7865      	ldrb	r5, [r4, #1]
 8008684:	455d      	cmp	r5, fp
 8008686:	d036      	beq.n	80086f6 <_ZN4core7unicode9printable5check17hda56621a1ea2c079E+0xc4>
 8008688:	1ca5      	adds	r5, r4, #2
 800868a:	4285      	cmp	r5, r0
 800868c:	d00d      	beq.n	80086aa <_ZN4core7unicode9printable5check17hda56621a1ea2c079E+0x78>
 800868e:	78a5      	ldrb	r5, [r4, #2]
 8008690:	455d      	cmp	r5, fp
 8008692:	d030      	beq.n	80086f6 <_ZN4core7unicode9printable5check17hda56621a1ea2c079E+0xc4>
 8008694:	1ce5      	adds	r5, r4, #3
 8008696:	4285      	cmp	r5, r0
 8008698:	d007      	beq.n	80086aa <_ZN4core7unicode9printable5check17hda56621a1ea2c079E+0x78>
 800869a:	1d25      	adds	r5, r4, #4
 800869c:	78e4      	ldrb	r4, [r4, #3]
 800869e:	3a04      	subs	r2, #4
 80086a0:	455c      	cmp	r4, fp
 80086a2:	462c      	mov	r4, r5
 80086a4:	d1e5      	bne.n	8008672 <_ZN4core7unicode9printable5check17hda56621a1ea2c079E+0x40>
 80086a6:	e026      	b.n	80086f6 <_ZN4core7unicode9printable5check17hda56621a1ea2c079E+0xc4>
 80086a8:	d801      	bhi.n	80086ae <_ZN4core7unicode9printable5check17hda56621a1ea2c079E+0x7c>
 80086aa:	4541      	cmp	r1, r8
 80086ac:	d1d3      	bne.n	8008656 <_ZN4core7unicode9printable5check17hda56621a1ea2c079E+0x24>
 80086ae:	6938      	ldr	r0, [r7, #16]
 80086b0:	b340      	cbz	r0, 8008704 <_ZN4core7unicode9printable5check17hda56621a1ea2c079E+0xd2>
 80086b2:	68fe      	ldr	r6, [r7, #12]
 80086b4:	1831      	adds	r1, r6, r0
 80086b6:	2001      	movs	r0, #1
 80086b8:	e007      	b.n	80086ca <_ZN4core7unicode9printable5check17hda56621a1ea2c079E+0x98>
 80086ba:	4616      	mov	r6, r2
 80086bc:	ebba 0a03 	subs.w	sl, sl, r3
 80086c0:	d413      	bmi.n	80086ea <_ZN4core7unicode9printable5check17hda56621a1ea2c079E+0xb8>
 80086c2:	f080 0001 	eor.w	r0, r0, #1
 80086c6:	428e      	cmp	r6, r1
 80086c8:	d00f      	beq.n	80086ea <_ZN4core7unicode9printable5check17hda56621a1ea2c079E+0xb8>
 80086ca:	4632      	mov	r2, r6
 80086cc:	f912 3b01 	ldrsb.w	r3, [r2], #1
 80086d0:	2b00      	cmp	r3, #0
 80086d2:	d5f2      	bpl.n	80086ba <_ZN4core7unicode9printable5check17hda56621a1ea2c079E+0x88>
 80086d4:	428a      	cmp	r2, r1
 80086d6:	d01c      	beq.n	8008712 <_ZN4core7unicode9printable5check17hda56621a1ea2c079E+0xe0>
 80086d8:	7872      	ldrb	r2, [r6, #1]
 80086da:	f003 037f 	and.w	r3, r3, #127	; 0x7f
 80086de:	3602      	adds	r6, #2
 80086e0:	ea42 2303 	orr.w	r3, r2, r3, lsl #8
 80086e4:	ebba 0a03 	subs.w	sl, sl, r3
 80086e8:	d5eb      	bpl.n	80086c2 <_ZN4core7unicode9printable5check17hda56621a1ea2c079E+0x90>
 80086ea:	f000 0001 	and.w	r0, r0, #1
 80086ee:	b001      	add	sp, #4
 80086f0:	e8bd 0f00 	ldmia.w	sp!, {r8, r9, sl, fp}
 80086f4:	bdf0      	pop	{r4, r5, r6, r7, pc}
 80086f6:	2000      	movs	r0, #0
 80086f8:	f000 0001 	and.w	r0, r0, #1
 80086fc:	b001      	add	sp, #4
 80086fe:	e8bd 0f00 	ldmia.w	sp!, {r8, r9, sl, fp}
 8008702:	bdf0      	pop	{r4, r5, r6, r7, pc}
 8008704:	2001      	movs	r0, #1
 8008706:	f000 0001 	and.w	r0, r0, #1
 800870a:	b001      	add	sp, #4
 800870c:	e8bd 0f00 	ldmia.w	sp!, {r8, r9, sl, fp}
 8008710:	bdf0      	pop	{r4, r5, r6, r7, pc}
 8008712:	f24b 501c 	movw	r0, #46364	; 0xb51c
 8008716:	f6c0 0000 	movt	r0, #2048	; 0x800
 800871a:	f7fe fdc0 	bl	800729e <_ZN4core6option13unwrap_failed17he8f5396282508463E>
 800871e:	f24b 522c 	movw	r2, #46380	; 0xb52c
 8008722:	4671      	mov	r1, lr
 8008724:	f6c0 0200 	movt	r2, #2048	; 0x800
 8008728:	f7ff fa9b 	bl	8007c62 <_ZN4core5slice5index22slice_index_order_fail17hee7cce77c7ae4cb0E>
 800872c:	f24b 522c 	movw	r2, #46380	; 0xb52c
 8008730:	4670      	mov	r0, lr
 8008732:	f6c0 0200 	movt	r2, #2048	; 0x800
 8008736:	4661      	mov	r1, ip
 8008738:	f7ff fa8f 	bl	8007c5a <_ZN4core5slice5index24slice_end_index_len_fail17h1c9907114f72d946E>

0800873c <_ZN4core7unicode9printable12is_printable17h54060d40a7d0836cE>:
 800873c:	b580      	push	{r7, lr}
 800873e:	466f      	mov	r7, sp
 8008740:	b084      	sub	sp, #16
 8008742:	2820      	cmp	r0, #32
 8008744:	d202      	bcs.n	800874c <_ZN4core7unicode9printable12is_printable17h54060d40a7d0836cE+0x10>
 8008746:	2000      	movs	r0, #0
 8008748:	b004      	add	sp, #16
 800874a:	bd80      	pop	{r7, pc}
 800874c:	287f      	cmp	r0, #127	; 0x7f
 800874e:	d202      	bcs.n	8008756 <_ZN4core7unicode9printable12is_printable17h54060d40a7d0836cE+0x1a>
 8008750:	2001      	movs	r0, #1
 8008752:	b004      	add	sp, #16
 8008754:	bd80      	pop	{r7, pc}
 8008756:	f5b0 3f80 	cmp.w	r0, #65536	; 0x10000
 800875a:	d217      	bcs.n	800878c <_ZN4core7unicode9printable12is_printable17h54060d40a7d0836cE+0x50>
 800875c:	f64b 12bc 	movw	r2, #47548	; 0xb9bc
 8008760:	f240 1129 	movw	r1, #297	; 0x129
 8008764:	f6c0 0200 	movt	r2, #2048	; 0x800
 8008768:	f44f 7391 	mov.w	r3, #290	; 0x122
 800876c:	e9cd 3200 	strd	r3, r2, [sp]
 8008770:	f64b 039a 	movw	r3, #47258	; 0xb89a
 8008774:	9102      	str	r1, [sp, #8]
 8008776:	f64b 014a 	movw	r1, #47178	; 0xb84a
 800877a:	f6c0 0100 	movt	r1, #2048	; 0x800
 800877e:	f6c0 0300 	movt	r3, #2048	; 0x800
 8008782:	2228      	movs	r2, #40	; 0x28
 8008784:	f7ff ff55 	bl	8008632 <_ZN4core7unicode9printable5check17hda56621a1ea2c079E>
 8008788:	b004      	add	sp, #16
 800878a:	bd80      	pop	{r7, pc}
 800878c:	f5b0 3f00 	cmp.w	r0, #131072	; 0x20000
 8008790:	d216      	bcs.n	80087c0 <_ZN4core7unicode9printable12is_printable17h54060d40a7d0836cE+0x84>
 8008792:	f24b 6264 	movw	r2, #46692	; 0xb664
 8008796:	f44f 71f3 	mov.w	r1, #486	; 0x1e6
 800879a:	f6c0 0200 	movt	r2, #2048	; 0x800
 800879e:	23d0      	movs	r3, #208	; 0xd0
 80087a0:	e9cd 3200 	strd	r3, r2, [sp]
 80087a4:	f24b 5394 	movw	r3, #46484	; 0xb594
 80087a8:	9102      	str	r1, [sp, #8]
 80087aa:	f24b 513c 	movw	r1, #46396	; 0xb53c
 80087ae:	f6c0 0100 	movt	r1, #2048	; 0x800
 80087b2:	f6c0 0300 	movt	r3, #2048	; 0x800
 80087b6:	222c      	movs	r2, #44	; 0x2c
 80087b8:	f7ff ff3b 	bl	8008632 <_ZN4core7unicode9printable5check17hda56621a1ea2c079E>
 80087bc:	b004      	add	sp, #16
 80087be:	bd80      	pop	{r7, pc}
 80087c0:	f64f 71e0 	movw	r1, #65504	; 0xffe0
 80087c4:	f24a 63e0 	movw	r3, #42720	; 0xa6e0
 80087c8:	f2c0 011f 	movt	r1, #31
 80087cc:	ea00 0201 	and.w	r2, r0, r1
 80087d0:	311e      	adds	r1, #30
 80087d2:	f2c0 0302 	movt	r3, #2
 80087d6:	1ad2      	subs	r2, r2, r3
 80087d8:	f64b 031e 	movw	r3, #47134	; 0xb81e
 80087dc:	ea01 0100 	and.w	r1, r1, r0
 80087e0:	bf18      	it	ne
 80087e2:	2201      	movne	r2, #1
 80087e4:	f2c0 0302 	movt	r3, #2
 80087e8:	1ac9      	subs	r1, r1, r3
 80087ea:	bf18      	it	ne
 80087ec:	2101      	movne	r1, #1
 80087ee:	400a      	ands	r2, r1
 80087f0:	f5a0 3120 	sub.w	r1, r0, #163840	; 0x28000
 80087f4:	f04f 0c00 	mov.w	ip, #0
 80087f8:	f5a1 535d 	sub.w	r3, r1, #14144	; 0x3740
 80087fc:	f113 0f06 	cmn.w	r3, #6
 8008800:	f04f 0300 	mov.w	r3, #0
 8008804:	bf38      	it	cc
 8008806:	2301      	movcc	r3, #1
 8008808:	401a      	ands	r2, r3
 800880a:	f5a0 3338 	sub.w	r3, r0, #188416	; 0x2e000
 800880e:	f5a3 633f 	sub.w	r3, r3, #3056	; 0xbf0
 8008812:	f503 51ea 	add.w	r1, r3, #7488	; 0x1d40
 8008816:	f111 0f0e 	cmn.w	r1, #14
 800881a:	f04f 0100 	mov.w	r1, #0
 800881e:	bf38      	it	cc
 8008820:	2101      	movcc	r1, #1
 8008822:	f113 0f0f 	cmn.w	r3, #15
 8008826:	ea01 0102 	and.w	r1, r1, r2
 800882a:	f04f 0200 	mov.w	r2, #0
 800882e:	bf38      	it	cc
 8008830:	2201      	movcc	r2, #1
 8008832:	f24f 635e 	movw	r3, #63070	; 0xf65e
 8008836:	4011      	ands	r1, r2
 8008838:	f5a0 323e 	sub.w	r2, r0, #194560	; 0x2f800
 800883c:	f6cf 73ff 	movt	r3, #65535	; 0xffff
 8008840:	429a      	cmp	r2, r3
 8008842:	f04f 0200 	mov.w	r2, #0
 8008846:	f64f 231e 	movw	r3, #64030	; 0xfa1e
 800884a:	bf38      	it	cc
 800884c:	2201      	movcc	r2, #1
 800884e:	4011      	ands	r1, r2
 8008850:	f5a0 3240 	sub.w	r2, r0, #196608	; 0x30000
 8008854:	f6cf 73ff 	movt	r3, #65535	; 0xffff
 8008858:	429a      	cmp	r2, r3
 800885a:	f04f 0200 	mov.w	r2, #0
 800885e:	bf38      	it	cc
 8008860:	2201      	movcc	r2, #1
 8008862:	4011      	ands	r1, r2
 8008864:	f5a0 3244 	sub.w	r2, r0, #200704	; 0x31000
 8008868:	f242 23b0 	movw	r3, #8880	; 0x22b0
 800886c:	f5a2 7254 	sub.w	r2, r2, #848	; 0x350
 8008870:	f6cf 73f5 	movt	r3, #65525	; 0xfff5
 8008874:	f112 0f05 	cmn.w	r2, #5
 8008878:	f04f 0200 	mov.w	r2, #0
 800887c:	bf38      	it	cc
 800887e:	2201      	movcc	r2, #1
 8008880:	4011      	ands	r1, r2
 8008882:	f100 22ff 	add.w	r2, r0, #4278255360	; 0xff00ff00
 8008886:	f502 0271 	add.w	r2, r2, #15794176	; 0xf10000
 800888a:	429a      	cmp	r2, r3
 800888c:	f04f 0200 	mov.w	r2, #0
 8008890:	bf38      	it	cc
 8008892:	2201      	movcc	r2, #1
 8008894:	4011      	ands	r1, r2
 8008896:	f240 12f0 	movw	r2, #496	; 0x1f0
 800889a:	f2c0 020e 	movt	r2, #14
 800889e:	4290      	cmp	r0, r2
 80088a0:	bf38      	it	cc
 80088a2:	f04f 0c01 	movcc.w	ip, #1
 80088a6:	ea01 000c 	and.w	r0, r1, ip
 80088aa:	b004      	add	sp, #16
 80088ac:	bd80      	pop	{r7, pc}

080088ae <_ZN4core5alloc6layout6Layout19is_size_align_valid17h1d357ed88d42d87eE>:
 80088ae:	1e4b      	subs	r3, r1, #1
 80088b0:	4684      	mov	ip, r0
 80088b2:	ea81 0203 	eor.w	r2, r1, r3
 80088b6:	2000      	movs	r0, #0
 80088b8:	429a      	cmp	r2, r3
 80088ba:	bf98      	it	ls
 80088bc:	4770      	bxls	lr
 80088be:	f1c1 4100 	rsb	r1, r1, #2147483648	; 0x80000000
 80088c2:	4561      	cmp	r1, ip
 80088c4:	bf28      	it	cs
 80088c6:	2001      	movcs	r0, #1
 80088c8:	4770      	bx	lr

080088ca <_ZN4core9panicking11panic_const24panic_const_add_overflow17h8e8a2d960805aa64E>:
 80088ca:	b580      	push	{r7, lr}
 80088cc:	466f      	mov	r7, sp
 80088ce:	b086      	sub	sp, #24
 80088d0:	4601      	mov	r1, r0
 80088d2:	2000      	movs	r0, #0
 80088d4:	2201      	movs	r2, #1
 80088d6:	9004      	str	r0, [sp, #16]
 80088d8:	9201      	str	r2, [sp, #4]
 80088da:	f24b 0268 	movw	r2, #45160	; 0xb068
 80088de:	9003      	str	r0, [sp, #12]
 80088e0:	2004      	movs	r0, #4
 80088e2:	f6c0 0200 	movt	r2, #2048	; 0x800
 80088e6:	9002      	str	r0, [sp, #8]
 80088e8:	4668      	mov	r0, sp
 80088ea:	9200      	str	r2, [sp, #0]
 80088ec:	f7fe fcfd 	bl	80072ea <_ZN4core9panicking9panic_fmt17h9bd7242b2f9f3cdaE>

080088f0 <_ZN4core9panicking11panic_const24panic_const_sub_overflow17h655aa7502feebde5E>:
 80088f0:	b580      	push	{r7, lr}
 80088f2:	466f      	mov	r7, sp
 80088f4:	b086      	sub	sp, #24
 80088f6:	4601      	mov	r1, r0
 80088f8:	2000      	movs	r0, #0
 80088fa:	2201      	movs	r2, #1
 80088fc:	9004      	str	r0, [sp, #16]
 80088fe:	9201      	str	r2, [sp, #4]
 8008900:	f24b 0294 	movw	r2, #45204	; 0xb094
 8008904:	9003      	str	r0, [sp, #12]
 8008906:	2004      	movs	r0, #4
 8008908:	f6c0 0200 	movt	r2, #2048	; 0x800
 800890c:	9002      	str	r0, [sp, #8]
 800890e:	4668      	mov	r0, sp
 8008910:	9200      	str	r2, [sp, #0]
 8008912:	f7fe fcea 	bl	80072ea <_ZN4core9panicking9panic_fmt17h9bd7242b2f9f3cdaE>

08008916 <_ZN4core9panicking11panic_const24panic_const_mul_overflow17hd3d29f8f054ee19bE>:
 8008916:	b580      	push	{r7, lr}
 8008918:	466f      	mov	r7, sp
 800891a:	b086      	sub	sp, #24
 800891c:	4601      	mov	r1, r0
 800891e:	2000      	movs	r0, #0
 8008920:	2201      	movs	r2, #1
 8008922:	9004      	str	r0, [sp, #16]
 8008924:	9201      	str	r2, [sp, #4]
 8008926:	f24b 02c0 	movw	r2, #45248	; 0xb0c0
 800892a:	9003      	str	r0, [sp, #12]
 800892c:	2004      	movs	r0, #4
 800892e:	f6c0 0200 	movt	r2, #2048	; 0x800
 8008932:	9002      	str	r0, [sp, #8]
 8008934:	4668      	mov	r0, sp
 8008936:	9200      	str	r2, [sp, #0]
 8008938:	f7fe fcd7 	bl	80072ea <_ZN4core9panicking9panic_fmt17h9bd7242b2f9f3cdaE>

0800893c <_ZN4core9panicking11panic_const24panic_const_shl_overflow17h7d1dfb79ee113705E>:
 800893c:	b580      	push	{r7, lr}
 800893e:	466f      	mov	r7, sp
 8008940:	b086      	sub	sp, #24
 8008942:	4601      	mov	r1, r0
 8008944:	2000      	movs	r0, #0
 8008946:	2201      	movs	r2, #1
 8008948:	9004      	str	r0, [sp, #16]
 800894a:	9201      	str	r2, [sp, #4]
 800894c:	f24b 02ec 	movw	r2, #45292	; 0xb0ec
 8008950:	9003      	str	r0, [sp, #12]
 8008952:	2004      	movs	r0, #4
 8008954:	f6c0 0200 	movt	r2, #2048	; 0x800
 8008958:	9002      	str	r0, [sp, #8]
 800895a:	4668      	mov	r0, sp
 800895c:	9200      	str	r2, [sp, #0]
 800895e:	f7fe fcc4 	bl	80072ea <_ZN4core9panicking9panic_fmt17h9bd7242b2f9f3cdaE>

08008962 <_ZN4core9panicking11panic_const23panic_const_div_by_zero17h8da6a53e5835dd9aE>:
 8008962:	b580      	push	{r7, lr}
 8008964:	466f      	mov	r7, sp
 8008966:	b086      	sub	sp, #24
 8008968:	4601      	mov	r1, r0
 800896a:	2000      	movs	r0, #0
 800896c:	2201      	movs	r2, #1
 800896e:	9004      	str	r0, [sp, #16]
 8008970:	9201      	str	r2, [sp, #4]
 8008972:	f64b 3224 	movw	r2, #47908	; 0xbb24
 8008976:	9003      	str	r0, [sp, #12]
 8008978:	2004      	movs	r0, #4
 800897a:	f6c0 0200 	movt	r2, #2048	; 0x800
 800897e:	9002      	str	r0, [sp, #8]
 8008980:	4668      	mov	r0, sp
 8008982:	9200      	str	r2, [sp, #0]
 8008984:	f7fe fcb1 	bl	80072ea <_ZN4core9panicking9panic_fmt17h9bd7242b2f9f3cdaE>

08008988 <_ZN4core3fmt3num53_$LT$impl$u20$core..fmt..LowerHex$u20$for$u20$i32$GT$3fmt17h3b6b449e87843ae8E>:
 8008988:	b5b0      	push	{r4, r5, r7, lr}
 800898a:	af02      	add	r7, sp, #8
 800898c:	b0a2      	sub	sp, #136	; 0x88
 800898e:	468c      	mov	ip, r1
 8008990:	6801      	ldr	r1, [r0, #0]
 8008992:	f10d 0e08 	add.w	lr, sp, #8
 8008996:	2380      	movs	r3, #128	; 0x80
 8008998:	2081      	movs	r0, #129	; 0x81
 800899a:	f001 020f 	and.w	r2, r1, #15
 800899e:	f102 0457 	add.w	r4, r2, #87	; 0x57
 80089a2:	2a0a      	cmp	r2, #10
 80089a4:	bf38      	it	cc
 80089a6:	f102 0430 	addcc.w	r4, r2, #48	; 0x30
 80089aa:	eb0e 0200 	add.w	r2, lr, r0
 80089ae:	f802 4c02 	strb.w	r4, [r2, #-2]
 80089b2:	090c      	lsrs	r4, r1, #4
 80089b4:	d029      	beq.n	8008a0a <_ZN4core3fmt3num53_$LT$impl$u20$core..fmt..LowerHex$u20$for$u20$i32$GT$3fmt17h3b6b449e87843ae8E+0x82>
 80089b6:	f004 040f 	and.w	r4, r4, #15
 80089ba:	f104 0557 	add.w	r5, r4, #87	; 0x57
 80089be:	2c0a      	cmp	r4, #10
 80089c0:	bf38      	it	cc
 80089c2:	f104 0530 	addcc.w	r5, r4, #48	; 0x30
 80089c6:	0a0c      	lsrs	r4, r1, #8
 80089c8:	f802 5c03 	strb.w	r5, [r2, #-3]
 80089cc:	d01f      	beq.n	8008a0e <_ZN4core3fmt3num53_$LT$impl$u20$core..fmt..LowerHex$u20$for$u20$i32$GT$3fmt17h3b6b449e87843ae8E+0x86>
 80089ce:	f004 040f 	and.w	r4, r4, #15
 80089d2:	3804      	subs	r0, #4
 80089d4:	f104 0557 	add.w	r5, r4, #87	; 0x57
 80089d8:	2c0a      	cmp	r4, #10
 80089da:	bf38      	it	cc
 80089dc:	f104 0530 	addcc.w	r5, r4, #48	; 0x30
 80089e0:	0b0c      	lsrs	r4, r1, #12
 80089e2:	f802 5c04 	strb.w	r5, [r2, #-4]
 80089e6:	d015      	beq.n	8008a14 <_ZN4core3fmt3num53_$LT$impl$u20$core..fmt..LowerHex$u20$for$u20$i32$GT$3fmt17h3b6b449e87843ae8E+0x8c>
 80089e8:	f004 040f 	and.w	r4, r4, #15
 80089ec:	3b04      	subs	r3, #4
 80089ee:	f104 0557 	add.w	r5, r4, #87	; 0x57
 80089f2:	2c0a      	cmp	r4, #10
 80089f4:	bf38      	it	cc
 80089f6:	f104 0530 	addcc.w	r5, r4, #48	; 0x30
 80089fa:	0c09      	lsrs	r1, r1, #16
 80089fc:	f802 5c05 	strb.w	r5, [r2, #-5]
 8008a00:	d1cb      	bne.n	800899a <_ZN4core3fmt3num53_$LT$impl$u20$core..fmt..LowerHex$u20$for$u20$i32$GT$3fmt17h3b6b449e87843ae8E+0x12>
 8008a02:	1e41      	subs	r1, r0, #1
 8008a04:	4603      	mov	r3, r0
 8008a06:	4608      	mov	r0, r1
 8008a08:	e005      	b.n	8008a16 <_ZN4core3fmt3num53_$LT$impl$u20$core..fmt..LowerHex$u20$for$u20$i32$GT$3fmt17h3b6b449e87843ae8E+0x8e>
 8008a0a:	3802      	subs	r0, #2
 8008a0c:	e003      	b.n	8008a16 <_ZN4core3fmt3num53_$LT$impl$u20$core..fmt..LowerHex$u20$for$u20$i32$GT$3fmt17h3b6b449e87843ae8E+0x8e>
 8008a0e:	3b01      	subs	r3, #1
 8008a10:	3803      	subs	r0, #3
 8008a12:	e000      	b.n	8008a16 <_ZN4core3fmt3num53_$LT$impl$u20$core..fmt..LowerHex$u20$for$u20$i32$GT$3fmt17h3b6b449e87843ae8E+0x8e>
 8008a14:	3b02      	subs	r3, #2
 8008a16:	f1c3 0181 	rsb	r1, r3, #129	; 0x81
 8008a1a:	f24b 2214 	movw	r2, #45588	; 0xb214
 8008a1e:	4470      	add	r0, lr
 8008a20:	f6c0 0200 	movt	r2, #2048	; 0x800
 8008a24:	e9cd 0100 	strd	r0, r1, [sp]
 8008a28:	4660      	mov	r0, ip
 8008a2a:	2101      	movs	r1, #1
 8008a2c:	2302      	movs	r3, #2
 8008a2e:	f7fe fd19 	bl	8007464 <_ZN4core3fmt9Formatter12pad_integral17hbec66179281cb47dE>
 8008a32:	b022      	add	sp, #136	; 0x88
 8008a34:	bdb0      	pop	{r4, r5, r7, pc}

08008a36 <_ZN4core3fmt3num50_$LT$impl$u20$core..fmt..Debug$u20$for$u20$u32$GT$3fmt17h390a893846b95b3fE>:
 8008a36:	b5f0      	push	{r4, r5, r6, r7, lr}
 8008a38:	af03      	add	r7, sp, #12
 8008a3a:	e92d 0f00 	stmdb	sp!, {r8, r9, sl, fp}
 8008a3e:	b0a3      	sub	sp, #140	; 0x8c
 8008a40:	468c      	mov	ip, r1
 8008a42:	69c9      	ldr	r1, [r1, #28]
 8008a44:	06ca      	lsls	r2, r1, #27
 8008a46:	d44d      	bmi.n	8008ae4 <_ZN4core3fmt3num50_$LT$impl$u20$core..fmt..Debug$u20$for$u20$u32$GT$3fmt17h390a893846b95b3fE+0xae>
 8008a48:	0689      	lsls	r1, r1, #26
 8008a4a:	f100 8085 	bmi.w	8008b58 <_ZN4core3fmt3num50_$LT$impl$u20$core..fmt..Debug$u20$for$u20$u32$GT$3fmt17h390a893846b95b3fE+0x122>
 8008a4e:	6804      	ldr	r4, [r0, #0]
 8008a50:	f24b 2016 	movw	r0, #45590	; 0xb216
 8008a54:	f242 7e10 	movw	lr, #10000	; 0x2710
 8008a58:	f6c0 0000 	movt	r0, #2048	; 0x800
 8008a5c:	4574      	cmp	r4, lr
 8008a5e:	f0c0 80d0 	bcc.w	8008c02 <_ZN4core3fmt3num50_$LT$impl$u20$core..fmt..Debug$u20$for$u20$u32$GT$3fmt17h390a893846b95b3fE+0x1cc>
 8008a62:	f241 7859 	movw	r8, #5977	; 0x1759
 8008a66:	f24e 02ff 	movw	r2, #57599	; 0xe0ff
 8008a6a:	f10d 0b0c 	add.w	fp, sp, #12
 8008a6e:	2300      	movs	r3, #0
 8008a70:	f2cd 18b7 	movt	r8, #53687	; 0xd1b7
 8008a74:	f241 497b 	movw	r9, #5243	; 0x147b
 8008a78:	f04f 0a64 	mov.w	sl, #100	; 0x64
 8008a7c:	f2c0 52f5 	movt	r2, #1525	; 0x5f5
 8008a80:	f8cd c008 	str.w	ip, [sp, #8]
 8008a84:	fba4 1508 	umull	r1, r5, r4, r8
 8008a88:	eb0b 0c03 	add.w	ip, fp, r3
 8008a8c:	3b04      	subs	r3, #4
 8008a8e:	4294      	cmp	r4, r2
 8008a90:	ea4f 3155 	mov.w	r1, r5, lsr #13
 8008a94:	fb01 451e 	mls	r5, r1, lr, r4
 8008a98:	460c      	mov	r4, r1
 8008a9a:	b2ae      	uxth	r6, r5
 8008a9c:	ea4f 0696 	mov.w	r6, r6, lsr #2
 8008aa0:	fb06 f609 	mul.w	r6, r6, r9
 8008aa4:	ea4f 4656 	mov.w	r6, r6, lsr #17
 8008aa8:	fb06 551a 	mls	r5, r6, sl, r5
 8008aac:	f830 6016 	ldrh.w	r6, [r0, r6, lsl #1]
 8008ab0:	f8ac 6006 	strh.w	r6, [ip, #6]
 8008ab4:	b2ad      	uxth	r5, r5
 8008ab6:	f830 5015 	ldrh.w	r5, [r0, r5, lsl #1]
 8008aba:	f8ac 5008 	strh.w	r5, [ip, #8]
 8008abe:	d8e1      	bhi.n	8008a84 <_ZN4core3fmt3num50_$LT$impl$u20$core..fmt..Debug$u20$for$u20$u32$GT$3fmt17h390a893846b95b3fE+0x4e>
 8008ac0:	f8dd c008 	ldr.w	ip, [sp, #8]
 8008ac4:	f103 020a 	add.w	r2, r3, #10
 8008ac8:	460c      	mov	r4, r1
 8008aca:	2c63      	cmp	r4, #99	; 0x63
 8008acc:	f200 809d 	bhi.w	8008c0a <_ZN4core3fmt3num50_$LT$impl$u20$core..fmt..Debug$u20$for$u20$u32$GT$3fmt17h390a893846b95b3fE+0x1d4>
 8008ad0:	4621      	mov	r1, r4
 8008ad2:	290a      	cmp	r1, #10
 8008ad4:	f0c0 80ab 	bcc.w	8008c2e <_ZN4core3fmt3num50_$LT$impl$u20$core..fmt..Debug$u20$for$u20$u32$GT$3fmt17h390a893846b95b3fE+0x1f8>
 8008ad8:	f830 0011 	ldrh.w	r0, [r0, r1, lsl #1]
 8008adc:	3a02      	subs	r2, #2
 8008ade:	a903      	add	r1, sp, #12
 8008ae0:	5288      	strh	r0, [r1, r2]
 8008ae2:	e0a9      	b.n	8008c38 <_ZN4core3fmt3num50_$LT$impl$u20$core..fmt..Debug$u20$for$u20$u32$GT$3fmt17h390a893846b95b3fE+0x202>
 8008ae4:	6801      	ldr	r1, [r0, #0]
 8008ae6:	f10d 0e0c 	add.w	lr, sp, #12
 8008aea:	2380      	movs	r3, #128	; 0x80
 8008aec:	2081      	movs	r0, #129	; 0x81
 8008aee:	f001 020f 	and.w	r2, r1, #15
 8008af2:	f102 0457 	add.w	r4, r2, #87	; 0x57
 8008af6:	2a0a      	cmp	r2, #10
 8008af8:	bf38      	it	cc
 8008afa:	f102 0430 	addcc.w	r4, r2, #48	; 0x30
 8008afe:	eb0e 0200 	add.w	r2, lr, r0
 8008b02:	f802 4c02 	strb.w	r4, [r2, #-2]
 8008b06:	090c      	lsrs	r4, r1, #4
 8008b08:	d063      	beq.n	8008bd2 <_ZN4core3fmt3num50_$LT$impl$u20$core..fmt..Debug$u20$for$u20$u32$GT$3fmt17h390a893846b95b3fE+0x19c>
 8008b0a:	f004 040f 	and.w	r4, r4, #15
 8008b0e:	f104 0557 	add.w	r5, r4, #87	; 0x57
 8008b12:	2c0a      	cmp	r4, #10
 8008b14:	bf38      	it	cc
 8008b16:	f104 0530 	addcc.w	r5, r4, #48	; 0x30
 8008b1a:	0a0c      	lsrs	r4, r1, #8
 8008b1c:	f802 5c03 	strb.w	r5, [r2, #-3]
 8008b20:	d059      	beq.n	8008bd6 <_ZN4core3fmt3num50_$LT$impl$u20$core..fmt..Debug$u20$for$u20$u32$GT$3fmt17h390a893846b95b3fE+0x1a0>
 8008b22:	f004 040f 	and.w	r4, r4, #15
 8008b26:	3804      	subs	r0, #4
 8008b28:	f104 0557 	add.w	r5, r4, #87	; 0x57
 8008b2c:	2c0a      	cmp	r4, #10
 8008b2e:	bf38      	it	cc
 8008b30:	f104 0530 	addcc.w	r5, r4, #48	; 0x30
 8008b34:	0b0c      	lsrs	r4, r1, #12
 8008b36:	f802 5c04 	strb.w	r5, [r2, #-4]
 8008b3a:	d04f      	beq.n	8008bdc <_ZN4core3fmt3num50_$LT$impl$u20$core..fmt..Debug$u20$for$u20$u32$GT$3fmt17h390a893846b95b3fE+0x1a6>
 8008b3c:	f004 040f 	and.w	r4, r4, #15
 8008b40:	3b04      	subs	r3, #4
 8008b42:	f104 0557 	add.w	r5, r4, #87	; 0x57
 8008b46:	2c0a      	cmp	r4, #10
 8008b48:	bf38      	it	cc
 8008b4a:	f104 0530 	addcc.w	r5, r4, #48	; 0x30
 8008b4e:	0c09      	lsrs	r1, r1, #16
 8008b50:	f802 5c05 	strb.w	r5, [r2, #-5]
 8008b54:	d1cb      	bne.n	8008aee <_ZN4core3fmt3num50_$LT$impl$u20$core..fmt..Debug$u20$for$u20$u32$GT$3fmt17h390a893846b95b3fE+0xb8>
 8008b56:	e038      	b.n	8008bca <_ZN4core3fmt3num50_$LT$impl$u20$core..fmt..Debug$u20$for$u20$u32$GT$3fmt17h390a893846b95b3fE+0x194>
 8008b58:	6801      	ldr	r1, [r0, #0]
 8008b5a:	f10d 0e0c 	add.w	lr, sp, #12
 8008b5e:	2380      	movs	r3, #128	; 0x80
 8008b60:	2081      	movs	r0, #129	; 0x81
 8008b62:	f001 020f 	and.w	r2, r1, #15
 8008b66:	f102 0637 	add.w	r6, r2, #55	; 0x37
 8008b6a:	2a0a      	cmp	r2, #10
 8008b6c:	bf38      	it	cc
 8008b6e:	f102 0630 	addcc.w	r6, r2, #48	; 0x30
 8008b72:	eb0e 0200 	add.w	r2, lr, r0
 8008b76:	090c      	lsrs	r4, r1, #4
 8008b78:	f802 6c02 	strb.w	r6, [r2, #-2]
 8008b7c:	d029      	beq.n	8008bd2 <_ZN4core3fmt3num50_$LT$impl$u20$core..fmt..Debug$u20$for$u20$u32$GT$3fmt17h390a893846b95b3fE+0x19c>
 8008b7e:	f004 060f 	and.w	r6, r4, #15
 8008b82:	f106 0537 	add.w	r5, r6, #55	; 0x37
 8008b86:	2e0a      	cmp	r6, #10
 8008b88:	bf38      	it	cc
 8008b8a:	f106 0530 	addcc.w	r5, r6, #48	; 0x30
 8008b8e:	0a0c      	lsrs	r4, r1, #8
 8008b90:	f802 5c03 	strb.w	r5, [r2, #-3]
 8008b94:	d01f      	beq.n	8008bd6 <_ZN4core3fmt3num50_$LT$impl$u20$core..fmt..Debug$u20$for$u20$u32$GT$3fmt17h390a893846b95b3fE+0x1a0>
 8008b96:	f004 060f 	and.w	r6, r4, #15
 8008b9a:	3804      	subs	r0, #4
 8008b9c:	f106 0537 	add.w	r5, r6, #55	; 0x37
 8008ba0:	2e0a      	cmp	r6, #10
 8008ba2:	bf38      	it	cc
 8008ba4:	f106 0530 	addcc.w	r5, r6, #48	; 0x30
 8008ba8:	0b0c      	lsrs	r4, r1, #12
 8008baa:	f802 5c04 	strb.w	r5, [r2, #-4]
 8008bae:	d015      	beq.n	8008bdc <_ZN4core3fmt3num50_$LT$impl$u20$core..fmt..Debug$u20$for$u20$u32$GT$3fmt17h390a893846b95b3fE+0x1a6>
 8008bb0:	f004 060f 	and.w	r6, r4, #15
 8008bb4:	3b04      	subs	r3, #4
 8008bb6:	f106 0537 	add.w	r5, r6, #55	; 0x37
 8008bba:	2e0a      	cmp	r6, #10
 8008bbc:	bf38      	it	cc
 8008bbe:	f106 0530 	addcc.w	r5, r6, #48	; 0x30
 8008bc2:	0c09      	lsrs	r1, r1, #16
 8008bc4:	f802 5c05 	strb.w	r5, [r2, #-5]
 8008bc8:	d1cb      	bne.n	8008b62 <_ZN4core3fmt3num50_$LT$impl$u20$core..fmt..Debug$u20$for$u20$u32$GT$3fmt17h390a893846b95b3fE+0x12c>
 8008bca:	1e41      	subs	r1, r0, #1
 8008bcc:	4603      	mov	r3, r0
 8008bce:	4608      	mov	r0, r1
 8008bd0:	e005      	b.n	8008bde <_ZN4core3fmt3num50_$LT$impl$u20$core..fmt..Debug$u20$for$u20$u32$GT$3fmt17h390a893846b95b3fE+0x1a8>
 8008bd2:	3802      	subs	r0, #2
 8008bd4:	e003      	b.n	8008bde <_ZN4core3fmt3num50_$LT$impl$u20$core..fmt..Debug$u20$for$u20$u32$GT$3fmt17h390a893846b95b3fE+0x1a8>
 8008bd6:	3b01      	subs	r3, #1
 8008bd8:	3803      	subs	r0, #3
 8008bda:	e000      	b.n	8008bde <_ZN4core3fmt3num50_$LT$impl$u20$core..fmt..Debug$u20$for$u20$u32$GT$3fmt17h390a893846b95b3fE+0x1a8>
 8008bdc:	3b02      	subs	r3, #2
 8008bde:	f1c3 0181 	rsb	r1, r3, #129	; 0x81
 8008be2:	f24b 2214 	movw	r2, #45588	; 0xb214
 8008be6:	4470      	add	r0, lr
 8008be8:	f6c0 0200 	movt	r2, #2048	; 0x800
 8008bec:	e9cd 0100 	strd	r0, r1, [sp]
 8008bf0:	4660      	mov	r0, ip
 8008bf2:	2101      	movs	r1, #1
 8008bf4:	2302      	movs	r3, #2
 8008bf6:	f7fe fc35 	bl	8007464 <_ZN4core3fmt9Formatter12pad_integral17hbec66179281cb47dE>
 8008bfa:	b023      	add	sp, #140	; 0x8c
 8008bfc:	e8bd 0f00 	ldmia.w	sp!, {r8, r9, sl, fp}
 8008c00:	bdf0      	pop	{r4, r5, r6, r7, pc}
 8008c02:	220a      	movs	r2, #10
 8008c04:	2c63      	cmp	r4, #99	; 0x63
 8008c06:	f67f af63 	bls.w	8008ad0 <_ZN4core3fmt3num50_$LT$impl$u20$core..fmt..Debug$u20$for$u20$u32$GT$3fmt17h390a893846b95b3fE+0x9a>
 8008c0a:	b2a1      	uxth	r1, r4
 8008c0c:	f241 437b 	movw	r3, #5243	; 0x147b
 8008c10:	0889      	lsrs	r1, r1, #2
 8008c12:	3a02      	subs	r2, #2
 8008c14:	4359      	muls	r1, r3
 8008c16:	2364      	movs	r3, #100	; 0x64
 8008c18:	ae03      	add	r6, sp, #12
 8008c1a:	0c49      	lsrs	r1, r1, #17
 8008c1c:	fb01 4313 	mls	r3, r1, r3, r4
 8008c20:	b29b      	uxth	r3, r3
 8008c22:	f830 3013 	ldrh.w	r3, [r0, r3, lsl #1]
 8008c26:	52b3      	strh	r3, [r6, r2]
 8008c28:	290a      	cmp	r1, #10
 8008c2a:	f4bf af55 	bcs.w	8008ad8 <_ZN4core3fmt3num50_$LT$impl$u20$core..fmt..Debug$u20$for$u20$u32$GT$3fmt17h390a893846b95b3fE+0xa2>
 8008c2e:	3a01      	subs	r2, #1
 8008c30:	f041 0030 	orr.w	r0, r1, #48	; 0x30
 8008c34:	a903      	add	r1, sp, #12
 8008c36:	5488      	strb	r0, [r1, r2]
 8008c38:	a903      	add	r1, sp, #12
 8008c3a:	f1c2 000a 	rsb	r0, r2, #10
 8008c3e:	4411      	add	r1, r2
 8008c40:	2201      	movs	r2, #1
 8008c42:	e9cd 1000 	strd	r1, r0, [sp]
 8008c46:	4660      	mov	r0, ip
 8008c48:	2101      	movs	r1, #1
 8008c4a:	2300      	movs	r3, #0
 8008c4c:	f7fe fc0a 	bl	8007464 <_ZN4core3fmt9Formatter12pad_integral17hbec66179281cb47dE>
 8008c50:	b023      	add	sp, #140	; 0x8c
 8008c52:	e8bd 0f00 	ldmia.w	sp!, {r8, r9, sl, fp}
 8008c56:	bdf0      	pop	{r4, r5, r6, r7, pc}

08008c58 <_ZN4core3fmt3num3imp52_$LT$impl$u20$core..fmt..Display$u20$for$u20$u32$GT$3fmt17h6c0276df117cfb31E>:
 8008c58:	b5f0      	push	{r4, r5, r6, r7, lr}
 8008c5a:	af03      	add	r7, sp, #12
 8008c5c:	e92d 0f00 	stmdb	sp!, {r8, r9, sl, fp}
 8008c60:	b087      	sub	sp, #28
 8008c62:	6804      	ldr	r4, [r0, #0]
 8008c64:	f24b 2016 	movw	r0, #45590	; 0xb216
 8008c68:	f242 7e10 	movw	lr, #10000	; 0x2710
 8008c6c:	460d      	mov	r5, r1
 8008c6e:	4574      	cmp	r4, lr
 8008c70:	f6c0 0000 	movt	r0, #2048	; 0x800
 8008c74:	d33d      	bcc.n	8008cf2 <_ZN4core3fmt3num3imp52_$LT$impl$u20$core..fmt..Display$u20$for$u20$u32$GT$3fmt17h6c0276df117cfb31E+0x9a>
 8008c76:	f241 7859 	movw	r8, #5977	; 0x1759
 8008c7a:	f24e 03ff 	movw	r3, #57599	; 0xe0ff
 8008c7e:	f1a7 0b26 	sub.w	fp, r7, #38	; 0x26
 8008c82:	2100      	movs	r1, #0
 8008c84:	f2cd 18b7 	movt	r8, #53687	; 0xd1b7
 8008c88:	f241 497b 	movw	r9, #5243	; 0x147b
 8008c8c:	f04f 0a64 	mov.w	sl, #100	; 0x64
 8008c90:	f2c0 53f5 	movt	r3, #1525	; 0x5f5
 8008c94:	9503      	str	r5, [sp, #12]
 8008c96:	fba4 2508 	umull	r2, r5, r4, r8
 8008c9a:	eb0b 0c01 	add.w	ip, fp, r1
 8008c9e:	3904      	subs	r1, #4
 8008ca0:	429c      	cmp	r4, r3
 8008ca2:	ea4f 3255 	mov.w	r2, r5, lsr #13
 8008ca6:	fb02 451e 	mls	r5, r2, lr, r4
 8008caa:	4614      	mov	r4, r2
 8008cac:	b2ae      	uxth	r6, r5
 8008cae:	ea4f 0696 	mov.w	r6, r6, lsr #2
 8008cb2:	fb06 f609 	mul.w	r6, r6, r9
 8008cb6:	ea4f 4656 	mov.w	r6, r6, lsr #17
 8008cba:	fb06 551a 	mls	r5, r6, sl, r5
 8008cbe:	f830 6016 	ldrh.w	r6, [r0, r6, lsl #1]
 8008cc2:	f8ac 6006 	strh.w	r6, [ip, #6]
 8008cc6:	b2ad      	uxth	r5, r5
 8008cc8:	f830 5015 	ldrh.w	r5, [r0, r5, lsl #1]
 8008ccc:	f8ac 5008 	strh.w	r5, [ip, #8]
 8008cd0:	d8e1      	bhi.n	8008c96 <_ZN4core3fmt3num3imp52_$LT$impl$u20$core..fmt..Display$u20$for$u20$u32$GT$3fmt17h6c0276df117cfb31E+0x3e>
 8008cd2:	9d03      	ldr	r5, [sp, #12]
 8008cd4:	f101 030a 	add.w	r3, r1, #10
 8008cd8:	4614      	mov	r4, r2
 8008cda:	2c63      	cmp	r4, #99	; 0x63
 8008cdc:	d80c      	bhi.n	8008cf8 <_ZN4core3fmt3num3imp52_$LT$impl$u20$core..fmt..Display$u20$for$u20$u32$GT$3fmt17h6c0276df117cfb31E+0xa0>
 8008cde:	4621      	mov	r1, r4
 8008ce0:	290a      	cmp	r1, #10
 8008ce2:	d31b      	bcc.n	8008d1c <_ZN4core3fmt3num3imp52_$LT$impl$u20$core..fmt..Display$u20$for$u20$u32$GT$3fmt17h6c0276df117cfb31E+0xc4>
 8008ce4:	f830 0011 	ldrh.w	r0, [r0, r1, lsl #1]
 8008ce8:	1e9a      	subs	r2, r3, #2
 8008cea:	f1a7 0126 	sub.w	r1, r7, #38	; 0x26
 8008cee:	5288      	strh	r0, [r1, r2]
 8008cf0:	e01a      	b.n	8008d28 <_ZN4core3fmt3num3imp52_$LT$impl$u20$core..fmt..Display$u20$for$u20$u32$GT$3fmt17h6c0276df117cfb31E+0xd0>
 8008cf2:	230a      	movs	r3, #10
 8008cf4:	2c63      	cmp	r4, #99	; 0x63
 8008cf6:	d9f2      	bls.n	8008cde <_ZN4core3fmt3num3imp52_$LT$impl$u20$core..fmt..Display$u20$for$u20$u32$GT$3fmt17h6c0276df117cfb31E+0x86>
 8008cf8:	b2a1      	uxth	r1, r4
 8008cfa:	f241 427b 	movw	r2, #5243	; 0x147b
 8008cfe:	0889      	lsrs	r1, r1, #2
 8008d00:	3b02      	subs	r3, #2
 8008d02:	4351      	muls	r1, r2
 8008d04:	2264      	movs	r2, #100	; 0x64
 8008d06:	f1a7 0626 	sub.w	r6, r7, #38	; 0x26
 8008d0a:	0c49      	lsrs	r1, r1, #17
 8008d0c:	fb01 4212 	mls	r2, r1, r2, r4
 8008d10:	b292      	uxth	r2, r2
 8008d12:	f830 2012 	ldrh.w	r2, [r0, r2, lsl #1]
 8008d16:	52f2      	strh	r2, [r6, r3]
 8008d18:	290a      	cmp	r1, #10
 8008d1a:	d2e3      	bcs.n	8008ce4 <_ZN4core3fmt3num3imp52_$LT$impl$u20$core..fmt..Display$u20$for$u20$u32$GT$3fmt17h6c0276df117cfb31E+0x8c>
 8008d1c:	f041 0030 	orr.w	r0, r1, #48	; 0x30
 8008d20:	1e5a      	subs	r2, r3, #1
 8008d22:	f1a7 0126 	sub.w	r1, r7, #38	; 0x26
 8008d26:	5488      	strb	r0, [r1, r2]
 8008d28:	f1c2 000a 	rsb	r0, r2, #10
 8008d2c:	4411      	add	r1, r2
 8008d2e:	2201      	movs	r2, #1
 8008d30:	2300      	movs	r3, #0
 8008d32:	e9cd 1000 	strd	r1, r0, [sp]
 8008d36:	4628      	mov	r0, r5
 8008d38:	2101      	movs	r1, #1
 8008d3a:	f7fe fb93 	bl	8007464 <_ZN4core3fmt9Formatter12pad_integral17hbec66179281cb47dE>
 8008d3e:	b007      	add	sp, #28
 8008d40:	e8bd 0f00 	ldmia.w	sp!, {r8, r9, sl, fp}
 8008d44:	bdf0      	pop	{r4, r5, r6, r7, pc}

08008d46 <_ZN42_$LT$$RF$T$u20$as$u20$core..fmt..Debug$GT$3fmt17hbe6c04ecd9e7425fE>:
 8008d46:	e9d0 0200 	ldrd	r0, r2, [r0]
 8008d4a:	68d2      	ldr	r2, [r2, #12]
 8008d4c:	4710      	bx	r2

08008d4e <_ZN44_$LT$$RF$T$u20$as$u20$core..fmt..Display$GT$3fmt17hdab14d95c39de264E>:
 8008d4e:	460b      	mov	r3, r1
 8008d50:	e9d0 1200 	ldrd	r1, r2, [r0]
 8008d54:	4618      	mov	r0, r3
 8008d56:	f7fe bd09 	b.w	800776c <_ZN4core3fmt9Formatter3pad17h3b34e20a8eeb34cfE>

08008d5a <_ZN4core5slice5index24slice_end_index_len_fail8do_panic7runtime17h84526c2728adb6b9E>:
 8008d5a:	b580      	push	{r7, lr}
 8008d5c:	466f      	mov	r7, sp
 8008d5e:	b08c      	sub	sp, #48	; 0x30
 8008d60:	e9cd 0100 	strd	r0, r1, [sp]
 8008d64:	2000      	movs	r0, #0
 8008d66:	f64b 3150 	movw	r1, #47952	; 0xbb50
 8008d6a:	9006      	str	r0, [sp, #24]
 8008d6c:	2002      	movs	r0, #2
 8008d6e:	f6c0 0100 	movt	r1, #2048	; 0x800
 8008d72:	9003      	str	r0, [sp, #12]
 8008d74:	9005      	str	r0, [sp, #20]
 8008d76:	a808      	add	r0, sp, #32
 8008d78:	9102      	str	r1, [sp, #8]
 8008d7a:	a901      	add	r1, sp, #4
 8008d7c:	9004      	str	r0, [sp, #16]
 8008d7e:	f648 4059 	movw	r0, #35929	; 0x8c59
 8008d82:	f6c0 0000 	movt	r0, #2048	; 0x800
 8008d86:	e9cd 0109 	strd	r0, r1, [sp, #36]	; 0x24
 8008d8a:	4611      	mov	r1, r2
 8008d8c:	900b      	str	r0, [sp, #44]	; 0x2c
 8008d8e:	4668      	mov	r0, sp
 8008d90:	9008      	str	r0, [sp, #32]
 8008d92:	a802      	add	r0, sp, #8
 8008d94:	f7fe faa9 	bl	80072ea <_ZN4core9panicking9panic_fmt17h9bd7242b2f9f3cdaE>

08008d98 <_ZN4core5slice5index22slice_index_order_fail8do_panic7runtime17h26834a34a2700333E>:
 8008d98:	b580      	push	{r7, lr}
 8008d9a:	466f      	mov	r7, sp
 8008d9c:	b08c      	sub	sp, #48	; 0x30
 8008d9e:	e9cd 0100 	strd	r0, r1, [sp]
 8008da2:	2000      	movs	r0, #0
 8008da4:	f64b 3184 	movw	r1, #48004	; 0xbb84
 8008da8:	9006      	str	r0, [sp, #24]
 8008daa:	2002      	movs	r0, #2
 8008dac:	f6c0 0100 	movt	r1, #2048	; 0x800
 8008db0:	9003      	str	r0, [sp, #12]
 8008db2:	9005      	str	r0, [sp, #20]
 8008db4:	a808      	add	r0, sp, #32
 8008db6:	9102      	str	r1, [sp, #8]
 8008db8:	a901      	add	r1, sp, #4
 8008dba:	9004      	str	r0, [sp, #16]
 8008dbc:	f648 4059 	movw	r0, #35929	; 0x8c59
 8008dc0:	f6c0 0000 	movt	r0, #2048	; 0x800
 8008dc4:	e9cd 0109 	strd	r0, r1, [sp, #36]	; 0x24
 8008dc8:	4611      	mov	r1, r2
 8008dca:	900b      	str	r0, [sp, #44]	; 0x2c
 8008dcc:	4668      	mov	r0, sp
 8008dce:	9008      	str	r0, [sp, #32]
 8008dd0:	a802      	add	r0, sp, #8
 8008dd2:	f7fe fa8a 	bl	80072ea <_ZN4core9panicking9panic_fmt17h9bd7242b2f9f3cdaE>

08008dd6 <_ZN4core7unicode12unicode_data15grapheme_extend11lookup_slow17he273a959c6f8bb98E>:
 8008dd6:	b5d0      	push	{r4, r6, r7, lr}
 8008dd8:	af02      	add	r7, sp, #8
 8008dda:	f641 022f 	movw	r2, #6191	; 0x182f
 8008dde:	2111      	movs	r1, #17
 8008de0:	f64b 3c94 	movw	ip, #48020	; 0xbb94
 8008de4:	f2c0 0201 	movt	r2, #1
 8008de8:	4290      	cmp	r0, r2
 8008dea:	bf38      	it	cc
 8008dec:	2100      	movcc	r1, #0
 8008dee:	f101 0308 	add.w	r3, r1, #8
 8008df2:	f6c0 0c00 	movt	ip, #2048	; 0x800
 8008df6:	f85c 2023 	ldr.w	r2, [ip, r3, lsl #2]
 8008dfa:	02d2      	lsls	r2, r2, #11
 8008dfc:	ebb2 2fc0 	cmp.w	r2, r0, lsl #11
 8008e00:	bf98      	it	ls
 8008e02:	4619      	movls	r1, r3
 8008e04:	1d0a      	adds	r2, r1, #4
 8008e06:	f85c 3022 	ldr.w	r3, [ip, r2, lsl #2]
 8008e0a:	02db      	lsls	r3, r3, #11
 8008e0c:	ebb3 2fc0 	cmp.w	r3, r0, lsl #11
 8008e10:	bf98      	it	ls
 8008e12:	4611      	movls	r1, r2
 8008e14:	1c8a      	adds	r2, r1, #2
 8008e16:	f85c 3022 	ldr.w	r3, [ip, r2, lsl #2]
 8008e1a:	02db      	lsls	r3, r3, #11
 8008e1c:	ebb3 2fc0 	cmp.w	r3, r0, lsl #11
 8008e20:	bf98      	it	ls
 8008e22:	4611      	movls	r1, r2
 8008e24:	1c4a      	adds	r2, r1, #1
 8008e26:	f85c 3022 	ldr.w	r3, [ip, r2, lsl #2]
 8008e2a:	02db      	lsls	r3, r3, #11
 8008e2c:	ebb3 2fc0 	cmp.w	r3, r0, lsl #11
 8008e30:	bf98      	it	ls
 8008e32:	4611      	movls	r1, r2
 8008e34:	1c4a      	adds	r2, r1, #1
 8008e36:	f85c 3022 	ldr.w	r3, [ip, r2, lsl #2]
 8008e3a:	02db      	lsls	r3, r3, #11
 8008e3c:	ebb3 2fc0 	cmp.w	r3, r0, lsl #11
 8008e40:	bf98      	it	ls
 8008e42:	4611      	movls	r1, r2
 8008e44:	f85c 2021 	ldr.w	r2, [ip, r1, lsl #2]
 8008e48:	2300      	movs	r3, #0
 8008e4a:	ea4f 2ec2 	mov.w	lr, r2, lsl #11
 8008e4e:	ebbe 2fc0 	cmp.w	lr, r0, lsl #11
 8008e52:	bf38      	it	cc
 8008e54:	2301      	movcc	r3, #1
 8008e56:	02c2      	lsls	r2, r0, #11
 8008e58:	4596      	cmp	lr, r2
 8008e5a:	bf08      	it	eq
 8008e5c:	3301      	addeq	r3, #1
 8008e5e:	4419      	add	r1, r3
 8008e60:	2921      	cmp	r1, #33	; 0x21
 8008e62:	d842      	bhi.n	8008eea <_ZN4core7unicode12unicode_data15grapheme_extend11lookup_slow17he273a959c6f8bb98E+0x114>
 8008e64:	f85c 2021 	ldr.w	r2, [ip, r1, lsl #2]
 8008e68:	eb0c 0c81 	add.w	ip, ip, r1, lsl #2
 8008e6c:	2921      	cmp	r1, #33	; 0x21
 8008e6e:	ea4f 5252 	mov.w	r2, r2, lsr #21
 8008e72:	d102      	bne.n	8008e7a <_ZN4core7unicode12unicode_data15grapheme_extend11lookup_slow17he273a959c6f8bb98E+0xa4>
 8008e74:	f240 2eef 	movw	lr, #751	; 0x2ef
 8008e78:	e004      	b.n	8008e84 <_ZN4core7unicode12unicode_data15grapheme_extend11lookup_slow17he273a959c6f8bb98E+0xae>
 8008e7a:	f8dc 3004 	ldr.w	r3, [ip, #4]
 8008e7e:	ea4f 5e53 	mov.w	lr, r3, lsr #21
 8008e82:	b321      	cbz	r1, 8008ece <_ZN4core7unicode12unicode_data15grapheme_extend11lookup_slow17he273a959c6f8bb98E+0xf8>
 8008e84:	f85c 1c04 	ldr.w	r1, [ip, #-4]
 8008e88:	f36f 515f 	bfc	r1, #21, #11
 8008e8c:	43d3      	mvns	r3, r2
 8008e8e:	eb13 030e 	adds.w	r3, r3, lr
 8008e92:	d019      	beq.n	8008ec8 <_ZN4core7unicode12unicode_data15grapheme_extend11lookup_slow17he273a959c6f8bb98E+0xf2>
 8008e94:	eba0 0c01 	sub.w	ip, r0, r1
 8008e98:	f1ae 0301 	sub.w	r3, lr, #1
 8008e9c:	f64b 4e1c 	movw	lr, #48156	; 0xbc1c
 8008ea0:	4610      	mov	r0, r2
 8008ea2:	2100      	movs	r1, #0
 8008ea4:	f6c0 0e00 	movt	lr, #2048	; 0x800
 8008ea8:	f5b2 7f3c 	cmp.w	r2, #752	; 0x2f0
 8008eac:	bf38      	it	cc
 8008eae:	f240 20ef 	movwcc	r0, #751	; 0x2ef
 8008eb2:	4290      	cmp	r0, r2
 8008eb4:	d011      	beq.n	8008eda <_ZN4core7unicode12unicode_data15grapheme_extend11lookup_slow17he273a959c6f8bb98E+0x104>
 8008eb6:	f81e 4002 	ldrb.w	r4, [lr, r2]
 8008eba:	4421      	add	r1, r4
 8008ebc:	4561      	cmp	r1, ip
 8008ebe:	d803      	bhi.n	8008ec8 <_ZN4core7unicode12unicode_data15grapheme_extend11lookup_slow17he273a959c6f8bb98E+0xf2>
 8008ec0:	3201      	adds	r2, #1
 8008ec2:	4293      	cmp	r3, r2
 8008ec4:	d1f5      	bne.n	8008eb2 <_ZN4core7unicode12unicode_data15grapheme_extend11lookup_slow17he273a959c6f8bb98E+0xdc>
 8008ec6:	461a      	mov	r2, r3
 8008ec8:	f002 0001 	and.w	r0, r2, #1
 8008ecc:	bdd0      	pop	{r4, r6, r7, pc}
 8008ece:	2100      	movs	r1, #0
 8008ed0:	43d3      	mvns	r3, r2
 8008ed2:	eb13 030e 	adds.w	r3, r3, lr
 8008ed6:	d1dd      	bne.n	8008e94 <_ZN4core7unicode12unicode_data15grapheme_extend11lookup_slow17he273a959c6f8bb98E+0xbe>
 8008ed8:	e7f6      	b.n	8008ec8 <_ZN4core7unicode12unicode_data15grapheme_extend11lookup_slow17he273a959c6f8bb98E+0xf2>
 8008eda:	f64b 22f8 	movw	r2, #47864	; 0xbaf8
 8008ede:	f240 21ef 	movw	r1, #751	; 0x2ef
 8008ee2:	f6c0 0200 	movt	r2, #2048	; 0x800
 8008ee6:	f7fe fa49 	bl	800737c <_ZN4core9panicking18panic_bounds_check17h533996232d7df350E>
 8008eea:	f64b 22e8 	movw	r2, #47848	; 0xbae8
 8008eee:	4608      	mov	r0, r1
 8008ef0:	f6c0 0200 	movt	r2, #2048	; 0x800
 8008ef4:	2122      	movs	r1, #34	; 0x22
 8008ef6:	f7fe fa41 	bl	800737c <_ZN4core9panicking18panic_bounds_check17h533996232d7df350E>

08008efa <memset>:
 8008efa:	b5b0      	push	{r4, r5, r7, lr}
 8008efc:	af02      	add	r7, sp, #8
 8008efe:	2a10      	cmp	r2, #16
 8008f00:	d341      	bcc.n	8008f86 <memset+0x8c>
 8008f02:	4243      	negs	r3, r0
 8008f04:	f003 0c03 	and.w	ip, r3, #3
 8008f08:	eb00 050c 	add.w	r5, r0, ip
 8008f0c:	4285      	cmp	r5, r0
 8008f0e:	d917      	bls.n	8008f40 <memset+0x46>
 8008f10:	f1ac 0e01 	sub.w	lr, ip, #1
 8008f14:	f1bc 0f00 	cmp.w	ip, #0
 8008f18:	4604      	mov	r4, r0
 8008f1a:	bf1e      	ittt	ne
 8008f1c:	4604      	movne	r4, r0
 8008f1e:	f804 1b01 	strbne.w	r1, [r4], #1
 8008f22:	f1bc 0f01 	cmpne.w	ip, #1
 8008f26:	d159      	bne.n	8008fdc <memset+0xe2>
 8008f28:	f1be 0f03 	cmp.w	lr, #3
 8008f2c:	d308      	bcc.n	8008f40 <memset+0x46>
 8008f2e:	3c04      	subs	r4, #4
 8008f30:	f804 1f04 	strb.w	r1, [r4, #4]!
 8008f34:	1d23      	adds	r3, r4, #4
 8008f36:	42ab      	cmp	r3, r5
 8008f38:	70e1      	strb	r1, [r4, #3]
 8008f3a:	70a1      	strb	r1, [r4, #2]
 8008f3c:	7061      	strb	r1, [r4, #1]
 8008f3e:	d1f7      	bne.n	8008f30 <memset+0x36>
 8008f40:	eba2 0e0c 	sub.w	lr, r2, ip
 8008f44:	f02e 0203 	bic.w	r2, lr, #3
 8008f48:	eb05 0c02 	add.w	ip, r5, r2
 8008f4c:	4565      	cmp	r5, ip
 8008f4e:	d213      	bcs.n	8008f78 <memset+0x7e>
 8008f50:	b2ca      	uxtb	r2, r1
 8008f52:	f04f 3401 	mov.w	r4, #16843009	; 0x1010101
 8008f56:	4362      	muls	r2, r4
 8008f58:	f845 2b04 	str.w	r2, [r5], #4
 8008f5c:	4565      	cmp	r5, ip
 8008f5e:	d20b      	bcs.n	8008f78 <memset+0x7e>
 8008f60:	f845 2b04 	str.w	r2, [r5], #4
 8008f64:	4565      	cmp	r5, ip
 8008f66:	bf3c      	itt	cc
 8008f68:	f845 2b04 	strcc.w	r2, [r5], #4
 8008f6c:	4565      	cmpcc	r5, ip
 8008f6e:	d203      	bcs.n	8008f78 <memset+0x7e>
 8008f70:	f845 2b04 	str.w	r2, [r5], #4
 8008f74:	4565      	cmp	r5, ip
 8008f76:	d3ef      	bcc.n	8008f58 <memset+0x5e>
 8008f78:	f00e 0203 	and.w	r2, lr, #3
 8008f7c:	eb0c 0302 	add.w	r3, ip, r2
 8008f80:	459c      	cmp	ip, r3
 8008f82:	d305      	bcc.n	8008f90 <memset+0x96>
 8008f84:	e029      	b.n	8008fda <memset+0xe0>
 8008f86:	4684      	mov	ip, r0
 8008f88:	eb0c 0302 	add.w	r3, ip, r2
 8008f8c:	459c      	cmp	ip, r3
 8008f8e:	d224      	bcs.n	8008fda <memset+0xe0>
 8008f90:	f012 0e03 	ands.w	lr, r2, #3
 8008f94:	f1a2 0201 	sub.w	r2, r2, #1
 8008f98:	d013      	beq.n	8008fc2 <memset+0xc8>
 8008f9a:	4664      	mov	r4, ip
 8008f9c:	f1be 0f01 	cmp.w	lr, #1
 8008fa0:	f804 1b01 	strb.w	r1, [r4], #1
 8008fa4:	d00a      	beq.n	8008fbc <memset+0xc2>
 8008fa6:	f88c 1001 	strb.w	r1, [ip, #1]
 8008faa:	f1be 0f02 	cmp.w	lr, #2
 8008fae:	bf1a      	itte	ne
 8008fb0:	f88c 1002 	strbne.w	r1, [ip, #2]
 8008fb4:	f10c 0403 	addne.w	r4, ip, #3
 8008fb8:	f10c 0402 	addeq.w	r4, ip, #2
 8008fbc:	2a03      	cmp	r2, #3
 8008fbe:	d203      	bcs.n	8008fc8 <memset+0xce>
 8008fc0:	e00b      	b.n	8008fda <memset+0xe0>
 8008fc2:	4664      	mov	r4, ip
 8008fc4:	2a03      	cmp	r2, #3
 8008fc6:	d308      	bcc.n	8008fda <memset+0xe0>
 8008fc8:	1f22      	subs	r2, r4, #4
 8008fca:	f802 1f04 	strb.w	r1, [r2, #4]!
 8008fce:	1d15      	adds	r5, r2, #4
 8008fd0:	429d      	cmp	r5, r3
 8008fd2:	70d1      	strb	r1, [r2, #3]
 8008fd4:	7091      	strb	r1, [r2, #2]
 8008fd6:	7051      	strb	r1, [r2, #1]
 8008fd8:	d1f7      	bne.n	8008fca <memset+0xd0>
 8008fda:	bdb0      	pop	{r4, r5, r7, pc}
 8008fdc:	7041      	strb	r1, [r0, #1]
 8008fde:	f1bc 0f02 	cmp.w	ip, #2
 8008fe2:	bf1a      	itte	ne
 8008fe4:	7081      	strbne	r1, [r0, #2]
 8008fe6:	1cc4      	addne	r4, r0, #3
 8008fe8:	1c84      	addeq	r4, r0, #2
 8008fea:	f1be 0f03 	cmp.w	lr, #3
 8008fee:	d29e      	bcs.n	8008f2e <memset+0x34>
 8008ff0:	e7a6      	b.n	8008f40 <memset+0x46>

08008ff2 <_ZN17compiler_builtins3mem6memcpy17ha6291766a3b14503E>:
 8008ff2:	b5f0      	push	{r4, r5, r6, r7, lr}
 8008ff4:	af03      	add	r7, sp, #12
 8008ff6:	e92d 0700 	stmdb	sp!, {r8, r9, sl}
 8008ffa:	2a10      	cmp	r2, #16
 8008ffc:	d31e      	bcc.n	800903c <_ZN17compiler_builtins3mem6memcpy17ha6291766a3b14503E+0x4a>
 8008ffe:	4243      	negs	r3, r0
 8009000:	f003 0903 	and.w	r9, r3, #3
 8009004:	eb00 0309 	add.w	r3, r0, r9
 8009008:	4283      	cmp	r3, r0
 800900a:	d933      	bls.n	8009074 <_ZN17compiler_builtins3mem6memcpy17ha6291766a3b14503E+0x82>
 800900c:	f1a9 0c01 	sub.w	ip, r9, #1
 8009010:	f1b9 0f00 	cmp.w	r9, #0
 8009014:	4606      	mov	r6, r0
 8009016:	460d      	mov	r5, r1
 8009018:	d01a      	beq.n	8009050 <_ZN17compiler_builtins3mem6memcpy17ha6291766a3b14503E+0x5e>
 800901a:	460d      	mov	r5, r1
 800901c:	4606      	mov	r6, r0
 800901e:	f815 eb01 	ldrb.w	lr, [r5], #1
 8009022:	f1b9 0f01 	cmp.w	r9, #1
 8009026:	f806 eb01 	strb.w	lr, [r6], #1
 800902a:	d011      	beq.n	8009050 <_ZN17compiler_builtins3mem6memcpy17ha6291766a3b14503E+0x5e>
 800902c:	784e      	ldrb	r6, [r1, #1]
 800902e:	f1b9 0f02 	cmp.w	r9, #2
 8009032:	7046      	strb	r6, [r0, #1]
 8009034:	d108      	bne.n	8009048 <_ZN17compiler_builtins3mem6memcpy17ha6291766a3b14503E+0x56>
 8009036:	1c8d      	adds	r5, r1, #2
 8009038:	1c86      	adds	r6, r0, #2
 800903a:	e009      	b.n	8009050 <_ZN17compiler_builtins3mem6memcpy17ha6291766a3b14503E+0x5e>
 800903c:	4684      	mov	ip, r0
 800903e:	eb0c 0302 	add.w	r3, ip, r2
 8009042:	459c      	cmp	ip, r3
 8009044:	d37b      	bcc.n	800913e <_ZN17compiler_builtins3mem6memcpy17ha6291766a3b14503E+0x14c>
 8009046:	e0a7      	b.n	8009198 <_ZN17compiler_builtins3mem6memcpy17ha6291766a3b14503E+0x1a6>
 8009048:	788e      	ldrb	r6, [r1, #2]
 800904a:	1ccd      	adds	r5, r1, #3
 800904c:	7086      	strb	r6, [r0, #2]
 800904e:	1cc6      	adds	r6, r0, #3
 8009050:	f1bc 0f03 	cmp.w	ip, #3
 8009054:	d30e      	bcc.n	8009074 <_ZN17compiler_builtins3mem6memcpy17ha6291766a3b14503E+0x82>
 8009056:	3d04      	subs	r5, #4
 8009058:	3e04      	subs	r6, #4
 800905a:	f815 4f04 	ldrb.w	r4, [r5, #4]!
 800905e:	f806 4f04 	strb.w	r4, [r6, #4]!
 8009062:	786c      	ldrb	r4, [r5, #1]
 8009064:	7074      	strb	r4, [r6, #1]
 8009066:	78ac      	ldrb	r4, [r5, #2]
 8009068:	70b4      	strb	r4, [r6, #2]
 800906a:	78ec      	ldrb	r4, [r5, #3]
 800906c:	70f4      	strb	r4, [r6, #3]
 800906e:	1d34      	adds	r4, r6, #4
 8009070:	429c      	cmp	r4, r3
 8009072:	d1f2      	bne.n	800905a <_ZN17compiler_builtins3mem6memcpy17ha6291766a3b14503E+0x68>
 8009074:	eba2 0e09 	sub.w	lr, r2, r9
 8009078:	4489      	add	r9, r1
 800907a:	f02e 0803 	bic.w	r8, lr, #3
 800907e:	eb03 0c08 	add.w	ip, r3, r8
 8009082:	ea5f 7189 	movs.w	r1, r9, lsl #30
 8009086:	d03a      	beq.n	80090fe <_ZN17compiler_builtins3mem6memcpy17ha6291766a3b14503E+0x10c>
 8009088:	4563      	cmp	r3, ip
 800908a:	d250      	bcs.n	800912e <_ZN17compiler_builtins3mem6memcpy17ha6291766a3b14503E+0x13c>
 800908c:	2118      	movs	r1, #24
 800908e:	f029 0203 	bic.w	r2, r9, #3
 8009092:	ea01 0ac9 	and.w	sl, r1, r9, lsl #3
 8009096:	ea4f 01c9 	mov.w	r1, r9, lsl #3
 800909a:	f102 0508 	add.w	r5, r2, #8
 800909e:	4249      	negs	r1, r1
 80090a0:	6812      	ldr	r2, [r2, #0]
 80090a2:	f001 0618 	and.w	r6, r1, #24
 80090a6:	f855 1c04 	ldr.w	r1, [r5, #-4]
 80090aa:	fa22 f20a 	lsr.w	r2, r2, sl
 80090ae:	fa01 f406 	lsl.w	r4, r1, r6
 80090b2:	4322      	orrs	r2, r4
 80090b4:	f843 2b04 	str.w	r2, [r3], #4
 80090b8:	4563      	cmp	r3, ip
 80090ba:	d238      	bcs.n	800912e <_ZN17compiler_builtins3mem6memcpy17ha6291766a3b14503E+0x13c>
 80090bc:	682a      	ldr	r2, [r5, #0]
 80090be:	fa21 f10a 	lsr.w	r1, r1, sl
 80090c2:	fa02 f406 	lsl.w	r4, r2, r6
 80090c6:	4321      	orrs	r1, r4
 80090c8:	f843 1b04 	str.w	r1, [r3], #4
 80090cc:	4563      	cmp	r3, ip
 80090ce:	bf3f      	itttt	cc
 80090d0:	6869      	ldrcc	r1, [r5, #4]
 80090d2:	fa22 f20a 	lsrcc.w	r2, r2, sl
 80090d6:	fa01 f406 	lslcc.w	r4, r1, r6
 80090da:	4322      	orrcc	r2, r4
 80090dc:	bf3c      	itt	cc
 80090de:	f843 2b04 	strcc.w	r2, [r3], #4
 80090e2:	4563      	cmpcc	r3, ip
 80090e4:	d223      	bcs.n	800912e <_ZN17compiler_builtins3mem6memcpy17ha6291766a3b14503E+0x13c>
 80090e6:	68aa      	ldr	r2, [r5, #8]
 80090e8:	fa21 f10a 	lsr.w	r1, r1, sl
 80090ec:	3510      	adds	r5, #16
 80090ee:	fa02 f406 	lsl.w	r4, r2, r6
 80090f2:	4321      	orrs	r1, r4
 80090f4:	f843 1b04 	str.w	r1, [r3], #4
 80090f8:	4563      	cmp	r3, ip
 80090fa:	d3d4      	bcc.n	80090a6 <_ZN17compiler_builtins3mem6memcpy17ha6291766a3b14503E+0xb4>
 80090fc:	e017      	b.n	800912e <_ZN17compiler_builtins3mem6memcpy17ha6291766a3b14503E+0x13c>
 80090fe:	4563      	cmp	r3, ip
 8009100:	d215      	bcs.n	800912e <_ZN17compiler_builtins3mem6memcpy17ha6291766a3b14503E+0x13c>
 8009102:	464c      	mov	r4, r9
 8009104:	6821      	ldr	r1, [r4, #0]
 8009106:	f843 1b04 	str.w	r1, [r3], #4
 800910a:	4563      	cmp	r3, ip
 800910c:	d20f      	bcs.n	800912e <_ZN17compiler_builtins3mem6memcpy17ha6291766a3b14503E+0x13c>
 800910e:	6861      	ldr	r1, [r4, #4]
 8009110:	f843 1b04 	str.w	r1, [r3], #4
 8009114:	4563      	cmp	r3, ip
 8009116:	bf3e      	ittt	cc
 8009118:	68a1      	ldrcc	r1, [r4, #8]
 800911a:	f843 1b04 	strcc.w	r1, [r3], #4
 800911e:	4563      	cmpcc	r3, ip
 8009120:	d205      	bcs.n	800912e <_ZN17compiler_builtins3mem6memcpy17ha6291766a3b14503E+0x13c>
 8009122:	68e1      	ldr	r1, [r4, #12]
 8009124:	3410      	adds	r4, #16
 8009126:	f843 1b04 	str.w	r1, [r3], #4
 800912a:	4563      	cmp	r3, ip
 800912c:	d3ea      	bcc.n	8009104 <_ZN17compiler_builtins3mem6memcpy17ha6291766a3b14503E+0x112>
 800912e:	eb09 0108 	add.w	r1, r9, r8
 8009132:	f00e 0203 	and.w	r2, lr, #3
 8009136:	eb0c 0302 	add.w	r3, ip, r2
 800913a:	459c      	cmp	ip, r3
 800913c:	d22c      	bcs.n	8009198 <_ZN17compiler_builtins3mem6memcpy17ha6291766a3b14503E+0x1a6>
 800913e:	f012 0403 	ands.w	r4, r2, #3
 8009142:	f1a2 0e01 	sub.w	lr, r2, #1
 8009146:	d013      	beq.n	8009170 <_ZN17compiler_builtins3mem6memcpy17ha6291766a3b14503E+0x17e>
 8009148:	460e      	mov	r6, r1
 800914a:	4665      	mov	r5, ip
 800914c:	f816 2b01 	ldrb.w	r2, [r6], #1
 8009150:	2c01      	cmp	r4, #1
 8009152:	f805 2b01 	strb.w	r2, [r5], #1
 8009156:	d00d      	beq.n	8009174 <_ZN17compiler_builtins3mem6memcpy17ha6291766a3b14503E+0x182>
 8009158:	784a      	ldrb	r2, [r1, #1]
 800915a:	2c02      	cmp	r4, #2
 800915c:	f88c 2001 	strb.w	r2, [ip, #1]
 8009160:	d11d      	bne.n	800919e <_ZN17compiler_builtins3mem6memcpy17ha6291766a3b14503E+0x1ac>
 8009162:	1c8e      	adds	r6, r1, #2
 8009164:	f10c 0502 	add.w	r5, ip, #2
 8009168:	f1be 0f03 	cmp.w	lr, #3
 800916c:	d205      	bcs.n	800917a <_ZN17compiler_builtins3mem6memcpy17ha6291766a3b14503E+0x188>
 800916e:	e013      	b.n	8009198 <_ZN17compiler_builtins3mem6memcpy17ha6291766a3b14503E+0x1a6>
 8009170:	4665      	mov	r5, ip
 8009172:	460e      	mov	r6, r1
 8009174:	f1be 0f03 	cmp.w	lr, #3
 8009178:	d30e      	bcc.n	8009198 <_ZN17compiler_builtins3mem6memcpy17ha6291766a3b14503E+0x1a6>
 800917a:	1f31      	subs	r1, r6, #4
 800917c:	1f2a      	subs	r2, r5, #4
 800917e:	f811 6f04 	ldrb.w	r6, [r1, #4]!
 8009182:	f802 6f04 	strb.w	r6, [r2, #4]!
 8009186:	784e      	ldrb	r6, [r1, #1]
 8009188:	7056      	strb	r6, [r2, #1]
 800918a:	788e      	ldrb	r6, [r1, #2]
 800918c:	7096      	strb	r6, [r2, #2]
 800918e:	78ce      	ldrb	r6, [r1, #3]
 8009190:	70d6      	strb	r6, [r2, #3]
 8009192:	1d16      	adds	r6, r2, #4
 8009194:	429e      	cmp	r6, r3
 8009196:	d1f2      	bne.n	800917e <_ZN17compiler_builtins3mem6memcpy17ha6291766a3b14503E+0x18c>
 8009198:	e8bd 0700 	ldmia.w	sp!, {r8, r9, sl}
 800919c:	bdf0      	pop	{r4, r5, r6, r7, pc}
 800919e:	1cce      	adds	r6, r1, #3
 80091a0:	f10c 0503 	add.w	r5, ip, #3
 80091a4:	788a      	ldrb	r2, [r1, #2]
 80091a6:	f88c 2002 	strb.w	r2, [ip, #2]
 80091aa:	f1be 0f03 	cmp.w	lr, #3
 80091ae:	d2e4      	bcs.n	800917a <_ZN17compiler_builtins3mem6memcpy17ha6291766a3b14503E+0x188>
 80091b0:	e7f2      	b.n	8009198 <_ZN17compiler_builtins3mem6memcpy17ha6291766a3b14503E+0x1a6>

080091b2 <__aeabi_memcpy>:
 80091b2:	f7ff bf1e 	b.w	8008ff2 <_ZN17compiler_builtins3mem6memcpy17ha6291766a3b14503E>

080091b6 <memcpy>:
 80091b6:	b5f0      	push	{r4, r5, r6, r7, lr}
 80091b8:	af03      	add	r7, sp, #12
 80091ba:	e92d 0700 	stmdb	sp!, {r8, r9, sl}
 80091be:	2a10      	cmp	r2, #16
 80091c0:	d31e      	bcc.n	8009200 <memcpy+0x4a>
 80091c2:	4243      	negs	r3, r0
 80091c4:	f003 0903 	and.w	r9, r3, #3
 80091c8:	eb00 0309 	add.w	r3, r0, r9
 80091cc:	4283      	cmp	r3, r0
 80091ce:	d933      	bls.n	8009238 <memcpy+0x82>
 80091d0:	f1a9 0c01 	sub.w	ip, r9, #1
 80091d4:	f1b9 0f00 	cmp.w	r9, #0
 80091d8:	4606      	mov	r6, r0
 80091da:	460d      	mov	r5, r1
 80091dc:	d01a      	beq.n	8009214 <memcpy+0x5e>
 80091de:	460d      	mov	r5, r1
 80091e0:	4606      	mov	r6, r0
 80091e2:	f815 eb01 	ldrb.w	lr, [r5], #1
 80091e6:	f1b9 0f01 	cmp.w	r9, #1
 80091ea:	f806 eb01 	strb.w	lr, [r6], #1
 80091ee:	d011      	beq.n	8009214 <memcpy+0x5e>
 80091f0:	784e      	ldrb	r6, [r1, #1]
 80091f2:	f1b9 0f02 	cmp.w	r9, #2
 80091f6:	7046      	strb	r6, [r0, #1]
 80091f8:	d108      	bne.n	800920c <memcpy+0x56>
 80091fa:	1c8d      	adds	r5, r1, #2
 80091fc:	1c86      	adds	r6, r0, #2
 80091fe:	e009      	b.n	8009214 <memcpy+0x5e>
 8009200:	4684      	mov	ip, r0
 8009202:	eb0c 0302 	add.w	r3, ip, r2
 8009206:	459c      	cmp	ip, r3
 8009208:	d37b      	bcc.n	8009302 <memcpy+0x14c>
 800920a:	e0a7      	b.n	800935c <memcpy+0x1a6>
 800920c:	788e      	ldrb	r6, [r1, #2]
 800920e:	1ccd      	adds	r5, r1, #3
 8009210:	7086      	strb	r6, [r0, #2]
 8009212:	1cc6      	adds	r6, r0, #3
 8009214:	f1bc 0f03 	cmp.w	ip, #3
 8009218:	d30e      	bcc.n	8009238 <memcpy+0x82>
 800921a:	3d04      	subs	r5, #4
 800921c:	3e04      	subs	r6, #4
 800921e:	f815 4f04 	ldrb.w	r4, [r5, #4]!
 8009222:	f806 4f04 	strb.w	r4, [r6, #4]!
 8009226:	786c      	ldrb	r4, [r5, #1]
 8009228:	7074      	strb	r4, [r6, #1]
 800922a:	78ac      	ldrb	r4, [r5, #2]
 800922c:	70b4      	strb	r4, [r6, #2]
 800922e:	78ec      	ldrb	r4, [r5, #3]
 8009230:	70f4      	strb	r4, [r6, #3]
 8009232:	1d34      	adds	r4, r6, #4
 8009234:	429c      	cmp	r4, r3
 8009236:	d1f2      	bne.n	800921e <memcpy+0x68>
 8009238:	eba2 0e09 	sub.w	lr, r2, r9
 800923c:	4489      	add	r9, r1
 800923e:	f02e 0803 	bic.w	r8, lr, #3
 8009242:	eb03 0c08 	add.w	ip, r3, r8
 8009246:	ea5f 7189 	movs.w	r1, r9, lsl #30
 800924a:	d03a      	beq.n	80092c2 <memcpy+0x10c>
 800924c:	4563      	cmp	r3, ip
 800924e:	d250      	bcs.n	80092f2 <memcpy+0x13c>
 8009250:	2118      	movs	r1, #24
 8009252:	f029 0203 	bic.w	r2, r9, #3
 8009256:	ea01 0ac9 	and.w	sl, r1, r9, lsl #3
 800925a:	ea4f 01c9 	mov.w	r1, r9, lsl #3
 800925e:	f102 0508 	add.w	r5, r2, #8
 8009262:	4249      	negs	r1, r1
 8009264:	6812      	ldr	r2, [r2, #0]
 8009266:	f001 0618 	and.w	r6, r1, #24
 800926a:	f855 1c04 	ldr.w	r1, [r5, #-4]
 800926e:	fa22 f20a 	lsr.w	r2, r2, sl
 8009272:	fa01 f406 	lsl.w	r4, r1, r6
 8009276:	4322      	orrs	r2, r4
 8009278:	f843 2b04 	str.w	r2, [r3], #4
 800927c:	4563      	cmp	r3, ip
 800927e:	d238      	bcs.n	80092f2 <memcpy+0x13c>
 8009280:	682a      	ldr	r2, [r5, #0]
 8009282:	fa21 f10a 	lsr.w	r1, r1, sl
 8009286:	fa02 f406 	lsl.w	r4, r2, r6
 800928a:	4321      	orrs	r1, r4
 800928c:	f843 1b04 	str.w	r1, [r3], #4
 8009290:	4563      	cmp	r3, ip
 8009292:	bf3f      	itttt	cc
 8009294:	6869      	ldrcc	r1, [r5, #4]
 8009296:	fa22 f20a 	lsrcc.w	r2, r2, sl
 800929a:	fa01 f406 	lslcc.w	r4, r1, r6
 800929e:	4322      	orrcc	r2, r4
 80092a0:	bf3c      	itt	cc
 80092a2:	f843 2b04 	strcc.w	r2, [r3], #4
 80092a6:	4563      	cmpcc	r3, ip
 80092a8:	d223      	bcs.n	80092f2 <memcpy+0x13c>
 80092aa:	68aa      	ldr	r2, [r5, #8]
 80092ac:	fa21 f10a 	lsr.w	r1, r1, sl
 80092b0:	3510      	adds	r5, #16
 80092b2:	fa02 f406 	lsl.w	r4, r2, r6
 80092b6:	4321      	orrs	r1, r4
 80092b8:	f843 1b04 	str.w	r1, [r3], #4
 80092bc:	4563      	cmp	r3, ip
 80092be:	d3d4      	bcc.n	800926a <memcpy+0xb4>
 80092c0:	e017      	b.n	80092f2 <memcpy+0x13c>
 80092c2:	4563      	cmp	r3, ip
 80092c4:	d215      	bcs.n	80092f2 <memcpy+0x13c>
 80092c6:	464c      	mov	r4, r9
 80092c8:	6821      	ldr	r1, [r4, #0]
 80092ca:	f843 1b04 	str.w	r1, [r3], #4
 80092ce:	4563      	cmp	r3, ip
 80092d0:	d20f      	bcs.n	80092f2 <memcpy+0x13c>
 80092d2:	6861      	ldr	r1, [r4, #4]
 80092d4:	f843 1b04 	str.w	r1, [r3], #4
 80092d8:	4563      	cmp	r3, ip
 80092da:	bf3e      	ittt	cc
 80092dc:	68a1      	ldrcc	r1, [r4, #8]
 80092de:	f843 1b04 	strcc.w	r1, [r3], #4
 80092e2:	4563      	cmpcc	r3, ip
 80092e4:	d205      	bcs.n	80092f2 <memcpy+0x13c>
 80092e6:	68e1      	ldr	r1, [r4, #12]
 80092e8:	3410      	adds	r4, #16
 80092ea:	f843 1b04 	str.w	r1, [r3], #4
 80092ee:	4563      	cmp	r3, ip
 80092f0:	d3ea      	bcc.n	80092c8 <memcpy+0x112>
 80092f2:	eb09 0108 	add.w	r1, r9, r8
 80092f6:	f00e 0203 	and.w	r2, lr, #3
 80092fa:	eb0c 0302 	add.w	r3, ip, r2
 80092fe:	459c      	cmp	ip, r3
 8009300:	d22c      	bcs.n	800935c <memcpy+0x1a6>
 8009302:	f012 0403 	ands.w	r4, r2, #3
 8009306:	f1a2 0e01 	sub.w	lr, r2, #1
 800930a:	d013      	beq.n	8009334 <memcpy+0x17e>
 800930c:	460e      	mov	r6, r1
 800930e:	4665      	mov	r5, ip
 8009310:	f816 2b01 	ldrb.w	r2, [r6], #1
 8009314:	2c01      	cmp	r4, #1
 8009316:	f805 2b01 	strb.w	r2, [r5], #1
 800931a:	d00d      	beq.n	8009338 <memcpy+0x182>
 800931c:	784a      	ldrb	r2, [r1, #1]
 800931e:	2c02      	cmp	r4, #2
 8009320:	f88c 2001 	strb.w	r2, [ip, #1]
 8009324:	d11d      	bne.n	8009362 <memcpy+0x1ac>
 8009326:	1c8e      	adds	r6, r1, #2
 8009328:	f10c 0502 	add.w	r5, ip, #2
 800932c:	f1be 0f03 	cmp.w	lr, #3
 8009330:	d205      	bcs.n	800933e <memcpy+0x188>
 8009332:	e013      	b.n	800935c <memcpy+0x1a6>
 8009334:	4665      	mov	r5, ip
 8009336:	460e      	mov	r6, r1
 8009338:	f1be 0f03 	cmp.w	lr, #3
 800933c:	d30e      	bcc.n	800935c <memcpy+0x1a6>
 800933e:	1f31      	subs	r1, r6, #4
 8009340:	1f2a      	subs	r2, r5, #4
 8009342:	f811 6f04 	ldrb.w	r6, [r1, #4]!
 8009346:	f802 6f04 	strb.w	r6, [r2, #4]!
 800934a:	784e      	ldrb	r6, [r1, #1]
 800934c:	7056      	strb	r6, [r2, #1]
 800934e:	788e      	ldrb	r6, [r1, #2]
 8009350:	7096      	strb	r6, [r2, #2]
 8009352:	78ce      	ldrb	r6, [r1, #3]
 8009354:	70d6      	strb	r6, [r2, #3]
 8009356:	1d16      	adds	r6, r2, #4
 8009358:	429e      	cmp	r6, r3
 800935a:	d1f2      	bne.n	8009342 <memcpy+0x18c>
 800935c:	e8bd 0700 	ldmia.w	sp!, {r8, r9, sl}
 8009360:	bdf0      	pop	{r4, r5, r6, r7, pc}
 8009362:	1cce      	adds	r6, r1, #3
 8009364:	f10c 0503 	add.w	r5, ip, #3
 8009368:	788a      	ldrb	r2, [r1, #2]
 800936a:	f88c 2002 	strb.w	r2, [ip, #2]
 800936e:	f1be 0f03 	cmp.w	lr, #3
 8009372:	d2e4      	bcs.n	800933e <memcpy+0x188>
 8009374:	e7f2      	b.n	800935c <memcpy+0x1a6>

08009376 <__aeabi_memclr>:
 8009376:	b5b0      	push	{r4, r5, r7, lr}
 8009378:	af02      	add	r7, sp, #8
 800937a:	2910      	cmp	r1, #16
 800937c:	d33f      	bcc.n	80093fe <__aeabi_memclr+0x88>
 800937e:	4242      	negs	r2, r0
 8009380:	f002 0503 	and.w	r5, r2, #3
 8009384:	1942      	adds	r2, r0, r5
 8009386:	4282      	cmp	r2, r0
 8009388:	d920      	bls.n	80093cc <__aeabi_memclr+0x56>
 800938a:	f1a5 0c01 	sub.w	ip, r5, #1
 800938e:	b18d      	cbz	r5, 80093b4 <__aeabi_memclr+0x3e>
 8009390:	2300      	movs	r3, #0
 8009392:	4686      	mov	lr, r0
 8009394:	f80e 3b01 	strb.w	r3, [lr], #1
 8009398:	2d01      	cmp	r5, #1
 800939a:	d007      	beq.n	80093ac <__aeabi_memclr+0x36>
 800939c:	7043      	strb	r3, [r0, #1]
 800939e:	2d02      	cmp	r5, #2
 80093a0:	bf1a      	itte	ne
 80093a2:	7083      	strbne	r3, [r0, #2]
 80093a4:	f100 0e03 	addne.w	lr, r0, #3
 80093a8:	f100 0e02 	addeq.w	lr, r0, #2
 80093ac:	f1bc 0f03 	cmp.w	ip, #3
 80093b0:	d204      	bcs.n	80093bc <__aeabi_memclr+0x46>
 80093b2:	e00b      	b.n	80093cc <__aeabi_memclr+0x56>
 80093b4:	4686      	mov	lr, r0
 80093b6:	f1bc 0f03 	cmp.w	ip, #3
 80093ba:	d307      	bcc.n	80093cc <__aeabi_memclr+0x56>
 80093bc:	f1ae 0004 	sub.w	r0, lr, #4
 80093c0:	2300      	movs	r3, #0
 80093c2:	f840 3f04 	str.w	r3, [r0, #4]!
 80093c6:	1d04      	adds	r4, r0, #4
 80093c8:	4294      	cmp	r4, r2
 80093ca:	d1fa      	bne.n	80093c2 <__aeabi_memclr+0x4c>
 80093cc:	1b49      	subs	r1, r1, r5
 80093ce:	f021 0003 	bic.w	r0, r1, #3
 80093d2:	4410      	add	r0, r2
 80093d4:	4282      	cmp	r2, r0
 80093d6:	d210      	bcs.n	80093fa <__aeabi_memclr+0x84>
 80093d8:	2300      	movs	r3, #0
 80093da:	f842 3b04 	str.w	r3, [r2], #4
 80093de:	4282      	cmp	r2, r0
 80093e0:	d20b      	bcs.n	80093fa <__aeabi_memclr+0x84>
 80093e2:	f842 3b04 	str.w	r3, [r2], #4
 80093e6:	4282      	cmp	r2, r0
 80093e8:	bf3c      	itt	cc
 80093ea:	f842 3b04 	strcc.w	r3, [r2], #4
 80093ee:	4282      	cmpcc	r2, r0
 80093f0:	d203      	bcs.n	80093fa <__aeabi_memclr+0x84>
 80093f2:	f842 3b04 	str.w	r3, [r2], #4
 80093f6:	4282      	cmp	r2, r0
 80093f8:	d3ef      	bcc.n	80093da <__aeabi_memclr+0x64>
 80093fa:	f001 0103 	and.w	r1, r1, #3
 80093fe:	1842      	adds	r2, r0, r1
 8009400:	4290      	cmp	r0, r2
 8009402:	d220      	bcs.n	8009446 <__aeabi_memclr+0xd0>
 8009404:	f011 0403 	ands.w	r4, r1, #3
 8009408:	f1a1 0101 	sub.w	r1, r1, #1
 800940c:	d00c      	beq.n	8009428 <__aeabi_memclr+0xb2>
 800940e:	f04f 0c00 	mov.w	ip, #0
 8009412:	4603      	mov	r3, r0
 8009414:	f803 cb01 	strb.w	ip, [r3], #1
 8009418:	2c01      	cmp	r4, #1
 800941a:	d00a      	beq.n	8009432 <__aeabi_memclr+0xbc>
 800941c:	2c02      	cmp	r4, #2
 800941e:	f880 c001 	strb.w	ip, [r0, #1]
 8009422:	d103      	bne.n	800942c <__aeabi_memclr+0xb6>
 8009424:	1c83      	adds	r3, r0, #2
 8009426:	e004      	b.n	8009432 <__aeabi_memclr+0xbc>
 8009428:	4603      	mov	r3, r0
 800942a:	e002      	b.n	8009432 <__aeabi_memclr+0xbc>
 800942c:	2300      	movs	r3, #0
 800942e:	7083      	strb	r3, [r0, #2]
 8009430:	1cc3      	adds	r3, r0, #3
 8009432:	2903      	cmp	r1, #3
 8009434:	bf38      	it	cc
 8009436:	bdb0      	popcc	{r4, r5, r7, pc}
 8009438:	1f18      	subs	r0, r3, #4
 800943a:	2100      	movs	r1, #0
 800943c:	f840 1f04 	str.w	r1, [r0, #4]!
 8009440:	1d03      	adds	r3, r0, #4
 8009442:	4293      	cmp	r3, r2
 8009444:	d1fa      	bne.n	800943c <__aeabi_memclr+0xc6>
 8009446:	bdb0      	pop	{r4, r5, r7, pc}

08009448 <HardFaultTrampoline>:
 8009448:	4670      	mov	r0, lr
 800944a:	2104      	movs	r1, #4
 800944c:	4208      	tst	r0, r1
 800944e:	d102      	bne.n	8009456 <HardFaultTrampoline+0xe>
 8009450:	f3ef 8008 	mrs	r0, MSP
 8009454:	e002      	b.n	800945c <HardFault>
 8009456:	f3ef 8009 	mrs	r0, PSP
 800945a:	e7ff      	b.n	800945c <HardFault>

0800945c <HardFault>:
 800945c:	b580      	push	{r7, lr}
 800945e:	466f      	mov	r7, sp
 8009460:	b082      	sub	sp, #8
 8009462:	9001      	str	r0, [sp, #4]
 8009464:	f7f8 fb52 	bl	8001b0c <_ZN22stm32_cortex_m4_f401re23__cortex_m_rt_HardFault17hf09e3039fd4fb78cE>

08009468 <HardFault_>:
 8009468:	b580      	push	{r7, lr}
 800946a:	466f      	mov	r7, sp
 800946c:	b082      	sub	sp, #8
 800946e:	9001      	str	r0, [sp, #4]
 8009470:	e7ff      	b.n	8009472 <HardFault_+0xa>
 8009472:	2004      	movs	r0, #4
 8009474:	f807 0c05 	strb.w	r0, [r7, #-5]
 8009478:	f817 0c05 	ldrb.w	r0, [r7, #-5]
 800947c:	f7fd fc06 	bl	8006c8c <_ZN4core4sync6atomic14compiler_fence17h26d2c8b173011792E>
 8009480:	e7f7      	b.n	8009472 <HardFault_+0xa>
 8009482:	d4d4      	bmi.n	800942e <__aeabi_memclr+0xb8>
