
C:\Users\frado\template\FreeRTOS-RustTemplate/target/thumbv7em-none-eabihf/debug/stm32-cortex-m4-f401re:     file format elf32-littlearm


Disassembly of section .text:

08000194 <Reset>:
 8000194:	b580      	push	{r7, lr}
 8000196:	466f      	mov	r7, sp
 8000198:	f006 fdbc 	bl	8006d14 <DefaultPreInit>
 800019c:	f240 000c 	movw	r0, #12
 80001a0:	f2c2 0000 	movt	r0, #8192	; 0x2000
 80001a4:	f643 51b0 	movw	r1, #15792	; 0x3db0
 80001a8:	f2c2 0100 	movt	r1, #8192	; 0x2000
 80001ac:	f006 fba7 	bl	80068fe <_ZN2r08zero_bss17h5c95e33a037a1a3eE>
 80001b0:	f240 0000 	movw	r0, #0
 80001b4:	f2c2 0000 	movt	r0, #8192	; 0x2000
 80001b8:	f240 010c 	movw	r1, #12
 80001bc:	f2c2 0100 	movt	r1, #8192	; 0x2000
 80001c0:	f64b 720c 	movw	r2, #48908	; 0xbf0c
 80001c4:	f6c0 0200 	movt	r2, #2048	; 0x800
 80001c8:	f006 fbd4 	bl	8006974 <_ZN2r09init_data17h1db645cdf22301c4E>
 80001cc:	f64e 5088 	movw	r0, #60808	; 0xed88
 80001d0:	f2ce 0000 	movt	r0, #57344	; 0xe000
 80001d4:	6801      	ldr	r1, [r0, #0]
 80001d6:	f441 0170 	orr.w	r1, r1, #15728640	; 0xf00000
 80001da:	f006 fc5b 	bl	8006a94 <_ZN4core3ptr14write_volatile17hd6de69c464e82e6cE>
 80001de:	f006 fd89 	bl	8006cf4 <ResetTrampoline>

080001e2 <_ZN4core5alloc6global11GlobalAlloc12alloc_zeroed17h9bccd744b704324fE>:
 80001e2:	b580      	push	{r7, lr}
 80001e4:	466f      	mov	r7, sp
 80001e6:	b08a      	sub	sp, #40	; 0x28
 80001e8:	9102      	str	r1, [sp, #8]
 80001ea:	9203      	str	r2, [sp, #12]
 80001ec:	9004      	str	r0, [sp, #16]
 80001ee:	2100      	movs	r1, #0
 80001f0:	f807 1c11 	strb.w	r1, [r7, #-17]
 80001f4:	a902      	add	r1, sp, #8
 80001f6:	9106      	str	r1, [sp, #24]
 80001f8:	9903      	ldr	r1, [sp, #12]
 80001fa:	9100      	str	r1, [sp, #0]
 80001fc:	9107      	str	r1, [sp, #28]
 80001fe:	9902      	ldr	r1, [sp, #8]
 8000200:	9a03      	ldr	r2, [sp, #12]
 8000202:	f005 f9ef 	bl	80055e4 <_ZN96_$LT$freertos_rust..allocator..FreeRtosAllocator$u20$as$u20$core..alloc..global..GlobalAlloc$GT$5alloc17ha2faf5168b77887cE>
 8000206:	4601      	mov	r1, r0
 8000208:	9101      	str	r1, [sp, #4]
 800020a:	9008      	str	r0, [sp, #32]
 800020c:	9009      	str	r0, [sp, #36]	; 0x24
 800020e:	b908      	cbnz	r0, 8000214 <_ZN4core5alloc6global11GlobalAlloc12alloc_zeroed17h9bccd744b704324fE+0x32>
 8000210:	e7ff      	b.n	8000212 <_ZN4core5alloc6global11GlobalAlloc12alloc_zeroed17h9bccd744b704324fE+0x30>
 8000212:	e000      	b.n	8000216 <_ZN4core5alloc6global11GlobalAlloc12alloc_zeroed17h9bccd744b704324fE+0x34>
 8000214:	e002      	b.n	800021c <_ZN4core5alloc6global11GlobalAlloc12alloc_zeroed17h9bccd744b704324fE+0x3a>
 8000216:	9801      	ldr	r0, [sp, #4]
 8000218:	b00a      	add	sp, #40	; 0x28
 800021a:	bd80      	pop	{r7, pc}
 800021c:	9801      	ldr	r0, [sp, #4]
 800021e:	9900      	ldr	r1, [sp, #0]
 8000220:	fab1 f181 	clz	r1, r1
 8000224:	094a      	lsrs	r2, r1, #5
 8000226:	2101      	movs	r1, #1
 8000228:	f000 f8ba 	bl	80003a0 <_ZN4core10intrinsics11write_bytes18precondition_check17h1c495d6cd44e7aebE>
 800022c:	e7ff      	b.n	800022e <_ZN4core5alloc6global11GlobalAlloc12alloc_zeroed17h9bccd744b704324fE+0x4c>
 800022e:	9900      	ldr	r1, [sp, #0]
 8000230:	9801      	ldr	r0, [sp, #4]
 8000232:	f009 f8a0 	bl	8009376 <__aeabi_memclr>
 8000236:	e7ee      	b.n	8000216 <_ZN4core5alloc6global11GlobalAlloc12alloc_zeroed17h9bccd744b704324fE+0x34>

08000238 <_ZN4core5alloc6global11GlobalAlloc7realloc17h425afe912a14999aE>:
 8000238:	b580      	push	{r7, lr}
 800023a:	466f      	mov	r7, sp
 800023c:	b09a      	sub	sp, #104	; 0x68
 800023e:	9103      	str	r1, [sp, #12]
 8000240:	9004      	str	r0, [sp, #16]
 8000242:	f8d7 c008 	ldr.w	ip, [r7, #8]
 8000246:	f8cd c014 	str.w	ip, [sp, #20]
 800024a:	9207      	str	r2, [sp, #28]
 800024c:	9308      	str	r3, [sp, #32]
 800024e:	900e      	str	r0, [sp, #56]	; 0x38
 8000250:	910f      	str	r1, [sp, #60]	; 0x3c
 8000252:	a807      	add	r0, sp, #28
 8000254:	9011      	str	r0, [sp, #68]	; 0x44
 8000256:	9807      	ldr	r0, [sp, #28]
 8000258:	9012      	str	r0, [sp, #72]	; 0x48
 800025a:	900c      	str	r0, [sp, #48]	; 0x30
 800025c:	980c      	ldr	r0, [sp, #48]	; 0x30
 800025e:	9006      	str	r0, [sp, #24]
 8000260:	9013      	str	r0, [sp, #76]	; 0x4c
 8000262:	e7ff      	b.n	8000264 <_ZN4core5alloc6global11GlobalAlloc7realloc17h425afe912a14999aE+0x2c>
 8000264:	9906      	ldr	r1, [sp, #24]
 8000266:	9805      	ldr	r0, [sp, #20]
 8000268:	f000 fcfe 	bl	8000c68 <_ZN4core5alloc6layout6Layout25from_size_align_unchecked18precondition_check17h81ee6ad0488b2651E>
 800026c:	e7ff      	b.n	800026e <_ZN4core5alloc6global11GlobalAlloc7realloc17h425afe912a14999aE+0x36>
 800026e:	9a05      	ldr	r2, [sp, #20]
 8000270:	9906      	ldr	r1, [sp, #24]
 8000272:	9804      	ldr	r0, [sp, #16]
 8000274:	9114      	str	r1, [sp, #80]	; 0x50
 8000276:	9215      	str	r2, [sp, #84]	; 0x54
 8000278:	f005 f9b4 	bl	80055e4 <_ZN96_$LT$freertos_rust..allocator..FreeRtosAllocator$u20$as$u20$core..alloc..global..GlobalAlloc$GT$5alloc17ha2faf5168b77887cE>
 800027c:	4601      	mov	r1, r0
 800027e:	9102      	str	r1, [sp, #8]
 8000280:	9016      	str	r0, [sp, #88]	; 0x58
 8000282:	9017      	str	r0, [sp, #92]	; 0x5c
 8000284:	b908      	cbnz	r0, 800028a <_ZN4core5alloc6global11GlobalAlloc7realloc17h425afe912a14999aE+0x52>
 8000286:	e7ff      	b.n	8000288 <_ZN4core5alloc6global11GlobalAlloc7realloc17h425afe912a14999aE+0x50>
 8000288:	e015      	b.n	80002b6 <_ZN4core5alloc6global11GlobalAlloc7realloc17h425afe912a14999aE+0x7e>
 800028a:	9805      	ldr	r0, [sp, #20]
 800028c:	9903      	ldr	r1, [sp, #12]
 800028e:	9118      	str	r1, [sp, #96]	; 0x60
 8000290:	a907      	add	r1, sp, #28
 8000292:	9119      	str	r1, [sp, #100]	; 0x64
 8000294:	9908      	ldr	r1, [sp, #32]
 8000296:	910a      	str	r1, [sp, #40]	; 0x28
 8000298:	900b      	str	r0, [sp, #44]	; 0x2c
 800029a:	a80a      	add	r0, sp, #40	; 0x28
 800029c:	a90b      	add	r1, sp, #44	; 0x2c
 800029e:	f000 f83f 	bl	8000320 <_ZN4core3ops8function6FnOnce9call_once17hd7644ec0847f1d90E>
 80002a2:	f807 0c31 	strb.w	r0, [r7, #-49]
 80002a6:	f817 1c31 	ldrb.w	r1, [r7, #-49]
 80002aa:	1c48      	adds	r0, r1, #1
 80002ac:	b2c0      	uxtb	r0, r0
 80002ae:	2802      	cmp	r0, #2
 80002b0:	d305      	bcc.n	80002be <_ZN4core5alloc6global11GlobalAlloc7realloc17h425afe912a14999aE+0x86>
 80002b2:	e7ff      	b.n	80002b4 <_ZN4core5alloc6global11GlobalAlloc7realloc17h425afe912a14999aE+0x7c>
 80002b4:	e006      	b.n	80002c4 <_ZN4core5alloc6global11GlobalAlloc7realloc17h425afe912a14999aE+0x8c>
 80002b6:	9802      	ldr	r0, [sp, #8]
 80002b8:	b01a      	add	sp, #104	; 0x68
 80002ba:	bd80      	pop	{r7, pc}
 80002bc:	defe      	udf	#254	; 0xfe
 80002be:	980a      	ldr	r0, [sp, #40]	; 0x28
 80002c0:	9009      	str	r0, [sp, #36]	; 0x24
 80002c2:	e002      	b.n	80002ca <_ZN4core5alloc6global11GlobalAlloc7realloc17h425afe912a14999aE+0x92>
 80002c4:	9805      	ldr	r0, [sp, #20]
 80002c6:	9009      	str	r0, [sp, #36]	; 0x24
 80002c8:	e7ff      	b.n	80002ca <_ZN4core5alloc6global11GlobalAlloc7realloc17h425afe912a14999aE+0x92>
 80002ca:	e7ff      	b.n	80002cc <_ZN4core5alloc6global11GlobalAlloc7realloc17h425afe912a14999aE+0x94>
 80002cc:	9902      	ldr	r1, [sp, #8]
 80002ce:	9803      	ldr	r0, [sp, #12]
 80002d0:	9a09      	ldr	r2, [sp, #36]	; 0x24
 80002d2:	466b      	mov	r3, sp
 80002d4:	601a      	str	r2, [r3, #0]
 80002d6:	2301      	movs	r3, #1
 80002d8:	461a      	mov	r2, r3
 80002da:	f000 f8c0 	bl	800045e <_ZN4core10intrinsics19copy_nonoverlapping18precondition_check17h32f83d8f61b722f4E>
 80002de:	e7ff      	b.n	80002e0 <_ZN4core5alloc6global11GlobalAlloc7realloc17h425afe912a14999aE+0xa8>
 80002e0:	9903      	ldr	r1, [sp, #12]
 80002e2:	9802      	ldr	r0, [sp, #8]
 80002e4:	9a09      	ldr	r2, [sp, #36]	; 0x24
 80002e6:	f008 ff64 	bl	80091b2 <__aeabi_memcpy>
 80002ea:	9903      	ldr	r1, [sp, #12]
 80002ec:	9804      	ldr	r0, [sp, #16]
 80002ee:	9a07      	ldr	r2, [sp, #28]
 80002f0:	9b08      	ldr	r3, [sp, #32]
 80002f2:	f005 f985 	bl	8005600 <_ZN96_$LT$freertos_rust..allocator..FreeRtosAllocator$u20$as$u20$core..alloc..global..GlobalAlloc$GT$7dealloc17h6e23447d1b01d97dE>
 80002f6:	e7de      	b.n	80002b6 <_ZN4core5alloc6global11GlobalAlloc7realloc17h425afe912a14999aE+0x7e>

080002f8 <_ZN4core3ops8function6FnOnce40call_once$u7b$$u7b$vtable.shim$u7d$$u7d$17h1e303e3190a424f2E>:
 80002f8:	b580      	push	{r7, lr}
 80002fa:	466f      	mov	r7, sp
 80002fc:	b082      	sub	sp, #8
 80002fe:	9100      	str	r1, [sp, #0]
 8000300:	9001      	str	r0, [sp, #4]
 8000302:	9800      	ldr	r0, [sp, #0]
 8000304:	f000 fb13 	bl	800092e <_ZN22stm32_cortex_m4_f401re18__cortex_m_rt_main28_$u7b$$u7b$closure$u7d$$u7d$17h293765dd09e2fb25E>
 8000308:	b002      	add	sp, #8
 800030a:	bd80      	pop	{r7, pc}

0800030c <_ZN4core3ops8function6FnOnce40call_once$u7b$$u7b$vtable.shim$u7d$$u7d$17hd068fe66644c9d46E>:
 800030c:	b580      	push	{r7, lr}
 800030e:	466f      	mov	r7, sp
 8000310:	b082      	sub	sp, #8
 8000312:	9100      	str	r1, [sp, #0]
 8000314:	9001      	str	r0, [sp, #4]
 8000316:	9800      	ldr	r0, [sp, #0]
 8000318:	f000 fb11 	bl	800093e <_ZN22stm32_cortex_m4_f401re18__cortex_m_rt_main28_$u7b$$u7b$closure$u7d$$u7d$17hb1438bd9d923544fE>
 800031c:	b002      	add	sp, #8
 800031e:	bd80      	pop	{r7, pc}

08000320 <_ZN4core3ops8function6FnOnce9call_once17hd7644ec0847f1d90E>:
 8000320:	b580      	push	{r7, lr}
 8000322:	466f      	mov	r7, sp
 8000324:	b084      	sub	sp, #16
 8000326:	9001      	str	r0, [sp, #4]
 8000328:	9102      	str	r1, [sp, #8]
 800032a:	9801      	ldr	r0, [sp, #4]
 800032c:	9902      	ldr	r1, [sp, #8]
 800032e:	f000 fcad 	bl	8000c8c <_ZN4core3cmp5impls50_$LT$impl$u20$core..cmp..Ord$u20$for$u20$usize$GT$3cmp17h411eb5815f3eb637E>
 8000332:	b004      	add	sp, #16
 8000334:	bd80      	pop	{r7, pc}

08000336 <_ZN4core3ptr53drop_in_place$LT$freertos_rust..task..TaskBuilder$GT$17hdc43521a99eab5f5E>:
 8000336:	b580      	push	{r7, lr}
 8000338:	466f      	mov	r7, sp
 800033a:	b082      	sub	sp, #8
 800033c:	9001      	str	r0, [sp, #4]
 800033e:	f004 fee3 	bl	8005108 <_ZN4core3ptr42drop_in_place$LT$alloc..string..String$GT$17h88b92c11c21e8942E>
 8000342:	b002      	add	sp, #8
 8000344:	bd80      	pop	{r7, pc}

08000346 <_ZN4core3ptr57drop_in_place$LT$freertos_rust..isr..InterruptContext$GT$17heee32578ee263f0aE>:
 8000346:	b580      	push	{r7, lr}
 8000348:	466f      	mov	r7, sp
 800034a:	b082      	sub	sp, #8
 800034c:	9001      	str	r0, [sp, #4]
 800034e:	f004 ff7d 	bl	800524c <_ZN78_$LT$freertos_rust..isr..InterruptContext$u20$as$u20$core..ops..drop..Drop$GT$4drop17h82e14173bf451fdeE>
 8000352:	b002      	add	sp, #8
 8000354:	bd80      	pop	{r7, pc}

08000356 <_ZN5alloc6string6String6as_str17h5cf7302ebe2e8332E>:
 8000356:	b580      	push	{r7, lr}
 8000358:	466f      	mov	r7, sp
 800035a:	b08c      	sub	sp, #48	; 0x30
 800035c:	9002      	str	r0, [sp, #8]
 800035e:	9003      	str	r0, [sp, #12]
 8000360:	9004      	str	r0, [sp, #16]
 8000362:	9005      	str	r0, [sp, #20]
 8000364:	6841      	ldr	r1, [r0, #4]
 8000366:	9100      	str	r1, [sp, #0]
 8000368:	9106      	str	r1, [sp, #24]
 800036a:	9107      	str	r1, [sp, #28]
 800036c:	9108      	str	r1, [sp, #32]
 800036e:	6880      	ldr	r0, [r0, #8]
 8000370:	9001      	str	r0, [sp, #4]
 8000372:	9009      	str	r0, [sp, #36]	; 0x24
 8000374:	e7ff      	b.n	8000376 <_ZN5alloc6string6String6as_str17h5cf7302ebe2e8332E+0x20>
 8000376:	9b01      	ldr	r3, [sp, #4]
 8000378:	9800      	ldr	r0, [sp, #0]
 800037a:	2201      	movs	r2, #1
 800037c:	4611      	mov	r1, r2
 800037e:	f000 faf6 	bl	800096e <_ZN4core5slice3raw14from_raw_parts18precondition_check17h87034b83b05e6045E>
 8000382:	e7ff      	b.n	8000384 <_ZN5alloc6string6String6as_str17h5cf7302ebe2e8332E+0x2e>
 8000384:	9901      	ldr	r1, [sp, #4]
 8000386:	9800      	ldr	r0, [sp, #0]
 8000388:	900a      	str	r0, [sp, #40]	; 0x28
 800038a:	910b      	str	r1, [sp, #44]	; 0x2c
 800038c:	b00c      	add	sp, #48	; 0x30
 800038e:	bd80      	pop	{r7, pc}

08000390 <_ZN65_$LT$alloc..string..String$u20$as$u20$core..ops..deref..Deref$GT$5deref17hcc747a64a952d52aE>:
 8000390:	b580      	push	{r7, lr}
 8000392:	466f      	mov	r7, sp
 8000394:	b082      	sub	sp, #8
 8000396:	9001      	str	r0, [sp, #4]
 8000398:	f7ff ffdd 	bl	8000356 <_ZN5alloc6string6String6as_str17h5cf7302ebe2e8332E>
 800039c:	b002      	add	sp, #8
 800039e:	bd80      	pop	{r7, pc}

080003a0 <_ZN4core10intrinsics11write_bytes18precondition_check17h1c495d6cd44e7aebE>:
 80003a0:	b580      	push	{r7, lr}
 80003a2:	466f      	mov	r7, sp
 80003a4:	b090      	sub	sp, #64	; 0x40
 80003a6:	9101      	str	r1, [sp, #4]
 80003a8:	9002      	str	r0, [sp, #8]
 80003aa:	4613      	mov	r3, r2
 80003ac:	9303      	str	r3, [sp, #12]
 80003ae:	900a      	str	r0, [sp, #40]	; 0x28
 80003b0:	910b      	str	r1, [sp, #44]	; 0x2c
 80003b2:	f807 2c0d 	strb.w	r2, [r7, #-13]
 80003b6:	f249 40b0 	movw	r0, #38064	; 0x94b0
 80003ba:	f6c0 0000 	movt	r0, #2048	; 0x800
 80003be:	900d      	str	r0, [sp, #52]	; 0x34
 80003c0:	f04f 3055 	mov.w	r0, #1431655765	; 0x55555555
 80003c4:	ea00 0051 	and.w	r0, r0, r1, lsr #1
 80003c8:	1a08      	subs	r0, r1, r0
 80003ca:	f04f 3133 	mov.w	r1, #858993459	; 0x33333333
 80003ce:	ea01 0190 	and.w	r1, r1, r0, lsr #2
 80003d2:	f020 30cc 	bic.w	r0, r0, #3435973836	; 0xcccccccc
 80003d6:	4408      	add	r0, r1
 80003d8:	eb00 1010 	add.w	r0, r0, r0, lsr #4
 80003dc:	f020 30f0 	bic.w	r0, r0, #4042322160	; 0xf0f0f0f0
 80003e0:	f04f 3101 	mov.w	r1, #16843009	; 0x1010101
 80003e4:	4348      	muls	r0, r1
 80003e6:	0e00      	lsrs	r0, r0, #24
 80003e8:	900e      	str	r0, [sp, #56]	; 0x38
 80003ea:	980e      	ldr	r0, [sp, #56]	; 0x38
 80003ec:	2801      	cmp	r0, #1
 80003ee:	d108      	bne.n	8000402 <_ZN4core10intrinsics11write_bytes18precondition_check17h1c495d6cd44e7aebE+0x62>
 80003f0:	e7ff      	b.n	80003f2 <_ZN4core10intrinsics11write_bytes18precondition_check17h1c495d6cd44e7aebE+0x52>
 80003f2:	9802      	ldr	r0, [sp, #8]
 80003f4:	9901      	ldr	r1, [sp, #4]
 80003f6:	4602      	mov	r2, r0
 80003f8:	9200      	str	r2, [sp, #0]
 80003fa:	3901      	subs	r1, #1
 80003fc:	4208      	tst	r0, r1
 80003fe:	d01a      	beq.n	8000436 <_ZN4core10intrinsics11write_bytes18precondition_check17h1c495d6cd44e7aebE+0x96>
 8000400:	e01d      	b.n	800043e <_ZN4core10intrinsics11write_bytes18precondition_check17h1c495d6cd44e7aebE+0x9e>
 8000402:	f249 40b0 	movw	r0, #38064	; 0x94b0
 8000406:	f6c0 0000 	movt	r0, #2048	; 0x800
 800040a:	9004      	str	r0, [sp, #16]
 800040c:	2001      	movs	r0, #1
 800040e:	9005      	str	r0, [sp, #20]
 8000410:	f249 5038 	movw	r0, #38200	; 0x9538
 8000414:	f6c0 0000 	movt	r0, #2048	; 0x800
 8000418:	6801      	ldr	r1, [r0, #0]
 800041a:	6840      	ldr	r0, [r0, #4]
 800041c:	9108      	str	r1, [sp, #32]
 800041e:	9009      	str	r0, [sp, #36]	; 0x24
 8000420:	2004      	movs	r0, #4
 8000422:	9006      	str	r0, [sp, #24]
 8000424:	2000      	movs	r0, #0
 8000426:	9007      	str	r0, [sp, #28]
 8000428:	f249 51c8 	movw	r1, #38344	; 0x95c8
 800042c:	f6c0 0100 	movt	r1, #2048	; 0x800
 8000430:	a804      	add	r0, sp, #16
 8000432:	f006 ff5a 	bl	80072ea <_ZN4core9panicking9panic_fmt17h9bd7242b2f9f3cdaE>
 8000436:	9803      	ldr	r0, [sp, #12]
 8000438:	07c0      	lsls	r0, r0, #31
 800043a:	b930      	cbnz	r0, 800044a <_ZN4core10intrinsics11write_bytes18precondition_check17h1c495d6cd44e7aebE+0xaa>
 800043c:	e000      	b.n	8000440 <_ZN4core10intrinsics11write_bytes18precondition_check17h1c495d6cd44e7aebE+0xa0>
 800043e:	e005      	b.n	800044c <_ZN4core10intrinsics11write_bytes18precondition_check17h1c495d6cd44e7aebE+0xac>
 8000440:	9800      	ldr	r0, [sp, #0]
 8000442:	9902      	ldr	r1, [sp, #8]
 8000444:	910f      	str	r1, [sp, #60]	; 0x3c
 8000446:	b940      	cbnz	r0, 800045a <_ZN4core10intrinsics11write_bytes18precondition_check17h1c495d6cd44e7aebE+0xba>
 8000448:	e000      	b.n	800044c <_ZN4core10intrinsics11write_bytes18precondition_check17h1c495d6cd44e7aebE+0xac>
 800044a:	e006      	b.n	800045a <_ZN4core10intrinsics11write_bytes18precondition_check17h1c495d6cd44e7aebE+0xba>
 800044c:	f249 40b8 	movw	r0, #38072	; 0x94b8
 8000450:	f6c0 0000 	movt	r0, #2048	; 0x800
 8000454:	216f      	movs	r1, #111	; 0x6f
 8000456:	f006 ff7a 	bl	800734e <_ZN4core9panicking14panic_nounwind17ha7168a7a4498f4fbE>
 800045a:	b010      	add	sp, #64	; 0x40
 800045c:	bd80      	pop	{r7, pc}

0800045e <_ZN4core10intrinsics19copy_nonoverlapping18precondition_check17h32f83d8f61b722f4E>:
 800045e:	b580      	push	{r7, lr}
 8000460:	466f      	mov	r7, sp
 8000462:	b0a6      	sub	sp, #152	; 0x98
 8000464:	9303      	str	r3, [sp, #12]
 8000466:	9204      	str	r2, [sp, #16]
 8000468:	9105      	str	r1, [sp, #20]
 800046a:	4684      	mov	ip, r0
 800046c:	f8cd c018 	str.w	ip, [sp, #24]
 8000470:	68b8      	ldr	r0, [r7, #8]
 8000472:	9007      	str	r0, [sp, #28]
 8000474:	f8cd c06c 	str.w	ip, [sp, #108]	; 0x6c
 8000478:	911c      	str	r1, [sp, #112]	; 0x70
 800047a:	921d      	str	r2, [sp, #116]	; 0x74
 800047c:	931e      	str	r3, [sp, #120]	; 0x78
 800047e:	f249 41b0 	movw	r1, #38064	; 0x94b0
 8000482:	f6c0 0100 	movt	r1, #2048	; 0x800
 8000486:	911f      	str	r1, [sp, #124]	; 0x7c
 8000488:	9120      	str	r1, [sp, #128]	; 0x80
 800048a:	bb20      	cbnz	r0, 80004d6 <_ZN4core10intrinsics19copy_nonoverlapping18precondition_check17h32f83d8f61b722f4E+0x78>
 800048c:	e7ff      	b.n	800048e <_ZN4core10intrinsics19copy_nonoverlapping18precondition_check17h32f83d8f61b722f4E+0x30>
 800048e:	9803      	ldr	r0, [sp, #12]
 8000490:	2101      	movs	r1, #1
 8000492:	f807 1c75 	strb.w	r1, [r7, #-117]
 8000496:	9009      	str	r0, [sp, #36]	; 0x24
 8000498:	f817 1c75 	ldrb.w	r1, [r7, #-117]
 800049c:	f001 0101 	and.w	r1, r1, #1
 80004a0:	f807 1c6d 	strb.w	r1, [r7, #-109]
 80004a4:	f04f 3155 	mov.w	r1, #1431655765	; 0x55555555
 80004a8:	ea01 0150 	and.w	r1, r1, r0, lsr #1
 80004ac:	1a40      	subs	r0, r0, r1
 80004ae:	f04f 3133 	mov.w	r1, #858993459	; 0x33333333
 80004b2:	ea01 0190 	and.w	r1, r1, r0, lsr #2
 80004b6:	f020 30cc 	bic.w	r0, r0, #3435973836	; 0xcccccccc
 80004ba:	4408      	add	r0, r1
 80004bc:	eb00 1010 	add.w	r0, r0, r0, lsr #4
 80004c0:	f020 30f0 	bic.w	r0, r0, #4042322160	; 0xf0f0f0f0
 80004c4:	f04f 3101 	mov.w	r1, #16843009	; 0x1010101
 80004c8:	4348      	muls	r0, r1
 80004ca:	0e00      	lsrs	r0, r0, #24
 80004cc:	9014      	str	r0, [sp, #80]	; 0x50
 80004ce:	9814      	ldr	r0, [sp, #80]	; 0x50
 80004d0:	2801      	cmp	r0, #1
 80004d2:	d027      	beq.n	8000524 <_ZN4core10intrinsics19copy_nonoverlapping18precondition_check17h32f83d8f61b722f4E+0xc6>
 80004d4:	e032      	b.n	800053c <_ZN4core10intrinsics19copy_nonoverlapping18precondition_check17h32f83d8f61b722f4E+0xde>
 80004d6:	9803      	ldr	r0, [sp, #12]
 80004d8:	9904      	ldr	r1, [sp, #16]
 80004da:	fab1 f181 	clz	r1, r1
 80004de:	0949      	lsrs	r1, r1, #5
 80004e0:	f807 1c75 	strb.w	r1, [r7, #-117]
 80004e4:	9009      	str	r0, [sp, #36]	; 0x24
 80004e6:	f817 1c75 	ldrb.w	r1, [r7, #-117]
 80004ea:	f001 0101 	and.w	r1, r1, #1
 80004ee:	f807 1c6d 	strb.w	r1, [r7, #-109]
 80004f2:	f04f 3155 	mov.w	r1, #1431655765	; 0x55555555
 80004f6:	ea01 0150 	and.w	r1, r1, r0, lsr #1
 80004fa:	1a40      	subs	r0, r0, r1
 80004fc:	f04f 3133 	mov.w	r1, #858993459	; 0x33333333
 8000500:	ea01 0190 	and.w	r1, r1, r0, lsr #2
 8000504:	f020 30cc 	bic.w	r0, r0, #3435973836	; 0xcccccccc
 8000508:	4408      	add	r0, r1
 800050a:	eb00 1010 	add.w	r0, r0, r0, lsr #4
 800050e:	f020 30f0 	bic.w	r0, r0, #4042322160	; 0xf0f0f0f0
 8000512:	f04f 3101 	mov.w	r1, #16843009	; 0x1010101
 8000516:	4348      	muls	r0, r1
 8000518:	0e00      	lsrs	r0, r0, #24
 800051a:	9014      	str	r0, [sp, #80]	; 0x50
 800051c:	9814      	ldr	r0, [sp, #80]	; 0x50
 800051e:	2801      	cmp	r0, #1
 8000520:	d029      	beq.n	8000576 <_ZN4core10intrinsics19copy_nonoverlapping18precondition_check17h32f83d8f61b722f4E+0x118>
 8000522:	e00b      	b.n	800053c <_ZN4core10intrinsics19copy_nonoverlapping18precondition_check17h32f83d8f61b722f4E+0xde>
 8000524:	9803      	ldr	r0, [sp, #12]
 8000526:	9906      	ldr	r1, [sp, #24]
 8000528:	9112      	str	r1, [sp, #72]	; 0x48
 800052a:	3801      	subs	r0, #1
 800052c:	9013      	str	r0, [sp, #76]	; 0x4c
 800052e:	9812      	ldr	r0, [sp, #72]	; 0x48
 8000530:	9913      	ldr	r1, [sp, #76]	; 0x4c
 8000532:	4008      	ands	r0, r1
 8000534:	9011      	str	r0, [sp, #68]	; 0x44
 8000536:	9811      	ldr	r0, [sp, #68]	; 0x44
 8000538:	b1d0      	cbz	r0, 8000570 <_ZN4core10intrinsics19copy_nonoverlapping18precondition_check17h32f83d8f61b722f4E+0x112>
 800053a:	e01a      	b.n	8000572 <_ZN4core10intrinsics19copy_nonoverlapping18precondition_check17h32f83d8f61b722f4E+0x114>
 800053c:	f249 40b0 	movw	r0, #38064	; 0x94b0
 8000540:	f6c0 0000 	movt	r0, #2048	; 0x800
 8000544:	900b      	str	r0, [sp, #44]	; 0x2c
 8000546:	2001      	movs	r0, #1
 8000548:	900c      	str	r0, [sp, #48]	; 0x30
 800054a:	f249 5038 	movw	r0, #38200	; 0x9538
 800054e:	f6c0 0000 	movt	r0, #2048	; 0x800
 8000552:	6801      	ldr	r1, [r0, #0]
 8000554:	6840      	ldr	r0, [r0, #4]
 8000556:	910f      	str	r1, [sp, #60]	; 0x3c
 8000558:	9010      	str	r0, [sp, #64]	; 0x40
 800055a:	2004      	movs	r0, #4
 800055c:	900d      	str	r0, [sp, #52]	; 0x34
 800055e:	2000      	movs	r0, #0
 8000560:	900e      	str	r0, [sp, #56]	; 0x38
 8000562:	f249 51c8 	movw	r1, #38344	; 0x95c8
 8000566:	f6c0 0100 	movt	r1, #2048	; 0x800
 800056a:	a80b      	add	r0, sp, #44	; 0x2c
 800056c:	f006 febd 	bl	80072ea <_ZN4core9panicking9panic_fmt17h9bd7242b2f9f3cdaE>
 8000570:	e000      	b.n	8000574 <_ZN4core10intrinsics19copy_nonoverlapping18precondition_check17h32f83d8f61b722f4E+0x116>
 8000572:	e018      	b.n	80005a6 <_ZN4core10intrinsics19copy_nonoverlapping18precondition_check17h32f83d8f61b722f4E+0x148>
 8000574:	e018      	b.n	80005a8 <_ZN4core10intrinsics19copy_nonoverlapping18precondition_check17h32f83d8f61b722f4E+0x14a>
 8000576:	9803      	ldr	r0, [sp, #12]
 8000578:	9906      	ldr	r1, [sp, #24]
 800057a:	9112      	str	r1, [sp, #72]	; 0x48
 800057c:	3801      	subs	r0, #1
 800057e:	9013      	str	r0, [sp, #76]	; 0x4c
 8000580:	9812      	ldr	r0, [sp, #72]	; 0x48
 8000582:	9913      	ldr	r1, [sp, #76]	; 0x4c
 8000584:	4008      	ands	r0, r1
 8000586:	9011      	str	r0, [sp, #68]	; 0x44
 8000588:	9811      	ldr	r0, [sp, #68]	; 0x44
 800058a:	2800      	cmp	r0, #0
 800058c:	d1f1      	bne.n	8000572 <_ZN4core10intrinsics19copy_nonoverlapping18precondition_check17h32f83d8f61b722f4E+0x114>
 800058e:	e7ff      	b.n	8000590 <_ZN4core10intrinsics19copy_nonoverlapping18precondition_check17h32f83d8f61b722f4E+0x132>
 8000590:	f817 0c6d 	ldrb.w	r0, [r7, #-109]
 8000594:	07c0      	lsls	r0, r0, #31
 8000596:	2800      	cmp	r0, #0
 8000598:	d1ec      	bne.n	8000574 <_ZN4core10intrinsics19copy_nonoverlapping18precondition_check17h32f83d8f61b722f4E+0x116>
 800059a:	e7ff      	b.n	800059c <_ZN4core10intrinsics19copy_nonoverlapping18precondition_check17h32f83d8f61b722f4E+0x13e>
 800059c:	9806      	ldr	r0, [sp, #24]
 800059e:	9021      	str	r0, [sp, #132]	; 0x84
 80005a0:	9812      	ldr	r0, [sp, #72]	; 0x48
 80005a2:	b908      	cbnz	r0, 80005a8 <_ZN4core10intrinsics19copy_nonoverlapping18precondition_check17h32f83d8f61b722f4E+0x14a>
 80005a4:	e7ff      	b.n	80005a6 <_ZN4core10intrinsics19copy_nonoverlapping18precondition_check17h32f83d8f61b722f4E+0x148>
 80005a6:	e061      	b.n	800066c <_ZN4core10intrinsics19copy_nonoverlapping18precondition_check17h32f83d8f61b722f4E+0x20e>
 80005a8:	9803      	ldr	r0, [sp, #12]
 80005aa:	9905      	ldr	r1, [sp, #20]
 80005ac:	9122      	str	r1, [sp, #136]	; 0x88
 80005ae:	f817 1c75 	ldrb.w	r1, [r7, #-117]
 80005b2:	460a      	mov	r2, r1
 80005b4:	9202      	str	r2, [sp, #8]
 80005b6:	f001 0101 	and.w	r1, r1, #1
 80005ba:	f807 1c09 	strb.w	r1, [r7, #-9]
 80005be:	f04f 3155 	mov.w	r1, #1431655765	; 0x55555555
 80005c2:	ea01 0150 	and.w	r1, r1, r0, lsr #1
 80005c6:	1a40      	subs	r0, r0, r1
 80005c8:	f04f 3133 	mov.w	r1, #858993459	; 0x33333333
 80005cc:	ea01 0190 	and.w	r1, r1, r0, lsr #2
 80005d0:	f020 30cc 	bic.w	r0, r0, #3435973836	; 0xcccccccc
 80005d4:	4408      	add	r0, r1
 80005d6:	eb00 1010 	add.w	r0, r0, r0, lsr #4
 80005da:	f020 30f0 	bic.w	r0, r0, #4042322160	; 0xf0f0f0f0
 80005de:	f04f 3101 	mov.w	r1, #16843009	; 0x1010101
 80005e2:	4348      	muls	r0, r1
 80005e4:	0e00      	lsrs	r0, r0, #24
 80005e6:	9024      	str	r0, [sp, #144]	; 0x90
 80005e8:	9824      	ldr	r0, [sp, #144]	; 0x90
 80005ea:	2801      	cmp	r0, #1
 80005ec:	d107      	bne.n	80005fe <_ZN4core10intrinsics19copy_nonoverlapping18precondition_check17h32f83d8f61b722f4E+0x1a0>
 80005ee:	e7ff      	b.n	80005f0 <_ZN4core10intrinsics19copy_nonoverlapping18precondition_check17h32f83d8f61b722f4E+0x192>
 80005f0:	9805      	ldr	r0, [sp, #20]
 80005f2:	4601      	mov	r1, r0
 80005f4:	9101      	str	r1, [sp, #4]
 80005f6:	9913      	ldr	r1, [sp, #76]	; 0x4c
 80005f8:	4208      	tst	r0, r1
 80005fa:	d01a      	beq.n	8000632 <_ZN4core10intrinsics19copy_nonoverlapping18precondition_check17h32f83d8f61b722f4E+0x1d4>
 80005fc:	e01d      	b.n	800063a <_ZN4core10intrinsics19copy_nonoverlapping18precondition_check17h32f83d8f61b722f4E+0x1dc>
 80005fe:	f249 40b0 	movw	r0, #38064	; 0x94b0
 8000602:	f6c0 0000 	movt	r0, #2048	; 0x800
 8000606:	9015      	str	r0, [sp, #84]	; 0x54
 8000608:	2001      	movs	r0, #1
 800060a:	9016      	str	r0, [sp, #88]	; 0x58
 800060c:	f249 5038 	movw	r0, #38200	; 0x9538
 8000610:	f6c0 0000 	movt	r0, #2048	; 0x800
 8000614:	6801      	ldr	r1, [r0, #0]
 8000616:	6840      	ldr	r0, [r0, #4]
 8000618:	9119      	str	r1, [sp, #100]	; 0x64
 800061a:	901a      	str	r0, [sp, #104]	; 0x68
 800061c:	2004      	movs	r0, #4
 800061e:	9017      	str	r0, [sp, #92]	; 0x5c
 8000620:	2000      	movs	r0, #0
 8000622:	9018      	str	r0, [sp, #96]	; 0x60
 8000624:	f249 51c8 	movw	r1, #38344	; 0x95c8
 8000628:	f6c0 0100 	movt	r1, #2048	; 0x800
 800062c:	a815      	add	r0, sp, #84	; 0x54
 800062e:	f006 fe5c 	bl	80072ea <_ZN4core9panicking9panic_fmt17h9bd7242b2f9f3cdaE>
 8000632:	9802      	ldr	r0, [sp, #8]
 8000634:	07c0      	lsls	r0, r0, #31
 8000636:	b930      	cbnz	r0, 8000646 <_ZN4core10intrinsics19copy_nonoverlapping18precondition_check17h32f83d8f61b722f4E+0x1e8>
 8000638:	e000      	b.n	800063c <_ZN4core10intrinsics19copy_nonoverlapping18precondition_check17h32f83d8f61b722f4E+0x1de>
 800063a:	e005      	b.n	8000648 <_ZN4core10intrinsics19copy_nonoverlapping18precondition_check17h32f83d8f61b722f4E+0x1ea>
 800063c:	9801      	ldr	r0, [sp, #4]
 800063e:	9905      	ldr	r1, [sp, #20]
 8000640:	9125      	str	r1, [sp, #148]	; 0x94
 8000642:	b910      	cbnz	r0, 800064a <_ZN4core10intrinsics19copy_nonoverlapping18precondition_check17h32f83d8f61b722f4E+0x1ec>
 8000644:	e000      	b.n	8000648 <_ZN4core10intrinsics19copy_nonoverlapping18precondition_check17h32f83d8f61b722f4E+0x1ea>
 8000646:	e000      	b.n	800064a <_ZN4core10intrinsics19copy_nonoverlapping18precondition_check17h32f83d8f61b722f4E+0x1ec>
 8000648:	e010      	b.n	800066c <_ZN4core10intrinsics19copy_nonoverlapping18precondition_check17h32f83d8f61b722f4E+0x20e>
 800064a:	9b07      	ldr	r3, [sp, #28]
 800064c:	9a04      	ldr	r2, [sp, #16]
 800064e:	9905      	ldr	r1, [sp, #20]
 8000650:	9806      	ldr	r0, [sp, #24]
 8000652:	f000 fe78 	bl	8001346 <_ZN4core9ub_checks17is_nonoverlapping7runtime17hd0dcb1bd2fd68f20E>
 8000656:	b938      	cbnz	r0, 8000668 <_ZN4core10intrinsics19copy_nonoverlapping18precondition_check17h32f83d8f61b722f4E+0x20a>
 8000658:	e7ff      	b.n	800065a <_ZN4core10intrinsics19copy_nonoverlapping18precondition_check17h32f83d8f61b722f4E+0x1fc>
 800065a:	f249 50d8 	movw	r0, #38360	; 0x95d8
 800065e:	f6c0 0000 	movt	r0, #2048	; 0x800
 8000662:	21a6      	movs	r1, #166	; 0xa6
 8000664:	f006 fe73 	bl	800734e <_ZN4core9panicking14panic_nounwind17ha7168a7a4498f4fbE>
 8000668:	b026      	add	sp, #152	; 0x98
 800066a:	bd80      	pop	{r7, pc}
 800066c:	e7f5      	b.n	800065a <_ZN4core10intrinsics19copy_nonoverlapping18precondition_check17h32f83d8f61b722f4E+0x1fc>

0800066e <_ZN22stm32_cortex_m4_f401re28MyDevice$LT$Button$C$LED$GT$3new17hbb1a86142ec8d342E>:
 800066e:	b081      	sub	sp, #4
 8000670:	b001      	add	sp, #4
 8000672:	4770      	bx	lr

08000674 <_ZN22stm32_cortex_m4_f401re14setup_hardware28_$u7b$$u7b$closure$u7d$$u7d$17h0d889faa55db53fbE>:
 8000674:	b087      	sub	sp, #28
 8000676:	9001      	str	r0, [sp, #4]
 8000678:	9102      	str	r1, [sp, #8]
 800067a:	9103      	str	r1, [sp, #12]
 800067c:	9104      	str	r1, [sp, #16]
 800067e:	9105      	str	r1, [sp, #20]
 8000680:	2001      	movs	r0, #1
 8000682:	f88d 001b 	strb.w	r0, [sp, #27]
 8000686:	9905      	ldr	r1, [sp, #20]
 8000688:	6808      	ldr	r0, [r1, #0]
 800068a:	f440 3080 	orr.w	r0, r0, #65536	; 0x10000
 800068e:	6008      	str	r0, [r1, #0]
 8000690:	9805      	ldr	r0, [sp, #20]
 8000692:	b007      	add	sp, #28
 8000694:	4770      	bx	lr

08000696 <_ZN22stm32_cortex_m4_f401re14setup_hardware28_$u7b$$u7b$closure$u7d$$u7d$17ha86ca7ec55373c5aE>:
 8000696:	b580      	push	{r7, lr}
 8000698:	466f      	mov	r7, sp
 800069a:	b08c      	sub	sp, #48	; 0x30
 800069c:	9101      	str	r1, [sp, #4]
 800069e:	9003      	str	r0, [sp, #12]
 80006a0:	9104      	str	r1, [sp, #16]
 80006a2:	9105      	str	r1, [sp, #20]
 80006a4:	9107      	str	r1, [sp, #28]
 80006a6:	2001      	movs	r0, #1
 80006a8:	f807 0c15 	strb.w	r0, [r7, #-21]
 80006ac:	f817 0c15 	ldrb.w	r0, [r7, #-21]
 80006b0:	9108      	str	r1, [sp, #32]
 80006b2:	f807 0c09 	strb.w	r0, [r7, #-9]
 80006b6:	f249 61ec 	movw	r1, #38636	; 0x96ec
 80006ba:	f6c0 0100 	movt	r1, #2048	; 0x800
 80006be:	f004 fa1c 	bl	8004afa <_ZN50_$LT$T$u20$as$u20$core..convert..Into$LT$U$GT$$GT$4into17h5d55044f6ecd8c13E>
 80006c2:	9901      	ldr	r1, [sp, #4]
 80006c4:	4602      	mov	r2, r0
 80006c6:	910a      	str	r1, [sp, #40]	; 0x28
 80006c8:	f807 2c01 	strb.w	r2, [r7, #-1]
 80006cc:	990a      	ldr	r1, [sp, #40]	; 0x28
 80006ce:	6808      	ldr	r0, [r1, #0]
 80006d0:	f362 0001 	bfi	r0, r2, #0, #2
 80006d4:	6008      	str	r0, [r1, #0]
 80006d6:	980a      	ldr	r0, [sp, #40]	; 0x28
 80006d8:	b00c      	add	sp, #48	; 0x30
 80006da:	bd80      	pop	{r7, pc}

080006dc <_ZN22stm32_cortex_m4_f401re14setup_hardware28_$u7b$$u7b$closure$u7d$$u7d$17h3a2a4525b70388cbE>:
 80006dc:	b580      	push	{r7, lr}
 80006de:	466f      	mov	r7, sp
 80006e0:	b094      	sub	sp, #80	; 0x50
 80006e2:	9101      	str	r1, [sp, #4]
 80006e4:	9005      	str	r0, [sp, #20]
 80006e6:	9106      	str	r1, [sp, #24]
 80006e8:	9107      	str	r1, [sp, #28]
 80006ea:	910a      	str	r1, [sp, #40]	; 0x28
 80006ec:	2001      	movs	r0, #1
 80006ee:	9002      	str	r0, [sp, #8]
 80006f0:	f807 0c29 	strb.w	r0, [r7, #-41]
 80006f4:	f817 0c29 	ldrb.w	r0, [r7, #-41]
 80006f8:	910b      	str	r1, [sp, #44]	; 0x2c
 80006fa:	f000 0001 	and.w	r0, r0, #1
 80006fe:	f807 0c1d 	strb.w	r0, [r7, #-29]
 8000702:	f249 716c 	movw	r1, #38764	; 0x976c
 8000706:	f6c0 0100 	movt	r1, #2048	; 0x800
 800070a:	f001 fa38 	bl	8001b7e <_ZN50_$LT$T$u20$as$u20$core..convert..Into$LT$U$GT$$GT$4into17h1aa803d9c081a83eE>
 800070e:	9901      	ldr	r1, [sp, #4]
 8000710:	4603      	mov	r3, r0
 8000712:	9802      	ldr	r0, [sp, #8]
 8000714:	910d      	str	r1, [sp, #52]	; 0x34
 8000716:	f807 3c16 	strb.w	r3, [r7, #-22]
 800071a:	9a0d      	ldr	r2, [sp, #52]	; 0x34
 800071c:	6811      	ldr	r1, [r2, #0]
 800071e:	f021 0101 	bic.w	r1, r1, #1
 8000722:	4419      	add	r1, r3
 8000724:	6011      	str	r1, [r2, #0]
 8000726:	990d      	ldr	r1, [sp, #52]	; 0x34
 8000728:	9103      	str	r1, [sp, #12]
 800072a:	9108      	str	r1, [sp, #32]
 800072c:	910f      	str	r1, [sp, #60]	; 0x3c
 800072e:	f807 0c15 	strb.w	r0, [r7, #-21]
 8000732:	f817 0c15 	ldrb.w	r0, [r7, #-21]
 8000736:	9110      	str	r1, [sp, #64]	; 0x40
 8000738:	f000 0001 	and.w	r0, r0, #1
 800073c:	f807 0c09 	strb.w	r0, [r7, #-9]
 8000740:	f249 717c 	movw	r1, #38780	; 0x977c
 8000744:	f6c0 0100 	movt	r1, #2048	; 0x800
 8000748:	f001 fa19 	bl	8001b7e <_ZN50_$LT$T$u20$as$u20$core..convert..Into$LT$U$GT$$GT$4into17h1aa803d9c081a83eE>
 800074c:	4602      	mov	r2, r0
 800074e:	9803      	ldr	r0, [sp, #12]
 8000750:	9012      	str	r0, [sp, #72]	; 0x48
 8000752:	f807 2c01 	strb.w	r2, [r7, #-1]
 8000756:	9912      	ldr	r1, [sp, #72]	; 0x48
 8000758:	6808      	ldr	r0, [r1, #0]
 800075a:	f020 0004 	bic.w	r0, r0, #4
 800075e:	ea40 0082 	orr.w	r0, r0, r2, lsl #2
 8000762:	6008      	str	r0, [r1, #0]
 8000764:	9812      	ldr	r0, [sp, #72]	; 0x48
 8000766:	b014      	add	sp, #80	; 0x50
 8000768:	bd80      	pop	{r7, pc}

0800076a <_ZN22stm32_cortex_m4_f401re14setup_hardware28_$u7b$$u7b$closure$u7d$$u7d$17h0716f431d4ddcfaaE>:
 800076a:	b580      	push	{r7, lr}
 800076c:	466f      	mov	r7, sp
 800076e:	b08c      	sub	sp, #48	; 0x30
 8000770:	9101      	str	r1, [sp, #4]
 8000772:	9003      	str	r0, [sp, #12]
 8000774:	9104      	str	r1, [sp, #16]
 8000776:	910b      	str	r1, [sp, #44]	; 0x2c
 8000778:	9106      	str	r1, [sp, #24]
 800077a:	2001      	movs	r0, #1
 800077c:	f807 0c19 	strb.w	r0, [r7, #-25]
 8000780:	f817 0c19 	ldrb.w	r0, [r7, #-25]
 8000784:	9107      	str	r1, [sp, #28]
 8000786:	f000 0001 	and.w	r0, r0, #1
 800078a:	f807 0c0d 	strb.w	r0, [r7, #-13]
 800078e:	f249 71fc 	movw	r1, #38908	; 0x97fc
 8000792:	f6c0 0100 	movt	r1, #2048	; 0x800
 8000796:	f000 f98d 	bl	8000ab4 <_ZN50_$LT$T$u20$as$u20$core..convert..Into$LT$U$GT$$GT$4into17hce011a28f5bd022bE>
 800079a:	9901      	ldr	r1, [sp, #4]
 800079c:	4602      	mov	r2, r0
 800079e:	9109      	str	r1, [sp, #36]	; 0x24
 80007a0:	f807 2c05 	strb.w	r2, [r7, #-5]
 80007a4:	9909      	ldr	r1, [sp, #36]	; 0x24
 80007a6:	6808      	ldr	r0, [r1, #0]
 80007a8:	f420 4080 	bic.w	r0, r0, #16384	; 0x4000
 80007ac:	ea40 3082 	orr.w	r0, r0, r2, lsl #14
 80007b0:	6008      	str	r0, [r1, #0]
 80007b2:	9809      	ldr	r0, [sp, #36]	; 0x24
 80007b4:	b00c      	add	sp, #48	; 0x30
 80007b6:	bd80      	pop	{r7, pc}

080007b8 <_ZN22stm32_cortex_m4_f401re14setup_hardware28_$u7b$$u7b$closure$u7d$$u7d$17h15b21cdf0ec32fbfE>:
 80007b8:	b086      	sub	sp, #24
 80007ba:	9001      	str	r0, [sp, #4]
 80007bc:	9102      	str	r1, [sp, #8]
 80007be:	9103      	str	r1, [sp, #12]
 80007c0:	9104      	str	r1, [sp, #16]
 80007c2:	2202      	movs	r2, #2
 80007c4:	f88d 2017 	strb.w	r2, [sp, #23]
 80007c8:	9904      	ldr	r1, [sp, #16]
 80007ca:	6808      	ldr	r0, [r1, #0]
 80007cc:	f362 1007 	bfi	r0, r2, #4, #4
 80007d0:	6008      	str	r0, [r1, #0]
 80007d2:	9804      	ldr	r0, [sp, #16]
 80007d4:	b006      	add	sp, #24
 80007d6:	4770      	bx	lr

080007d8 <_ZN22stm32_cortex_m4_f401re14setup_hardware28_$u7b$$u7b$closure$u7d$$u7d$17hc4fd8c3631beae73E>:
 80007d8:	b087      	sub	sp, #28
 80007da:	9001      	str	r0, [sp, #4]
 80007dc:	9102      	str	r1, [sp, #8]
 80007de:	9103      	str	r1, [sp, #12]
 80007e0:	9104      	str	r1, [sp, #16]
 80007e2:	9105      	str	r1, [sp, #20]
 80007e4:	2001      	movs	r0, #1
 80007e6:	f88d 001b 	strb.w	r0, [sp, #27]
 80007ea:	9905      	ldr	r1, [sp, #20]
 80007ec:	6808      	ldr	r0, [r1, #0]
 80007ee:	f440 5000 	orr.w	r0, r0, #8192	; 0x2000
 80007f2:	6008      	str	r0, [r1, #0]
 80007f4:	9805      	ldr	r0, [sp, #20]
 80007f6:	b007      	add	sp, #28
 80007f8:	4770      	bx	lr

080007fa <_ZN22stm32_cortex_m4_f401re14setup_hardware28_$u7b$$u7b$closure$u7d$$u7d$17hf8cc8906d4fc1170E>:
 80007fa:	b087      	sub	sp, #28
 80007fc:	9001      	str	r0, [sp, #4]
 80007fe:	9102      	str	r1, [sp, #8]
 8000800:	9103      	str	r1, [sp, #12]
 8000802:	9104      	str	r1, [sp, #16]
 8000804:	9105      	str	r1, [sp, #20]
 8000806:	2000      	movs	r0, #0
 8000808:	f88d 001b 	strb.w	r0, [sp, #27]
 800080c:	9905      	ldr	r1, [sp, #20]
 800080e:	6808      	ldr	r0, [r1, #0]
 8000810:	f420 5000 	bic.w	r0, r0, #8192	; 0x2000
 8000814:	6008      	str	r0, [r1, #0]
 8000816:	9805      	ldr	r0, [sp, #20]
 8000818:	b007      	add	sp, #28
 800081a:	4770      	bx	lr

0800081c <_ZN22stm32_cortex_m4_f401re14setup_hardware28_$u7b$$u7b$closure$u7d$$u7d$17h2a3f171c243a0376E>:
 800081c:	b087      	sub	sp, #28
 800081e:	9001      	str	r0, [sp, #4]
 8000820:	9102      	str	r1, [sp, #8]
 8000822:	9103      	str	r1, [sp, #12]
 8000824:	9104      	str	r1, [sp, #16]
 8000826:	9105      	str	r1, [sp, #20]
 8000828:	2001      	movs	r0, #1
 800082a:	f88d 001b 	strb.w	r0, [sp, #27]
 800082e:	9905      	ldr	r1, [sp, #20]
 8000830:	6808      	ldr	r0, [r1, #0]
 8000832:	f440 5000 	orr.w	r0, r0, #8192	; 0x2000
 8000836:	6008      	str	r0, [r1, #0]
 8000838:	9805      	ldr	r0, [sp, #20]
 800083a:	b007      	add	sp, #28
 800083c:	4770      	bx	lr

0800083e <_ZN22stm32_cortex_m4_f401re17task_button_check17h310f2ed485b3777bE>:
 800083e:	b580      	push	{r7, lr}
 8000840:	466f      	mov	r7, sp
 8000842:	b088      	sub	sp, #32
 8000844:	2000      	movs	r0, #0
 8000846:	f807 0c15 	strb.w	r0, [r7, #-21]
 800084a:	e7ff      	b.n	800084c <_ZN22stm32_cortex_m4_f401re17task_button_check17h310f2ed485b3777bE+0xe>
 800084c:	f240 010c 	movw	r1, #12
 8000850:	f2c2 0100 	movt	r1, #8192	; 0x2000
 8000854:	6808      	ldr	r0, [r1, #0]
 8000856:	6849      	ldr	r1, [r1, #4]
 8000858:	f649 025c 	movw	r2, #39004	; 0x985c
 800085c:	f6c0 0200 	movt	r2, #2048	; 0x800
 8000860:	466b      	mov	r3, sp
 8000862:	601a      	str	r2, [r3, #0]
 8000864:	f649 020c 	movw	r2, #38924	; 0x980c
 8000868:	f6c0 0200 	movt	r2, #2048	; 0x800
 800086c:	2306      	movs	r3, #6
 800086e:	f001 f96d 	bl	8001b4c <_ZN4core6option15Option$LT$T$GT$6expect17ha1162e6d21eeaf0fE>
 8000872:	f04f 31ff 	mov.w	r1, #4294967295
 8000876:	f001 f9b6 	bl	8001be6 <freertos_rs_take_semaphore>
 800087a:	2000      	movs	r0, #0
 800087c:	f44f 717a 	mov.w	r1, #1000	; 0x3e8
 8000880:	f004 f944 	bl	8004b0c <_ZN63_$LT$I$u20$as$u20$core..iter..traits..collect..IntoIterator$GT$9into_iter17hb3d919eba1be5437E>
 8000884:	9003      	str	r0, [sp, #12]
 8000886:	9104      	str	r1, [sp, #16]
 8000888:	e7ff      	b.n	800088a <_ZN22stm32_cortex_m4_f401re17task_button_check17h310f2ed485b3777bE+0x4c>
 800088a:	a803      	add	r0, sp, #12
 800088c:	f004 f92d 	bl	8004aea <_ZN4core4iter5range101_$LT$impl$u20$core..iter..traits..iterator..Iterator$u20$for$u20$core..ops..range..Range$LT$A$GT$$GT$4next17h7194ae6205ca4ad9E>
 8000890:	9005      	str	r0, [sp, #20]
 8000892:	9106      	str	r1, [sp, #24]
 8000894:	9805      	ldr	r0, [sp, #20]
 8000896:	2800      	cmp	r0, #0
 8000898:	d1f7      	bne.n	800088a <_ZN22stm32_cortex_m4_f401re17task_button_check17h310f2ed485b3777bE+0x4c>
 800089a:	e7ff      	b.n	800089c <_ZN22stm32_cortex_m4_f401re17task_button_check17h310f2ed485b3777bE+0x5e>
 800089c:	f1a7 0016 	sub.w	r0, r7, #22
 80008a0:	f000 faef 	bl	8000e82 <_ZN134_$LT$stm32f4xx_hal..gpio..gpioc..PC13$LT$stm32f4xx_hal..gpio..Input$LT$MODE$GT$$GT$$u20$as$u20$embedded_hal..digital..v2..InputPin$GT$6is_low17hc391dd1437612d18E>
 80008a4:	f807 0c02 	strb.w	r0, [r7, #-2]
 80008a8:	f817 0c02 	ldrb.w	r0, [r7, #-2]
 80008ac:	f000 0001 	and.w	r0, r0, #1
 80008b0:	f807 0c01 	strb.w	r0, [r7, #-1]
 80008b4:	f807 0c15 	strb.w	r0, [r7, #-21]
 80008b8:	f817 0c15 	ldrb.w	r0, [r7, #-21]
 80008bc:	07c0      	lsls	r0, r0, #31
 80008be:	2800      	cmp	r0, #0
 80008c0:	d0c4      	beq.n	800084c <_ZN22stm32_cortex_m4_f401re17task_button_check17h310f2ed485b3777bE+0xe>
 80008c2:	e7ff      	b.n	80008c4 <_ZN22stm32_cortex_m4_f401re17task_button_check17h310f2ed485b3777bE+0x86>
 80008c4:	f240 0114 	movw	r1, #20
 80008c8:	f2c2 0100 	movt	r1, #8192	; 0x2000
 80008cc:	6808      	ldr	r0, [r1, #0]
 80008ce:	6849      	ldr	r1, [r1, #4]
 80008d0:	f649 026c 	movw	r2, #39020	; 0x986c
 80008d4:	f6c0 0200 	movt	r2, #2048	; 0x800
 80008d8:	466b      	mov	r3, sp
 80008da:	601a      	str	r2, [r3, #0]
 80008dc:	f649 020c 	movw	r2, #38924	; 0x980c
 80008e0:	f6c0 0200 	movt	r2, #2048	; 0x800
 80008e4:	2306      	movs	r3, #6
 80008e6:	f001 f931 	bl	8001b4c <_ZN4core6option15Option$LT$T$GT$6expect17ha1162e6d21eeaf0fE>
 80008ea:	f001 f98f 	bl	8001c0c <freertos_rs_give_semaphore>
 80008ee:	e7ad      	b.n	800084c <_ZN22stm32_cortex_m4_f401re17task_button_check17h310f2ed485b3777bE+0xe>

080008f0 <_ZN22stm32_cortex_m4_f401re14task_led_blink17h9d66c4fcba53fc2eE>:
 80008f0:	b580      	push	{r7, lr}
 80008f2:	466f      	mov	r7, sp
 80008f4:	b082      	sub	sp, #8
 80008f6:	e7ff      	b.n	80008f8 <_ZN22stm32_cortex_m4_f401re14task_led_blink17h9d66c4fcba53fc2eE+0x8>
 80008f8:	f240 0114 	movw	r1, #20
 80008fc:	f2c2 0100 	movt	r1, #8192	; 0x2000
 8000900:	6808      	ldr	r0, [r1, #0]
 8000902:	6849      	ldr	r1, [r1, #4]
 8000904:	f649 027c 	movw	r2, #39036	; 0x987c
 8000908:	f6c0 0200 	movt	r2, #2048	; 0x800
 800090c:	466b      	mov	r3, sp
 800090e:	601a      	str	r2, [r3, #0]
 8000910:	f649 020c 	movw	r2, #38924	; 0x980c
 8000914:	f6c0 0200 	movt	r2, #2048	; 0x800
 8000918:	2306      	movs	r3, #6
 800091a:	f001 f917 	bl	8001b4c <_ZN4core6option15Option$LT$T$GT$6expect17ha1162e6d21eeaf0fE>
 800091e:	f04f 31ff 	mov.w	r1, #4294967295
 8000922:	f001 f960 	bl	8001be6 <freertos_rs_take_semaphore>
 8000926:	1e78      	subs	r0, r7, #1
 8000928:	f000 fb8a 	bl	8001040 <_ZN12embedded_hal7digital2v210toggleable78_$LT$impl$u20$embedded_hal..digital..v2..ToggleableOutputPin$u20$for$u20$P$GT$6toggle17h22a7964cde93528dE>
 800092c:	e7e4      	b.n	80008f8 <_ZN22stm32_cortex_m4_f401re14task_led_blink17h9d66c4fcba53fc2eE+0x8>

0800092e <_ZN22stm32_cortex_m4_f401re18__cortex_m_rt_main28_$u7b$$u7b$closure$u7d$$u7d$17h293765dd09e2fb25E>:
 800092e:	b580      	push	{r7, lr}
 8000930:	466f      	mov	r7, sp
 8000932:	b084      	sub	sp, #16
 8000934:	9002      	str	r0, [sp, #8]
 8000936:	f7ff ff82 	bl	800083e <_ZN22stm32_cortex_m4_f401re17task_button_check17h310f2ed485b3777bE>
 800093a:	b004      	add	sp, #16
 800093c:	bd80      	pop	{r7, pc}

0800093e <_ZN22stm32_cortex_m4_f401re18__cortex_m_rt_main28_$u7b$$u7b$closure$u7d$$u7d$17hb1438bd9d923544fE>:
 800093e:	b580      	push	{r7, lr}
 8000940:	466f      	mov	r7, sp
 8000942:	b084      	sub	sp, #16
 8000944:	9002      	str	r0, [sp, #8]
 8000946:	f7ff ffd3 	bl	80008f0 <_ZN22stm32_cortex_m4_f401re14task_led_blink17h9d66c4fcba53fc2eE>
 800094a:	b004      	add	sp, #16
 800094c:	bd80      	pop	{r7, pc}

0800094e <_ZN22stm32_cortex_m4_f401re23__cortex_m_rt_EXTI15_1028_$u7b$$u7b$closure$u7d$$u7d$17h4e47c657b6a120baE>:
 800094e:	b086      	sub	sp, #24
 8000950:	9001      	str	r0, [sp, #4]
 8000952:	9002      	str	r0, [sp, #8]
 8000954:	9003      	str	r0, [sp, #12]
 8000956:	9004      	str	r0, [sp, #16]
 8000958:	2001      	movs	r0, #1
 800095a:	f88d 0017 	strb.w	r0, [sp, #23]
 800095e:	9904      	ldr	r1, [sp, #16]
 8000960:	6808      	ldr	r0, [r1, #0]
 8000962:	f440 5000 	orr.w	r0, r0, #8192	; 0x2000
 8000966:	6008      	str	r0, [r1, #0]
 8000968:	9804      	ldr	r0, [sp, #16]
 800096a:	b006      	add	sp, #24
 800096c:	4770      	bx	lr

0800096e <_ZN4core5slice3raw14from_raw_parts18precondition_check17h87034b83b05e6045E>:
 800096e:	b580      	push	{r7, lr}
 8000970:	466f      	mov	r7, sp
 8000972:	b096      	sub	sp, #88	; 0x58
 8000974:	9302      	str	r3, [sp, #8]
 8000976:	9203      	str	r2, [sp, #12]
 8000978:	9104      	str	r1, [sp, #16]
 800097a:	9005      	str	r0, [sp, #20]
 800097c:	900d      	str	r0, [sp, #52]	; 0x34
 800097e:	910e      	str	r1, [sp, #56]	; 0x38
 8000980:	920f      	str	r2, [sp, #60]	; 0x3c
 8000982:	9310      	str	r3, [sp, #64]	; 0x40
 8000984:	2100      	movs	r1, #0
 8000986:	f807 1c12 	strb.w	r1, [r7, #-18]
 800098a:	f807 1c11 	strb.w	r1, [r7, #-17]
 800098e:	f649 01b8 	movw	r1, #39096	; 0x98b8
 8000992:	f6c0 0100 	movt	r1, #2048	; 0x800
 8000996:	9112      	str	r1, [sp, #72]	; 0x48
 8000998:	9013      	str	r0, [sp, #76]	; 0x4c
 800099a:	f04f 3055 	mov.w	r0, #1431655765	; 0x55555555
 800099e:	ea00 0052 	and.w	r0, r0, r2, lsr #1
 80009a2:	1a10      	subs	r0, r2, r0
 80009a4:	f04f 3133 	mov.w	r1, #858993459	; 0x33333333
 80009a8:	ea01 0190 	and.w	r1, r1, r0, lsr #2
 80009ac:	f020 30cc 	bic.w	r0, r0, #3435973836	; 0xcccccccc
 80009b0:	4408      	add	r0, r1
 80009b2:	eb00 1010 	add.w	r0, r0, r0, lsr #4
 80009b6:	f020 30f0 	bic.w	r0, r0, #4042322160	; 0xf0f0f0f0
 80009ba:	f04f 3101 	mov.w	r1, #16843009	; 0x1010101
 80009be:	4348      	muls	r0, r1
 80009c0:	0e00      	lsrs	r0, r0, #24
 80009c2:	9014      	str	r0, [sp, #80]	; 0x50
 80009c4:	9814      	ldr	r0, [sp, #80]	; 0x50
 80009c6:	2801      	cmp	r0, #1
 80009c8:	d108      	bne.n	80009dc <_ZN4core5slice3raw14from_raw_parts18precondition_check17h87034b83b05e6045E+0x6e>
 80009ca:	e7ff      	b.n	80009cc <_ZN4core5slice3raw14from_raw_parts18precondition_check17h87034b83b05e6045E+0x5e>
 80009cc:	9805      	ldr	r0, [sp, #20]
 80009ce:	9903      	ldr	r1, [sp, #12]
 80009d0:	4602      	mov	r2, r0
 80009d2:	9201      	str	r2, [sp, #4]
 80009d4:	3901      	subs	r1, #1
 80009d6:	4208      	tst	r0, r1
 80009d8:	d01a      	beq.n	8000a10 <_ZN4core5slice3raw14from_raw_parts18precondition_check17h87034b83b05e6045E+0xa2>
 80009da:	e01e      	b.n	8000a1a <_ZN4core5slice3raw14from_raw_parts18precondition_check17h87034b83b05e6045E+0xac>
 80009dc:	f649 00b8 	movw	r0, #39096	; 0x98b8
 80009e0:	f6c0 0000 	movt	r0, #2048	; 0x800
 80009e4:	9006      	str	r0, [sp, #24]
 80009e6:	2001      	movs	r0, #1
 80009e8:	9007      	str	r0, [sp, #28]
 80009ea:	f249 5038 	movw	r0, #38200	; 0x9538
 80009ee:	f6c0 0000 	movt	r0, #2048	; 0x800
 80009f2:	6801      	ldr	r1, [r0, #0]
 80009f4:	6840      	ldr	r0, [r0, #4]
 80009f6:	910a      	str	r1, [sp, #40]	; 0x28
 80009f8:	900b      	str	r0, [sp, #44]	; 0x2c
 80009fa:	2004      	movs	r0, #4
 80009fc:	9008      	str	r0, [sp, #32]
 80009fe:	2000      	movs	r0, #0
 8000a00:	9009      	str	r0, [sp, #36]	; 0x24
 8000a02:	f649 2160 	movw	r1, #39520	; 0x9a60
 8000a06:	f6c0 0100 	movt	r1, #2048	; 0x800
 8000a0a:	a806      	add	r0, sp, #24
 8000a0c:	f006 fc6d 	bl	80072ea <_ZN4core9panicking9panic_fmt17h9bd7242b2f9f3cdaE>
 8000a10:	9801      	ldr	r0, [sp, #4]
 8000a12:	9905      	ldr	r1, [sp, #20]
 8000a14:	9115      	str	r1, [sp, #84]	; 0x54
 8000a16:	b910      	cbnz	r0, 8000a1e <_ZN4core5slice3raw14from_raw_parts18precondition_check17h87034b83b05e6045E+0xb0>
 8000a18:	e000      	b.n	8000a1c <_ZN4core5slice3raw14from_raw_parts18precondition_check17h87034b83b05e6045E+0xae>
 8000a1a:	e7ff      	b.n	8000a1c <_ZN4core5slice3raw14from_raw_parts18precondition_check17h87034b83b05e6045E+0xae>
 8000a1c:	e023      	b.n	8000a66 <_ZN4core5slice3raw14from_raw_parts18precondition_check17h87034b83b05e6045E+0xf8>
 8000a1e:	9804      	ldr	r0, [sp, #16]
 8000a20:	fab0 f180 	clz	r1, r0
 8000a24:	0949      	lsrs	r1, r1, #5
 8000a26:	9100      	str	r1, [sp, #0]
 8000a28:	b920      	cbnz	r0, 8000a34 <_ZN4core5slice3raw14from_raw_parts18precondition_check17h87034b83b05e6045E+0xc6>
 8000a2a:	e7ff      	b.n	8000a2c <_ZN4core5slice3raw14from_raw_parts18precondition_check17h87034b83b05e6045E+0xbe>
 8000a2c:	f04f 30ff 	mov.w	r0, #4294967295
 8000a30:	900c      	str	r0, [sp, #48]	; 0x30
 8000a32:	e003      	b.n	8000a3c <_ZN4core5slice3raw14from_raw_parts18precondition_check17h87034b83b05e6045E+0xce>
 8000a34:	9800      	ldr	r0, [sp, #0]
 8000a36:	07c0      	lsls	r0, r0, #31
 8000a38:	b960      	cbnz	r0, 8000a54 <_ZN4core5slice3raw14from_raw_parts18precondition_check17h87034b83b05e6045E+0xe6>
 8000a3a:	e004      	b.n	8000a46 <_ZN4core5slice3raw14from_raw_parts18precondition_check17h87034b83b05e6045E+0xd8>
 8000a3c:	9802      	ldr	r0, [sp, #8]
 8000a3e:	990c      	ldr	r1, [sp, #48]	; 0x30
 8000a40:	4288      	cmp	r0, r1
 8000a42:	d90e      	bls.n	8000a62 <_ZN4core5slice3raw14from_raw_parts18precondition_check17h87034b83b05e6045E+0xf4>
 8000a44:	e00c      	b.n	8000a60 <_ZN4core5slice3raw14from_raw_parts18precondition_check17h87034b83b05e6045E+0xf2>
 8000a46:	9904      	ldr	r1, [sp, #16]
 8000a48:	f06f 4000 	mvn.w	r0, #2147483648	; 0x80000000
 8000a4c:	fbb0 f0f1 	udiv	r0, r0, r1
 8000a50:	900c      	str	r0, [sp, #48]	; 0x30
 8000a52:	e7f3      	b.n	8000a3c <_ZN4core5slice3raw14from_raw_parts18precondition_check17h87034b83b05e6045E+0xce>
 8000a54:	f649 1034 	movw	r0, #39220	; 0x9934
 8000a58:	f6c0 0000 	movt	r0, #2048	; 0x800
 8000a5c:	f007 ff81 	bl	8008962 <_ZN4core9panicking11panic_const23panic_const_div_by_zero17h8da6a53e5835dd9aE>
 8000a60:	e001      	b.n	8000a66 <_ZN4core5slice3raw14from_raw_parts18precondition_check17h87034b83b05e6045E+0xf8>
 8000a62:	b016      	add	sp, #88	; 0x58
 8000a64:	bd80      	pop	{r7, pc}
 8000a66:	f649 1044 	movw	r0, #39236	; 0x9944
 8000a6a:	f6c0 0000 	movt	r0, #2048	; 0x800
 8000a6e:	21a2      	movs	r1, #162	; 0xa2
 8000a70:	f006 fc6d 	bl	800734e <_ZN4core9panicking14panic_nounwind17ha7168a7a4498f4fbE>

08000a74 <_ZN79_$LT$core..result..Result$LT$T$C$E$GT$$u20$as$u20$core..ops..try_trait..Try$GT$6branch17hd0eb5f804fd8de1dE>:
 8000a74:	b082      	sub	sp, #8
 8000a76:	f88d 0003 	strb.w	r0, [sp, #3]
 8000a7a:	e7ff      	b.n	8000a7c <_ZN79_$LT$core..result..Result$LT$T$C$E$GT$$u20$as$u20$core..ops..try_trait..Try$GT$6branch17hd0eb5f804fd8de1dE+0x8>
 8000a7c:	f89d 0003 	ldrb.w	r0, [sp, #3]
 8000a80:	f000 0001 	and.w	r0, r0, #1
 8000a84:	f88d 0007 	strb.w	r0, [sp, #7]
 8000a88:	f88d 0004 	strb.w	r0, [sp, #4]
 8000a8c:	e7ff      	b.n	8000a8e <_ZN79_$LT$core..result..Result$LT$T$C$E$GT$$u20$as$u20$core..ops..try_trait..Try$GT$6branch17hd0eb5f804fd8de1dE+0x1a>
 8000a8e:	f89d 0004 	ldrb.w	r0, [sp, #4]
 8000a92:	f000 0001 	and.w	r0, r0, #1
 8000a96:	b002      	add	sp, #8
 8000a98:	4770      	bx	lr

08000a9a <_ZN42_$LT$$RF$T$u20$as$u20$core..fmt..Debug$GT$3fmt17ha5b7ab53e79d3d5aE>:
 8000a9a:	b580      	push	{r7, lr}
 8000a9c:	466f      	mov	r7, sp
 8000a9e:	b082      	sub	sp, #8
 8000aa0:	460a      	mov	r2, r1
 8000aa2:	4601      	mov	r1, r0
 8000aa4:	9100      	str	r1, [sp, #0]
 8000aa6:	9201      	str	r2, [sp, #4]
 8000aa8:	6808      	ldr	r0, [r1, #0]
 8000aaa:	6849      	ldr	r1, [r1, #4]
 8000aac:	f006 ff65 	bl	800797a <_ZN40_$LT$str$u20$as$u20$core..fmt..Debug$GT$3fmt17h738baae4fc87b105E>
 8000ab0:	b002      	add	sp, #8
 8000ab2:	bd80      	pop	{r7, pc}

08000ab4 <_ZN50_$LT$T$u20$as$u20$core..convert..Into$LT$U$GT$$GT$4into17hce011a28f5bd022bE>:
 8000ab4:	b081      	sub	sp, #4
 8000ab6:	f88d 0002 	strb.w	r0, [sp, #2]
 8000aba:	f88d 0003 	strb.w	r0, [sp, #3]
 8000abe:	f89d 0003 	ldrb.w	r0, [sp, #3]
 8000ac2:	f000 0001 	and.w	r0, r0, #1
 8000ac6:	b001      	add	sp, #4
 8000ac8:	4770      	bx	lr

08000aca <_ZN13freertos_rust4task11TaskBuilder5start17h2c156444757c3672E>:
 8000aca:	b580      	push	{r7, lr}
 8000acc:	466f      	mov	r7, sp
 8000ace:	b086      	sub	sp, #24
 8000ad0:	9101      	str	r1, [sp, #4]
 8000ad2:	4601      	mov	r1, r0
 8000ad4:	9801      	ldr	r0, [sp, #4]
 8000ad6:	9102      	str	r1, [sp, #8]
 8000ad8:	9004      	str	r0, [sp, #16]
 8000ada:	f7ff fc59 	bl	8000390 <_ZN65_$LT$alloc..string..String$u20$as$u20$core..ops..deref..Deref$GT$5deref17hcc747a64a952d52aE>
 8000ade:	f8dd c004 	ldr.w	ip, [sp, #4]
 8000ae2:	4602      	mov	r2, r0
 8000ae4:	9802      	ldr	r0, [sp, #8]
 8000ae6:	9203      	str	r2, [sp, #12]
 8000ae8:	460a      	mov	r2, r1
 8000aea:	9903      	ldr	r1, [sp, #12]
 8000aec:	f8bc 300c 	ldrh.w	r3, [ip, #12]
 8000af0:	f89c c00e 	ldrb.w	ip, [ip, #14]
 8000af4:	46ee      	mov	lr, sp
 8000af6:	f8ce c000 	str.w	ip, [lr]
 8000afa:	f000 f845 	bl	8000b88 <_ZN13freertos_rust4task4Task5spawn17h4d9d4176647059eeE>
 8000afe:	b006      	add	sp, #24
 8000b00:	bd80      	pop	{r7, pc}

08000b02 <_ZN13freertos_rust4task11TaskBuilder5start17hfed716f40437aa2dE>:
 8000b02:	b580      	push	{r7, lr}
 8000b04:	466f      	mov	r7, sp
 8000b06:	b086      	sub	sp, #24
 8000b08:	9101      	str	r1, [sp, #4]
 8000b0a:	4601      	mov	r1, r0
 8000b0c:	9801      	ldr	r0, [sp, #4]
 8000b0e:	9102      	str	r1, [sp, #8]
 8000b10:	9004      	str	r0, [sp, #16]
 8000b12:	f7ff fc3d 	bl	8000390 <_ZN65_$LT$alloc..string..String$u20$as$u20$core..ops..deref..Deref$GT$5deref17hcc747a64a952d52aE>
 8000b16:	f8dd c004 	ldr.w	ip, [sp, #4]
 8000b1a:	4602      	mov	r2, r0
 8000b1c:	9802      	ldr	r0, [sp, #8]
 8000b1e:	9203      	str	r2, [sp, #12]
 8000b20:	460a      	mov	r2, r1
 8000b22:	9903      	ldr	r1, [sp, #12]
 8000b24:	f8bc 300c 	ldrh.w	r3, [ip, #12]
 8000b28:	f89c c00e 	ldrb.w	ip, [ip, #14]
 8000b2c:	46ee      	mov	lr, sp
 8000b2e:	f8ce c000 	str.w	ip, [lr]
 8000b32:	f000 f802 	bl	8000b3a <_ZN13freertos_rust4task4Task5spawn17h2186968866003a46E>
 8000b36:	b006      	add	sp, #24
 8000b38:	bd80      	pop	{r7, pc}

08000b3a <_ZN13freertos_rust4task4Task5spawn17h2186968866003a46E>:
 8000b3a:	b5d0      	push	{r4, r6, r7, lr}
 8000b3c:	af02      	add	r7, sp, #8
 8000b3e:	b08a      	sub	sp, #40	; 0x28
 8000b40:	9305      	str	r3, [sp, #20]
 8000b42:	9203      	str	r2, [sp, #12]
 8000b44:	9104      	str	r1, [sp, #16]
 8000b46:	9006      	str	r0, [sp, #24]
 8000b48:	68bc      	ldr	r4, [r7, #8]
 8000b4a:	9107      	str	r1, [sp, #28]
 8000b4c:	9208      	str	r2, [sp, #32]
 8000b4e:	f8ad 3024 	strh.w	r3, [sp, #36]	; 0x24
 8000b52:	f807 4c0a 	strb.w	r4, [r7, #-10]
 8000b56:	2000      	movs	r0, #0
 8000b58:	2101      	movs	r1, #1
 8000b5a:	f000 f8cd 	bl	8000cf8 <_ZN5alloc5alloc15exchange_malloc17h57f89ab2740bf6c0E>
 8000b5e:	9a03      	ldr	r2, [sp, #12]
 8000b60:	9b04      	ldr	r3, [sp, #16]
 8000b62:	f8dd e014 	ldr.w	lr, [sp, #20]
 8000b66:	4601      	mov	r1, r0
 8000b68:	9806      	ldr	r0, [sp, #24]
 8000b6a:	46ec      	mov	ip, sp
 8000b6c:	f8cc 4008 	str.w	r4, [ip, #8]
 8000b70:	f8cc e004 	str.w	lr, [ip, #4]
 8000b74:	f8cc 2000 	str.w	r2, [ip]
 8000b78:	f649 2270 	movw	r2, #39536	; 0x9a70
 8000b7c:	f6c0 0200 	movt	r2, #2048	; 0x800
 8000b80:	f004 f8d5 	bl	8004d2e <_ZN13freertos_rust4task4Task11spawn_inner17h07a2245bf22ab263E>
 8000b84:	b00a      	add	sp, #40	; 0x28
 8000b86:	bdd0      	pop	{r4, r6, r7, pc}

08000b88 <_ZN13freertos_rust4task4Task5spawn17h4d9d4176647059eeE>:
 8000b88:	b5d0      	push	{r4, r6, r7, lr}
 8000b8a:	af02      	add	r7, sp, #8
 8000b8c:	b08a      	sub	sp, #40	; 0x28
 8000b8e:	9305      	str	r3, [sp, #20]
 8000b90:	9203      	str	r2, [sp, #12]
 8000b92:	9104      	str	r1, [sp, #16]
 8000b94:	9006      	str	r0, [sp, #24]
 8000b96:	68bc      	ldr	r4, [r7, #8]
 8000b98:	9107      	str	r1, [sp, #28]
 8000b9a:	9208      	str	r2, [sp, #32]
 8000b9c:	f8ad 3024 	strh.w	r3, [sp, #36]	; 0x24
 8000ba0:	f807 4c0a 	strb.w	r4, [r7, #-10]
 8000ba4:	2000      	movs	r0, #0
 8000ba6:	2101      	movs	r1, #1
 8000ba8:	f000 f8a6 	bl	8000cf8 <_ZN5alloc5alloc15exchange_malloc17h57f89ab2740bf6c0E>
 8000bac:	9a03      	ldr	r2, [sp, #12]
 8000bae:	9b04      	ldr	r3, [sp, #16]
 8000bb0:	f8dd e014 	ldr.w	lr, [sp, #20]
 8000bb4:	4601      	mov	r1, r0
 8000bb6:	9806      	ldr	r0, [sp, #24]
 8000bb8:	46ec      	mov	ip, sp
 8000bba:	f8cc 4008 	str.w	r4, [ip, #8]
 8000bbe:	f8cc e004 	str.w	lr, [ip, #4]
 8000bc2:	f8cc 2000 	str.w	r2, [ip]
 8000bc6:	f649 2280 	movw	r2, #39552	; 0x9a80
 8000bca:	f6c0 0200 	movt	r2, #2048	; 0x800
 8000bce:	f004 f8ae 	bl	8004d2e <_ZN13freertos_rust4task4Task11spawn_inner17h07a2245bf22ab263E>
 8000bd2:	b00a      	add	sp, #40	; 0x28
 8000bd4:	bdd0      	pop	{r4, r6, r7, pc}

08000bd6 <_ZN77_$LT$cortex_m..register..primask..Primask$u20$as$u20$core..cmp..PartialEq$GT$2eq17h3717542947f7a2edE>:
 8000bd6:	b084      	sub	sp, #16
 8000bd8:	9000      	str	r0, [sp, #0]
 8000bda:	9101      	str	r1, [sp, #4]
 8000bdc:	7800      	ldrb	r0, [r0, #0]
 8000bde:	f000 0001 	and.w	r0, r0, #1
 8000be2:	9002      	str	r0, [sp, #8]
 8000be4:	7809      	ldrb	r1, [r1, #0]
 8000be6:	f001 0101 	and.w	r1, r1, #1
 8000bea:	9103      	str	r1, [sp, #12]
 8000bec:	1a40      	subs	r0, r0, r1
 8000bee:	fab0 f080 	clz	r0, r0
 8000bf2:	0940      	lsrs	r0, r0, #5
 8000bf4:	b004      	add	sp, #16
 8000bf6:	4770      	bx	lr

08000bf8 <_ZN8cortex_m8register7primask4read17ha4c2f2ed71c07280E>:
 8000bf8:	b580      	push	{r7, lr}
 8000bfa:	466f      	mov	r7, sp
 8000bfc:	b082      	sub	sp, #8
 8000bfe:	f006 f976 	bl	8006eee <__primask_r>
 8000c02:	9001      	str	r0, [sp, #4]
 8000c04:	f000 0001 	and.w	r0, r0, #1
 8000c08:	2801      	cmp	r0, #1
 8000c0a:	d004      	beq.n	8000c16 <_ZN8cortex_m8register7primask4read17ha4c2f2ed71c07280E+0x1e>
 8000c0c:	e7ff      	b.n	8000c0e <_ZN8cortex_m8register7primask4read17ha4c2f2ed71c07280E+0x16>
 8000c0e:	2000      	movs	r0, #0
 8000c10:	f807 0c05 	strb.w	r0, [r7, #-5]
 8000c14:	e003      	b.n	8000c1e <_ZN8cortex_m8register7primask4read17ha4c2f2ed71c07280E+0x26>
 8000c16:	2001      	movs	r0, #1
 8000c18:	f807 0c05 	strb.w	r0, [r7, #-5]
 8000c1c:	e7ff      	b.n	8000c1e <_ZN8cortex_m8register7primask4read17ha4c2f2ed71c07280E+0x26>
 8000c1e:	f817 0c05 	ldrb.w	r0, [r7, #-5]
 8000c22:	f000 0001 	and.w	r0, r0, #1
 8000c26:	b002      	add	sp, #8
 8000c28:	bd80      	pop	{r7, pc}

08000c2a <_ZN8cortex_m8register7primask7Primask9is_active17hb761c6b432b02ba3E>:
 8000c2a:	b580      	push	{r7, lr}
 8000c2c:	466f      	mov	r7, sp
 8000c2e:	b082      	sub	sp, #8
 8000c30:	f807 0c01 	strb.w	r0, [r7, #-1]
 8000c34:	f649 2190 	movw	r1, #39568	; 0x9a90
 8000c38:	f6c0 0100 	movt	r1, #2048	; 0x800
 8000c3c:	1e78      	subs	r0, r7, #1
 8000c3e:	f7ff ffca 	bl	8000bd6 <_ZN77_$LT$cortex_m..register..primask..Primask$u20$as$u20$core..cmp..PartialEq$GT$2eq17h3717542947f7a2edE>
 8000c42:	b002      	add	sp, #8
 8000c44:	bd80      	pop	{r7, pc}

08000c46 <_ZN4core5alloc6layout6Layout25from_size_align_unchecked17he772e0b6996aba40E>:
 8000c46:	b580      	push	{r7, lr}
 8000c48:	466f      	mov	r7, sp
 8000c4a:	b084      	sub	sp, #16
 8000c4c:	9100      	str	r1, [sp, #0]
 8000c4e:	9001      	str	r0, [sp, #4]
 8000c50:	9002      	str	r0, [sp, #8]
 8000c52:	9103      	str	r1, [sp, #12]
 8000c54:	e7ff      	b.n	8000c56 <_ZN4core5alloc6layout6Layout25from_size_align_unchecked17he772e0b6996aba40E+0x10>
 8000c56:	9900      	ldr	r1, [sp, #0]
 8000c58:	9801      	ldr	r0, [sp, #4]
 8000c5a:	f000 f805 	bl	8000c68 <_ZN4core5alloc6layout6Layout25from_size_align_unchecked18precondition_check17h81ee6ad0488b2651E>
 8000c5e:	e7ff      	b.n	8000c60 <_ZN4core5alloc6layout6Layout25from_size_align_unchecked17he772e0b6996aba40E+0x1a>
 8000c60:	9901      	ldr	r1, [sp, #4]
 8000c62:	9800      	ldr	r0, [sp, #0]
 8000c64:	b004      	add	sp, #16
 8000c66:	bd80      	pop	{r7, pc}

08000c68 <_ZN4core5alloc6layout6Layout25from_size_align_unchecked18precondition_check17h81ee6ad0488b2651E>:
 8000c68:	b580      	push	{r7, lr}
 8000c6a:	466f      	mov	r7, sp
 8000c6c:	b082      	sub	sp, #8
 8000c6e:	9000      	str	r0, [sp, #0]
 8000c70:	9101      	str	r1, [sp, #4]
 8000c72:	f007 fe1c 	bl	80088ae <_ZN4core5alloc6layout6Layout19is_size_align_valid17h1d357ed88d42d87eE>
 8000c76:	b938      	cbnz	r0, 8000c88 <_ZN4core5alloc6layout6Layout25from_size_align_unchecked18precondition_check17h81ee6ad0488b2651E+0x20>
 8000c78:	e7ff      	b.n	8000c7a <_ZN4core5alloc6layout6Layout25from_size_align_unchecked18precondition_check17h81ee6ad0488b2651E+0x12>
 8000c7a:	f649 2091 	movw	r0, #39569	; 0x9a91
 8000c7e:	f6c0 0000 	movt	r0, #2048	; 0x800
 8000c82:	21a4      	movs	r1, #164	; 0xa4
 8000c84:	f006 fb63 	bl	800734e <_ZN4core9panicking14panic_nounwind17ha7168a7a4498f4fbE>
 8000c88:	b002      	add	sp, #8
 8000c8a:	bd80      	pop	{r7, pc}

08000c8c <_ZN4core3cmp5impls50_$LT$impl$u20$core..cmp..Ord$u20$for$u20$usize$GT$3cmp17h411eb5815f3eb637E>:
 8000c8c:	b082      	sub	sp, #8
 8000c8e:	9000      	str	r0, [sp, #0]
 8000c90:	9101      	str	r1, [sp, #4]
 8000c92:	6802      	ldr	r2, [r0, #0]
 8000c94:	680b      	ldr	r3, [r1, #0]
 8000c96:	2000      	movs	r0, #0
 8000c98:	429a      	cmp	r2, r3
 8000c9a:	bf88      	it	hi
 8000c9c:	2001      	movhi	r0, #1
 8000c9e:	1e41      	subs	r1, r0, #1
 8000ca0:	429a      	cmp	r2, r3
 8000ca2:	bf38      	it	cc
 8000ca4:	4608      	movcc	r0, r1
 8000ca6:	b002      	add	sp, #8
 8000ca8:	4770      	bx	lr

08000caa <_ZN5alloc5alloc12alloc_zeroed17h16e6e19db537b74fE>:
 8000caa:	b580      	push	{r7, lr}
 8000cac:	466f      	mov	r7, sp
 8000cae:	b088      	sub	sp, #32
 8000cb0:	9000      	str	r0, [sp, #0]
 8000cb2:	9101      	str	r1, [sp, #4]
 8000cb4:	f240 001c 	movw	r0, #28
 8000cb8:	f2c2 0000 	movt	r0, #8192	; 0x2000
 8000cbc:	9003      	str	r0, [sp, #12]
 8000cbe:	e7ff      	b.n	8000cc0 <_ZN5alloc5alloc12alloc_zeroed17h16e6e19db537b74fE+0x16>
 8000cc0:	f240 001c 	movw	r0, #28
 8000cc4:	f2c2 0000 	movt	r0, #8192	; 0x2000
 8000cc8:	2101      	movs	r1, #1
 8000cca:	2200      	movs	r2, #0
 8000ccc:	f000 fb9c 	bl	8001408 <_ZN4core3ptr13read_volatile18precondition_check17h4963e1a49c4c488fE>
 8000cd0:	e7ff      	b.n	8000cd2 <_ZN5alloc5alloc12alloc_zeroed17h16e6e19db537b74fE+0x28>
 8000cd2:	f240 001c 	movw	r0, #28
 8000cd6:	f2c2 0000 	movt	r0, #8192	; 0x2000
 8000cda:	7800      	ldrb	r0, [r0, #0]
 8000cdc:	f807 0c0d 	strb.w	r0, [r7, #-13]
 8000ce0:	4669      	mov	r1, sp
 8000ce2:	9105      	str	r1, [sp, #20]
 8000ce4:	9801      	ldr	r0, [sp, #4]
 8000ce6:	9106      	str	r1, [sp, #24]
 8000ce8:	9900      	ldr	r1, [sp, #0]
 8000cea:	9107      	str	r1, [sp, #28]
 8000cec:	9102      	str	r1, [sp, #8]
 8000cee:	9902      	ldr	r1, [sp, #8]
 8000cf0:	f000 fdfa 	bl	80018e8 <__rust_alloc_zeroed>
 8000cf4:	b008      	add	sp, #32
 8000cf6:	bd80      	pop	{r7, pc}

08000cf8 <_ZN5alloc5alloc15exchange_malloc17h57f89ab2740bf6c0E>:
 8000cf8:	b580      	push	{r7, lr}
 8000cfa:	466f      	mov	r7, sp
 8000cfc:	b08c      	sub	sp, #48	; 0x30
 8000cfe:	9100      	str	r1, [sp, #0]
 8000d00:	9001      	str	r0, [sp, #4]
 8000d02:	9004      	str	r0, [sp, #16]
 8000d04:	9105      	str	r1, [sp, #20]
 8000d06:	2001      	movs	r0, #1
 8000d08:	9006      	str	r0, [sp, #24]
 8000d0a:	e7ff      	b.n	8000d0c <_ZN5alloc5alloc15exchange_malloc17h57f89ab2740bf6c0E+0x14>
 8000d0c:	9900      	ldr	r1, [sp, #0]
 8000d0e:	9801      	ldr	r0, [sp, #4]
 8000d10:	f7ff ffaa 	bl	8000c68 <_ZN4core5alloc6layout6Layout25from_size_align_unchecked18precondition_check17h81ee6ad0488b2651E>
 8000d14:	e7ff      	b.n	8000d16 <_ZN5alloc5alloc15exchange_malloc17h57f89ab2740bf6c0E+0x1e>
 8000d16:	9a01      	ldr	r2, [sp, #4]
 8000d18:	9900      	ldr	r1, [sp, #0]
 8000d1a:	9107      	str	r1, [sp, #28]
 8000d1c:	9208      	str	r2, [sp, #32]
 8000d1e:	2001      	movs	r0, #1
 8000d20:	2300      	movs	r3, #0
 8000d22:	f000 f837 	bl	8000d94 <_ZN5alloc5alloc6Global10alloc_impl17he29260f2d8a5822cE>
 8000d26:	9002      	str	r0, [sp, #8]
 8000d28:	9103      	str	r1, [sp, #12]
 8000d2a:	9802      	ldr	r0, [sp, #8]
 8000d2c:	b138      	cbz	r0, 8000d3e <_ZN5alloc5alloc15exchange_malloc17h57f89ab2740bf6c0E+0x46>
 8000d2e:	e7ff      	b.n	8000d30 <_ZN5alloc5alloc15exchange_malloc17h57f89ab2740bf6c0E+0x38>
 8000d30:	9802      	ldr	r0, [sp, #8]
 8000d32:	9903      	ldr	r1, [sp, #12]
 8000d34:	9009      	str	r0, [sp, #36]	; 0x24
 8000d36:	910a      	str	r1, [sp, #40]	; 0x28
 8000d38:	900b      	str	r0, [sp, #44]	; 0x2c
 8000d3a:	b00c      	add	sp, #48	; 0x30
 8000d3c:	bd80      	pop	{r7, pc}
 8000d3e:	9901      	ldr	r1, [sp, #4]
 8000d40:	9800      	ldr	r0, [sp, #0]
 8000d42:	f006 f935 	bl	8006fb0 <_ZN5alloc5alloc18handle_alloc_error17h99b8bd8515900e0aE>

08000d46 <_ZN5alloc5alloc5alloc17h0fa6edf225269527E>:
 8000d46:	b580      	push	{r7, lr}
 8000d48:	466f      	mov	r7, sp
 8000d4a:	b088      	sub	sp, #32
 8000d4c:	9000      	str	r0, [sp, #0]
 8000d4e:	9101      	str	r1, [sp, #4]
 8000d50:	f240 001c 	movw	r0, #28
 8000d54:	f2c2 0000 	movt	r0, #8192	; 0x2000
 8000d58:	9003      	str	r0, [sp, #12]
 8000d5a:	e7ff      	b.n	8000d5c <_ZN5alloc5alloc5alloc17h0fa6edf225269527E+0x16>
 8000d5c:	f240 001c 	movw	r0, #28
 8000d60:	f2c2 0000 	movt	r0, #8192	; 0x2000
 8000d64:	2101      	movs	r1, #1
 8000d66:	2200      	movs	r2, #0
 8000d68:	f000 fb4e 	bl	8001408 <_ZN4core3ptr13read_volatile18precondition_check17h4963e1a49c4c488fE>
 8000d6c:	e7ff      	b.n	8000d6e <_ZN5alloc5alloc5alloc17h0fa6edf225269527E+0x28>
 8000d6e:	f240 001c 	movw	r0, #28
 8000d72:	f2c2 0000 	movt	r0, #8192	; 0x2000
 8000d76:	7800      	ldrb	r0, [r0, #0]
 8000d78:	f807 0c0d 	strb.w	r0, [r7, #-13]
 8000d7c:	4669      	mov	r1, sp
 8000d7e:	9105      	str	r1, [sp, #20]
 8000d80:	9801      	ldr	r0, [sp, #4]
 8000d82:	9106      	str	r1, [sp, #24]
 8000d84:	9900      	ldr	r1, [sp, #0]
 8000d86:	9107      	str	r1, [sp, #28]
 8000d88:	9102      	str	r1, [sp, #8]
 8000d8a:	9902      	ldr	r1, [sp, #8]
 8000d8c:	f000 fd60 	bl	8001850 <__rust_alloc>
 8000d90:	b008      	add	sp, #32
 8000d92:	bd80      	pop	{r7, pc}

08000d94 <_ZN5alloc5alloc6Global10alloc_impl17he29260f2d8a5822cE>:
 8000d94:	b580      	push	{r7, lr}
 8000d96:	466f      	mov	r7, sp
 8000d98:	b0a8      	sub	sp, #160	; 0xa0
 8000d9a:	469c      	mov	ip, r3
 8000d9c:	f8cd c010 	str.w	ip, [sp, #16]
 8000da0:	9106      	str	r1, [sp, #24]
 8000da2:	9207      	str	r2, [sp, #28]
 8000da4:	9011      	str	r0, [sp, #68]	; 0x44
 8000da6:	f807 3c56 	strb.w	r3, [r7, #-86]
 8000daa:	2000      	movs	r0, #0
 8000dac:	9013      	str	r0, [sp, #76]	; 0x4c
 8000dae:	9014      	str	r0, [sp, #80]	; 0x50
 8000db0:	9015      	str	r0, [sp, #84]	; 0x54
 8000db2:	a806      	add	r0, sp, #24
 8000db4:	9018      	str	r0, [sp, #96]	; 0x60
 8000db6:	9807      	ldr	r0, [sp, #28]
 8000db8:	9005      	str	r0, [sp, #20]
 8000dba:	9019      	str	r0, [sp, #100]	; 0x64
 8000dbc:	b950      	cbnz	r0, 8000dd4 <_ZN5alloc5alloc6Global10alloc_impl17he29260f2d8a5822cE+0x40>
 8000dbe:	e7ff      	b.n	8000dc0 <_ZN5alloc5alloc6Global10alloc_impl17he29260f2d8a5822cE+0x2c>
 8000dc0:	a806      	add	r0, sp, #24
 8000dc2:	901a      	str	r0, [sp, #104]	; 0x68
 8000dc4:	9806      	ldr	r0, [sp, #24]
 8000dc6:	901b      	str	r0, [sp, #108]	; 0x6c
 8000dc8:	900e      	str	r0, [sp, #56]	; 0x38
 8000dca:	980e      	ldr	r0, [sp, #56]	; 0x38
 8000dcc:	9003      	str	r0, [sp, #12]
 8000dce:	901c      	str	r0, [sp, #112]	; 0x70
 8000dd0:	901d      	str	r0, [sp, #116]	; 0x74
 8000dd2:	e003      	b.n	8000ddc <_ZN5alloc5alloc6Global10alloc_impl17he29260f2d8a5822cE+0x48>
 8000dd4:	9804      	ldr	r0, [sp, #16]
 8000dd6:	07c0      	lsls	r0, r0, #31
 8000dd8:	b9e8      	cbnz	r0, 8000e16 <_ZN5alloc5alloc6Global10alloc_impl17he29260f2d8a5822cE+0x82>
 8000dda:	e016      	b.n	8000e0a <_ZN5alloc5alloc6Global10alloc_impl17he29260f2d8a5822cE+0x76>
 8000ddc:	9803      	ldr	r0, [sp, #12]
 8000dde:	f000 faa1 	bl	8001324 <_ZN4core3ptr8non_null16NonNull$LT$T$GT$13new_unchecked18precondition_check17ha9feb91a6655eaeeE>
 8000de2:	9803      	ldr	r0, [sp, #12]
 8000de4:	901e      	str	r0, [sp, #120]	; 0x78
 8000de6:	901f      	str	r0, [sp, #124]	; 0x7c
 8000de8:	900f      	str	r0, [sp, #60]	; 0x3c
 8000dea:	2000      	movs	r0, #0
 8000dec:	9010      	str	r0, [sp, #64]	; 0x40
 8000dee:	e7ff      	b.n	8000df0 <_ZN5alloc5alloc6Global10alloc_impl17he29260f2d8a5822cE+0x5c>
 8000df0:	9803      	ldr	r0, [sp, #12]
 8000df2:	f000 fa97 	bl	8001324 <_ZN4core3ptr8non_null16NonNull$LT$T$GT$13new_unchecked18precondition_check17ha9feb91a6655eaeeE>
 8000df6:	e7ff      	b.n	8000df8 <_ZN5alloc5alloc6Global10alloc_impl17he29260f2d8a5822cE+0x64>
 8000df8:	990f      	ldr	r1, [sp, #60]	; 0x3c
 8000dfa:	9810      	ldr	r0, [sp, #64]	; 0x40
 8000dfc:	9108      	str	r1, [sp, #32]
 8000dfe:	9009      	str	r0, [sp, #36]	; 0x24
 8000e00:	e7ff      	b.n	8000e02 <_ZN5alloc5alloc6Global10alloc_impl17he29260f2d8a5822cE+0x6e>
 8000e02:	9808      	ldr	r0, [sp, #32]
 8000e04:	9909      	ldr	r1, [sp, #36]	; 0x24
 8000e06:	b028      	add	sp, #160	; 0xa0
 8000e08:	bd80      	pop	{r7, pc}
 8000e0a:	9806      	ldr	r0, [sp, #24]
 8000e0c:	9907      	ldr	r1, [sp, #28]
 8000e0e:	f7ff ff9a 	bl	8000d46 <_ZN5alloc5alloc5alloc17h0fa6edf225269527E>
 8000e12:	900a      	str	r0, [sp, #40]	; 0x28
 8000e14:	e005      	b.n	8000e22 <_ZN5alloc5alloc6Global10alloc_impl17he29260f2d8a5822cE+0x8e>
 8000e16:	9806      	ldr	r0, [sp, #24]
 8000e18:	9907      	ldr	r1, [sp, #28]
 8000e1a:	f7ff ff46 	bl	8000caa <_ZN5alloc5alloc12alloc_zeroed17h16e6e19db537b74fE>
 8000e1e:	900a      	str	r0, [sp, #40]	; 0x28
 8000e20:	e7ff      	b.n	8000e22 <_ZN5alloc5alloc6Global10alloc_impl17he29260f2d8a5822cE+0x8e>
 8000e22:	980a      	ldr	r0, [sp, #40]	; 0x28
 8000e24:	9002      	str	r0, [sp, #8]
 8000e26:	9020      	str	r0, [sp, #128]	; 0x80
 8000e28:	9021      	str	r0, [sp, #132]	; 0x84
 8000e2a:	b960      	cbnz	r0, 8000e46 <_ZN5alloc5alloc6Global10alloc_impl17he29260f2d8a5822cE+0xb2>
 8000e2c:	e7ff      	b.n	8000e2e <_ZN5alloc5alloc6Global10alloc_impl17he29260f2d8a5822cE+0x9a>
 8000e2e:	2000      	movs	r0, #0
 8000e30:	900d      	str	r0, [sp, #52]	; 0x34
 8000e32:	900c      	str	r0, [sp, #48]	; 0x30
 8000e34:	f249 5038 	movw	r0, #38200	; 0x9538
 8000e38:	f6c0 0000 	movt	r0, #2048	; 0x800
 8000e3c:	6801      	ldr	r1, [r0, #0]
 8000e3e:	6840      	ldr	r0, [r0, #4]
 8000e40:	9108      	str	r1, [sp, #32]
 8000e42:	9009      	str	r0, [sp, #36]	; 0x24
 8000e44:	e7dd      	b.n	8000e02 <_ZN5alloc5alloc6Global10alloc_impl17he29260f2d8a5822cE+0x6e>
 8000e46:	e7ff      	b.n	8000e48 <_ZN5alloc5alloc6Global10alloc_impl17he29260f2d8a5822cE+0xb4>
 8000e48:	9802      	ldr	r0, [sp, #8]
 8000e4a:	f000 fa6b 	bl	8001324 <_ZN4core3ptr8non_null16NonNull$LT$T$GT$13new_unchecked18precondition_check17ha9feb91a6655eaeeE>
 8000e4e:	e7ff      	b.n	8000e50 <_ZN5alloc5alloc6Global10alloc_impl17he29260f2d8a5822cE+0xbc>
 8000e50:	9805      	ldr	r0, [sp, #20]
 8000e52:	9902      	ldr	r1, [sp, #8]
 8000e54:	910d      	str	r1, [sp, #52]	; 0x34
 8000e56:	990d      	ldr	r1, [sp, #52]	; 0x34
 8000e58:	9122      	str	r1, [sp, #136]	; 0x88
 8000e5a:	910c      	str	r1, [sp, #48]	; 0x30
 8000e5c:	990c      	ldr	r1, [sp, #48]	; 0x30
 8000e5e:	9123      	str	r1, [sp, #140]	; 0x8c
 8000e60:	910b      	str	r1, [sp, #44]	; 0x2c
 8000e62:	990b      	ldr	r1, [sp, #44]	; 0x2c
 8000e64:	9101      	str	r1, [sp, #4]
 8000e66:	9124      	str	r1, [sp, #144]	; 0x90
 8000e68:	9125      	str	r1, [sp, #148]	; 0x94
 8000e6a:	9126      	str	r1, [sp, #152]	; 0x98
 8000e6c:	9027      	str	r0, [sp, #156]	; 0x9c
 8000e6e:	e7ff      	b.n	8000e70 <_ZN5alloc5alloc6Global10alloc_impl17he29260f2d8a5822cE+0xdc>
 8000e70:	9801      	ldr	r0, [sp, #4]
 8000e72:	f000 fa57 	bl	8001324 <_ZN4core3ptr8non_null16NonNull$LT$T$GT$13new_unchecked18precondition_check17ha9feb91a6655eaeeE>
 8000e76:	e7ff      	b.n	8000e78 <_ZN5alloc5alloc6Global10alloc_impl17he29260f2d8a5822cE+0xe4>
 8000e78:	9805      	ldr	r0, [sp, #20]
 8000e7a:	9901      	ldr	r1, [sp, #4]
 8000e7c:	9108      	str	r1, [sp, #32]
 8000e7e:	9009      	str	r0, [sp, #36]	; 0x24
 8000e80:	e7bf      	b.n	8000e02 <_ZN5alloc5alloc6Global10alloc_impl17he29260f2d8a5822cE+0x6e>

08000e82 <_ZN134_$LT$stm32f4xx_hal..gpio..gpioc..PC13$LT$stm32f4xx_hal..gpio..Input$LT$MODE$GT$$GT$$u20$as$u20$embedded_hal..digital..v2..InputPin$GT$6is_low17hc391dd1437612d18E>:
 8000e82:	b580      	push	{r7, lr}
 8000e84:	466f      	mov	r7, sp
 8000e86:	b088      	sub	sp, #32
 8000e88:	9003      	str	r0, [sp, #12]
 8000e8a:	f640 0010 	movw	r0, #2064	; 0x810
 8000e8e:	f2c4 0002 	movt	r0, #16386	; 0x4002
 8000e92:	9005      	str	r0, [sp, #20]
 8000e94:	9006      	str	r0, [sp, #24]
 8000e96:	9007      	str	r0, [sp, #28]
 8000e98:	f005 ff3d 	bl	8006d16 <_ZN4core3ptr13read_volatile17h9bc3363220c5f51bE>
 8000e9c:	9002      	str	r0, [sp, #8]
 8000e9e:	a802      	add	r0, sp, #8
 8000ea0:	9004      	str	r0, [sp, #16]
 8000ea2:	9802      	ldr	r0, [sp, #8]
 8000ea4:	f400 5100 	and.w	r1, r0, #8192	; 0x2000
 8000ea8:	2001      	movs	r0, #1
 8000eaa:	ea80 3051 	eor.w	r0, r0, r1, lsr #13
 8000eae:	f807 0c19 	strb.w	r0, [r7, #-25]
 8000eb2:	f817 0c19 	ldrb.w	r0, [r7, #-25]
 8000eb6:	f000 0001 	and.w	r0, r0, #1
 8000eba:	b008      	add	sp, #32
 8000ebc:	bd80      	pop	{r7, pc}

08000ebe <_ZN13stm32f4xx_hal4gpio5gpioc16PC13$LT$MODE$GT$18into_pull_up_input17h63ab878e4ee1ada1E>:
 8000ebe:	b580      	push	{r7, lr}
 8000ec0:	466f      	mov	r7, sp
 8000ec2:	b09a      	sub	sp, #104	; 0x68
 8000ec4:	201a      	movs	r0, #26
 8000ec6:	9003      	str	r0, [sp, #12]
 8000ec8:	2000      	movs	r0, #0
 8000eca:	2800      	cmp	r0, #0
 8000ecc:	d13f      	bne.n	8000f4e <_ZN13stm32f4xx_hal4gpio5gpioc16PC13$LT$MODE$GT$18into_pull_up_input17h63ab878e4ee1ada1E+0x90>
 8000ece:	e7ff      	b.n	8000ed0 <_ZN13stm32f4xx_hal4gpio5gpioc16PC13$LT$MODE$GT$18into_pull_up_input17h63ab878e4ee1ada1E+0x12>
 8000ed0:	9803      	ldr	r0, [sp, #12]
 8000ed2:	9004      	str	r0, [sp, #16]
 8000ed4:	f640 000c 	movw	r0, #2060	; 0x80c
 8000ed8:	f2c4 0002 	movt	r0, #16386	; 0x4002
 8000edc:	9000      	str	r0, [sp, #0]
 8000ede:	9008      	str	r0, [sp, #32]
 8000ee0:	a904      	add	r1, sp, #16
 8000ee2:	9101      	str	r1, [sp, #4]
 8000ee4:	9109      	str	r1, [sp, #36]	; 0x24
 8000ee6:	900b      	str	r0, [sp, #44]	; 0x2c
 8000ee8:	900c      	str	r0, [sp, #48]	; 0x30
 8000eea:	f005 ff14 	bl	8006d16 <_ZN4core3ptr13read_volatile17h9bc3363220c5f51bE>
 8000eee:	4601      	mov	r1, r0
 8000ef0:	9801      	ldr	r0, [sp, #4]
 8000ef2:	910a      	str	r1, [sp, #40]	; 0x28
 8000ef4:	9106      	str	r1, [sp, #24]
 8000ef6:	9107      	str	r1, [sp, #28]
 8000ef8:	a906      	add	r1, sp, #24
 8000efa:	aa07      	add	r2, sp, #28
 8000efc:	f000 f82d 	bl	8000f5a <_ZN13stm32f4xx_hal4gpio5gpioc16PC13$LT$MODE$GT$18into_pull_up_input28_$u7b$$u7b$closure$u7d$$u7d$17h143b3992335f1fa2E>
 8000f00:	4601      	mov	r1, r0
 8000f02:	9800      	ldr	r0, [sp, #0]
 8000f04:	6809      	ldr	r1, [r1, #0]
 8000f06:	900d      	str	r0, [sp, #52]	; 0x34
 8000f08:	910e      	str	r1, [sp, #56]	; 0x38
 8000f0a:	900f      	str	r0, [sp, #60]	; 0x3c
 8000f0c:	f005 fdc2 	bl	8006a94 <_ZN4core3ptr14write_volatile17hd6de69c464e82e6cE>
 8000f10:	9901      	ldr	r1, [sp, #4]
 8000f12:	f640 0000 	movw	r0, #2048	; 0x800
 8000f16:	f2c4 0002 	movt	r0, #16386	; 0x4002
 8000f1a:	9002      	str	r0, [sp, #8]
 8000f1c:	9012      	str	r0, [sp, #72]	; 0x48
 8000f1e:	9113      	str	r1, [sp, #76]	; 0x4c
 8000f20:	9015      	str	r0, [sp, #84]	; 0x54
 8000f22:	9016      	str	r0, [sp, #88]	; 0x58
 8000f24:	f005 fef7 	bl	8006d16 <_ZN4core3ptr13read_volatile17h9bc3363220c5f51bE>
 8000f28:	4601      	mov	r1, r0
 8000f2a:	9801      	ldr	r0, [sp, #4]
 8000f2c:	9114      	str	r1, [sp, #80]	; 0x50
 8000f2e:	9110      	str	r1, [sp, #64]	; 0x40
 8000f30:	9111      	str	r1, [sp, #68]	; 0x44
 8000f32:	a910      	add	r1, sp, #64	; 0x40
 8000f34:	aa11      	add	r2, sp, #68	; 0x44
 8000f36:	f000 f847 	bl	8000fc8 <_ZN13stm32f4xx_hal4gpio5gpioc16PC13$LT$MODE$GT$18into_pull_up_input28_$u7b$$u7b$closure$u7d$$u7d$17h59b01d4daa99a21dE>
 8000f3a:	4601      	mov	r1, r0
 8000f3c:	9802      	ldr	r0, [sp, #8]
 8000f3e:	6809      	ldr	r1, [r1, #0]
 8000f40:	9017      	str	r0, [sp, #92]	; 0x5c
 8000f42:	9118      	str	r1, [sp, #96]	; 0x60
 8000f44:	9019      	str	r0, [sp, #100]	; 0x64
 8000f46:	f005 fda5 	bl	8006a94 <_ZN4core3ptr14write_volatile17hd6de69c464e82e6cE>
 8000f4a:	b01a      	add	sp, #104	; 0x68
 8000f4c:	bd80      	pop	{r7, pc}
 8000f4e:	f649 3098 	movw	r0, #39832	; 0x9b98
 8000f52:	f6c0 0000 	movt	r0, #2048	; 0x800
 8000f56:	f007 fcde 	bl	8008916 <_ZN4core9panicking11panic_const24panic_const_mul_overflow17hd3d29f8f054ee19bE>

08000f5a <_ZN13stm32f4xx_hal4gpio5gpioc16PC13$LT$MODE$GT$18into_pull_up_input28_$u7b$$u7b$closure$u7d$$u7d$17h143b3992335f1fa2E>:
 8000f5a:	b580      	push	{r7, lr}
 8000f5c:	466f      	mov	r7, sp
 8000f5e:	b08c      	sub	sp, #48	; 0x30
 8000f60:	9203      	str	r2, [sp, #12]
 8000f62:	9006      	str	r0, [sp, #24]
 8000f64:	9107      	str	r1, [sp, #28]
 8000f66:	9208      	str	r2, [sp, #32]
 8000f68:	9109      	str	r1, [sp, #36]	; 0x24
 8000f6a:	6808      	ldr	r0, [r1, #0]
 8000f6c:	9004      	str	r0, [sp, #16]
 8000f6e:	9806      	ldr	r0, [sp, #24]
 8000f70:	6800      	ldr	r0, [r0, #0]
 8000f72:	9005      	str	r0, [sp, #20]
 8000f74:	281f      	cmp	r0, #31
 8000f76:	d80e      	bhi.n	8000f96 <_ZN13stm32f4xx_hal4gpio5gpioc16PC13$LT$MODE$GT$18into_pull_up_input28_$u7b$$u7b$closure$u7d$$u7d$17h143b3992335f1fa2E+0x3c>
 8000f78:	e7ff      	b.n	8000f7a <_ZN13stm32f4xx_hal4gpio5gpioc16PC13$LT$MODE$GT$18into_pull_up_input28_$u7b$$u7b$closure$u7d$$u7d$17h143b3992335f1fa2E+0x20>
 8000f7a:	9804      	ldr	r0, [sp, #16]
 8000f7c:	9905      	ldr	r1, [sp, #20]
 8000f7e:	f001 021f 	and.w	r2, r1, #31
 8000f82:	2103      	movs	r1, #3
 8000f84:	4091      	lsls	r1, r2
 8000f86:	4388      	bics	r0, r1
 8000f88:	9001      	str	r0, [sp, #4]
 8000f8a:	9806      	ldr	r0, [sp, #24]
 8000f8c:	6800      	ldr	r0, [r0, #0]
 8000f8e:	9002      	str	r0, [sp, #8]
 8000f90:	2820      	cmp	r0, #32
 8000f92:	d306      	bcc.n	8000fa2 <_ZN13stm32f4xx_hal4gpio5gpioc16PC13$LT$MODE$GT$18into_pull_up_input28_$u7b$$u7b$closure$u7d$$u7d$17h143b3992335f1fa2E+0x48>
 8000f94:	e012      	b.n	8000fbc <_ZN13stm32f4xx_hal4gpio5gpioc16PC13$LT$MODE$GT$18into_pull_up_input28_$u7b$$u7b$closure$u7d$$u7d$17h143b3992335f1fa2E+0x62>
 8000f96:	f649 3098 	movw	r0, #39832	; 0x9b98
 8000f9a:	f6c0 0000 	movt	r0, #2048	; 0x800
 8000f9e:	f007 fccd 	bl	800893c <_ZN4core9panicking11panic_const24panic_const_shl_overflow17h7d1dfb79ee113705E>
 8000fa2:	9803      	ldr	r0, [sp, #12]
 8000fa4:	9901      	ldr	r1, [sp, #4]
 8000fa6:	9a02      	ldr	r2, [sp, #8]
 8000fa8:	f002 031f 	and.w	r3, r2, #31
 8000fac:	2201      	movs	r2, #1
 8000fae:	409a      	lsls	r2, r3
 8000fb0:	4311      	orrs	r1, r2
 8000fb2:	900a      	str	r0, [sp, #40]	; 0x28
 8000fb4:	910b      	str	r1, [sp, #44]	; 0x2c
 8000fb6:	6001      	str	r1, [r0, #0]
 8000fb8:	b00c      	add	sp, #48	; 0x30
 8000fba:	bd80      	pop	{r7, pc}
 8000fbc:	f649 3098 	movw	r0, #39832	; 0x9b98
 8000fc0:	f6c0 0000 	movt	r0, #2048	; 0x800
 8000fc4:	f007 fcba 	bl	800893c <_ZN4core9panicking11panic_const24panic_const_shl_overflow17h7d1dfb79ee113705E>

08000fc8 <_ZN13stm32f4xx_hal4gpio5gpioc16PC13$LT$MODE$GT$18into_pull_up_input28_$u7b$$u7b$closure$u7d$$u7d$17h59b01d4daa99a21dE>:
 8000fc8:	b580      	push	{r7, lr}
 8000fca:	466f      	mov	r7, sp
 8000fcc:	b08a      	sub	sp, #40	; 0x28
 8000fce:	9201      	str	r2, [sp, #4]
 8000fd0:	9004      	str	r0, [sp, #16]
 8000fd2:	9105      	str	r1, [sp, #20]
 8000fd4:	9206      	str	r2, [sp, #24]
 8000fd6:	9107      	str	r1, [sp, #28]
 8000fd8:	6808      	ldr	r0, [r1, #0]
 8000fda:	9002      	str	r0, [sp, #8]
 8000fdc:	9804      	ldr	r0, [sp, #16]
 8000fde:	6800      	ldr	r0, [r0, #0]
 8000fe0:	9003      	str	r0, [sp, #12]
 8000fe2:	281f      	cmp	r0, #31
 8000fe4:	d80d      	bhi.n	8001002 <_ZN13stm32f4xx_hal4gpio5gpioc16PC13$LT$MODE$GT$18into_pull_up_input28_$u7b$$u7b$closure$u7d$$u7d$17h59b01d4daa99a21dE+0x3a>
 8000fe6:	e7ff      	b.n	8000fe8 <_ZN13stm32f4xx_hal4gpio5gpioc16PC13$LT$MODE$GT$18into_pull_up_input28_$u7b$$u7b$closure$u7d$$u7d$17h59b01d4daa99a21dE+0x20>
 8000fe8:	9802      	ldr	r0, [sp, #8]
 8000fea:	9903      	ldr	r1, [sp, #12]
 8000fec:	f001 021f 	and.w	r2, r1, #31
 8000ff0:	2103      	movs	r1, #3
 8000ff2:	4091      	lsls	r1, r2
 8000ff4:	4388      	bics	r0, r1
 8000ff6:	9000      	str	r0, [sp, #0]
 8000ff8:	9804      	ldr	r0, [sp, #16]
 8000ffa:	6800      	ldr	r0, [r0, #0]
 8000ffc:	2820      	cmp	r0, #32
 8000ffe:	d306      	bcc.n	800100e <_ZN13stm32f4xx_hal4gpio5gpioc16PC13$LT$MODE$GT$18into_pull_up_input28_$u7b$$u7b$closure$u7d$$u7d$17h59b01d4daa99a21dE+0x46>
 8001000:	e00c      	b.n	800101c <_ZN13stm32f4xx_hal4gpio5gpioc16PC13$LT$MODE$GT$18into_pull_up_input28_$u7b$$u7b$closure$u7d$$u7d$17h59b01d4daa99a21dE+0x54>
 8001002:	f649 3098 	movw	r0, #39832	; 0x9b98
 8001006:	f6c0 0000 	movt	r0, #2048	; 0x800
 800100a:	f007 fc97 	bl	800893c <_ZN4core9panicking11panic_const24panic_const_shl_overflow17h7d1dfb79ee113705E>
 800100e:	9801      	ldr	r0, [sp, #4]
 8001010:	9900      	ldr	r1, [sp, #0]
 8001012:	9008      	str	r0, [sp, #32]
 8001014:	9109      	str	r1, [sp, #36]	; 0x24
 8001016:	6001      	str	r1, [r0, #0]
 8001018:	b00a      	add	sp, #40	; 0x28
 800101a:	bd80      	pop	{r7, pc}
 800101c:	f649 3098 	movw	r0, #39832	; 0x9b98
 8001020:	f6c0 0000 	movt	r0, #2048	; 0x800
 8001024:	f007 fc8a 	bl	800893c <_ZN4core9panicking11panic_const24panic_const_shl_overflow17h7d1dfb79ee113705E>

08001028 <_ZN7stm32f49stm32f40111Peripherals4take17h525c16e5f29fdbf3E>:
 8001028:	b580      	push	{r7, lr}
 800102a:	466f      	mov	r7, sp
 800102c:	f000 fa80 	bl	8001530 <_ZN8cortex_m9interrupt4free17h9715c56e0f6e370cE>
 8001030:	bd80      	pop	{r7, pc}

08001032 <_ZN7stm32f49stm32f40111Peripherals5steal17h205b901a632fcd49E>:
 8001032:	f643 51ac 	movw	r1, #15788	; 0x3dac
 8001036:	f2c2 0100 	movt	r1, #8192	; 0x2000
 800103a:	2001      	movs	r0, #1
 800103c:	7008      	strb	r0, [r1, #0]
 800103e:	4770      	bx	lr

08001040 <_ZN12embedded_hal7digital2v210toggleable78_$LT$impl$u20$embedded_hal..digital..v2..ToggleableOutputPin$u20$for$u20$P$GT$6toggle17h22a7964cde93528dE>:
 8001040:	b580      	push	{r7, lr}
 8001042:	466f      	mov	r7, sp
 8001044:	b084      	sub	sp, #16
 8001046:	9000      	str	r0, [sp, #0]
 8001048:	9002      	str	r0, [sp, #8]
 800104a:	f000 f94e 	bl	80012ea <_ZN143_$LT$stm32f4xx_hal..gpio..gpioa..PA5$LT$stm32f4xx_hal..gpio..Output$LT$MODE$GT$$GT$$u20$as$u20$embedded_hal..digital..v2..StatefulOutputPin$GT$10is_set_low17hf52837eccaf49b3eE>
 800104e:	f7ff fd11 	bl	8000a74 <_ZN79_$LT$core..result..Result$LT$T$C$E$GT$$u20$as$u20$core..ops..try_trait..Try$GT$6branch17hd0eb5f804fd8de1dE>
 8001052:	f807 0c09 	strb.w	r0, [r7, #-9]
 8001056:	e7ff      	b.n	8001058 <_ZN12embedded_hal7digital2v210toggleable78_$LT$impl$u20$embedded_hal..digital..v2..ToggleableOutputPin$u20$for$u20$P$GT$6toggle17h22a7964cde93528dE+0x18>
 8001058:	f817 0c09 	ldrb.w	r0, [r7, #-9]
 800105c:	f000 0001 	and.w	r0, r0, #1
 8001060:	f807 0c01 	strb.w	r0, [r7, #-1]
 8001064:	b920      	cbnz	r0, 8001070 <_ZN12embedded_hal7digital2v210toggleable78_$LT$impl$u20$embedded_hal..digital..v2..ToggleableOutputPin$u20$for$u20$P$GT$6toggle17h22a7964cde93528dE+0x30>
 8001066:	e7ff      	b.n	8001068 <_ZN12embedded_hal7digital2v210toggleable78_$LT$impl$u20$embedded_hal..digital..v2..ToggleableOutputPin$u20$for$u20$P$GT$6toggle17h22a7964cde93528dE+0x28>
 8001068:	9800      	ldr	r0, [sp, #0]
 800106a:	f000 f807 	bl	800107c <_ZN135_$LT$stm32f4xx_hal..gpio..gpioa..PA5$LT$stm32f4xx_hal..gpio..Output$LT$MODE$GT$$GT$$u20$as$u20$embedded_hal..digital..v2..OutputPin$GT$7set_low17ha571bce3bda35d88E>
 800106e:	e003      	b.n	8001078 <_ZN12embedded_hal7digital2v210toggleable78_$LT$impl$u20$embedded_hal..digital..v2..ToggleableOutputPin$u20$for$u20$P$GT$6toggle17h22a7964cde93528dE+0x38>
 8001070:	9800      	ldr	r0, [sp, #0]
 8001072:	f000 f840 	bl	80010f6 <_ZN135_$LT$stm32f4xx_hal..gpio..gpioa..PA5$LT$stm32f4xx_hal..gpio..Output$LT$MODE$GT$$GT$$u20$as$u20$embedded_hal..digital..v2..OutputPin$GT$8set_high17hab613d658415d608E>
 8001076:	e7ff      	b.n	8001078 <_ZN12embedded_hal7digital2v210toggleable78_$LT$impl$u20$embedded_hal..digital..v2..ToggleableOutputPin$u20$for$u20$P$GT$6toggle17h22a7964cde93528dE+0x38>
 8001078:	b004      	add	sp, #16
 800107a:	bd80      	pop	{r7, pc}

0800107c <_ZN135_$LT$stm32f4xx_hal..gpio..gpioa..PA5$LT$stm32f4xx_hal..gpio..Output$LT$MODE$GT$$GT$$u20$as$u20$embedded_hal..digital..v2..OutputPin$GT$7set_low17ha571bce3bda35d88E>:
 800107c:	b580      	push	{r7, lr}
 800107e:	466f      	mov	r7, sp
 8001080:	b088      	sub	sp, #32
 8001082:	9002      	str	r0, [sp, #8]
 8001084:	2018      	movs	r0, #24
 8001086:	f2c4 0002 	movt	r0, #16386	; 0x4002
 800108a:	9001      	str	r0, [sp, #4]
 800108c:	9004      	str	r0, [sp, #16]
 800108e:	2000      	movs	r0, #0
 8001090:	9003      	str	r0, [sp, #12]
 8001092:	a803      	add	r0, sp, #12
 8001094:	f000 f80a 	bl	80010ac <_ZN135_$LT$stm32f4xx_hal..gpio..gpioa..PA5$LT$stm32f4xx_hal..gpio..Output$LT$MODE$GT$$GT$$u20$as$u20$embedded_hal..digital..v2..OutputPin$GT$7set_low28_$u7b$$u7b$closure$u7d$$u7d$17hb8c13203c675ffc4E>
 8001098:	4601      	mov	r1, r0
 800109a:	9801      	ldr	r0, [sp, #4]
 800109c:	6809      	ldr	r1, [r1, #0]
 800109e:	9005      	str	r0, [sp, #20]
 80010a0:	9106      	str	r1, [sp, #24]
 80010a2:	9007      	str	r0, [sp, #28]
 80010a4:	f005 fcf6 	bl	8006a94 <_ZN4core3ptr14write_volatile17hd6de69c464e82e6cE>
 80010a8:	b008      	add	sp, #32
 80010aa:	bd80      	pop	{r7, pc}

080010ac <_ZN135_$LT$stm32f4xx_hal..gpio..gpioa..PA5$LT$stm32f4xx_hal..gpio..Output$LT$MODE$GT$$GT$$u20$as$u20$embedded_hal..digital..v2..OutputPin$GT$7set_low28_$u7b$$u7b$closure$u7d$$u7d$17hb8c13203c675ffc4E>:
 80010ac:	b580      	push	{r7, lr}
 80010ae:	466f      	mov	r7, sp
 80010b0:	b086      	sub	sp, #24
 80010b2:	9000      	str	r0, [sp, #0]
 80010b4:	9003      	str	r0, [sp, #12]
 80010b6:	2015      	movs	r0, #21
 80010b8:	9001      	str	r0, [sp, #4]
 80010ba:	2000      	movs	r0, #0
 80010bc:	b920      	cbnz	r0, 80010c8 <_ZN135_$LT$stm32f4xx_hal..gpio..gpioa..PA5$LT$stm32f4xx_hal..gpio..Output$LT$MODE$GT$$GT$$u20$as$u20$embedded_hal..digital..v2..OutputPin$GT$7set_low28_$u7b$$u7b$closure$u7d$$u7d$17hb8c13203c675ffc4E+0x1c>
 80010be:	e7ff      	b.n	80010c0 <_ZN135_$LT$stm32f4xx_hal..gpio..gpioa..PA5$LT$stm32f4xx_hal..gpio..Output$LT$MODE$GT$$GT$$u20$as$u20$embedded_hal..digital..v2..OutputPin$GT$7set_low28_$u7b$$u7b$closure$u7d$$u7d$17hb8c13203c675ffc4E+0x14>
 80010c0:	9801      	ldr	r0, [sp, #4]
 80010c2:	2820      	cmp	r0, #32
 80010c4:	d306      	bcc.n	80010d4 <_ZN135_$LT$stm32f4xx_hal..gpio..gpioa..PA5$LT$stm32f4xx_hal..gpio..Output$LT$MODE$GT$$GT$$u20$as$u20$embedded_hal..digital..v2..OutputPin$GT$7set_low28_$u7b$$u7b$closure$u7d$$u7d$17hb8c13203c675ffc4E+0x28>
 80010c6:	e010      	b.n	80010ea <_ZN135_$LT$stm32f4xx_hal..gpio..gpioa..PA5$LT$stm32f4xx_hal..gpio..Output$LT$MODE$GT$$GT$$u20$as$u20$embedded_hal..digital..v2..OutputPin$GT$7set_low28_$u7b$$u7b$closure$u7d$$u7d$17hb8c13203c675ffc4E+0x3e>
 80010c8:	f649 400c 	movw	r0, #39948	; 0x9c0c
 80010cc:	f6c0 0000 	movt	r0, #2048	; 0x800
 80010d0:	f007 fbfb 	bl	80088ca <_ZN4core9panicking11panic_const24panic_const_add_overflow17h8e8a2d960805aa64E>
 80010d4:	9800      	ldr	r0, [sp, #0]
 80010d6:	9901      	ldr	r1, [sp, #4]
 80010d8:	f001 021f 	and.w	r2, r1, #31
 80010dc:	2101      	movs	r1, #1
 80010de:	4091      	lsls	r1, r2
 80010e0:	9004      	str	r0, [sp, #16]
 80010e2:	9105      	str	r1, [sp, #20]
 80010e4:	6001      	str	r1, [r0, #0]
 80010e6:	b006      	add	sp, #24
 80010e8:	bd80      	pop	{r7, pc}
 80010ea:	f649 400c 	movw	r0, #39948	; 0x9c0c
 80010ee:	f6c0 0000 	movt	r0, #2048	; 0x800
 80010f2:	f007 fc23 	bl	800893c <_ZN4core9panicking11panic_const24panic_const_shl_overflow17h7d1dfb79ee113705E>

080010f6 <_ZN135_$LT$stm32f4xx_hal..gpio..gpioa..PA5$LT$stm32f4xx_hal..gpio..Output$LT$MODE$GT$$GT$$u20$as$u20$embedded_hal..digital..v2..OutputPin$GT$8set_high17hab613d658415d608E>:
 80010f6:	b580      	push	{r7, lr}
 80010f8:	466f      	mov	r7, sp
 80010fa:	b088      	sub	sp, #32
 80010fc:	9002      	str	r0, [sp, #8]
 80010fe:	2018      	movs	r0, #24
 8001100:	f2c4 0002 	movt	r0, #16386	; 0x4002
 8001104:	9001      	str	r0, [sp, #4]
 8001106:	9004      	str	r0, [sp, #16]
 8001108:	2000      	movs	r0, #0
 800110a:	9003      	str	r0, [sp, #12]
 800110c:	a803      	add	r0, sp, #12
 800110e:	f000 f80a 	bl	8001126 <_ZN135_$LT$stm32f4xx_hal..gpio..gpioa..PA5$LT$stm32f4xx_hal..gpio..Output$LT$MODE$GT$$GT$$u20$as$u20$embedded_hal..digital..v2..OutputPin$GT$8set_high28_$u7b$$u7b$closure$u7d$$u7d$17h05aad1c357b7215bE>
 8001112:	4601      	mov	r1, r0
 8001114:	9801      	ldr	r0, [sp, #4]
 8001116:	6809      	ldr	r1, [r1, #0]
 8001118:	9005      	str	r0, [sp, #20]
 800111a:	9106      	str	r1, [sp, #24]
 800111c:	9007      	str	r0, [sp, #28]
 800111e:	f005 fcb9 	bl	8006a94 <_ZN4core3ptr14write_volatile17hd6de69c464e82e6cE>
 8001122:	b008      	add	sp, #32
 8001124:	bd80      	pop	{r7, pc}

08001126 <_ZN135_$LT$stm32f4xx_hal..gpio..gpioa..PA5$LT$stm32f4xx_hal..gpio..Output$LT$MODE$GT$$GT$$u20$as$u20$embedded_hal..digital..v2..OutputPin$GT$8set_high28_$u7b$$u7b$closure$u7d$$u7d$17h05aad1c357b7215bE>:
 8001126:	b084      	sub	sp, #16
 8001128:	9001      	str	r0, [sp, #4]
 800112a:	9002      	str	r0, [sp, #8]
 800112c:	2120      	movs	r1, #32
 800112e:	9103      	str	r1, [sp, #12]
 8001130:	6001      	str	r1, [r0, #0]
 8001132:	b004      	add	sp, #16
 8001134:	4770      	bx	lr

08001136 <_ZN13stm32f4xx_hal4gpio5gpioa15PA5$LT$MODE$GT$21into_push_pull_output17hd67b22113e931f26E>:
 8001136:	b580      	push	{r7, lr}
 8001138:	466f      	mov	r7, sp
 800113a:	b0a4      	sub	sp, #144	; 0x90
 800113c:	200a      	movs	r0, #10
 800113e:	9004      	str	r0, [sp, #16]
 8001140:	2000      	movs	r0, #0
 8001142:	2800      	cmp	r0, #0
 8001144:	d155      	bne.n	80011f2 <_ZN13stm32f4xx_hal4gpio5gpioa15PA5$LT$MODE$GT$21into_push_pull_output17hd67b22113e931f26E+0xbc>
 8001146:	e7ff      	b.n	8001148 <_ZN13stm32f4xx_hal4gpio5gpioa15PA5$LT$MODE$GT$21into_push_pull_output17hd67b22113e931f26E+0x12>
 8001148:	9804      	ldr	r0, [sp, #16]
 800114a:	9005      	str	r0, [sp, #20]
 800114c:	200c      	movs	r0, #12
 800114e:	f2c4 0002 	movt	r0, #16386	; 0x4002
 8001152:	9000      	str	r0, [sp, #0]
 8001154:	9012      	str	r0, [sp, #72]	; 0x48
 8001156:	a905      	add	r1, sp, #20
 8001158:	9102      	str	r1, [sp, #8]
 800115a:	9113      	str	r1, [sp, #76]	; 0x4c
 800115c:	9015      	str	r0, [sp, #84]	; 0x54
 800115e:	9016      	str	r0, [sp, #88]	; 0x58
 8001160:	f005 fdd9 	bl	8006d16 <_ZN4core3ptr13read_volatile17h9bc3363220c5f51bE>
 8001164:	4601      	mov	r1, r0
 8001166:	9802      	ldr	r0, [sp, #8]
 8001168:	9114      	str	r1, [sp, #80]	; 0x50
 800116a:	9110      	str	r1, [sp, #64]	; 0x40
 800116c:	9111      	str	r1, [sp, #68]	; 0x44
 800116e:	a910      	add	r1, sp, #64	; 0x40
 8001170:	aa11      	add	r2, sp, #68	; 0x44
 8001172:	f000 f88a 	bl	800128a <_ZN13stm32f4xx_hal4gpio5gpioa15PA5$LT$MODE$GT$21into_push_pull_output28_$u7b$$u7b$closure$u7d$$u7d$17hfc0a7349fa47c146E>
 8001176:	4601      	mov	r1, r0
 8001178:	9800      	ldr	r0, [sp, #0]
 800117a:	6809      	ldr	r1, [r1, #0]
 800117c:	9017      	str	r0, [sp, #92]	; 0x5c
 800117e:	9118      	str	r1, [sp, #96]	; 0x60
 8001180:	9019      	str	r0, [sp, #100]	; 0x64
 8001182:	f005 fc87 	bl	8006a94 <_ZN4core3ptr14write_volatile17hd6de69c464e82e6cE>
 8001186:	2004      	movs	r0, #4
 8001188:	f2c4 0002 	movt	r0, #16386	; 0x4002
 800118c:	9001      	str	r0, [sp, #4]
 800118e:	9009      	str	r0, [sp, #36]	; 0x24
 8001190:	900b      	str	r0, [sp, #44]	; 0x2c
 8001192:	900c      	str	r0, [sp, #48]	; 0x30
 8001194:	f005 fdbf 	bl	8006d16 <_ZN4core3ptr13read_volatile17h9bc3363220c5f51bE>
 8001198:	900a      	str	r0, [sp, #40]	; 0x28
 800119a:	9007      	str	r0, [sp, #28]
 800119c:	9008      	str	r0, [sp, #32]
 800119e:	a807      	add	r0, sp, #28
 80011a0:	a908      	add	r1, sp, #32
 80011a2:	f000 f863 	bl	800126c <_ZN13stm32f4xx_hal4gpio5gpioa15PA5$LT$MODE$GT$21into_push_pull_output28_$u7b$$u7b$closure$u7d$$u7d$17h592d8ef091b6c87dE>
 80011a6:	4601      	mov	r1, r0
 80011a8:	9801      	ldr	r0, [sp, #4]
 80011aa:	6809      	ldr	r1, [r1, #0]
 80011ac:	900d      	str	r0, [sp, #52]	; 0x34
 80011ae:	910e      	str	r1, [sp, #56]	; 0x38
 80011b0:	900f      	str	r0, [sp, #60]	; 0x3c
 80011b2:	f005 fc6f 	bl	8006a94 <_ZN4core3ptr14write_volatile17hd6de69c464e82e6cE>
 80011b6:	9902      	ldr	r1, [sp, #8]
 80011b8:	2000      	movs	r0, #0
 80011ba:	f2c4 0002 	movt	r0, #16386	; 0x4002
 80011be:	9003      	str	r0, [sp, #12]
 80011c0:	901c      	str	r0, [sp, #112]	; 0x70
 80011c2:	911d      	str	r1, [sp, #116]	; 0x74
 80011c4:	901f      	str	r0, [sp, #124]	; 0x7c
 80011c6:	9020      	str	r0, [sp, #128]	; 0x80
 80011c8:	f005 fda5 	bl	8006d16 <_ZN4core3ptr13read_volatile17h9bc3363220c5f51bE>
 80011cc:	4601      	mov	r1, r0
 80011ce:	9802      	ldr	r0, [sp, #8]
 80011d0:	911e      	str	r1, [sp, #120]	; 0x78
 80011d2:	911a      	str	r1, [sp, #104]	; 0x68
 80011d4:	911b      	str	r1, [sp, #108]	; 0x6c
 80011d6:	a91a      	add	r1, sp, #104	; 0x68
 80011d8:	aa1b      	add	r2, sp, #108	; 0x6c
 80011da:	f000 f810 	bl	80011fe <_ZN13stm32f4xx_hal4gpio5gpioa15PA5$LT$MODE$GT$21into_push_pull_output28_$u7b$$u7b$closure$u7d$$u7d$17h49bdebcf5f49cbf6E>
 80011de:	4601      	mov	r1, r0
 80011e0:	9803      	ldr	r0, [sp, #12]
 80011e2:	6809      	ldr	r1, [r1, #0]
 80011e4:	9021      	str	r0, [sp, #132]	; 0x84
 80011e6:	9122      	str	r1, [sp, #136]	; 0x88
 80011e8:	9023      	str	r0, [sp, #140]	; 0x8c
 80011ea:	f005 fc53 	bl	8006a94 <_ZN4core3ptr14write_volatile17hd6de69c464e82e6cE>
 80011ee:	b024      	add	sp, #144	; 0x90
 80011f0:	bd80      	pop	{r7, pc}
 80011f2:	f649 400c 	movw	r0, #39948	; 0x9c0c
 80011f6:	f6c0 0000 	movt	r0, #2048	; 0x800
 80011fa:	f007 fb8c 	bl	8008916 <_ZN4core9panicking11panic_const24panic_const_mul_overflow17hd3d29f8f054ee19bE>

080011fe <_ZN13stm32f4xx_hal4gpio5gpioa15PA5$LT$MODE$GT$21into_push_pull_output28_$u7b$$u7b$closure$u7d$$u7d$17h49bdebcf5f49cbf6E>:
 80011fe:	b580      	push	{r7, lr}
 8001200:	466f      	mov	r7, sp
 8001202:	b08c      	sub	sp, #48	; 0x30
 8001204:	9203      	str	r2, [sp, #12]
 8001206:	9006      	str	r0, [sp, #24]
 8001208:	9107      	str	r1, [sp, #28]
 800120a:	9208      	str	r2, [sp, #32]
 800120c:	9109      	str	r1, [sp, #36]	; 0x24
 800120e:	6808      	ldr	r0, [r1, #0]
 8001210:	9004      	str	r0, [sp, #16]
 8001212:	9806      	ldr	r0, [sp, #24]
 8001214:	6800      	ldr	r0, [r0, #0]
 8001216:	9005      	str	r0, [sp, #20]
 8001218:	281f      	cmp	r0, #31
 800121a:	d80e      	bhi.n	800123a <_ZN13stm32f4xx_hal4gpio5gpioa15PA5$LT$MODE$GT$21into_push_pull_output28_$u7b$$u7b$closure$u7d$$u7d$17h49bdebcf5f49cbf6E+0x3c>
 800121c:	e7ff      	b.n	800121e <_ZN13stm32f4xx_hal4gpio5gpioa15PA5$LT$MODE$GT$21into_push_pull_output28_$u7b$$u7b$closure$u7d$$u7d$17h49bdebcf5f49cbf6E+0x20>
 800121e:	9804      	ldr	r0, [sp, #16]
 8001220:	9905      	ldr	r1, [sp, #20]
 8001222:	f001 021f 	and.w	r2, r1, #31
 8001226:	2103      	movs	r1, #3
 8001228:	4091      	lsls	r1, r2
 800122a:	4388      	bics	r0, r1
 800122c:	9001      	str	r0, [sp, #4]
 800122e:	9806      	ldr	r0, [sp, #24]
 8001230:	6800      	ldr	r0, [r0, #0]
 8001232:	9002      	str	r0, [sp, #8]
 8001234:	2820      	cmp	r0, #32
 8001236:	d306      	bcc.n	8001246 <_ZN13stm32f4xx_hal4gpio5gpioa15PA5$LT$MODE$GT$21into_push_pull_output28_$u7b$$u7b$closure$u7d$$u7d$17h49bdebcf5f49cbf6E+0x48>
 8001238:	e012      	b.n	8001260 <_ZN13stm32f4xx_hal4gpio5gpioa15PA5$LT$MODE$GT$21into_push_pull_output28_$u7b$$u7b$closure$u7d$$u7d$17h49bdebcf5f49cbf6E+0x62>
 800123a:	f649 400c 	movw	r0, #39948	; 0x9c0c
 800123e:	f6c0 0000 	movt	r0, #2048	; 0x800
 8001242:	f007 fb7b 	bl	800893c <_ZN4core9panicking11panic_const24panic_const_shl_overflow17h7d1dfb79ee113705E>
 8001246:	9803      	ldr	r0, [sp, #12]
 8001248:	9901      	ldr	r1, [sp, #4]
 800124a:	9a02      	ldr	r2, [sp, #8]
 800124c:	f002 031f 	and.w	r3, r2, #31
 8001250:	2201      	movs	r2, #1
 8001252:	409a      	lsls	r2, r3
 8001254:	4311      	orrs	r1, r2
 8001256:	900a      	str	r0, [sp, #40]	; 0x28
 8001258:	910b      	str	r1, [sp, #44]	; 0x2c
 800125a:	6001      	str	r1, [r0, #0]
 800125c:	b00c      	add	sp, #48	; 0x30
 800125e:	bd80      	pop	{r7, pc}
 8001260:	f649 400c 	movw	r0, #39948	; 0x9c0c
 8001264:	f6c0 0000 	movt	r0, #2048	; 0x800
 8001268:	f007 fb68 	bl	800893c <_ZN4core9panicking11panic_const24panic_const_shl_overflow17h7d1dfb79ee113705E>

0800126c <_ZN13stm32f4xx_hal4gpio5gpioa15PA5$LT$MODE$GT$21into_push_pull_output28_$u7b$$u7b$closure$u7d$$u7d$17h592d8ef091b6c87dE>:
 800126c:	b087      	sub	sp, #28
 800126e:	9100      	str	r1, [sp, #0]
 8001270:	4601      	mov	r1, r0
 8001272:	9800      	ldr	r0, [sp, #0]
 8001274:	9102      	str	r1, [sp, #8]
 8001276:	9003      	str	r0, [sp, #12]
 8001278:	9104      	str	r1, [sp, #16]
 800127a:	6809      	ldr	r1, [r1, #0]
 800127c:	f021 0120 	bic.w	r1, r1, #32
 8001280:	9005      	str	r0, [sp, #20]
 8001282:	9106      	str	r1, [sp, #24]
 8001284:	6001      	str	r1, [r0, #0]
 8001286:	b007      	add	sp, #28
 8001288:	4770      	bx	lr

0800128a <_ZN13stm32f4xx_hal4gpio5gpioa15PA5$LT$MODE$GT$21into_push_pull_output28_$u7b$$u7b$closure$u7d$$u7d$17hfc0a7349fa47c146E>:
 800128a:	b580      	push	{r7, lr}
 800128c:	466f      	mov	r7, sp
 800128e:	b08a      	sub	sp, #40	; 0x28
 8001290:	9201      	str	r2, [sp, #4]
 8001292:	9004      	str	r0, [sp, #16]
 8001294:	9105      	str	r1, [sp, #20]
 8001296:	9206      	str	r2, [sp, #24]
 8001298:	9107      	str	r1, [sp, #28]
 800129a:	6808      	ldr	r0, [r1, #0]
 800129c:	9002      	str	r0, [sp, #8]
 800129e:	9804      	ldr	r0, [sp, #16]
 80012a0:	6800      	ldr	r0, [r0, #0]
 80012a2:	9003      	str	r0, [sp, #12]
 80012a4:	281f      	cmp	r0, #31
 80012a6:	d80d      	bhi.n	80012c4 <_ZN13stm32f4xx_hal4gpio5gpioa15PA5$LT$MODE$GT$21into_push_pull_output28_$u7b$$u7b$closure$u7d$$u7d$17hfc0a7349fa47c146E+0x3a>
 80012a8:	e7ff      	b.n	80012aa <_ZN13stm32f4xx_hal4gpio5gpioa15PA5$LT$MODE$GT$21into_push_pull_output28_$u7b$$u7b$closure$u7d$$u7d$17hfc0a7349fa47c146E+0x20>
 80012aa:	9802      	ldr	r0, [sp, #8]
 80012ac:	9903      	ldr	r1, [sp, #12]
 80012ae:	f001 021f 	and.w	r2, r1, #31
 80012b2:	2103      	movs	r1, #3
 80012b4:	4091      	lsls	r1, r2
 80012b6:	4388      	bics	r0, r1
 80012b8:	9000      	str	r0, [sp, #0]
 80012ba:	9804      	ldr	r0, [sp, #16]
 80012bc:	6800      	ldr	r0, [r0, #0]
 80012be:	2820      	cmp	r0, #32
 80012c0:	d306      	bcc.n	80012d0 <_ZN13stm32f4xx_hal4gpio5gpioa15PA5$LT$MODE$GT$21into_push_pull_output28_$u7b$$u7b$closure$u7d$$u7d$17hfc0a7349fa47c146E+0x46>
 80012c2:	e00c      	b.n	80012de <_ZN13stm32f4xx_hal4gpio5gpioa15PA5$LT$MODE$GT$21into_push_pull_output28_$u7b$$u7b$closure$u7d$$u7d$17hfc0a7349fa47c146E+0x54>
 80012c4:	f649 400c 	movw	r0, #39948	; 0x9c0c
 80012c8:	f6c0 0000 	movt	r0, #2048	; 0x800
 80012cc:	f007 fb36 	bl	800893c <_ZN4core9panicking11panic_const24panic_const_shl_overflow17h7d1dfb79ee113705E>
 80012d0:	9801      	ldr	r0, [sp, #4]
 80012d2:	9900      	ldr	r1, [sp, #0]
 80012d4:	9008      	str	r0, [sp, #32]
 80012d6:	9109      	str	r1, [sp, #36]	; 0x24
 80012d8:	6001      	str	r1, [r0, #0]
 80012da:	b00a      	add	sp, #40	; 0x28
 80012dc:	bd80      	pop	{r7, pc}
 80012de:	f649 400c 	movw	r0, #39948	; 0x9c0c
 80012e2:	f6c0 0000 	movt	r0, #2048	; 0x800
 80012e6:	f007 fb29 	bl	800893c <_ZN4core9panicking11panic_const24panic_const_shl_overflow17h7d1dfb79ee113705E>

080012ea <_ZN143_$LT$stm32f4xx_hal..gpio..gpioa..PA5$LT$stm32f4xx_hal..gpio..Output$LT$MODE$GT$$GT$$u20$as$u20$embedded_hal..digital..v2..StatefulOutputPin$GT$10is_set_low17hf52837eccaf49b3eE>:
 80012ea:	b580      	push	{r7, lr}
 80012ec:	466f      	mov	r7, sp
 80012ee:	b088      	sub	sp, #32
 80012f0:	9003      	str	r0, [sp, #12]
 80012f2:	2014      	movs	r0, #20
 80012f4:	f2c4 0002 	movt	r0, #16386	; 0x4002
 80012f8:	9005      	str	r0, [sp, #20]
 80012fa:	9006      	str	r0, [sp, #24]
 80012fc:	9007      	str	r0, [sp, #28]
 80012fe:	f005 fd0a 	bl	8006d16 <_ZN4core3ptr13read_volatile17h9bc3363220c5f51bE>
 8001302:	9002      	str	r0, [sp, #8]
 8001304:	a802      	add	r0, sp, #8
 8001306:	9004      	str	r0, [sp, #16]
 8001308:	9802      	ldr	r0, [sp, #8]
 800130a:	f000 0120 	and.w	r1, r0, #32
 800130e:	2001      	movs	r0, #1
 8001310:	ea80 1051 	eor.w	r0, r0, r1, lsr #5
 8001314:	f807 0c19 	strb.w	r0, [r7, #-25]
 8001318:	f817 0c19 	ldrb.w	r0, [r7, #-25]
 800131c:	f000 0001 	and.w	r0, r0, #1
 8001320:	b008      	add	sp, #32
 8001322:	bd80      	pop	{r7, pc}

08001324 <_ZN4core3ptr8non_null16NonNull$LT$T$GT$13new_unchecked18precondition_check17ha9feb91a6655eaeeE>:
 8001324:	b580      	push	{r7, lr}
 8001326:	466f      	mov	r7, sp
 8001328:	b084      	sub	sp, #16
 800132a:	9001      	str	r0, [sp, #4]
 800132c:	9002      	str	r0, [sp, #8]
 800132e:	9003      	str	r0, [sp, #12]
 8001330:	b938      	cbnz	r0, 8001342 <_ZN4core3ptr8non_null16NonNull$LT$T$GT$13new_unchecked18precondition_check17ha9feb91a6655eaeeE+0x1e>
 8001332:	e7ff      	b.n	8001334 <_ZN4core3ptr8non_null16NonNull$LT$T$GT$13new_unchecked18precondition_check17ha9feb91a6655eaeeE+0x10>
 8001334:	f649 401c 	movw	r0, #39964	; 0x9c1c
 8001338:	f6c0 0000 	movt	r0, #2048	; 0x800
 800133c:	215d      	movs	r1, #93	; 0x5d
 800133e:	f006 f806 	bl	800734e <_ZN4core9panicking14panic_nounwind17ha7168a7a4498f4fbE>
 8001342:	b004      	add	sp, #16
 8001344:	bd80      	pop	{r7, pc}

08001346 <_ZN4core9ub_checks17is_nonoverlapping7runtime17hd0dcb1bd2fd68f20E>:
 8001346:	b580      	push	{r7, lr}
 8001348:	466f      	mov	r7, sp
 800134a:	b092      	sub	sp, #72	; 0x48
 800134c:	9007      	str	r0, [sp, #28]
 800134e:	9108      	str	r1, [sp, #32]
 8001350:	9209      	str	r2, [sp, #36]	; 0x24
 8001352:	930a      	str	r3, [sp, #40]	; 0x28
 8001354:	4684      	mov	ip, r0
 8001356:	f8cd c004 	str.w	ip, [sp, #4]
 800135a:	900b      	str	r0, [sp, #44]	; 0x2c
 800135c:	4608      	mov	r0, r1
 800135e:	9002      	str	r0, [sp, #8]
 8001360:	910c      	str	r1, [sp, #48]	; 0x30
 8001362:	fba2 1003 	umull	r1, r0, r2, r3
 8001366:	2800      	cmp	r0, #0
 8001368:	bf18      	it	ne
 800136a:	2001      	movne	r0, #1
 800136c:	460a      	mov	r2, r1
 800136e:	9203      	str	r2, [sp, #12]
 8001370:	910d      	str	r1, [sp, #52]	; 0x34
 8001372:	f807 0c0d 	strb.w	r0, [r7, #-13]
 8001376:	910f      	str	r1, [sp, #60]	; 0x3c
 8001378:	f807 0c05 	strb.w	r0, [r7, #-5]
 800137c:	f817 0c05 	ldrb.w	r0, [r7, #-5]
 8001380:	07c0      	lsls	r0, r0, #31
 8001382:	b960      	cbnz	r0, 800139e <_ZN4core9ub_checks17is_nonoverlapping7runtime17hd0dcb1bd2fd68f20E+0x58>
 8001384:	e7ff      	b.n	8001386 <_ZN4core9ub_checks17is_nonoverlapping7runtime17hd0dcb1bd2fd68f20E+0x40>
 8001386:	9801      	ldr	r0, [sp, #4]
 8001388:	9902      	ldr	r1, [sp, #8]
 800138a:	9a03      	ldr	r2, [sp, #12]
 800138c:	9205      	str	r2, [sp, #20]
 800138e:	2201      	movs	r2, #1
 8001390:	9204      	str	r2, [sp, #16]
 8001392:	9a05      	ldr	r2, [sp, #20]
 8001394:	9200      	str	r2, [sp, #0]
 8001396:	9211      	str	r2, [sp, #68]	; 0x44
 8001398:	4288      	cmp	r0, r1
 800139a:	d30c      	bcc.n	80013b6 <_ZN4core9ub_checks17is_nonoverlapping7runtime17hd0dcb1bd2fd68f20E+0x70>
 800139c:	e006      	b.n	80013ac <_ZN4core9ub_checks17is_nonoverlapping7runtime17hd0dcb1bd2fd68f20E+0x66>
 800139e:	f649 4079 	movw	r0, #40057	; 0x9c79
 80013a2:	f6c0 0000 	movt	r0, #2048	; 0x800
 80013a6:	213d      	movs	r1, #61	; 0x3d
 80013a8:	f005 ffd1 	bl	800734e <_ZN4core9panicking14panic_nounwind17ha7168a7a4498f4fbE>
 80013ac:	9801      	ldr	r0, [sp, #4]
 80013ae:	9902      	ldr	r1, [sp, #8]
 80013b0:	1a40      	subs	r0, r0, r1
 80013b2:	9006      	str	r0, [sp, #24]
 80013b4:	e004      	b.n	80013c0 <_ZN4core9ub_checks17is_nonoverlapping7runtime17hd0dcb1bd2fd68f20E+0x7a>
 80013b6:	9802      	ldr	r0, [sp, #8]
 80013b8:	9901      	ldr	r1, [sp, #4]
 80013ba:	1a40      	subs	r0, r0, r1
 80013bc:	9006      	str	r0, [sp, #24]
 80013be:	e7ff      	b.n	80013c0 <_ZN4core9ub_checks17is_nonoverlapping7runtime17hd0dcb1bd2fd68f20E+0x7a>
 80013c0:	9a00      	ldr	r2, [sp, #0]
 80013c2:	9906      	ldr	r1, [sp, #24]
 80013c4:	2000      	movs	r0, #0
 80013c6:	4291      	cmp	r1, r2
 80013c8:	bf28      	it	cs
 80013ca:	2001      	movcs	r0, #1
 80013cc:	b012      	add	sp, #72	; 0x48
 80013ce:	bd80      	pop	{r7, pc}

080013d0 <_ZN7stm32f49stm32f40111Peripherals4take28_$u7b$$u7b$closure$u7d$$u7d$17hb4628e90c7815124E>:
 80013d0:	b580      	push	{r7, lr}
 80013d2:	466f      	mov	r7, sp
 80013d4:	b082      	sub	sp, #8
 80013d6:	9001      	str	r0, [sp, #4]
 80013d8:	f643 50ac 	movw	r0, #15788	; 0x3dac
 80013dc:	f2c2 0000 	movt	r0, #8192	; 0x2000
 80013e0:	7800      	ldrb	r0, [r0, #0]
 80013e2:	07c0      	lsls	r0, r0, #31
 80013e4:	b930      	cbnz	r0, 80013f4 <_ZN7stm32f49stm32f40111Peripherals4take28_$u7b$$u7b$closure$u7d$$u7d$17hb4628e90c7815124E+0x24>
 80013e6:	e7ff      	b.n	80013e8 <_ZN7stm32f49stm32f40111Peripherals4take28_$u7b$$u7b$closure$u7d$$u7d$17hb4628e90c7815124E+0x18>
 80013e8:	f7ff fe23 	bl	8001032 <_ZN7stm32f49stm32f40111Peripherals5steal17h205b901a632fcd49E>
 80013ec:	2001      	movs	r0, #1
 80013ee:	f807 0c06 	strb.w	r0, [r7, #-6]
 80013f2:	e003      	b.n	80013fc <_ZN7stm32f49stm32f40111Peripherals4take28_$u7b$$u7b$closure$u7d$$u7d$17hb4628e90c7815124E+0x2c>
 80013f4:	2000      	movs	r0, #0
 80013f6:	f807 0c06 	strb.w	r0, [r7, #-6]
 80013fa:	e7ff      	b.n	80013fc <_ZN7stm32f49stm32f40111Peripherals4take28_$u7b$$u7b$closure$u7d$$u7d$17hb4628e90c7815124E+0x2c>
 80013fc:	f817 0c06 	ldrb.w	r0, [r7, #-6]
 8001400:	f000 0001 	and.w	r0, r0, #1
 8001404:	b002      	add	sp, #8
 8001406:	bd80      	pop	{r7, pc}

08001408 <_ZN4core3ptr13read_volatile18precondition_check17h4963e1a49c4c488fE>:
 8001408:	b580      	push	{r7, lr}
 800140a:	466f      	mov	r7, sp
 800140c:	b090      	sub	sp, #64	; 0x40
 800140e:	9101      	str	r1, [sp, #4]
 8001410:	9002      	str	r0, [sp, #8]
 8001412:	4613      	mov	r3, r2
 8001414:	9303      	str	r3, [sp, #12]
 8001416:	900a      	str	r0, [sp, #40]	; 0x28
 8001418:	910b      	str	r1, [sp, #44]	; 0x2c
 800141a:	f807 2c0d 	strb.w	r2, [r7, #-13]
 800141e:	f649 40e0 	movw	r0, #40160	; 0x9ce0
 8001422:	f6c0 0000 	movt	r0, #2048	; 0x800
 8001426:	900d      	str	r0, [sp, #52]	; 0x34
 8001428:	f04f 3055 	mov.w	r0, #1431655765	; 0x55555555
 800142c:	ea00 0051 	and.w	r0, r0, r1, lsr #1
 8001430:	1a08      	subs	r0, r1, r0
 8001432:	f04f 3133 	mov.w	r1, #858993459	; 0x33333333
 8001436:	ea01 0190 	and.w	r1, r1, r0, lsr #2
 800143a:	f020 30cc 	bic.w	r0, r0, #3435973836	; 0xcccccccc
 800143e:	4408      	add	r0, r1
 8001440:	eb00 1010 	add.w	r0, r0, r0, lsr #4
 8001444:	f020 30f0 	bic.w	r0, r0, #4042322160	; 0xf0f0f0f0
 8001448:	f04f 3101 	mov.w	r1, #16843009	; 0x1010101
 800144c:	4348      	muls	r0, r1
 800144e:	0e00      	lsrs	r0, r0, #24
 8001450:	900e      	str	r0, [sp, #56]	; 0x38
 8001452:	980e      	ldr	r0, [sp, #56]	; 0x38
 8001454:	2801      	cmp	r0, #1
 8001456:	d108      	bne.n	800146a <_ZN4core3ptr13read_volatile18precondition_check17h4963e1a49c4c488fE+0x62>
 8001458:	e7ff      	b.n	800145a <_ZN4core3ptr13read_volatile18precondition_check17h4963e1a49c4c488fE+0x52>
 800145a:	9802      	ldr	r0, [sp, #8]
 800145c:	9901      	ldr	r1, [sp, #4]
 800145e:	4602      	mov	r2, r0
 8001460:	9200      	str	r2, [sp, #0]
 8001462:	3901      	subs	r1, #1
 8001464:	4208      	tst	r0, r1
 8001466:	d01a      	beq.n	800149e <_ZN4core3ptr13read_volatile18precondition_check17h4963e1a49c4c488fE+0x96>
 8001468:	e01d      	b.n	80014a6 <_ZN4core3ptr13read_volatile18precondition_check17h4963e1a49c4c488fE+0x9e>
 800146a:	f649 40e0 	movw	r0, #40160	; 0x9ce0
 800146e:	f6c0 0000 	movt	r0, #2048	; 0x800
 8001472:	9004      	str	r0, [sp, #16]
 8001474:	2001      	movs	r0, #1
 8001476:	9005      	str	r0, [sp, #20]
 8001478:	f249 5038 	movw	r0, #38200	; 0x9538
 800147c:	f6c0 0000 	movt	r0, #2048	; 0x800
 8001480:	6801      	ldr	r1, [r0, #0]
 8001482:	6840      	ldr	r0, [r0, #4]
 8001484:	9108      	str	r1, [sp, #32]
 8001486:	9009      	str	r0, [sp, #36]	; 0x24
 8001488:	2004      	movs	r0, #4
 800148a:	9006      	str	r0, [sp, #24]
 800148c:	2000      	movs	r0, #0
 800148e:	9007      	str	r0, [sp, #28]
 8001490:	f649 51d0 	movw	r1, #40400	; 0x9dd0
 8001494:	f6c0 0100 	movt	r1, #2048	; 0x800
 8001498:	a804      	add	r0, sp, #16
 800149a:	f005 ff26 	bl	80072ea <_ZN4core9panicking9panic_fmt17h9bd7242b2f9f3cdaE>
 800149e:	9803      	ldr	r0, [sp, #12]
 80014a0:	07c0      	lsls	r0, r0, #31
 80014a2:	b930      	cbnz	r0, 80014b2 <_ZN4core3ptr13read_volatile18precondition_check17h4963e1a49c4c488fE+0xaa>
 80014a4:	e000      	b.n	80014a8 <_ZN4core3ptr13read_volatile18precondition_check17h4963e1a49c4c488fE+0xa0>
 80014a6:	e005      	b.n	80014b4 <_ZN4core3ptr13read_volatile18precondition_check17h4963e1a49c4c488fE+0xac>
 80014a8:	9800      	ldr	r0, [sp, #0]
 80014aa:	9902      	ldr	r1, [sp, #8]
 80014ac:	910f      	str	r1, [sp, #60]	; 0x3c
 80014ae:	b940      	cbnz	r0, 80014c2 <_ZN4core3ptr13read_volatile18precondition_check17h4963e1a49c4c488fE+0xba>
 80014b0:	e000      	b.n	80014b4 <_ZN4core3ptr13read_volatile18precondition_check17h4963e1a49c4c488fE+0xac>
 80014b2:	e006      	b.n	80014c2 <_ZN4core3ptr13read_volatile18precondition_check17h4963e1a49c4c488fE+0xba>
 80014b4:	f649 40e8 	movw	r0, #40168	; 0x9ce8
 80014b8:	f6c0 0000 	movt	r0, #2048	; 0x800
 80014bc:	216e      	movs	r1, #110	; 0x6e
 80014be:	f005 ff46 	bl	800734e <_ZN4core9panicking14panic_nounwind17ha7168a7a4498f4fbE>
 80014c2:	b010      	add	sp, #64	; 0x40
 80014c4:	bd80      	pop	{r7, pc}
 80014c6:	d4d4      	bmi.n	8001472 <_ZN4core3ptr13read_volatile18precondition_check17h4963e1a49c4c488fE+0x6a>

080014c8 <_ZN4core4sync6atomic14compiler_fence17h73af8730b5d411e1E>:
 80014c8:	b580      	push	{r7, lr}
 80014ca:	466f      	mov	r7, sp
 80014cc:	b08a      	sub	sp, #40	; 0x28
 80014ce:	f807 0c1d 	strb.w	r0, [r7, #-29]
 80014d2:	f649 6014 	movw	r0, #40468	; 0x9e14
 80014d6:	f6c0 0000 	movt	r0, #2048	; 0x800
 80014da:	9009      	str	r0, [sp, #36]	; 0x24
 80014dc:	f817 0c1d 	ldrb.w	r0, [r7, #-29]
 80014e0:	9001      	str	r0, [sp, #4]
 80014e2:	9901      	ldr	r1, [sp, #4]
 80014e4:	e8df f001 	tbb	[pc, r1]
 80014e8:	201f1e04 	.word	0x201f1e04
 80014ec:	0021      	.short	0x0021
 80014ee:	defe      	udf	#254	; 0xfe
 80014f0:	f649 6014 	movw	r0, #40468	; 0x9e14
 80014f4:	f6c0 0000 	movt	r0, #2048	; 0x800
 80014f8:	9003      	str	r0, [sp, #12]
 80014fa:	2001      	movs	r0, #1
 80014fc:	9004      	str	r0, [sp, #16]
 80014fe:	f249 5038 	movw	r0, #38200	; 0x9538
 8001502:	f6c0 0000 	movt	r0, #2048	; 0x800
 8001506:	6801      	ldr	r1, [r0, #0]
 8001508:	6840      	ldr	r0, [r0, #4]
 800150a:	9107      	str	r1, [sp, #28]
 800150c:	9008      	str	r0, [sp, #32]
 800150e:	2004      	movs	r0, #4
 8001510:	9005      	str	r0, [sp, #20]
 8001512:	2000      	movs	r0, #0
 8001514:	9006      	str	r0, [sp, #24]
 8001516:	f649 6194 	movw	r1, #40596	; 0x9e94
 800151a:	f6c0 0100 	movt	r1, #2048	; 0x800
 800151e:	a803      	add	r0, sp, #12
 8001520:	f005 fee3 	bl	80072ea <_ZN4core9panicking9panic_fmt17h9bd7242b2f9f3cdaE>
 8001524:	e002      	b.n	800152c <_ZN4core4sync6atomic14compiler_fence17h73af8730b5d411e1E+0x64>
 8001526:	e001      	b.n	800152c <_ZN4core4sync6atomic14compiler_fence17h73af8730b5d411e1E+0x64>
 8001528:	e000      	b.n	800152c <_ZN4core4sync6atomic14compiler_fence17h73af8730b5d411e1E+0x64>
 800152a:	e7ff      	b.n	800152c <_ZN4core4sync6atomic14compiler_fence17h73af8730b5d411e1E+0x64>
 800152c:	b00a      	add	sp, #40	; 0x28
 800152e:	bd80      	pop	{r7, pc}

08001530 <_ZN8cortex_m9interrupt4free17h9715c56e0f6e370cE>:
 8001530:	b580      	push	{r7, lr}
 8001532:	466f      	mov	r7, sp
 8001534:	b084      	sub	sp, #16
 8001536:	f7ff fb5f 	bl	8000bf8 <_ZN8cortex_m8register7primask4read17ha4c2f2ed71c07280E>
 800153a:	9001      	str	r0, [sp, #4]
 800153c:	f807 0c02 	strb.w	r0, [r7, #-2]
 8001540:	f000 faff 	bl	8001b42 <_ZN8cortex_m9interrupt7disable17hb7494494f0860066E>
 8001544:	f005 fcd6 	bl	8006ef4 <_ZN10bare_metal15CriticalSection3new17h1e47e708cc669354E>
 8001548:	a803      	add	r0, sp, #12
 800154a:	f7ff ff41 	bl	80013d0 <_ZN7stm32f49stm32f40111Peripherals4take28_$u7b$$u7b$closure$u7d$$u7d$17hb4628e90c7815124E>
 800154e:	4601      	mov	r1, r0
 8001550:	9801      	ldr	r0, [sp, #4]
 8001552:	460a      	mov	r2, r1
 8001554:	9202      	str	r2, [sp, #8]
 8001556:	f807 1c01 	strb.w	r1, [r7, #-1]
 800155a:	f7ff fb66 	bl	8000c2a <_ZN8cortex_m8register7primask7Primask9is_active17hb761c6b432b02ba3E>
 800155e:	b928      	cbnz	r0, 800156c <_ZN8cortex_m9interrupt4free17h9715c56e0f6e370cE+0x3c>
 8001560:	e7ff      	b.n	8001562 <_ZN8cortex_m9interrupt4free17h9715c56e0f6e370cE+0x32>
 8001562:	9802      	ldr	r0, [sp, #8]
 8001564:	f000 0001 	and.w	r0, r0, #1
 8001568:	b004      	add	sp, #16
 800156a:	bd80      	pop	{r7, pc}
 800156c:	f000 fae4 	bl	8001b38 <_ZN8cortex_m9interrupt6enable17h61d2f63e4fb1e3b3E>
 8001570:	e7f7      	b.n	8001562 <_ZN8cortex_m9interrupt4free17h9715c56e0f6e370cE+0x32>

08001572 <_ZN22stm32_cortex_m4_f401re14setup_hardware17h6322972d0839d01fE>:
 8001572:	b580      	push	{r7, lr}
 8001574:	466f      	mov	r7, sp
 8001576:	b0f2      	sub	sp, #456	; 0x1c8
 8001578:	f7ff fd56 	bl	8001028 <_ZN7stm32f49stm32f40111Peripherals4take17h525c16e5f29fdbf3E>
 800157c:	f88d 006f 	strb.w	r0, [sp, #111]	; 0x6f
 8001580:	f89d 006f 	ldrb.w	r0, [sp, #111]	; 0x6f
 8001584:	07c0      	lsls	r0, r0, #31
 8001586:	b930      	cbnz	r0, 8001596 <_ZN22stm32_cortex_m4_f401re14setup_hardware17h6322972d0839d01fE+0x24>
 8001588:	e7ff      	b.n	800158a <_ZN22stm32_cortex_m4_f401re14setup_hardware17h6322972d0839d01fE+0x18>
 800158a:	f649 7028 	movw	r0, #40744	; 0x9f28
 800158e:	f6c0 0000 	movt	r0, #2048	; 0x800
 8001592:	f005 fe84 	bl	800729e <_ZN4core6option13unwrap_failed17he8f5396282508463E>
 8001596:	f10d 0042 	add.w	r0, sp, #66	; 0x42
 800159a:	900b      	str	r0, [sp, #44]	; 0x2c
 800159c:	9025      	str	r0, [sp, #148]	; 0x94
 800159e:	f643 0000 	movw	r0, #14336	; 0x3800
 80015a2:	f2c4 0002 	movt	r0, #16386	; 0x4002
 80015a6:	9004      	str	r0, [sp, #16]
 80015a8:	9035      	str	r0, [sp, #212]	; 0xd4
 80015aa:	9037      	str	r0, [sp, #220]	; 0xdc
 80015ac:	9038      	str	r0, [sp, #224]	; 0xe0
 80015ae:	f005 fbb2 	bl	8006d16 <_ZN4core3ptr13read_volatile17h9bc3363220c5f51bE>
 80015b2:	9036      	str	r0, [sp, #216]	; 0xd8
 80015b4:	9033      	str	r0, [sp, #204]	; 0xcc
 80015b6:	9034      	str	r0, [sp, #208]	; 0xd0
 80015b8:	a833      	add	r0, sp, #204	; 0xcc
 80015ba:	a934      	add	r1, sp, #208	; 0xd0
 80015bc:	f7ff f85a 	bl	8000674 <_ZN22stm32_cortex_m4_f401re14setup_hardware28_$u7b$$u7b$closure$u7d$$u7d$17h0d889faa55db53fbE>
 80015c0:	4601      	mov	r1, r0
 80015c2:	9804      	ldr	r0, [sp, #16]
 80015c4:	6809      	ldr	r1, [r1, #0]
 80015c6:	9039      	str	r0, [sp, #228]	; 0xe4
 80015c8:	913a      	str	r1, [sp, #232]	; 0xe8
 80015ca:	903b      	str	r0, [sp, #236]	; 0xec
 80015cc:	f005 fa62 	bl	8006a94 <_ZN4core3ptr14write_volatile17hd6de69c464e82e6cE>
 80015d0:	980b      	ldr	r0, [sp, #44]	; 0x2c
 80015d2:	9024      	str	r0, [sp, #144]	; 0x90
 80015d4:	f643 0008 	movw	r0, #14344	; 0x3808
 80015d8:	f2c4 0002 	movt	r0, #16386	; 0x4002
 80015dc:	9005      	str	r0, [sp, #20]
 80015de:	9059      	str	r0, [sp, #356]	; 0x164
 80015e0:	905b      	str	r0, [sp, #364]	; 0x16c
 80015e2:	905c      	str	r0, [sp, #368]	; 0x170
 80015e4:	f005 fb97 	bl	8006d16 <_ZN4core3ptr13read_volatile17h9bc3363220c5f51bE>
 80015e8:	905a      	str	r0, [sp, #360]	; 0x168
 80015ea:	9057      	str	r0, [sp, #348]	; 0x15c
 80015ec:	9058      	str	r0, [sp, #352]	; 0x160
 80015ee:	a857      	add	r0, sp, #348	; 0x15c
 80015f0:	a958      	add	r1, sp, #352	; 0x160
 80015f2:	f7ff f850 	bl	8000696 <_ZN22stm32_cortex_m4_f401re14setup_hardware28_$u7b$$u7b$closure$u7d$$u7d$17ha86ca7ec55373c5aE>
 80015f6:	4601      	mov	r1, r0
 80015f8:	9805      	ldr	r0, [sp, #20]
 80015fa:	6809      	ldr	r1, [r1, #0]
 80015fc:	905d      	str	r0, [sp, #372]	; 0x174
 80015fe:	915e      	str	r1, [sp, #376]	; 0x178
 8001600:	905f      	str	r0, [sp, #380]	; 0x17c
 8001602:	f005 fa47 	bl	8006a94 <_ZN4core3ptr14write_volatile17hd6de69c464e82e6cE>
 8001606:	980b      	ldr	r0, [sp, #44]	; 0x2c
 8001608:	9023      	str	r0, [sp, #140]	; 0x8c
 800160a:	f643 0030 	movw	r0, #14384	; 0x3830
 800160e:	f2c4 0002 	movt	r0, #16386	; 0x4002
 8001612:	9006      	str	r0, [sp, #24]
 8001614:	903e      	str	r0, [sp, #248]	; 0xf8
 8001616:	9040      	str	r0, [sp, #256]	; 0x100
 8001618:	9041      	str	r0, [sp, #260]	; 0x104
 800161a:	f005 fb7c 	bl	8006d16 <_ZN4core3ptr13read_volatile17h9bc3363220c5f51bE>
 800161e:	903f      	str	r0, [sp, #252]	; 0xfc
 8001620:	903c      	str	r0, [sp, #240]	; 0xf0
 8001622:	903d      	str	r0, [sp, #244]	; 0xf4
 8001624:	a83c      	add	r0, sp, #240	; 0xf0
 8001626:	a93d      	add	r1, sp, #244	; 0xf4
 8001628:	f7ff f858 	bl	80006dc <_ZN22stm32_cortex_m4_f401re14setup_hardware28_$u7b$$u7b$closure$u7d$$u7d$17h3a2a4525b70388cbE>
 800162c:	4601      	mov	r1, r0
 800162e:	9806      	ldr	r0, [sp, #24]
 8001630:	6809      	ldr	r1, [r1, #0]
 8001632:	9042      	str	r0, [sp, #264]	; 0x108
 8001634:	9143      	str	r1, [sp, #268]	; 0x10c
 8001636:	9044      	str	r0, [sp, #272]	; 0x110
 8001638:	f005 fa2c 	bl	8006a94 <_ZN4core3ptr14write_volatile17hd6de69c464e82e6cE>
 800163c:	980b      	ldr	r0, [sp, #44]	; 0x2c
 800163e:	9022      	str	r0, [sp, #136]	; 0x88
 8001640:	f643 0044 	movw	r0, #14404	; 0x3844
 8001644:	f2c4 0002 	movt	r0, #16386	; 0x4002
 8001648:	9007      	str	r0, [sp, #28]
 800164a:	9047      	str	r0, [sp, #284]	; 0x11c
 800164c:	9049      	str	r0, [sp, #292]	; 0x124
 800164e:	904a      	str	r0, [sp, #296]	; 0x128
 8001650:	f005 fb61 	bl	8006d16 <_ZN4core3ptr13read_volatile17h9bc3363220c5f51bE>
 8001654:	9048      	str	r0, [sp, #288]	; 0x120
 8001656:	9045      	str	r0, [sp, #276]	; 0x114
 8001658:	9046      	str	r0, [sp, #280]	; 0x118
 800165a:	a845      	add	r0, sp, #276	; 0x114
 800165c:	a946      	add	r1, sp, #280	; 0x118
 800165e:	f7ff f884 	bl	800076a <_ZN22stm32_cortex_m4_f401re14setup_hardware28_$u7b$$u7b$closure$u7d$$u7d$17h0716f431d4ddcfaaE>
 8001662:	4601      	mov	r1, r0
 8001664:	9807      	ldr	r0, [sp, #28]
 8001666:	6809      	ldr	r1, [r1, #0]
 8001668:	904b      	str	r0, [sp, #300]	; 0x12c
 800166a:	914c      	str	r1, [sp, #304]	; 0x130
 800166c:	904d      	str	r0, [sp, #308]	; 0x134
 800166e:	f005 fa11 	bl	8006a94 <_ZN4core3ptr14write_volatile17hd6de69c464e82e6cE>
 8001672:	f003 fa75 	bl	8004b60 <_ZN13stm32f4xx_hal4gpio5gpioa84_$LT$impl$u20$stm32f4xx_hal..gpio..GpioExt$u20$for$u20$stm32f4..stm32f401..GPIOA$GT$5split17h849fa236ce594f6bE>
 8001676:	f7ff fd5e 	bl	8001136 <_ZN13stm32f4xx_hal4gpio5gpioa15PA5$LT$MODE$GT$21into_push_pull_output17hd67b22113e931f26E>
 800167a:	f003 fa94 	bl	8004ba6 <_ZN13stm32f4xx_hal4gpio5gpioc84_$LT$impl$u20$stm32f4xx_hal..gpio..GpioExt$u20$for$u20$stm32f4..stm32f401..GPIOC$GT$5split17h1a97a5526dff3ff9E>
 800167e:	f7ff fc1e 	bl	8000ebe <_ZN13stm32f4xx_hal4gpio5gpioc16PC13$LT$MODE$GT$18into_pull_up_input17h63ab878e4ee1ada1E>
 8001682:	980b      	ldr	r0, [sp, #44]	; 0x2c
 8001684:	9029      	str	r0, [sp, #164]	; 0xa4
 8001686:	f643 0014 	movw	r0, #14356	; 0x3814
 800168a:	f2c4 0001 	movt	r0, #16385	; 0x4001
 800168e:	9008      	str	r0, [sp, #32]
 8001690:	906b      	str	r0, [sp, #428]	; 0x1ac
 8001692:	906d      	str	r0, [sp, #436]	; 0x1b4
 8001694:	906e      	str	r0, [sp, #440]	; 0x1b8
 8001696:	f005 fb3e 	bl	8006d16 <_ZN4core3ptr13read_volatile17h9bc3363220c5f51bE>
 800169a:	906c      	str	r0, [sp, #432]	; 0x1b0
 800169c:	9069      	str	r0, [sp, #420]	; 0x1a4
 800169e:	906a      	str	r0, [sp, #424]	; 0x1a8
 80016a0:	a869      	add	r0, sp, #420	; 0x1a4
 80016a2:	a96a      	add	r1, sp, #424	; 0x1a8
 80016a4:	f7ff f888 	bl	80007b8 <_ZN22stm32_cortex_m4_f401re14setup_hardware28_$u7b$$u7b$closure$u7d$$u7d$17h15b21cdf0ec32fbfE>
 80016a8:	4601      	mov	r1, r0
 80016aa:	9808      	ldr	r0, [sp, #32]
 80016ac:	6809      	ldr	r1, [r1, #0]
 80016ae:	906f      	str	r0, [sp, #444]	; 0x1bc
 80016b0:	9170      	str	r1, [sp, #448]	; 0x1c0
 80016b2:	9071      	str	r0, [sp, #452]	; 0x1c4
 80016b4:	f005 f9ee 	bl	8006a94 <_ZN4core3ptr14write_volatile17hd6de69c464e82e6cE>
 80016b8:	980b      	ldr	r0, [sp, #44]	; 0x2c
 80016ba:	9028      	str	r0, [sp, #160]	; 0xa0
 80016bc:	f643 400c 	movw	r0, #15372	; 0x3c0c
 80016c0:	f2c4 0001 	movt	r0, #16385	; 0x4001
 80016c4:	9009      	str	r0, [sp, #36]	; 0x24
 80016c6:	9062      	str	r0, [sp, #392]	; 0x188
 80016c8:	9064      	str	r0, [sp, #400]	; 0x190
 80016ca:	9065      	str	r0, [sp, #404]	; 0x194
 80016cc:	f005 fb23 	bl	8006d16 <_ZN4core3ptr13read_volatile17h9bc3363220c5f51bE>
 80016d0:	9063      	str	r0, [sp, #396]	; 0x18c
 80016d2:	9060      	str	r0, [sp, #384]	; 0x180
 80016d4:	9061      	str	r0, [sp, #388]	; 0x184
 80016d6:	a860      	add	r0, sp, #384	; 0x180
 80016d8:	a961      	add	r1, sp, #388	; 0x184
 80016da:	f7ff f87d 	bl	80007d8 <_ZN22stm32_cortex_m4_f401re14setup_hardware28_$u7b$$u7b$closure$u7d$$u7d$17hc4fd8c3631beae73E>
 80016de:	4601      	mov	r1, r0
 80016e0:	9809      	ldr	r0, [sp, #36]	; 0x24
 80016e2:	6809      	ldr	r1, [r1, #0]
 80016e4:	9066      	str	r0, [sp, #408]	; 0x198
 80016e6:	9167      	str	r1, [sp, #412]	; 0x19c
 80016e8:	9068      	str	r0, [sp, #416]	; 0x1a0
 80016ea:	f005 f9d3 	bl	8006a94 <_ZN4core3ptr14write_volatile17hd6de69c464e82e6cE>
 80016ee:	980b      	ldr	r0, [sp, #44]	; 0x2c
 80016f0:	9027      	str	r0, [sp, #156]	; 0x9c
 80016f2:	f643 4008 	movw	r0, #15368	; 0x3c08
 80016f6:	f2c4 0001 	movt	r0, #16385	; 0x4001
 80016fa:	900a      	str	r0, [sp, #40]	; 0x28
 80016fc:	9050      	str	r0, [sp, #320]	; 0x140
 80016fe:	9052      	str	r0, [sp, #328]	; 0x148
 8001700:	9053      	str	r0, [sp, #332]	; 0x14c
 8001702:	f005 fb08 	bl	8006d16 <_ZN4core3ptr13read_volatile17h9bc3363220c5f51bE>
 8001706:	9051      	str	r0, [sp, #324]	; 0x144
 8001708:	904e      	str	r0, [sp, #312]	; 0x138
 800170a:	904f      	str	r0, [sp, #316]	; 0x13c
 800170c:	a84e      	add	r0, sp, #312	; 0x138
 800170e:	a94f      	add	r1, sp, #316	; 0x13c
 8001710:	f7ff f873 	bl	80007fa <_ZN22stm32_cortex_m4_f401re14setup_hardware28_$u7b$$u7b$closure$u7d$$u7d$17hf8cc8906d4fc1170E>
 8001714:	4601      	mov	r1, r0
 8001716:	980a      	ldr	r0, [sp, #40]	; 0x28
 8001718:	6809      	ldr	r1, [r1, #0]
 800171a:	9054      	str	r0, [sp, #336]	; 0x150
 800171c:	9155      	str	r1, [sp, #340]	; 0x154
 800171e:	9056      	str	r0, [sp, #344]	; 0x158
 8001720:	f005 f9b8 	bl	8006a94 <_ZN4core3ptr14write_volatile17hd6de69c464e82e6cE>
 8001724:	980b      	ldr	r0, [sp, #44]	; 0x2c
 8001726:	9026      	str	r0, [sp, #152]	; 0x98
 8001728:	f643 4000 	movw	r0, #15360	; 0x3c00
 800172c:	f2c4 0001 	movt	r0, #16385	; 0x4001
 8001730:	900c      	str	r0, [sp, #48]	; 0x30
 8001732:	902c      	str	r0, [sp, #176]	; 0xb0
 8001734:	902e      	str	r0, [sp, #184]	; 0xb8
 8001736:	902f      	str	r0, [sp, #188]	; 0xbc
 8001738:	f005 faed 	bl	8006d16 <_ZN4core3ptr13read_volatile17h9bc3363220c5f51bE>
 800173c:	902d      	str	r0, [sp, #180]	; 0xb4
 800173e:	902a      	str	r0, [sp, #168]	; 0xa8
 8001740:	902b      	str	r0, [sp, #172]	; 0xac
 8001742:	a82a      	add	r0, sp, #168	; 0xa8
 8001744:	a92b      	add	r1, sp, #172	; 0xac
 8001746:	f7ff f869 	bl	800081c <_ZN22stm32_cortex_m4_f401re14setup_hardware28_$u7b$$u7b$closure$u7d$$u7d$17h2a3f171c243a0376E>
 800174a:	4601      	mov	r1, r0
 800174c:	980c      	ldr	r0, [sp, #48]	; 0x30
 800174e:	6809      	ldr	r1, [r1, #0]
 8001750:	9030      	str	r0, [sp, #192]	; 0xc0
 8001752:	9131      	str	r1, [sp, #196]	; 0xc4
 8001754:	9032      	str	r0, [sp, #200]	; 0xc8
 8001756:	f005 f99d 	bl	8006a94 <_ZN4core3ptr14write_volatile17hd6de69c464e82e6cE>
 800175a:	f24e 1000 	movw	r0, #57600	; 0xe100
 800175e:	f2ce 0000 	movt	r0, #57344	; 0xe000
 8001762:	9012      	str	r0, [sp, #72]	; 0x48
 8001764:	2050      	movs	r0, #80	; 0x50
 8001766:	f88d 004f 	strb.w	r0, [sp, #79]	; 0x4f
 800176a:	2028      	movs	r0, #40	; 0x28
 800176c:	900d      	str	r0, [sp, #52]	; 0x34
 800176e:	2000      	movs	r0, #0
 8001770:	b948      	cbnz	r0, 8001786 <_ZN22stm32_cortex_m4_f401re14setup_hardware17h6322972d0839d01fE+0x214>
 8001772:	e7ff      	b.n	8001774 <_ZN22stm32_cortex_m4_f401re14setup_hardware17h6322972d0839d01fE+0x202>
 8001774:	980d      	ldr	r0, [sp, #52]	; 0x34
 8001776:	b2c0      	uxtb	r0, r0
 8001778:	4601      	mov	r1, r0
 800177a:	9103      	str	r1, [sp, #12]
 800177c:	9014      	str	r0, [sp, #80]	; 0x50
 800177e:	f5b0 7ff8 	cmp.w	r0, #496	; 0x1f0
 8001782:	d306      	bcc.n	8001792 <_ZN22stm32_cortex_m4_f401re14setup_hardware17h6322972d0839d01fE+0x220>
 8001784:	e021      	b.n	80017ca <_ZN22stm32_cortex_m4_f401re14setup_hardware17h6322972d0839d01fE+0x258>
 8001786:	f649 7038 	movw	r0, #40760	; 0x9f38
 800178a:	f6c0 0000 	movt	r0, #2048	; 0x800
 800178e:	f007 f89c 	bl	80088ca <_ZN4core9panicking11panic_const24panic_const_add_overflow17h8e8a2d960805aa64E>
 8001792:	9803      	ldr	r0, [sp, #12]
 8001794:	f24e 4100 	movw	r1, #58368	; 0xe400
 8001798:	f2ce 0100 	movt	r1, #57344	; 0xe000
 800179c:	4408      	add	r0, r1
 800179e:	9017      	str	r0, [sp, #92]	; 0x5c
 80017a0:	2150      	movs	r1, #80	; 0x50
 80017a2:	f88d 1063 	strb.w	r1, [sp, #99]	; 0x63
 80017a6:	901f      	str	r0, [sp, #124]	; 0x7c
 80017a8:	f88d 1083 	strb.w	r1, [sp, #131]	; 0x83
 80017ac:	9021      	str	r0, [sp, #132]	; 0x84
 80017ae:	f005 fb23 	bl	8006df8 <_ZN4core3ptr14write_volatile17h95f0c23d25d35e43E>
 80017b2:	9803      	ldr	r0, [sp, #12]
 80017b4:	0941      	lsrs	r1, r0, #5
 80017b6:	460a      	mov	r2, r1
 80017b8:	9201      	str	r2, [sp, #4]
 80017ba:	9115      	str	r1, [sp, #84]	; 0x54
 80017bc:	f000 001f 	and.w	r0, r0, #31
 80017c0:	4601      	mov	r1, r0
 80017c2:	9102      	str	r1, [sp, #8]
 80017c4:	2820      	cmp	r0, #32
 80017c6:	d309      	bcc.n	80017dc <_ZN22stm32_cortex_m4_f401re14setup_hardware17h6322972d0839d01fE+0x26a>
 80017c8:	e014      	b.n	80017f4 <_ZN22stm32_cortex_m4_f401re14setup_hardware17h6322972d0839d01fE+0x282>
 80017ca:	9803      	ldr	r0, [sp, #12]
 80017cc:	f649 7248 	movw	r2, #40776	; 0x9f48
 80017d0:	f6c0 0200 	movt	r2, #2048	; 0x800
 80017d4:	f44f 71f8 	mov.w	r1, #496	; 0x1f0
 80017d8:	f005 fdd0 	bl	800737c <_ZN4core9panicking18panic_bounds_check17h533996232d7df350E>
 80017dc:	9801      	ldr	r0, [sp, #4]
 80017de:	9902      	ldr	r1, [sp, #8]
 80017e0:	f001 021f 	and.w	r2, r1, #31
 80017e4:	2101      	movs	r1, #1
 80017e6:	4091      	lsls	r1, r2
 80017e8:	460a      	mov	r2, r1
 80017ea:	9200      	str	r2, [sp, #0]
 80017ec:	9116      	str	r1, [sp, #88]	; 0x58
 80017ee:	2810      	cmp	r0, #16
 80017f0:	d306      	bcc.n	8001800 <_ZN22stm32_cortex_m4_f401re14setup_hardware17h6322972d0839d01fE+0x28e>
 80017f2:	e01c      	b.n	800182e <_ZN22stm32_cortex_m4_f401re14setup_hardware17h6322972d0839d01fE+0x2bc>
 80017f4:	f649 7058 	movw	r0, #40792	; 0x9f58
 80017f8:	f6c0 0000 	movt	r0, #2048	; 0x800
 80017fc:	f007 f89e 	bl	800893c <_ZN4core9panicking11panic_const24panic_const_shl_overflow17h7d1dfb79ee113705E>
 8001800:	9900      	ldr	r1, [sp, #0]
 8001802:	9a01      	ldr	r2, [sp, #4]
 8001804:	f24e 1000 	movw	r0, #57600	; 0xe100
 8001808:	f2ce 0000 	movt	r0, #57344	; 0xe000
 800180c:	eb00 0082 	add.w	r0, r0, r2, lsl #2
 8001810:	9019      	str	r0, [sp, #100]	; 0x64
 8001812:	911a      	str	r1, [sp, #104]	; 0x68
 8001814:	901c      	str	r0, [sp, #112]	; 0x70
 8001816:	911d      	str	r1, [sp, #116]	; 0x74
 8001818:	901e      	str	r0, [sp, #120]	; 0x78
 800181a:	f005 f93b 	bl	8006a94 <_ZN4core3ptr14write_volatile17hd6de69c464e82e6cE>
 800181e:	f7fe ff26 	bl	800066e <_ZN22stm32_cortex_m4_f401re28MyDevice$LT$Button$C$LED$GT$3new17hbb1a86142ec8d342E>
 8001822:	2000      	movs	r0, #0
 8001824:	900e      	str	r0, [sp, #56]	; 0x38
 8001826:	980e      	ldr	r0, [sp, #56]	; 0x38
 8001828:	990f      	ldr	r1, [sp, #60]	; 0x3c
 800182a:	b072      	add	sp, #456	; 0x1c8
 800182c:	bd80      	pop	{r7, pc}
 800182e:	9801      	ldr	r0, [sp, #4]
 8001830:	f649 7268 	movw	r2, #40808	; 0x9f68
 8001834:	f6c0 0200 	movt	r2, #2048	; 0x800
 8001838:	2110      	movs	r1, #16
 800183a:	f005 fd9f 	bl	800737c <_ZN4core9panicking18panic_bounds_check17h533996232d7df350E>

0800183e <vApplicationStackOverflowHook>:
 800183e:	b580      	push	{r7, lr}
 8001840:	466f      	mov	r7, sp
 8001842:	b082      	sub	sp, #8
 8001844:	9000      	str	r0, [sp, #0]
 8001846:	9101      	str	r1, [sp, #4]
 8001848:	f005 fb4b 	bl	8006ee2 <__bkpt>
 800184c:	b002      	add	sp, #8
 800184e:	bd80      	pop	{r7, pc}

08001850 <__rust_alloc>:
 8001850:	b580      	push	{r7, lr}
 8001852:	466f      	mov	r7, sp
 8001854:	b084      	sub	sp, #16
 8001856:	9002      	str	r0, [sp, #8]
 8001858:	9103      	str	r1, [sp, #12]
 800185a:	f7ff f9f4 	bl	8000c46 <_ZN4core5alloc6layout6Layout25from_size_align_unchecked17he772e0b6996aba40E>
 800185e:	9001      	str	r0, [sp, #4]
 8001860:	460a      	mov	r2, r1
 8001862:	9901      	ldr	r1, [sp, #4]
 8001864:	f649 7078 	movw	r0, #40824	; 0x9f78
 8001868:	f6c0 0000 	movt	r0, #2048	; 0x800
 800186c:	f003 feba 	bl	80055e4 <_ZN96_$LT$freertos_rust..allocator..FreeRtosAllocator$u20$as$u20$core..alloc..global..GlobalAlloc$GT$5alloc17ha2faf5168b77887cE>
 8001870:	b004      	add	sp, #16
 8001872:	bd80      	pop	{r7, pc}

08001874 <__rust_dealloc>:
 8001874:	b580      	push	{r7, lr}
 8001876:	466f      	mov	r7, sp
 8001878:	b086      	sub	sp, #24
 800187a:	9200      	str	r2, [sp, #0]
 800187c:	460a      	mov	r2, r1
 800187e:	9900      	ldr	r1, [sp, #0]
 8001880:	9201      	str	r2, [sp, #4]
 8001882:	4602      	mov	r2, r0
 8001884:	9801      	ldr	r0, [sp, #4]
 8001886:	9202      	str	r2, [sp, #8]
 8001888:	9203      	str	r2, [sp, #12]
 800188a:	9004      	str	r0, [sp, #16]
 800188c:	9105      	str	r1, [sp, #20]
 800188e:	f7ff f9da 	bl	8000c46 <_ZN4core5alloc6layout6Layout25from_size_align_unchecked17he772e0b6996aba40E>
 8001892:	4602      	mov	r2, r0
 8001894:	460b      	mov	r3, r1
 8001896:	9902      	ldr	r1, [sp, #8]
 8001898:	f649 7078 	movw	r0, #40824	; 0x9f78
 800189c:	f6c0 0000 	movt	r0, #2048	; 0x800
 80018a0:	f003 feae 	bl	8005600 <_ZN96_$LT$freertos_rust..allocator..FreeRtosAllocator$u20$as$u20$core..alloc..global..GlobalAlloc$GT$7dealloc17h6e23447d1b01d97dE>
 80018a4:	b006      	add	sp, #24
 80018a6:	bd80      	pop	{r7, pc}

080018a8 <__rust_realloc>:
 80018a8:	b580      	push	{r7, lr}
 80018aa:	466f      	mov	r7, sp
 80018ac:	b08a      	sub	sp, #40	; 0x28
 80018ae:	9304      	str	r3, [sp, #16]
 80018b0:	9202      	str	r2, [sp, #8]
 80018b2:	460a      	mov	r2, r1
 80018b4:	9902      	ldr	r1, [sp, #8]
 80018b6:	9203      	str	r2, [sp, #12]
 80018b8:	4602      	mov	r2, r0
 80018ba:	9803      	ldr	r0, [sp, #12]
 80018bc:	9205      	str	r2, [sp, #20]
 80018be:	9206      	str	r2, [sp, #24]
 80018c0:	9007      	str	r0, [sp, #28]
 80018c2:	9108      	str	r1, [sp, #32]
 80018c4:	9309      	str	r3, [sp, #36]	; 0x24
 80018c6:	f7ff f9be 	bl	8000c46 <_ZN4core5alloc6layout6Layout25from_size_align_unchecked17he772e0b6996aba40E>
 80018ca:	4602      	mov	r2, r0
 80018cc:	9804      	ldr	r0, [sp, #16]
 80018ce:	460b      	mov	r3, r1
 80018d0:	9905      	ldr	r1, [sp, #20]
 80018d2:	46ec      	mov	ip, sp
 80018d4:	f8cc 0000 	str.w	r0, [ip]
 80018d8:	f649 7078 	movw	r0, #40824	; 0x9f78
 80018dc:	f6c0 0000 	movt	r0, #2048	; 0x800
 80018e0:	f7fe fcaa 	bl	8000238 <_ZN4core5alloc6global11GlobalAlloc7realloc17h425afe912a14999aE>
 80018e4:	b00a      	add	sp, #40	; 0x28
 80018e6:	bd80      	pop	{r7, pc}

080018e8 <__rust_alloc_zeroed>:
 80018e8:	b580      	push	{r7, lr}
 80018ea:	466f      	mov	r7, sp
 80018ec:	b084      	sub	sp, #16
 80018ee:	9002      	str	r0, [sp, #8]
 80018f0:	9103      	str	r1, [sp, #12]
 80018f2:	f7ff f9a8 	bl	8000c46 <_ZN4core5alloc6layout6Layout25from_size_align_unchecked17he772e0b6996aba40E>
 80018f6:	9001      	str	r0, [sp, #4]
 80018f8:	460a      	mov	r2, r1
 80018fa:	9901      	ldr	r1, [sp, #4]
 80018fc:	f649 7078 	movw	r0, #40824	; 0x9f78
 8001900:	f6c0 0000 	movt	r0, #2048	; 0x800
 8001904:	f7fe fc6d 	bl	80001e2 <_ZN4core5alloc6global11GlobalAlloc12alloc_zeroed17h9bccd744b704324fE>
 8001908:	b004      	add	sp, #16
 800190a:	bd80      	pop	{r7, pc}

0800190c <main>:
 800190c:	b580      	push	{r7, lr}
 800190e:	466f      	mov	r7, sp
 8001910:	f000 f800 	bl	8001914 <_ZN22stm32_cortex_m4_f401re18__cortex_m_rt_main17h7952627e30790f7fE>

08001914 <_ZN22stm32_cortex_m4_f401re18__cortex_m_rt_main17h7952627e30790f7fE>:
 8001914:	b580      	push	{r7, lr}
 8001916:	466f      	mov	r7, sp
 8001918:	b09a      	sub	sp, #104	; 0x68
 800191a:	2001      	movs	r0, #1
 800191c:	f807 0c55 	strb.w	r0, [r7, #-85]
 8001920:	f817 0c55 	ldrb.w	r0, [r7, #-85]
 8001924:	f7ff fdd0 	bl	80014c8 <_ZN4core4sync6atomic14compiler_fence17h73af8730b5d411e1E>
 8001928:	f7ff fe23 	bl	8001572 <_ZN22stm32_cortex_m4_f401re14setup_hardware17h6322972d0839d01fE>
 800192c:	9016      	str	r0, [sp, #88]	; 0x58
 800192e:	9117      	str	r1, [sp, #92]	; 0x5c
 8001930:	9816      	ldr	r0, [sp, #88]	; 0x58
 8001932:	b1b0      	cbz	r0, 8001962 <_ZN22stm32_cortex_m4_f401re18__cortex_m_rt_main17h7952627e30790f7fE+0x4e>
 8001934:	e7ff      	b.n	8001936 <_ZN22stm32_cortex_m4_f401re18__cortex_m_rt_main17h7952627e30790f7fE+0x22>
 8001936:	9916      	ldr	r1, [sp, #88]	; 0x58
 8001938:	9817      	ldr	r0, [sp, #92]	; 0x5c
 800193a:	9118      	str	r1, [sp, #96]	; 0x60
 800193c:	9019      	str	r0, [sp, #100]	; 0x64
 800193e:	f649 7078 	movw	r0, #40824	; 0x9f78
 8001942:	f6c0 0000 	movt	r0, #2048	; 0x800
 8001946:	4669      	mov	r1, sp
 8001948:	6008      	str	r0, [r1, #0]
 800194a:	f649 60b4 	movw	r0, #40628	; 0x9eb4
 800194e:	f6c0 0000 	movt	r0, #2048	; 0x800
 8001952:	f649 63a4 	movw	r3, #40612	; 0x9ea4
 8001956:	f6c0 0300 	movt	r3, #2048	; 0x800
 800195a:	212b      	movs	r1, #43	; 0x2b
 800195c:	aa18      	add	r2, sp, #96	; 0x60
 800195e:	f005 fd5b 	bl	8007418 <_ZN4core6result13unwrap_failed17h155735d8bdfe0abbE>
 8001962:	f000 f936 	bl	8001bd2 <freertos_rs_create_binary_semaphore>
 8001966:	9006      	str	r0, [sp, #24]
 8001968:	2001      	movs	r0, #1
 800196a:	9003      	str	r0, [sp, #12]
 800196c:	9005      	str	r0, [sp, #20]
 800196e:	9a05      	ldr	r2, [sp, #20]
 8001970:	9806      	ldr	r0, [sp, #24]
 8001972:	f240 010c 	movw	r1, #12
 8001976:	f2c2 0100 	movt	r1, #8192	; 0x2000
 800197a:	600a      	str	r2, [r1, #0]
 800197c:	6048      	str	r0, [r1, #4]
 800197e:	f000 f928 	bl	8001bd2 <freertos_rs_create_binary_semaphore>
 8001982:	4601      	mov	r1, r0
 8001984:	9803      	ldr	r0, [sp, #12]
 8001986:	9108      	str	r1, [sp, #32]
 8001988:	9007      	str	r0, [sp, #28]
 800198a:	9a07      	ldr	r2, [sp, #28]
 800198c:	9808      	ldr	r0, [sp, #32]
 800198e:	f240 0114 	movw	r1, #20
 8001992:	f2c2 0100 	movt	r1, #8192	; 0x2000
 8001996:	600a      	str	r2, [r1, #0]
 8001998:	6048      	str	r0, [r1, #4]
 800199a:	a80b      	add	r0, sp, #44	; 0x2c
 800199c:	9002      	str	r0, [sp, #8]
 800199e:	f003 f9a8 	bl	8004cf2 <_ZN13freertos_rust4task4Task3new17h33edd1fd51b4415bE>
 80019a2:	9802      	ldr	r0, [sp, #8]
 80019a4:	f649 7188 	movw	r1, #40840	; 0x9f88
 80019a8:	f6c0 0100 	movt	r1, #2048	; 0x800
 80019ac:	220b      	movs	r2, #11
 80019ae:	f003 f978 	bl	8004ca2 <_ZN13freertos_rust4task11TaskBuilder4name17h16e85d43a7f8f533E>
 80019b2:	2180      	movs	r1, #128	; 0x80
 80019b4:	f003 f98f 	bl	8004cd6 <_ZN13freertos_rust4task11TaskBuilder10stack_size17h475a693cac9c5503E>
 80019b8:	9903      	ldr	r1, [sp, #12]
 80019ba:	f003 f993 	bl	8004ce4 <_ZN13freertos_rust4task11TaskBuilder8priority17h6f7384862bd8e8e4E>
 80019be:	4601      	mov	r1, r0
 80019c0:	a809      	add	r0, sp, #36	; 0x24
 80019c2:	f7ff f882 	bl	8000aca <_ZN13freertos_rust4task11TaskBuilder5start17h2c156444757c3672E>
 80019c6:	f89d 0024 	ldrb.w	r0, [sp, #36]	; 0x24
 80019ca:	07c0      	lsls	r0, r0, #31
 80019cc:	b9f0      	cbnz	r0, 8001a0c <_ZN22stm32_cortex_m4_f401re18__cortex_m_rt_main17h7952627e30790f7fE+0xf8>
 80019ce:	e7ff      	b.n	80019d0 <_ZN22stm32_cortex_m4_f401re18__cortex_m_rt_main17h7952627e30790f7fE+0xbc>
 80019d0:	a80b      	add	r0, sp, #44	; 0x2c
 80019d2:	f7fe fcb0 	bl	8000336 <_ZN4core3ptr53drop_in_place$LT$freertos_rust..task..TaskBuilder$GT$17hdc43521a99eab5f5E>
 80019d6:	a811      	add	r0, sp, #68	; 0x44
 80019d8:	9001      	str	r0, [sp, #4]
 80019da:	f003 f98a 	bl	8004cf2 <_ZN13freertos_rust4task4Task3new17h33edd1fd51b4415bE>
 80019de:	9801      	ldr	r0, [sp, #4]
 80019e0:	f649 7193 	movw	r1, #40851	; 0x9f93
 80019e4:	f6c0 0100 	movt	r1, #2048	; 0x800
 80019e8:	220e      	movs	r2, #14
 80019ea:	f003 f95a 	bl	8004ca2 <_ZN13freertos_rust4task11TaskBuilder4name17h16e85d43a7f8f533E>
 80019ee:	2180      	movs	r1, #128	; 0x80
 80019f0:	f003 f971 	bl	8004cd6 <_ZN13freertos_rust4task11TaskBuilder10stack_size17h475a693cac9c5503E>
 80019f4:	2102      	movs	r1, #2
 80019f6:	f003 f975 	bl	8004ce4 <_ZN13freertos_rust4task11TaskBuilder8priority17h6f7384862bd8e8e4E>
 80019fa:	4601      	mov	r1, r0
 80019fc:	a80f      	add	r0, sp, #60	; 0x3c
 80019fe:	f7ff f880 	bl	8000b02 <_ZN13freertos_rust4task11TaskBuilder5start17hfed716f40437aa2dE>
 8001a02:	f89d 003c 	ldrb.w	r0, [sp, #60]	; 0x3c
 8001a06:	07c0      	lsls	r0, r0, #31
 8001a08:	b108      	cbz	r0, 8001a0e <_ZN22stm32_cortex_m4_f401re18__cortex_m_rt_main17h7952627e30790f7fE+0xfa>
 8001a0a:	e005      	b.n	8001a18 <_ZN22stm32_cortex_m4_f401re18__cortex_m_rt_main17h7952627e30790f7fE+0x104>
 8001a0c:	e7fe      	b.n	8001a0c <_ZN22stm32_cortex_m4_f401re18__cortex_m_rt_main17h7952627e30790f7fE+0xf8>
 8001a0e:	a811      	add	r0, sp, #68	; 0x44
 8001a10:	f7fe fc91 	bl	8000336 <_ZN4core3ptr53drop_in_place$LT$freertos_rust..task..TaskBuilder$GT$17hdc43521a99eab5f5E>
 8001a14:	f003 fa12 	bl	8004e3c <_ZN13freertos_rust4task13FreeRtosUtils15start_scheduler17h65affe9e8aeed2d9E>
 8001a18:	e7fe      	b.n	8001a18 <_ZN22stm32_cortex_m4_f401re18__cortex_m_rt_main17h7952627e30790f7fE+0x104>

08001a1a <EXTI15_10>:
 8001a1a:	b580      	push	{r7, lr}
 8001a1c:	466f      	mov	r7, sp
 8001a1e:	f000 f801 	bl	8001a24 <_ZN22stm32_cortex_m4_f401re23__cortex_m_rt_EXTI15_1017h1a18105a0112ae30E>
 8001a22:	bd80      	pop	{r7, pc}

08001a24 <_ZN22stm32_cortex_m4_f401re23__cortex_m_rt_EXTI15_1017h1a18105a0112ae30E>:
 8001a24:	b580      	push	{r7, lr}
 8001a26:	466f      	mov	r7, sp
 8001a28:	b08e      	sub	sp, #56	; 0x38
 8001a2a:	f003 fdd5 	bl	80055d8 <_ZN13freertos_rust3isr16InterruptContext3new17h63adac5d4bd5d6adE>
 8001a2e:	9006      	str	r0, [sp, #24]
 8001a30:	a806      	add	r0, sp, #24
 8001a32:	9003      	str	r0, [sp, #12]
 8001a34:	9007      	str	r0, [sp, #28]
 8001a36:	f240 010c 	movw	r1, #12
 8001a3a:	f2c2 0100 	movt	r1, #8192	; 0x2000
 8001a3e:	6808      	ldr	r0, [r1, #0]
 8001a40:	6849      	ldr	r1, [r1, #4]
 8001a42:	f649 72a8 	movw	r2, #40872	; 0x9fa8
 8001a46:	f6c0 0200 	movt	r2, #2048	; 0x800
 8001a4a:	466b      	mov	r3, sp
 8001a4c:	601a      	str	r2, [r3, #0]
 8001a4e:	f649 72a1 	movw	r2, #40865	; 0x9fa1
 8001a52:	f6c0 0200 	movt	r2, #2048	; 0x800
 8001a56:	2306      	movs	r3, #6
 8001a58:	f000 f878 	bl	8001b4c <_ZN4core6option15Option$LT$T$GT$6expect17ha1162e6d21eeaf0fE>
 8001a5c:	9903      	ldr	r1, [sp, #12]
 8001a5e:	f000 f8e9 	bl	8001c34 <freertos_rs_give_semaphore_isr>
 8001a62:	9803      	ldr	r0, [sp, #12]
 8001a64:	f003 fdba 	bl	80055dc <_ZN13freertos_rust3isr16InterruptContext18get_task_field_mut17h9b5ec0a6e9b691edE>
 8001a68:	4601      	mov	r1, r0
 8001a6a:	9104      	str	r1, [sp, #16]
 8001a6c:	4601      	mov	r1, r0
 8001a6e:	9105      	str	r1, [sp, #20]
 8001a70:	0780      	lsls	r0, r0, #30
 8001a72:	bb08      	cbnz	r0, 8001ab8 <_ZN22stm32_cortex_m4_f401re23__cortex_m_rt_EXTI15_1017h1a18105a0112ae30E+0x94>
 8001a74:	e7ff      	b.n	8001a76 <_ZN22stm32_cortex_m4_f401re23__cortex_m_rt_EXTI15_1017h1a18105a0112ae30E+0x52>
 8001a76:	9804      	ldr	r0, [sp, #16]
 8001a78:	6800      	ldr	r0, [r0, #0]
 8001a7a:	f000 f943 	bl	8001d04 <freertos_rs_isr_yield>
 8001a7e:	f643 4000 	movw	r0, #15360	; 0x3c00
 8001a82:	f2c4 0001 	movt	r0, #16385	; 0x4001
 8001a86:	9008      	str	r0, [sp, #32]
 8001a88:	f643 4014 	movw	r0, #15380	; 0x3c14
 8001a8c:	f2c4 0001 	movt	r0, #16385	; 0x4001
 8001a90:	9002      	str	r0, [sp, #8]
 8001a92:	900a      	str	r0, [sp, #40]	; 0x28
 8001a94:	2000      	movs	r0, #0
 8001a96:	9009      	str	r0, [sp, #36]	; 0x24
 8001a98:	a809      	add	r0, sp, #36	; 0x24
 8001a9a:	f7fe ff58 	bl	800094e <_ZN22stm32_cortex_m4_f401re23__cortex_m_rt_EXTI15_1028_$u7b$$u7b$closure$u7d$$u7d$17h4e47c657b6a120baE>
 8001a9e:	4601      	mov	r1, r0
 8001aa0:	9802      	ldr	r0, [sp, #8]
 8001aa2:	6809      	ldr	r1, [r1, #0]
 8001aa4:	900b      	str	r0, [sp, #44]	; 0x2c
 8001aa6:	910c      	str	r1, [sp, #48]	; 0x30
 8001aa8:	900d      	str	r0, [sp, #52]	; 0x34
 8001aaa:	f004 fff3 	bl	8006a94 <_ZN4core3ptr14write_volatile17hd6de69c464e82e6cE>
 8001aae:	a806      	add	r0, sp, #24
 8001ab0:	f7fe fc49 	bl	8000346 <_ZN4core3ptr57drop_in_place$LT$freertos_rust..isr..InterruptContext$GT$17heee32578ee263f0aE>
 8001ab4:	b00e      	add	sp, #56	; 0x38
 8001ab6:	bd80      	pop	{r7, pc}
 8001ab8:	9905      	ldr	r1, [sp, #20]
 8001aba:	f649 72b8 	movw	r2, #40888	; 0x9fb8
 8001abe:	f6c0 0200 	movt	r2, #2048	; 0x800
 8001ac2:	2004      	movs	r0, #4
 8001ac4:	f005 fc78 	bl	80073b8 <_ZN4core9panicking36panic_misaligned_pointer_dereference17h10ed728bfca2432fE>

08001ac8 <DefaultHandler>:
 8001ac8:	b580      	push	{r7, lr}
 8001aca:	466f      	mov	r7, sp
 8001acc:	b082      	sub	sp, #8
 8001ace:	f64e 5004 	movw	r0, #60676	; 0xed04
 8001ad2:	f2ce 0000 	movt	r0, #57344	; 0xe000
 8001ad6:	f005 f91e 	bl	8006d16 <_ZN4core3ptr13read_volatile17h9bc3363220c5f51bE>
 8001ada:	f36f 205f 	bfc	r0, #9, #23
 8001ade:	3810      	subs	r0, #16
 8001ae0:	9000      	str	r0, [sp, #0]
 8001ae2:	2000      	movs	r0, #0
 8001ae4:	b938      	cbnz	r0, 8001af6 <DefaultHandler+0x2e>
 8001ae6:	e7ff      	b.n	8001ae8 <DefaultHandler+0x20>
 8001ae8:	9800      	ldr	r0, [sp, #0]
 8001aea:	f827 0c02 	strh.w	r0, [r7, #-2]
 8001aee:	f000 f808 	bl	8001b02 <_ZN22stm32_cortex_m4_f401re28__cortex_m_rt_DefaultHandler17hb397d06c94ae46afE>
 8001af2:	b002      	add	sp, #8
 8001af4:	bd80      	pop	{r7, pc}
 8001af6:	f649 70c8 	movw	r0, #40904	; 0x9fc8
 8001afa:	f6c0 0000 	movt	r0, #2048	; 0x800
 8001afe:	f006 fef7 	bl	80088f0 <_ZN4core9panicking11panic_const24panic_const_sub_overflow17h655aa7502feebde5E>

08001b02 <_ZN22stm32_cortex_m4_f401re28__cortex_m_rt_DefaultHandler17hb397d06c94ae46afE>:
 8001b02:	b081      	sub	sp, #4
 8001b04:	f8ad 0002 	strh.w	r0, [sp, #2]
 8001b08:	b001      	add	sp, #4
 8001b0a:	4770      	bx	lr

08001b0c <_ZN22stm32_cortex_m4_f401re23__cortex_m_rt_HardFault17hf09e3039fd4fb78cE>:
 8001b0c:	b081      	sub	sp, #4
 8001b0e:	9000      	str	r0, [sp, #0]
 8001b10:	e7ff      	b.n	8001b12 <_ZN22stm32_cortex_m4_f401re23__cortex_m_rt_HardFault17hf09e3039fd4fb78cE+0x6>
 8001b12:	e7fe      	b.n	8001b12 <_ZN22stm32_cortex_m4_f401re23__cortex_m_rt_HardFault17hf09e3039fd4fb78cE+0x6>

08001b14 <_ZN22stm32_cortex_m4_f401re11alloc_error17haf3f60eb9789f0cfE>:
 8001b14:	b580      	push	{r7, lr}
 8001b16:	466f      	mov	r7, sp
 8001b18:	b082      	sub	sp, #8
 8001b1a:	9000      	str	r0, [sp, #0]
 8001b1c:	9101      	str	r1, [sp, #4]
 8001b1e:	f005 f9e0 	bl	8006ee2 <__bkpt>
 8001b22:	e7ff      	b.n	8001b24 <_ZN22stm32_cortex_m4_f401re11alloc_error17haf3f60eb9789f0cfE+0x10>
 8001b24:	e7fe      	b.n	8001b24 <_ZN22stm32_cortex_m4_f401re11alloc_error17haf3f60eb9789f0cfE+0x10>

08001b26 <__rg_oom>:
 8001b26:	b580      	push	{r7, lr}
 8001b28:	466f      	mov	r7, sp
 8001b2a:	b082      	sub	sp, #8
 8001b2c:	9000      	str	r0, [sp, #0]
 8001b2e:	9101      	str	r1, [sp, #4]
 8001b30:	f7ff f889 	bl	8000c46 <_ZN4core5alloc6layout6Layout25from_size_align_unchecked17he772e0b6996aba40E>
 8001b34:	f7ff ffee 	bl	8001b14 <_ZN22stm32_cortex_m4_f401re11alloc_error17haf3f60eb9789f0cfE>

08001b38 <_ZN8cortex_m9interrupt6enable17h61d2f63e4fb1e3b3E>:
 8001b38:	b580      	push	{r7, lr}
 8001b3a:	466f      	mov	r7, sp
 8001b3c:	f005 f9d5 	bl	8006eea <__cpsie>
 8001b40:	bd80      	pop	{r7, pc}

08001b42 <_ZN8cortex_m9interrupt7disable17hb7494494f0860066E>:
 8001b42:	b580      	push	{r7, lr}
 8001b44:	466f      	mov	r7, sp
 8001b46:	f005 f9ce 	bl	8006ee6 <__cpsid>
 8001b4a:	bd80      	pop	{r7, pc}

08001b4c <_ZN4core6option15Option$LT$T$GT$6expect17ha1162e6d21eeaf0fE>:
 8001b4c:	b580      	push	{r7, lr}
 8001b4e:	466f      	mov	r7, sp
 8001b50:	b088      	sub	sp, #32
 8001b52:	9300      	str	r3, [sp, #0]
 8001b54:	9201      	str	r2, [sp, #4]
 8001b56:	f8d7 c008 	ldr.w	ip, [r7, #8]
 8001b5a:	f8cd c008 	str.w	ip, [sp, #8]
 8001b5e:	9003      	str	r0, [sp, #12]
 8001b60:	9104      	str	r1, [sp, #16]
 8001b62:	9205      	str	r2, [sp, #20]
 8001b64:	9306      	str	r3, [sp, #24]
 8001b66:	9803      	ldr	r0, [sp, #12]
 8001b68:	b928      	cbnz	r0, 8001b76 <_ZN4core6option15Option$LT$T$GT$6expect17ha1162e6d21eeaf0fE+0x2a>
 8001b6a:	e7ff      	b.n	8001b6c <_ZN4core6option15Option$LT$T$GT$6expect17ha1162e6d21eeaf0fE+0x20>
 8001b6c:	9a02      	ldr	r2, [sp, #8]
 8001b6e:	9900      	ldr	r1, [sp, #0]
 8001b70:	9801      	ldr	r0, [sp, #4]
 8001b72:	f005 fb9e 	bl	80072b2 <_ZN4core6option13expect_failed17hb8cbd1cd2662a847E>
 8001b76:	9804      	ldr	r0, [sp, #16]
 8001b78:	9007      	str	r0, [sp, #28]
 8001b7a:	b008      	add	sp, #32
 8001b7c:	bd80      	pop	{r7, pc}

08001b7e <_ZN50_$LT$T$u20$as$u20$core..convert..Into$LT$U$GT$$GT$4into17h1aa803d9c081a83eE>:
 8001b7e:	b081      	sub	sp, #4
 8001b80:	f88d 0002 	strb.w	r0, [sp, #2]
 8001b84:	f88d 0003 	strb.w	r0, [sp, #3]
 8001b88:	f89d 0003 	ldrb.w	r0, [sp, #3]
 8001b8c:	f000 0001 	and.w	r0, r0, #1
 8001b90:	b001      	add	sp, #4
 8001b92:	4770      	bx	lr

08001b94 <__rust_alloc_error_handler>:
 8001b94:	f7ff bfc7 	b.w	8001b26 <__rg_oom>

08001b98 <freertos_rs_vTaskStartScheduler>:
 8001b98:	b580      	push	{r7, lr}
 8001b9a:	af00      	add	r7, sp, #0
 8001b9c:	f000 fac2 	bl	8002124 <vTaskStartScheduler>
 8001ba0:	bf00      	nop
 8001ba2:	bd80      	pop	{r7, pc}

08001ba4 <freertos_rs_pvPortMalloc>:
 8001ba4:	b580      	push	{r7, lr}
 8001ba6:	b082      	sub	sp, #8
 8001ba8:	af00      	add	r7, sp, #0
 8001baa:	6078      	str	r0, [r7, #4]
 8001bac:	6878      	ldr	r0, [r7, #4]
 8001bae:	f002 fddd 	bl	800476c <pvPortMalloc>
 8001bb2:	4603      	mov	r3, r0
 8001bb4:	4618      	mov	r0, r3
 8001bb6:	3708      	adds	r7, #8
 8001bb8:	46bd      	mov	sp, r7
 8001bba:	bd80      	pop	{r7, pc}

08001bbc <freertos_rs_vPortFree>:
 8001bbc:	b580      	push	{r7, lr}
 8001bbe:	b082      	sub	sp, #8
 8001bc0:	af00      	add	r7, sp, #0
 8001bc2:	6078      	str	r0, [r7, #4]
 8001bc4:	6878      	ldr	r0, [r7, #4]
 8001bc6:	f002 fe7f 	bl	80048c8 <vPortFree>
 8001bca:	bf00      	nop
 8001bcc:	3708      	adds	r7, #8
 8001bce:	46bd      	mov	sp, r7
 8001bd0:	bd80      	pop	{r7, pc}

08001bd2 <freertos_rs_create_binary_semaphore>:
 8001bd2:	b580      	push	{r7, lr}
 8001bd4:	af00      	add	r7, sp, #0
 8001bd6:	2203      	movs	r2, #3
 8001bd8:	2100      	movs	r1, #0
 8001bda:	2001      	movs	r0, #1
 8001bdc:	f002 f87a 	bl	8003cd4 <xQueueGenericCreate>
 8001be0:	4603      	mov	r3, r0
 8001be2:	4618      	mov	r0, r3
 8001be4:	bd80      	pop	{r7, pc}

08001be6 <freertos_rs_take_semaphore>:
 8001be6:	b580      	push	{r7, lr}
 8001be8:	b082      	sub	sp, #8
 8001bea:	af00      	add	r7, sp, #0
 8001bec:	6078      	str	r0, [r7, #4]
 8001bee:	6039      	str	r1, [r7, #0]
 8001bf0:	6839      	ldr	r1, [r7, #0]
 8001bf2:	6878      	ldr	r0, [r7, #4]
 8001bf4:	f002 fb20 	bl	8004238 <xQueueSemaphoreTake>
 8001bf8:	4603      	mov	r3, r0
 8001bfa:	2b01      	cmp	r3, #1
 8001bfc:	d101      	bne.n	8001c02 <freertos_rs_take_semaphore+0x1c>
 8001bfe:	2300      	movs	r3, #0
 8001c00:	e000      	b.n	8001c04 <freertos_rs_take_semaphore+0x1e>
 8001c02:	2301      	movs	r3, #1
 8001c04:	4618      	mov	r0, r3
 8001c06:	3708      	adds	r7, #8
 8001c08:	46bd      	mov	sp, r7
 8001c0a:	bd80      	pop	{r7, pc}

08001c0c <freertos_rs_give_semaphore>:
 8001c0c:	b580      	push	{r7, lr}
 8001c0e:	b082      	sub	sp, #8
 8001c10:	af00      	add	r7, sp, #0
 8001c12:	6078      	str	r0, [r7, #4]
 8001c14:	2300      	movs	r3, #0
 8001c16:	2200      	movs	r2, #0
 8001c18:	2100      	movs	r1, #0
 8001c1a:	6878      	ldr	r0, [r7, #4]
 8001c1c:	f002 f8c8 	bl	8003db0 <xQueueGenericSend>
 8001c20:	4603      	mov	r3, r0
 8001c22:	2b01      	cmp	r3, #1
 8001c24:	d101      	bne.n	8001c2a <freertos_rs_give_semaphore+0x1e>
 8001c26:	2300      	movs	r3, #0
 8001c28:	e000      	b.n	8001c2c <freertos_rs_give_semaphore+0x20>
 8001c2a:	2301      	movs	r3, #1
 8001c2c:	4618      	mov	r0, r3
 8001c2e:	3708      	adds	r7, #8
 8001c30:	46bd      	mov	sp, r7
 8001c32:	bd80      	pop	{r7, pc}

08001c34 <freertos_rs_give_semaphore_isr>:
 8001c34:	b580      	push	{r7, lr}
 8001c36:	b082      	sub	sp, #8
 8001c38:	af00      	add	r7, sp, #0
 8001c3a:	6078      	str	r0, [r7, #4]
 8001c3c:	6039      	str	r1, [r7, #0]
 8001c3e:	6839      	ldr	r1, [r7, #0]
 8001c40:	6878      	ldr	r0, [r7, #4]
 8001c42:	f002 f99d 	bl	8003f80 <xQueueGiveFromISR>
 8001c46:	4603      	mov	r3, r0
 8001c48:	2b01      	cmp	r3, #1
 8001c4a:	d101      	bne.n	8001c50 <freertos_rs_give_semaphore_isr+0x1c>
 8001c4c:	2300      	movs	r3, #0
 8001c4e:	e000      	b.n	8001c52 <freertos_rs_give_semaphore_isr+0x1e>
 8001c50:	2301      	movs	r3, #1
 8001c52:	4618      	mov	r0, r3
 8001c54:	3708      	adds	r7, #8
 8001c56:	46bd      	mov	sp, r7
 8001c58:	bd80      	pop	{r7, pc}
 8001c5a:	d4d4      	bmi.n	8001c06 <freertos_rs_take_semaphore+0x20>

08001c5c <freertos_rs_spawn_task>:
 8001c5c:	b580      	push	{r7, lr}
 8001c5e:	b08c      	sub	sp, #48	; 0x30
 8001c60:	af02      	add	r7, sp, #8
 8001c62:	60f8      	str	r0, [r7, #12]
 8001c64:	60b9      	str	r1, [r7, #8]
 8001c66:	607a      	str	r2, [r7, #4]
 8001c68:	70fb      	strb	r3, [r7, #3]
 8001c6a:	2300      	movs	r3, #0
 8001c6c:	613b      	str	r3, [r7, #16]
 8001c6e:	f107 0314 	add.w	r3, r7, #20
 8001c72:	2200      	movs	r2, #0
 8001c74:	601a      	str	r2, [r3, #0]
 8001c76:	605a      	str	r2, [r3, #4]
 8001c78:	609a      	str	r2, [r3, #8]
 8001c7a:	2300      	movs	r3, #0
 8001c7c:	627b      	str	r3, [r7, #36]	; 0x24
 8001c7e:	e00f      	b.n	8001ca0 <freertos_rs_spawn_task+0x44>
 8001c80:	6a7b      	ldr	r3, [r7, #36]	; 0x24
 8001c82:	687a      	ldr	r2, [r7, #4]
 8001c84:	4413      	add	r3, r2
 8001c86:	7819      	ldrb	r1, [r3, #0]
 8001c88:	f107 0210 	add.w	r2, r7, #16
 8001c8c:	6a7b      	ldr	r3, [r7, #36]	; 0x24
 8001c8e:	4413      	add	r3, r2
 8001c90:	460a      	mov	r2, r1
 8001c92:	701a      	strb	r2, [r3, #0]
 8001c94:	6a7b      	ldr	r3, [r7, #36]	; 0x24
 8001c96:	2b0f      	cmp	r3, #15
 8001c98:	d007      	beq.n	8001caa <freertos_rs_spawn_task+0x4e>
 8001c9a:	6a7b      	ldr	r3, [r7, #36]	; 0x24
 8001c9c:	3301      	adds	r3, #1
 8001c9e:	627b      	str	r3, [r7, #36]	; 0x24
 8001ca0:	78fb      	ldrb	r3, [r7, #3]
 8001ca2:	6a7a      	ldr	r2, [r7, #36]	; 0x24
 8001ca4:	429a      	cmp	r2, r3
 8001ca6:	dbeb      	blt.n	8001c80 <freertos_rs_spawn_task+0x24>
 8001ca8:	e000      	b.n	8001cac <freertos_rs_spawn_task+0x50>
 8001caa:	bf00      	nop
 8001cac:	8e3a      	ldrh	r2, [r7, #48]	; 0x30
 8001cae:	f107 0110 	add.w	r1, r7, #16
 8001cb2:	6bbb      	ldr	r3, [r7, #56]	; 0x38
 8001cb4:	9301      	str	r3, [sp, #4]
 8001cb6:	6b7b      	ldr	r3, [r7, #52]	; 0x34
 8001cb8:	9300      	str	r3, [sp, #0]
 8001cba:	68bb      	ldr	r3, [r7, #8]
 8001cbc:	68f8      	ldr	r0, [r7, #12]
 8001cbe:	f000 f840 	bl	8001d42 <xTaskCreate>
 8001cc2:	6238      	str	r0, [r7, #32]
 8001cc4:	6a3b      	ldr	r3, [r7, #32]
 8001cc6:	2b01      	cmp	r3, #1
 8001cc8:	d001      	beq.n	8001cce <freertos_rs_spawn_task+0x72>
 8001cca:	2301      	movs	r3, #1
 8001ccc:	e007      	b.n	8001cde <freertos_rs_spawn_task+0x82>
 8001cce:	6bbb      	ldr	r3, [r7, #56]	; 0x38
 8001cd0:	2b00      	cmp	r3, #0
 8001cd2:	d103      	bne.n	8001cdc <freertos_rs_spawn_task+0x80>
 8001cd4:	4904      	ldr	r1, [pc, #16]	; (8001ce8 <freertos_rs_spawn_task+0x8c>)
 8001cd6:	20da      	movs	r0, #218	; 0xda
 8001cd8:	f004 f8f5 	bl	8005ec6 <vAssertCalled>
 8001cdc:	2300      	movs	r3, #0
 8001cde:	4618      	mov	r0, r3
 8001ce0:	3728      	adds	r7, #40	; 0x28
 8001ce2:	46bd      	mov	sp, r7
 8001ce4:	bd80      	pop	{r7, pc}
 8001ce6:	bf00      	nop
 8001ce8:	08009fd8 	.word	0x08009fd8

08001cec <freertos_rs_delete_task>:
 8001cec:	b580      	push	{r7, lr}
 8001cee:	b082      	sub	sp, #8
 8001cf0:	af00      	add	r7, sp, #0
 8001cf2:	6078      	str	r0, [r7, #4]
 8001cf4:	6878      	ldr	r0, [r7, #4]
 8001cf6:	f000 f985 	bl	8002004 <vTaskDelete>
 8001cfa:	bf00      	nop
 8001cfc:	3708      	adds	r7, #8
 8001cfe:	46bd      	mov	sp, r7
 8001d00:	bd80      	pop	{r7, pc}
 8001d02:	d4d4      	bmi.n	8001cae <freertos_rs_spawn_task+0x52>

08001d04 <freertos_rs_isr_yield>:
 8001d04:	b480      	push	{r7}
 8001d06:	b083      	sub	sp, #12
 8001d08:	af00      	add	r7, sp, #0
 8001d0a:	6078      	str	r0, [r7, #4]
 8001d0c:	687b      	ldr	r3, [r7, #4]
 8001d0e:	2b00      	cmp	r3, #0
 8001d10:	d007      	beq.n	8001d22 <freertos_rs_isr_yield+0x1e>
 8001d12:	4b07      	ldr	r3, [pc, #28]	; (8001d30 <freertos_rs_isr_yield+0x2c>)
 8001d14:	f04f 5280 	mov.w	r2, #268435456	; 0x10000000
 8001d18:	601a      	str	r2, [r3, #0]
 8001d1a:	f3bf 8f4f 	dsb	sy
 8001d1e:	f3bf 8f6f 	isb	sy
 8001d22:	bf00      	nop
 8001d24:	370c      	adds	r7, #12
 8001d26:	46bd      	mov	sp, r7
 8001d28:	f85d 7b04 	ldr.w	r7, [sp], #4
 8001d2c:	4770      	bx	lr
 8001d2e:	bf00      	nop
 8001d30:	e000ed04 	.word	0xe000ed04

08001d34 <freertos_rs_get_current_task>:
 8001d34:	b580      	push	{r7, lr}
 8001d36:	af00      	add	r7, sp, #0
 8001d38:	f000 ff54 	bl	8002be4 <xTaskGetCurrentTaskHandle>
 8001d3c:	4603      	mov	r3, r0
 8001d3e:	4618      	mov	r0, r3
 8001d40:	bd80      	pop	{r7, pc}

08001d42 <xTaskCreate>:
 8001d42:	b580      	push	{r7, lr}
 8001d44:	b08c      	sub	sp, #48	; 0x30
 8001d46:	af04      	add	r7, sp, #16
 8001d48:	60f8      	str	r0, [r7, #12]
 8001d4a:	60b9      	str	r1, [r7, #8]
 8001d4c:	603b      	str	r3, [r7, #0]
 8001d4e:	4613      	mov	r3, r2
 8001d50:	80fb      	strh	r3, [r7, #6]
 8001d52:	88fb      	ldrh	r3, [r7, #6]
 8001d54:	009b      	lsls	r3, r3, #2
 8001d56:	4618      	mov	r0, r3
 8001d58:	f002 fd08 	bl	800476c <pvPortMalloc>
 8001d5c:	6178      	str	r0, [r7, #20]
 8001d5e:	697b      	ldr	r3, [r7, #20]
 8001d60:	2b00      	cmp	r3, #0
 8001d62:	d013      	beq.n	8001d8c <xTaskCreate+0x4a>
 8001d64:	205c      	movs	r0, #92	; 0x5c
 8001d66:	f002 fd01 	bl	800476c <pvPortMalloc>
 8001d6a:	61f8      	str	r0, [r7, #28]
 8001d6c:	69fb      	ldr	r3, [r7, #28]
 8001d6e:	2b00      	cmp	r3, #0
 8001d70:	d008      	beq.n	8001d84 <xTaskCreate+0x42>
 8001d72:	225c      	movs	r2, #92	; 0x5c
 8001d74:	2100      	movs	r1, #0
 8001d76:	69f8      	ldr	r0, [r7, #28]
 8001d78:	f007 f8bf 	bl	8008efa <memset>
 8001d7c:	69fb      	ldr	r3, [r7, #28]
 8001d7e:	697a      	ldr	r2, [r7, #20]
 8001d80:	631a      	str	r2, [r3, #48]	; 0x30
 8001d82:	e005      	b.n	8001d90 <xTaskCreate+0x4e>
 8001d84:	6978      	ldr	r0, [r7, #20]
 8001d86:	f002 fd9f 	bl	80048c8 <vPortFree>
 8001d8a:	e001      	b.n	8001d90 <xTaskCreate+0x4e>
 8001d8c:	2300      	movs	r3, #0
 8001d8e:	61fb      	str	r3, [r7, #28]
 8001d90:	69fb      	ldr	r3, [r7, #28]
 8001d92:	2b00      	cmp	r3, #0
 8001d94:	d013      	beq.n	8001dbe <xTaskCreate+0x7c>
 8001d96:	88fa      	ldrh	r2, [r7, #6]
 8001d98:	2300      	movs	r3, #0
 8001d9a:	9303      	str	r3, [sp, #12]
 8001d9c:	69fb      	ldr	r3, [r7, #28]
 8001d9e:	9302      	str	r3, [sp, #8]
 8001da0:	6afb      	ldr	r3, [r7, #44]	; 0x2c
 8001da2:	9301      	str	r3, [sp, #4]
 8001da4:	6abb      	ldr	r3, [r7, #40]	; 0x28
 8001da6:	9300      	str	r3, [sp, #0]
 8001da8:	683b      	ldr	r3, [r7, #0]
 8001daa:	68b9      	ldr	r1, [r7, #8]
 8001dac:	68f8      	ldr	r0, [r7, #12]
 8001dae:	f000 f80f 	bl	8001dd0 <prvInitialiseNewTask>
 8001db2:	69f8      	ldr	r0, [r7, #28]
 8001db4:	f000 f890 	bl	8001ed8 <prvAddNewTaskToReadyList>
 8001db8:	2301      	movs	r3, #1
 8001dba:	61bb      	str	r3, [r7, #24]
 8001dbc:	e002      	b.n	8001dc4 <xTaskCreate+0x82>
 8001dbe:	f04f 33ff 	mov.w	r3, #4294967295
 8001dc2:	61bb      	str	r3, [r7, #24]
 8001dc4:	69bb      	ldr	r3, [r7, #24]
 8001dc6:	4618      	mov	r0, r3
 8001dc8:	3720      	adds	r7, #32
 8001dca:	46bd      	mov	sp, r7
 8001dcc:	bd80      	pop	{r7, pc}
 8001dce:	d4d4      	bmi.n	8001d7a <xTaskCreate+0x38>

08001dd0 <prvInitialiseNewTask>:
 8001dd0:	b580      	push	{r7, lr}
 8001dd2:	b086      	sub	sp, #24
 8001dd4:	af00      	add	r7, sp, #0
 8001dd6:	60f8      	str	r0, [r7, #12]
 8001dd8:	60b9      	str	r1, [r7, #8]
 8001dda:	607a      	str	r2, [r7, #4]
 8001ddc:	603b      	str	r3, [r7, #0]
 8001dde:	6abb      	ldr	r3, [r7, #40]	; 0x28
 8001de0:	6b18      	ldr	r0, [r3, #48]	; 0x30
 8001de2:	687b      	ldr	r3, [r7, #4]
 8001de4:	009b      	lsls	r3, r3, #2
 8001de6:	461a      	mov	r2, r3
 8001de8:	21a5      	movs	r1, #165	; 0xa5
 8001dea:	f007 f886 	bl	8008efa <memset>
 8001dee:	6abb      	ldr	r3, [r7, #40]	; 0x28
 8001df0:	6b1a      	ldr	r2, [r3, #48]	; 0x30
 8001df2:	687b      	ldr	r3, [r7, #4]
 8001df4:	f103 4380 	add.w	r3, r3, #1073741824	; 0x40000000
 8001df8:	3b01      	subs	r3, #1
 8001dfa:	009b      	lsls	r3, r3, #2
 8001dfc:	4413      	add	r3, r2
 8001dfe:	613b      	str	r3, [r7, #16]
 8001e00:	693b      	ldr	r3, [r7, #16]
 8001e02:	f023 0307 	bic.w	r3, r3, #7
 8001e06:	613b      	str	r3, [r7, #16]
 8001e08:	693b      	ldr	r3, [r7, #16]
 8001e0a:	f003 0307 	and.w	r3, r3, #7
 8001e0e:	2b00      	cmp	r3, #0
 8001e10:	d004      	beq.n	8001e1c <prvInitialiseNewTask+0x4c>
 8001e12:	4930      	ldr	r1, [pc, #192]	; (8001ed4 <prvInitialiseNewTask+0x104>)
 8001e14:	f240 305d 	movw	r0, #861	; 0x35d
 8001e18:	f004 f855 	bl	8005ec6 <vAssertCalled>
 8001e1c:	68bb      	ldr	r3, [r7, #8]
 8001e1e:	2b00      	cmp	r3, #0
 8001e20:	d01e      	beq.n	8001e60 <prvInitialiseNewTask+0x90>
 8001e22:	2300      	movs	r3, #0
 8001e24:	617b      	str	r3, [r7, #20]
 8001e26:	e012      	b.n	8001e4e <prvInitialiseNewTask+0x7e>
 8001e28:	68ba      	ldr	r2, [r7, #8]
 8001e2a:	697b      	ldr	r3, [r7, #20]
 8001e2c:	4413      	add	r3, r2
 8001e2e:	7819      	ldrb	r1, [r3, #0]
 8001e30:	6aba      	ldr	r2, [r7, #40]	; 0x28
 8001e32:	697b      	ldr	r3, [r7, #20]
 8001e34:	4413      	add	r3, r2
 8001e36:	3334      	adds	r3, #52	; 0x34
 8001e38:	460a      	mov	r2, r1
 8001e3a:	701a      	strb	r2, [r3, #0]
 8001e3c:	68ba      	ldr	r2, [r7, #8]
 8001e3e:	697b      	ldr	r3, [r7, #20]
 8001e40:	4413      	add	r3, r2
 8001e42:	781b      	ldrb	r3, [r3, #0]
 8001e44:	2b00      	cmp	r3, #0
 8001e46:	d006      	beq.n	8001e56 <prvInitialiseNewTask+0x86>
 8001e48:	697b      	ldr	r3, [r7, #20]
 8001e4a:	3301      	adds	r3, #1
 8001e4c:	617b      	str	r3, [r7, #20]
 8001e4e:	697b      	ldr	r3, [r7, #20]
 8001e50:	2b0f      	cmp	r3, #15
 8001e52:	d9e9      	bls.n	8001e28 <prvInitialiseNewTask+0x58>
 8001e54:	e000      	b.n	8001e58 <prvInitialiseNewTask+0x88>
 8001e56:	bf00      	nop
 8001e58:	6abb      	ldr	r3, [r7, #40]	; 0x28
 8001e5a:	2200      	movs	r2, #0
 8001e5c:	f883 2043 	strb.w	r2, [r3, #67]	; 0x43
 8001e60:	6a3b      	ldr	r3, [r7, #32]
 8001e62:	2b04      	cmp	r3, #4
 8001e64:	d904      	bls.n	8001e70 <prvInitialiseNewTask+0xa0>
 8001e66:	491b      	ldr	r1, [pc, #108]	; (8001ed4 <prvInitialiseNewTask+0x104>)
 8001e68:	f240 3092 	movw	r0, #914	; 0x392
 8001e6c:	f004 f82b 	bl	8005ec6 <vAssertCalled>
 8001e70:	6a3b      	ldr	r3, [r7, #32]
 8001e72:	2b04      	cmp	r3, #4
 8001e74:	d901      	bls.n	8001e7a <prvInitialiseNewTask+0xaa>
 8001e76:	2304      	movs	r3, #4
 8001e78:	623b      	str	r3, [r7, #32]
 8001e7a:	6abb      	ldr	r3, [r7, #40]	; 0x28
 8001e7c:	6a3a      	ldr	r2, [r7, #32]
 8001e7e:	62da      	str	r2, [r3, #44]	; 0x2c
 8001e80:	6abb      	ldr	r3, [r7, #40]	; 0x28
 8001e82:	6a3a      	ldr	r2, [r7, #32]
 8001e84:	64da      	str	r2, [r3, #76]	; 0x4c
 8001e86:	6abb      	ldr	r3, [r7, #40]	; 0x28
 8001e88:	3304      	adds	r3, #4
 8001e8a:	4618      	mov	r0, r3
 8001e8c:	f001 f970 	bl	8003170 <vListInitialiseItem>
 8001e90:	6abb      	ldr	r3, [r7, #40]	; 0x28
 8001e92:	3318      	adds	r3, #24
 8001e94:	4618      	mov	r0, r3
 8001e96:	f001 f96b 	bl	8003170 <vListInitialiseItem>
 8001e9a:	6abb      	ldr	r3, [r7, #40]	; 0x28
 8001e9c:	6aba      	ldr	r2, [r7, #40]	; 0x28
 8001e9e:	611a      	str	r2, [r3, #16]
 8001ea0:	6a3b      	ldr	r3, [r7, #32]
 8001ea2:	f1c3 0205 	rsb	r2, r3, #5
 8001ea6:	6abb      	ldr	r3, [r7, #40]	; 0x28
 8001ea8:	619a      	str	r2, [r3, #24]
 8001eaa:	6abb      	ldr	r3, [r7, #40]	; 0x28
 8001eac:	6aba      	ldr	r2, [r7, #40]	; 0x28
 8001eae:	625a      	str	r2, [r3, #36]	; 0x24
 8001eb0:	683a      	ldr	r2, [r7, #0]
 8001eb2:	68f9      	ldr	r1, [r7, #12]
 8001eb4:	6938      	ldr	r0, [r7, #16]
 8001eb6:	f001 f9ef 	bl	8003298 <pxPortInitialiseStack>
 8001eba:	4602      	mov	r2, r0
 8001ebc:	6abb      	ldr	r3, [r7, #40]	; 0x28
 8001ebe:	601a      	str	r2, [r3, #0]
 8001ec0:	6a7b      	ldr	r3, [r7, #36]	; 0x24
 8001ec2:	2b00      	cmp	r3, #0
 8001ec4:	d002      	beq.n	8001ecc <prvInitialiseNewTask+0xfc>
 8001ec6:	6a7b      	ldr	r3, [r7, #36]	; 0x24
 8001ec8:	6aba      	ldr	r2, [r7, #40]	; 0x28
 8001eca:	601a      	str	r2, [r3, #0]
 8001ecc:	bf00      	nop
 8001ece:	3718      	adds	r7, #24
 8001ed0:	46bd      	mov	sp, r7
 8001ed2:	bd80      	pop	{r7, pc}
 8001ed4:	0800a028 	.word	0x0800a028

08001ed8 <prvAddNewTaskToReadyList>:
 8001ed8:	b580      	push	{r7, lr}
 8001eda:	b084      	sub	sp, #16
 8001edc:	af00      	add	r7, sp, #0
 8001ede:	6078      	str	r0, [r7, #4]
 8001ee0:	f001 faf2 	bl	80034c8 <vPortEnterCritical>
 8001ee4:	4b40      	ldr	r3, [pc, #256]	; (8001fe8 <prvAddNewTaskToReadyList+0x110>)
 8001ee6:	681b      	ldr	r3, [r3, #0]
 8001ee8:	3301      	adds	r3, #1
 8001eea:	4a3f      	ldr	r2, [pc, #252]	; (8001fe8 <prvAddNewTaskToReadyList+0x110>)
 8001eec:	6013      	str	r3, [r2, #0]
 8001eee:	4b3f      	ldr	r3, [pc, #252]	; (8001fec <prvAddNewTaskToReadyList+0x114>)
 8001ef0:	681b      	ldr	r3, [r3, #0]
 8001ef2:	2b00      	cmp	r3, #0
 8001ef4:	d109      	bne.n	8001f0a <prvAddNewTaskToReadyList+0x32>
 8001ef6:	4a3d      	ldr	r2, [pc, #244]	; (8001fec <prvAddNewTaskToReadyList+0x114>)
 8001ef8:	687b      	ldr	r3, [r7, #4]
 8001efa:	6013      	str	r3, [r2, #0]
 8001efc:	4b3a      	ldr	r3, [pc, #232]	; (8001fe8 <prvAddNewTaskToReadyList+0x110>)
 8001efe:	681b      	ldr	r3, [r3, #0]
 8001f00:	2b01      	cmp	r3, #1
 8001f02:	d110      	bne.n	8001f26 <prvAddNewTaskToReadyList+0x4e>
 8001f04:	f000 fdd4 	bl	8002ab0 <prvInitialiseTaskLists>
 8001f08:	e00d      	b.n	8001f26 <prvAddNewTaskToReadyList+0x4e>
 8001f0a:	4b39      	ldr	r3, [pc, #228]	; (8001ff0 <prvAddNewTaskToReadyList+0x118>)
 8001f0c:	681b      	ldr	r3, [r3, #0]
 8001f0e:	2b00      	cmp	r3, #0
 8001f10:	d109      	bne.n	8001f26 <prvAddNewTaskToReadyList+0x4e>
 8001f12:	4b36      	ldr	r3, [pc, #216]	; (8001fec <prvAddNewTaskToReadyList+0x114>)
 8001f14:	681b      	ldr	r3, [r3, #0]
 8001f16:	6ada      	ldr	r2, [r3, #44]	; 0x2c
 8001f18:	687b      	ldr	r3, [r7, #4]
 8001f1a:	6adb      	ldr	r3, [r3, #44]	; 0x2c
 8001f1c:	429a      	cmp	r2, r3
 8001f1e:	d802      	bhi.n	8001f26 <prvAddNewTaskToReadyList+0x4e>
 8001f20:	4a32      	ldr	r2, [pc, #200]	; (8001fec <prvAddNewTaskToReadyList+0x114>)
 8001f22:	687b      	ldr	r3, [r7, #4]
 8001f24:	6013      	str	r3, [r2, #0]
 8001f26:	4b33      	ldr	r3, [pc, #204]	; (8001ff4 <prvAddNewTaskToReadyList+0x11c>)
 8001f28:	681b      	ldr	r3, [r3, #0]
 8001f2a:	3301      	adds	r3, #1
 8001f2c:	4a31      	ldr	r2, [pc, #196]	; (8001ff4 <prvAddNewTaskToReadyList+0x11c>)
 8001f2e:	6013      	str	r3, [r2, #0]
 8001f30:	4b30      	ldr	r3, [pc, #192]	; (8001ff4 <prvAddNewTaskToReadyList+0x11c>)
 8001f32:	681a      	ldr	r2, [r3, #0]
 8001f34:	687b      	ldr	r3, [r7, #4]
 8001f36:	645a      	str	r2, [r3, #68]	; 0x44
 8001f38:	687b      	ldr	r3, [r7, #4]
 8001f3a:	6adb      	ldr	r3, [r3, #44]	; 0x2c
 8001f3c:	2201      	movs	r2, #1
 8001f3e:	409a      	lsls	r2, r3
 8001f40:	4b2d      	ldr	r3, [pc, #180]	; (8001ff8 <prvAddNewTaskToReadyList+0x120>)
 8001f42:	681b      	ldr	r3, [r3, #0]
 8001f44:	4313      	orrs	r3, r2
 8001f46:	4a2c      	ldr	r2, [pc, #176]	; (8001ff8 <prvAddNewTaskToReadyList+0x120>)
 8001f48:	6013      	str	r3, [r2, #0]
 8001f4a:	687b      	ldr	r3, [r7, #4]
 8001f4c:	6ada      	ldr	r2, [r3, #44]	; 0x2c
 8001f4e:	492b      	ldr	r1, [pc, #172]	; (8001ffc <prvAddNewTaskToReadyList+0x124>)
 8001f50:	4613      	mov	r3, r2
 8001f52:	009b      	lsls	r3, r3, #2
 8001f54:	4413      	add	r3, r2
 8001f56:	009b      	lsls	r3, r3, #2
 8001f58:	440b      	add	r3, r1
 8001f5a:	3304      	adds	r3, #4
 8001f5c:	681b      	ldr	r3, [r3, #0]
 8001f5e:	60fb      	str	r3, [r7, #12]
 8001f60:	687b      	ldr	r3, [r7, #4]
 8001f62:	68fa      	ldr	r2, [r7, #12]
 8001f64:	609a      	str	r2, [r3, #8]
 8001f66:	68fb      	ldr	r3, [r7, #12]
 8001f68:	689a      	ldr	r2, [r3, #8]
 8001f6a:	687b      	ldr	r3, [r7, #4]
 8001f6c:	60da      	str	r2, [r3, #12]
 8001f6e:	68fb      	ldr	r3, [r7, #12]
 8001f70:	689b      	ldr	r3, [r3, #8]
 8001f72:	687a      	ldr	r2, [r7, #4]
 8001f74:	3204      	adds	r2, #4
 8001f76:	605a      	str	r2, [r3, #4]
 8001f78:	687b      	ldr	r3, [r7, #4]
 8001f7a:	1d1a      	adds	r2, r3, #4
 8001f7c:	68fb      	ldr	r3, [r7, #12]
 8001f7e:	609a      	str	r2, [r3, #8]
 8001f80:	687b      	ldr	r3, [r7, #4]
 8001f82:	6ada      	ldr	r2, [r3, #44]	; 0x2c
 8001f84:	4613      	mov	r3, r2
 8001f86:	009b      	lsls	r3, r3, #2
 8001f88:	4413      	add	r3, r2
 8001f8a:	009b      	lsls	r3, r3, #2
 8001f8c:	4a1b      	ldr	r2, [pc, #108]	; (8001ffc <prvAddNewTaskToReadyList+0x124>)
 8001f8e:	441a      	add	r2, r3
 8001f90:	687b      	ldr	r3, [r7, #4]
 8001f92:	615a      	str	r2, [r3, #20]
 8001f94:	687b      	ldr	r3, [r7, #4]
 8001f96:	6ada      	ldr	r2, [r3, #44]	; 0x2c
 8001f98:	4918      	ldr	r1, [pc, #96]	; (8001ffc <prvAddNewTaskToReadyList+0x124>)
 8001f9a:	4613      	mov	r3, r2
 8001f9c:	009b      	lsls	r3, r3, #2
 8001f9e:	4413      	add	r3, r2
 8001fa0:	009b      	lsls	r3, r3, #2
 8001fa2:	440b      	add	r3, r1
 8001fa4:	681b      	ldr	r3, [r3, #0]
 8001fa6:	1c59      	adds	r1, r3, #1
 8001fa8:	4814      	ldr	r0, [pc, #80]	; (8001ffc <prvAddNewTaskToReadyList+0x124>)
 8001faa:	4613      	mov	r3, r2
 8001fac:	009b      	lsls	r3, r3, #2
 8001fae:	4413      	add	r3, r2
 8001fb0:	009b      	lsls	r3, r3, #2
 8001fb2:	4403      	add	r3, r0
 8001fb4:	6019      	str	r1, [r3, #0]
 8001fb6:	f001 fab1 	bl	800351c <vPortExitCritical>
 8001fba:	4b0d      	ldr	r3, [pc, #52]	; (8001ff0 <prvAddNewTaskToReadyList+0x118>)
 8001fbc:	681b      	ldr	r3, [r3, #0]
 8001fbe:	2b00      	cmp	r3, #0
 8001fc0:	d00e      	beq.n	8001fe0 <prvAddNewTaskToReadyList+0x108>
 8001fc2:	4b0a      	ldr	r3, [pc, #40]	; (8001fec <prvAddNewTaskToReadyList+0x114>)
 8001fc4:	681b      	ldr	r3, [r3, #0]
 8001fc6:	6ada      	ldr	r2, [r3, #44]	; 0x2c
 8001fc8:	687b      	ldr	r3, [r7, #4]
 8001fca:	6adb      	ldr	r3, [r3, #44]	; 0x2c
 8001fcc:	429a      	cmp	r2, r3
 8001fce:	d207      	bcs.n	8001fe0 <prvAddNewTaskToReadyList+0x108>
 8001fd0:	4b0b      	ldr	r3, [pc, #44]	; (8002000 <prvAddNewTaskToReadyList+0x128>)
 8001fd2:	f04f 5280 	mov.w	r2, #268435456	; 0x10000000
 8001fd6:	601a      	str	r2, [r3, #0]
 8001fd8:	f3bf 8f4f 	dsb	sy
 8001fdc:	f3bf 8f6f 	isb	sy
 8001fe0:	bf00      	nop
 8001fe2:	3710      	adds	r7, #16
 8001fe4:	46bd      	mov	sp, r7
 8001fe6:	bd80      	pop	{r7, pc}
 8001fe8:	200000f8 	.word	0x200000f8
 8001fec:	20000020 	.word	0x20000020
 8001ff0:	20000104 	.word	0x20000104
 8001ff4:	20000114 	.word	0x20000114
 8001ff8:	20000100 	.word	0x20000100
 8001ffc:	20000024 	.word	0x20000024
 8002000:	e000ed04 	.word	0xe000ed04

08002004 <vTaskDelete>:
 8002004:	b580      	push	{r7, lr}
 8002006:	b084      	sub	sp, #16
 8002008:	af00      	add	r7, sp, #0
 800200a:	6078      	str	r0, [r7, #4]
 800200c:	f001 fa5c 	bl	80034c8 <vPortEnterCritical>
 8002010:	687b      	ldr	r3, [r7, #4]
 8002012:	2b00      	cmp	r3, #0
 8002014:	d102      	bne.n	800201c <vTaskDelete+0x18>
 8002016:	4b38      	ldr	r3, [pc, #224]	; (80020f8 <vTaskDelete+0xf4>)
 8002018:	681b      	ldr	r3, [r3, #0]
 800201a:	e000      	b.n	800201e <vTaskDelete+0x1a>
 800201c:	687b      	ldr	r3, [r7, #4]
 800201e:	60fb      	str	r3, [r7, #12]
 8002020:	68fb      	ldr	r3, [r7, #12]
 8002022:	3304      	adds	r3, #4
 8002024:	4618      	mov	r0, r3
 8002026:	f001 f90d 	bl	8003244 <uxListRemove>
 800202a:	4603      	mov	r3, r0
 800202c:	2b00      	cmp	r3, #0
 800202e:	d115      	bne.n	800205c <vTaskDelete+0x58>
 8002030:	68fb      	ldr	r3, [r7, #12]
 8002032:	6ada      	ldr	r2, [r3, #44]	; 0x2c
 8002034:	4931      	ldr	r1, [pc, #196]	; (80020fc <vTaskDelete+0xf8>)
 8002036:	4613      	mov	r3, r2
 8002038:	009b      	lsls	r3, r3, #2
 800203a:	4413      	add	r3, r2
 800203c:	009b      	lsls	r3, r3, #2
 800203e:	440b      	add	r3, r1
 8002040:	681b      	ldr	r3, [r3, #0]
 8002042:	2b00      	cmp	r3, #0
 8002044:	d10a      	bne.n	800205c <vTaskDelete+0x58>
 8002046:	68fb      	ldr	r3, [r7, #12]
 8002048:	6adb      	ldr	r3, [r3, #44]	; 0x2c
 800204a:	2201      	movs	r2, #1
 800204c:	fa02 f303 	lsl.w	r3, r2, r3
 8002050:	43da      	mvns	r2, r3
 8002052:	4b2b      	ldr	r3, [pc, #172]	; (8002100 <vTaskDelete+0xfc>)
 8002054:	681b      	ldr	r3, [r3, #0]
 8002056:	4013      	ands	r3, r2
 8002058:	4a29      	ldr	r2, [pc, #164]	; (8002100 <vTaskDelete+0xfc>)
 800205a:	6013      	str	r3, [r2, #0]
 800205c:	68fb      	ldr	r3, [r7, #12]
 800205e:	6a9b      	ldr	r3, [r3, #40]	; 0x28
 8002060:	2b00      	cmp	r3, #0
 8002062:	d004      	beq.n	800206e <vTaskDelete+0x6a>
 8002064:	68fb      	ldr	r3, [r7, #12]
 8002066:	3318      	adds	r3, #24
 8002068:	4618      	mov	r0, r3
 800206a:	f001 f8eb 	bl	8003244 <uxListRemove>
 800206e:	4b25      	ldr	r3, [pc, #148]	; (8002104 <vTaskDelete+0x100>)
 8002070:	681b      	ldr	r3, [r3, #0]
 8002072:	3301      	adds	r3, #1
 8002074:	4a23      	ldr	r2, [pc, #140]	; (8002104 <vTaskDelete+0x100>)
 8002076:	6013      	str	r3, [r2, #0]
 8002078:	4b1f      	ldr	r3, [pc, #124]	; (80020f8 <vTaskDelete+0xf4>)
 800207a:	681b      	ldr	r3, [r3, #0]
 800207c:	68fa      	ldr	r2, [r7, #12]
 800207e:	429a      	cmp	r2, r3
 8002080:	d10b      	bne.n	800209a <vTaskDelete+0x96>
 8002082:	68fb      	ldr	r3, [r7, #12]
 8002084:	3304      	adds	r3, #4
 8002086:	4619      	mov	r1, r3
 8002088:	481f      	ldr	r0, [pc, #124]	; (8002108 <vTaskDelete+0x104>)
 800208a:	f001 f87e 	bl	800318a <vListInsertEnd>
 800208e:	4b1f      	ldr	r3, [pc, #124]	; (800210c <vTaskDelete+0x108>)
 8002090:	681b      	ldr	r3, [r3, #0]
 8002092:	3301      	adds	r3, #1
 8002094:	4a1d      	ldr	r2, [pc, #116]	; (800210c <vTaskDelete+0x108>)
 8002096:	6013      	str	r3, [r2, #0]
 8002098:	e006      	b.n	80020a8 <vTaskDelete+0xa4>
 800209a:	4b1d      	ldr	r3, [pc, #116]	; (8002110 <vTaskDelete+0x10c>)
 800209c:	681b      	ldr	r3, [r3, #0]
 800209e:	3b01      	subs	r3, #1
 80020a0:	4a1b      	ldr	r2, [pc, #108]	; (8002110 <vTaskDelete+0x10c>)
 80020a2:	6013      	str	r3, [r2, #0]
 80020a4:	f000 fd82 	bl	8002bac <prvResetNextTaskUnblockTime>
 80020a8:	f001 fa38 	bl	800351c <vPortExitCritical>
 80020ac:	4b12      	ldr	r3, [pc, #72]	; (80020f8 <vTaskDelete+0xf4>)
 80020ae:	681b      	ldr	r3, [r3, #0]
 80020b0:	68fa      	ldr	r2, [r7, #12]
 80020b2:	429a      	cmp	r2, r3
 80020b4:	d002      	beq.n	80020bc <vTaskDelete+0xb8>
 80020b6:	68f8      	ldr	r0, [r7, #12]
 80020b8:	f000 fd68 	bl	8002b8c <prvDeleteTCB>
 80020bc:	4b15      	ldr	r3, [pc, #84]	; (8002114 <vTaskDelete+0x110>)
 80020be:	681b      	ldr	r3, [r3, #0]
 80020c0:	2b00      	cmp	r3, #0
 80020c2:	d015      	beq.n	80020f0 <vTaskDelete+0xec>
 80020c4:	4b0c      	ldr	r3, [pc, #48]	; (80020f8 <vTaskDelete+0xf4>)
 80020c6:	681b      	ldr	r3, [r3, #0]
 80020c8:	68fa      	ldr	r2, [r7, #12]
 80020ca:	429a      	cmp	r2, r3
 80020cc:	d110      	bne.n	80020f0 <vTaskDelete+0xec>
 80020ce:	4b12      	ldr	r3, [pc, #72]	; (8002118 <vTaskDelete+0x114>)
 80020d0:	681b      	ldr	r3, [r3, #0]
 80020d2:	2b00      	cmp	r3, #0
 80020d4:	d004      	beq.n	80020e0 <vTaskDelete+0xdc>
 80020d6:	4911      	ldr	r1, [pc, #68]	; (800211c <vTaskDelete+0x118>)
 80020d8:	f240 40af 	movw	r0, #1199	; 0x4af
 80020dc:	f003 fef3 	bl	8005ec6 <vAssertCalled>
 80020e0:	4b0f      	ldr	r3, [pc, #60]	; (8002120 <vTaskDelete+0x11c>)
 80020e2:	f04f 5280 	mov.w	r2, #268435456	; 0x10000000
 80020e6:	601a      	str	r2, [r3, #0]
 80020e8:	f3bf 8f4f 	dsb	sy
 80020ec:	f3bf 8f6f 	isb	sy
 80020f0:	bf00      	nop
 80020f2:	3710      	adds	r7, #16
 80020f4:	46bd      	mov	sp, r7
 80020f6:	bd80      	pop	{r7, pc}
 80020f8:	20000020 	.word	0x20000020
 80020fc:	20000024 	.word	0x20000024
 8002100:	20000100 	.word	0x20000100
 8002104:	20000114 	.word	0x20000114
 8002108:	200000cc 	.word	0x200000cc
 800210c:	200000e0 	.word	0x200000e0
 8002110:	200000f8 	.word	0x200000f8
 8002114:	20000104 	.word	0x20000104
 8002118:	20000120 	.word	0x20000120
 800211c:	0800a028 	.word	0x0800a028
 8002120:	e000ed04 	.word	0xe000ed04

08002124 <vTaskStartScheduler>:
 8002124:	b580      	push	{r7, lr}
 8002126:	b084      	sub	sp, #16
 8002128:	af02      	add	r7, sp, #8
 800212a:	4b1d      	ldr	r3, [pc, #116]	; (80021a0 <vTaskStartScheduler+0x7c>)
 800212c:	9301      	str	r3, [sp, #4]
 800212e:	2300      	movs	r3, #0
 8002130:	9300      	str	r3, [sp, #0]
 8002132:	2300      	movs	r3, #0
 8002134:	2250      	movs	r2, #80	; 0x50
 8002136:	491b      	ldr	r1, [pc, #108]	; (80021a4 <vTaskStartScheduler+0x80>)
 8002138:	481b      	ldr	r0, [pc, #108]	; (80021a8 <vTaskStartScheduler+0x84>)
 800213a:	f7ff fe02 	bl	8001d42 <xTaskCreate>
 800213e:	6078      	str	r0, [r7, #4]
 8002140:	687b      	ldr	r3, [r7, #4]
 8002142:	2b01      	cmp	r3, #1
 8002144:	d102      	bne.n	800214c <vTaskStartScheduler+0x28>
 8002146:	f001 fac3 	bl	80036d0 <xTimerCreateTimerTask>
 800214a:	6078      	str	r0, [r7, #4]
 800214c:	687b      	ldr	r3, [r7, #4]
 800214e:	2b01      	cmp	r3, #1
 8002150:	d116      	bne.n	8002180 <vTaskStartScheduler+0x5c>
 8002152:	f04f 0350 	mov.w	r3, #80	; 0x50
 8002156:	f383 8811 	msr	BASEPRI, r3
 800215a:	f3bf 8f6f 	isb	sy
 800215e:	f3bf 8f4f 	dsb	sy
 8002162:	603b      	str	r3, [r7, #0]
 8002164:	bf00      	nop
 8002166:	4b11      	ldr	r3, [pc, #68]	; (80021ac <vTaskStartScheduler+0x88>)
 8002168:	f04f 32ff 	mov.w	r2, #4294967295
 800216c:	601a      	str	r2, [r3, #0]
 800216e:	4b10      	ldr	r3, [pc, #64]	; (80021b0 <vTaskStartScheduler+0x8c>)
 8002170:	2201      	movs	r2, #1
 8002172:	601a      	str	r2, [r3, #0]
 8002174:	4b0f      	ldr	r3, [pc, #60]	; (80021b4 <vTaskStartScheduler+0x90>)
 8002176:	2200      	movs	r2, #0
 8002178:	601a      	str	r2, [r3, #0]
 800217a:	f001 f913 	bl	80033a4 <xPortStartScheduler>
 800217e:	e008      	b.n	8002192 <vTaskStartScheduler+0x6e>
 8002180:	687b      	ldr	r3, [r7, #4]
 8002182:	f1b3 3fff 	cmp.w	r3, #4294967295
 8002186:	d104      	bne.n	8002192 <vTaskStartScheduler+0x6e>
 8002188:	490b      	ldr	r1, [pc, #44]	; (80021b8 <vTaskStartScheduler+0x94>)
 800218a:	f44f 6001 	mov.w	r0, #2064	; 0x810
 800218e:	f003 fe9a 	bl	8005ec6 <vAssertCalled>
 8002192:	4b0a      	ldr	r3, [pc, #40]	; (80021bc <vTaskStartScheduler+0x98>)
 8002194:	681b      	ldr	r3, [r3, #0]
 8002196:	bf00      	nop
 8002198:	3708      	adds	r7, #8
 800219a:	46bd      	mov	sp, r7
 800219c:	bd80      	pop	{r7, pc}
 800219e:	bf00      	nop
 80021a0:	2000011c 	.word	0x2000011c
 80021a4:	0800a040 	.word	0x0800a040
 80021a8:	08002a81 	.word	0x08002a81
 80021ac:	20000118 	.word	0x20000118
 80021b0:	20000104 	.word	0x20000104
 80021b4:	200000fc 	.word	0x200000fc
 80021b8:	0800a028 	.word	0x0800a028
 80021bc:	20000000 	.word	0x20000000

080021c0 <vTaskSuspendAll>:
 80021c0:	b480      	push	{r7}
 80021c2:	af00      	add	r7, sp, #0
 80021c4:	4b04      	ldr	r3, [pc, #16]	; (80021d8 <vTaskSuspendAll+0x18>)
 80021c6:	681b      	ldr	r3, [r3, #0]
 80021c8:	3301      	adds	r3, #1
 80021ca:	4a03      	ldr	r2, [pc, #12]	; (80021d8 <vTaskSuspendAll+0x18>)
 80021cc:	6013      	str	r3, [r2, #0]
 80021ce:	bf00      	nop
 80021d0:	46bd      	mov	sp, r7
 80021d2:	f85d 7b04 	ldr.w	r7, [sp], #4
 80021d6:	4770      	bx	lr
 80021d8:	20000120 	.word	0x20000120

080021dc <xTaskResumeAll>:
 80021dc:	b580      	push	{r7, lr}
 80021de:	b086      	sub	sp, #24
 80021e0:	af00      	add	r7, sp, #0
 80021e2:	2300      	movs	r3, #0
 80021e4:	617b      	str	r3, [r7, #20]
 80021e6:	2300      	movs	r3, #0
 80021e8:	613b      	str	r3, [r7, #16]
 80021ea:	4b6e      	ldr	r3, [pc, #440]	; (80023a4 <xTaskResumeAll+0x1c8>)
 80021ec:	681b      	ldr	r3, [r3, #0]
 80021ee:	2b00      	cmp	r3, #0
 80021f0:	d104      	bne.n	80021fc <xTaskResumeAll+0x20>
 80021f2:	496d      	ldr	r1, [pc, #436]	; (80023a8 <xTaskResumeAll+0x1cc>)
 80021f4:	f640 0083 	movw	r0, #2179	; 0x883
 80021f8:	f003 fe65 	bl	8005ec6 <vAssertCalled>
 80021fc:	f001 f964 	bl	80034c8 <vPortEnterCritical>
 8002200:	4b68      	ldr	r3, [pc, #416]	; (80023a4 <xTaskResumeAll+0x1c8>)
 8002202:	681b      	ldr	r3, [r3, #0]
 8002204:	3b01      	subs	r3, #1
 8002206:	4a67      	ldr	r2, [pc, #412]	; (80023a4 <xTaskResumeAll+0x1c8>)
 8002208:	6013      	str	r3, [r2, #0]
 800220a:	4b66      	ldr	r3, [pc, #408]	; (80023a4 <xTaskResumeAll+0x1c8>)
 800220c:	681b      	ldr	r3, [r3, #0]
 800220e:	2b00      	cmp	r3, #0
 8002210:	f040 80c0 	bne.w	8002394 <xTaskResumeAll+0x1b8>
 8002214:	4b65      	ldr	r3, [pc, #404]	; (80023ac <xTaskResumeAll+0x1d0>)
 8002216:	681b      	ldr	r3, [r3, #0]
 8002218:	2b00      	cmp	r3, #0
 800221a:	f000 80bb 	beq.w	8002394 <xTaskResumeAll+0x1b8>
 800221e:	e08a      	b.n	8002336 <xTaskResumeAll+0x15a>
 8002220:	4b63      	ldr	r3, [pc, #396]	; (80023b0 <xTaskResumeAll+0x1d4>)
 8002222:	68db      	ldr	r3, [r3, #12]
 8002224:	68db      	ldr	r3, [r3, #12]
 8002226:	617b      	str	r3, [r7, #20]
 8002228:	697b      	ldr	r3, [r7, #20]
 800222a:	6a9b      	ldr	r3, [r3, #40]	; 0x28
 800222c:	60bb      	str	r3, [r7, #8]
 800222e:	697b      	ldr	r3, [r7, #20]
 8002230:	69db      	ldr	r3, [r3, #28]
 8002232:	697a      	ldr	r2, [r7, #20]
 8002234:	6a12      	ldr	r2, [r2, #32]
 8002236:	609a      	str	r2, [r3, #8]
 8002238:	697b      	ldr	r3, [r7, #20]
 800223a:	6a1b      	ldr	r3, [r3, #32]
 800223c:	697a      	ldr	r2, [r7, #20]
 800223e:	69d2      	ldr	r2, [r2, #28]
 8002240:	605a      	str	r2, [r3, #4]
 8002242:	68bb      	ldr	r3, [r7, #8]
 8002244:	685a      	ldr	r2, [r3, #4]
 8002246:	697b      	ldr	r3, [r7, #20]
 8002248:	3318      	adds	r3, #24
 800224a:	429a      	cmp	r2, r3
 800224c:	d103      	bne.n	8002256 <xTaskResumeAll+0x7a>
 800224e:	697b      	ldr	r3, [r7, #20]
 8002250:	6a1a      	ldr	r2, [r3, #32]
 8002252:	68bb      	ldr	r3, [r7, #8]
 8002254:	605a      	str	r2, [r3, #4]
 8002256:	697b      	ldr	r3, [r7, #20]
 8002258:	2200      	movs	r2, #0
 800225a:	629a      	str	r2, [r3, #40]	; 0x28
 800225c:	68bb      	ldr	r3, [r7, #8]
 800225e:	681b      	ldr	r3, [r3, #0]
 8002260:	1e5a      	subs	r2, r3, #1
 8002262:	68bb      	ldr	r3, [r7, #8]
 8002264:	601a      	str	r2, [r3, #0]
 8002266:	697b      	ldr	r3, [r7, #20]
 8002268:	695b      	ldr	r3, [r3, #20]
 800226a:	607b      	str	r3, [r7, #4]
 800226c:	697b      	ldr	r3, [r7, #20]
 800226e:	689b      	ldr	r3, [r3, #8]
 8002270:	697a      	ldr	r2, [r7, #20]
 8002272:	68d2      	ldr	r2, [r2, #12]
 8002274:	609a      	str	r2, [r3, #8]
 8002276:	697b      	ldr	r3, [r7, #20]
 8002278:	68db      	ldr	r3, [r3, #12]
 800227a:	697a      	ldr	r2, [r7, #20]
 800227c:	6892      	ldr	r2, [r2, #8]
 800227e:	605a      	str	r2, [r3, #4]
 8002280:	687b      	ldr	r3, [r7, #4]
 8002282:	685a      	ldr	r2, [r3, #4]
 8002284:	697b      	ldr	r3, [r7, #20]
 8002286:	3304      	adds	r3, #4
 8002288:	429a      	cmp	r2, r3
 800228a:	d103      	bne.n	8002294 <xTaskResumeAll+0xb8>
 800228c:	697b      	ldr	r3, [r7, #20]
 800228e:	68da      	ldr	r2, [r3, #12]
 8002290:	687b      	ldr	r3, [r7, #4]
 8002292:	605a      	str	r2, [r3, #4]
 8002294:	697b      	ldr	r3, [r7, #20]
 8002296:	2200      	movs	r2, #0
 8002298:	615a      	str	r2, [r3, #20]
 800229a:	687b      	ldr	r3, [r7, #4]
 800229c:	681b      	ldr	r3, [r3, #0]
 800229e:	1e5a      	subs	r2, r3, #1
 80022a0:	687b      	ldr	r3, [r7, #4]
 80022a2:	601a      	str	r2, [r3, #0]
 80022a4:	697b      	ldr	r3, [r7, #20]
 80022a6:	6adb      	ldr	r3, [r3, #44]	; 0x2c
 80022a8:	2201      	movs	r2, #1
 80022aa:	409a      	lsls	r2, r3
 80022ac:	4b41      	ldr	r3, [pc, #260]	; (80023b4 <xTaskResumeAll+0x1d8>)
 80022ae:	681b      	ldr	r3, [r3, #0]
 80022b0:	4313      	orrs	r3, r2
 80022b2:	4a40      	ldr	r2, [pc, #256]	; (80023b4 <xTaskResumeAll+0x1d8>)
 80022b4:	6013      	str	r3, [r2, #0]
 80022b6:	697b      	ldr	r3, [r7, #20]
 80022b8:	6ada      	ldr	r2, [r3, #44]	; 0x2c
 80022ba:	493f      	ldr	r1, [pc, #252]	; (80023b8 <xTaskResumeAll+0x1dc>)
 80022bc:	4613      	mov	r3, r2
 80022be:	009b      	lsls	r3, r3, #2
 80022c0:	4413      	add	r3, r2
 80022c2:	009b      	lsls	r3, r3, #2
 80022c4:	440b      	add	r3, r1
 80022c6:	3304      	adds	r3, #4
 80022c8:	681b      	ldr	r3, [r3, #0]
 80022ca:	603b      	str	r3, [r7, #0]
 80022cc:	697b      	ldr	r3, [r7, #20]
 80022ce:	683a      	ldr	r2, [r7, #0]
 80022d0:	609a      	str	r2, [r3, #8]
 80022d2:	683b      	ldr	r3, [r7, #0]
 80022d4:	689a      	ldr	r2, [r3, #8]
 80022d6:	697b      	ldr	r3, [r7, #20]
 80022d8:	60da      	str	r2, [r3, #12]
 80022da:	683b      	ldr	r3, [r7, #0]
 80022dc:	689b      	ldr	r3, [r3, #8]
 80022de:	697a      	ldr	r2, [r7, #20]
 80022e0:	3204      	adds	r2, #4
 80022e2:	605a      	str	r2, [r3, #4]
 80022e4:	697b      	ldr	r3, [r7, #20]
 80022e6:	1d1a      	adds	r2, r3, #4
 80022e8:	683b      	ldr	r3, [r7, #0]
 80022ea:	609a      	str	r2, [r3, #8]
 80022ec:	697b      	ldr	r3, [r7, #20]
 80022ee:	6ada      	ldr	r2, [r3, #44]	; 0x2c
 80022f0:	4613      	mov	r3, r2
 80022f2:	009b      	lsls	r3, r3, #2
 80022f4:	4413      	add	r3, r2
 80022f6:	009b      	lsls	r3, r3, #2
 80022f8:	4a2f      	ldr	r2, [pc, #188]	; (80023b8 <xTaskResumeAll+0x1dc>)
 80022fa:	441a      	add	r2, r3
 80022fc:	697b      	ldr	r3, [r7, #20]
 80022fe:	615a      	str	r2, [r3, #20]
 8002300:	697b      	ldr	r3, [r7, #20]
 8002302:	6ada      	ldr	r2, [r3, #44]	; 0x2c
 8002304:	492c      	ldr	r1, [pc, #176]	; (80023b8 <xTaskResumeAll+0x1dc>)
 8002306:	4613      	mov	r3, r2
 8002308:	009b      	lsls	r3, r3, #2
 800230a:	4413      	add	r3, r2
 800230c:	009b      	lsls	r3, r3, #2
 800230e:	440b      	add	r3, r1
 8002310:	681b      	ldr	r3, [r3, #0]
 8002312:	1c59      	adds	r1, r3, #1
 8002314:	4828      	ldr	r0, [pc, #160]	; (80023b8 <xTaskResumeAll+0x1dc>)
 8002316:	4613      	mov	r3, r2
 8002318:	009b      	lsls	r3, r3, #2
 800231a:	4413      	add	r3, r2
 800231c:	009b      	lsls	r3, r3, #2
 800231e:	4403      	add	r3, r0
 8002320:	6019      	str	r1, [r3, #0]
 8002322:	697b      	ldr	r3, [r7, #20]
 8002324:	6ada      	ldr	r2, [r3, #44]	; 0x2c
 8002326:	4b25      	ldr	r3, [pc, #148]	; (80023bc <xTaskResumeAll+0x1e0>)
 8002328:	681b      	ldr	r3, [r3, #0]
 800232a:	6adb      	ldr	r3, [r3, #44]	; 0x2c
 800232c:	429a      	cmp	r2, r3
 800232e:	d302      	bcc.n	8002336 <xTaskResumeAll+0x15a>
 8002330:	4b23      	ldr	r3, [pc, #140]	; (80023c0 <xTaskResumeAll+0x1e4>)
 8002332:	2201      	movs	r2, #1
 8002334:	601a      	str	r2, [r3, #0]
 8002336:	4b1e      	ldr	r3, [pc, #120]	; (80023b0 <xTaskResumeAll+0x1d4>)
 8002338:	681b      	ldr	r3, [r3, #0]
 800233a:	2b00      	cmp	r3, #0
 800233c:	f47f af70 	bne.w	8002220 <xTaskResumeAll+0x44>
 8002340:	697b      	ldr	r3, [r7, #20]
 8002342:	2b00      	cmp	r3, #0
 8002344:	d001      	beq.n	800234a <xTaskResumeAll+0x16e>
 8002346:	f000 fc31 	bl	8002bac <prvResetNextTaskUnblockTime>
 800234a:	4b1e      	ldr	r3, [pc, #120]	; (80023c4 <xTaskResumeAll+0x1e8>)
 800234c:	681b      	ldr	r3, [r3, #0]
 800234e:	60fb      	str	r3, [r7, #12]
 8002350:	68fb      	ldr	r3, [r7, #12]
 8002352:	2b00      	cmp	r3, #0
 8002354:	d010      	beq.n	8002378 <xTaskResumeAll+0x19c>
 8002356:	f000 f855 	bl	8002404 <xTaskIncrementTick>
 800235a:	4603      	mov	r3, r0
 800235c:	2b00      	cmp	r3, #0
 800235e:	d002      	beq.n	8002366 <xTaskResumeAll+0x18a>
 8002360:	4b17      	ldr	r3, [pc, #92]	; (80023c0 <xTaskResumeAll+0x1e4>)
 8002362:	2201      	movs	r2, #1
 8002364:	601a      	str	r2, [r3, #0]
 8002366:	68fb      	ldr	r3, [r7, #12]
 8002368:	3b01      	subs	r3, #1
 800236a:	60fb      	str	r3, [r7, #12]
 800236c:	68fb      	ldr	r3, [r7, #12]
 800236e:	2b00      	cmp	r3, #0
 8002370:	d1f1      	bne.n	8002356 <xTaskResumeAll+0x17a>
 8002372:	4b14      	ldr	r3, [pc, #80]	; (80023c4 <xTaskResumeAll+0x1e8>)
 8002374:	2200      	movs	r2, #0
 8002376:	601a      	str	r2, [r3, #0]
 8002378:	4b11      	ldr	r3, [pc, #68]	; (80023c0 <xTaskResumeAll+0x1e4>)
 800237a:	681b      	ldr	r3, [r3, #0]
 800237c:	2b00      	cmp	r3, #0
 800237e:	d009      	beq.n	8002394 <xTaskResumeAll+0x1b8>
 8002380:	2301      	movs	r3, #1
 8002382:	613b      	str	r3, [r7, #16]
 8002384:	4b10      	ldr	r3, [pc, #64]	; (80023c8 <xTaskResumeAll+0x1ec>)
 8002386:	f04f 5280 	mov.w	r2, #268435456	; 0x10000000
 800238a:	601a      	str	r2, [r3, #0]
 800238c:	f3bf 8f4f 	dsb	sy
 8002390:	f3bf 8f6f 	isb	sy
 8002394:	f001 f8c2 	bl	800351c <vPortExitCritical>
 8002398:	693b      	ldr	r3, [r7, #16]
 800239a:	4618      	mov	r0, r3
 800239c:	3718      	adds	r7, #24
 800239e:	46bd      	mov	sp, r7
 80023a0:	bd80      	pop	{r7, pc}
 80023a2:	bf00      	nop
 80023a4:	20000120 	.word	0x20000120
 80023a8:	0800a028 	.word	0x0800a028
 80023ac:	200000f8 	.word	0x200000f8
 80023b0:	200000b8 	.word	0x200000b8
 80023b4:	20000100 	.word	0x20000100
 80023b8:	20000024 	.word	0x20000024
 80023bc:	20000020 	.word	0x20000020
 80023c0:	2000010c 	.word	0x2000010c
 80023c4:	20000108 	.word	0x20000108
 80023c8:	e000ed04 	.word	0xe000ed04

080023cc <xTaskGetTickCount>:
 80023cc:	b480      	push	{r7}
 80023ce:	b083      	sub	sp, #12
 80023d0:	af00      	add	r7, sp, #0
 80023d2:	4b05      	ldr	r3, [pc, #20]	; (80023e8 <xTaskGetTickCount+0x1c>)
 80023d4:	681b      	ldr	r3, [r3, #0]
 80023d6:	607b      	str	r3, [r7, #4]
 80023d8:	687b      	ldr	r3, [r7, #4]
 80023da:	4618      	mov	r0, r3
 80023dc:	370c      	adds	r7, #12
 80023de:	46bd      	mov	sp, r7
 80023e0:	f85d 7b04 	ldr.w	r7, [sp], #4
 80023e4:	4770      	bx	lr
 80023e6:	bf00      	nop
 80023e8:	200000fc 	.word	0x200000fc

080023ec <uxTaskGetNumberOfTasks>:
 80023ec:	b480      	push	{r7}
 80023ee:	af00      	add	r7, sp, #0
 80023f0:	4b03      	ldr	r3, [pc, #12]	; (8002400 <uxTaskGetNumberOfTasks+0x14>)
 80023f2:	681b      	ldr	r3, [r3, #0]
 80023f4:	4618      	mov	r0, r3
 80023f6:	46bd      	mov	sp, r7
 80023f8:	f85d 7b04 	ldr.w	r7, [sp], #4
 80023fc:	4770      	bx	lr
 80023fe:	bf00      	nop
 8002400:	200000f8 	.word	0x200000f8

08002404 <xTaskIncrementTick>:
 8002404:	b580      	push	{r7, lr}
 8002406:	b088      	sub	sp, #32
 8002408:	af00      	add	r7, sp, #0
 800240a:	2300      	movs	r3, #0
 800240c:	61fb      	str	r3, [r7, #28]
 800240e:	4b7a      	ldr	r3, [pc, #488]	; (80025f8 <xTaskIncrementTick+0x1f4>)
 8002410:	681b      	ldr	r3, [r3, #0]
 8002412:	2b00      	cmp	r3, #0
 8002414:	f040 80e6 	bne.w	80025e4 <xTaskIncrementTick+0x1e0>
 8002418:	4b78      	ldr	r3, [pc, #480]	; (80025fc <xTaskIncrementTick+0x1f8>)
 800241a:	681b      	ldr	r3, [r3, #0]
 800241c:	3301      	adds	r3, #1
 800241e:	61bb      	str	r3, [r7, #24]
 8002420:	4a76      	ldr	r2, [pc, #472]	; (80025fc <xTaskIncrementTick+0x1f8>)
 8002422:	69bb      	ldr	r3, [r7, #24]
 8002424:	6013      	str	r3, [r2, #0]
 8002426:	69bb      	ldr	r3, [r7, #24]
 8002428:	2b00      	cmp	r3, #0
 800242a:	d11a      	bne.n	8002462 <xTaskIncrementTick+0x5e>
 800242c:	4b74      	ldr	r3, [pc, #464]	; (8002600 <xTaskIncrementTick+0x1fc>)
 800242e:	681b      	ldr	r3, [r3, #0]
 8002430:	681b      	ldr	r3, [r3, #0]
 8002432:	2b00      	cmp	r3, #0
 8002434:	d004      	beq.n	8002440 <xTaskIncrementTick+0x3c>
 8002436:	4973      	ldr	r1, [pc, #460]	; (8002604 <xTaskIncrementTick+0x200>)
 8002438:	f640 20b3 	movw	r0, #2739	; 0xab3
 800243c:	f003 fd43 	bl	8005ec6 <vAssertCalled>
 8002440:	4b6f      	ldr	r3, [pc, #444]	; (8002600 <xTaskIncrementTick+0x1fc>)
 8002442:	681b      	ldr	r3, [r3, #0]
 8002444:	617b      	str	r3, [r7, #20]
 8002446:	4b70      	ldr	r3, [pc, #448]	; (8002608 <xTaskIncrementTick+0x204>)
 8002448:	681b      	ldr	r3, [r3, #0]
 800244a:	4a6d      	ldr	r2, [pc, #436]	; (8002600 <xTaskIncrementTick+0x1fc>)
 800244c:	6013      	str	r3, [r2, #0]
 800244e:	4a6e      	ldr	r2, [pc, #440]	; (8002608 <xTaskIncrementTick+0x204>)
 8002450:	697b      	ldr	r3, [r7, #20]
 8002452:	6013      	str	r3, [r2, #0]
 8002454:	4b6d      	ldr	r3, [pc, #436]	; (800260c <xTaskIncrementTick+0x208>)
 8002456:	681b      	ldr	r3, [r3, #0]
 8002458:	3301      	adds	r3, #1
 800245a:	4a6c      	ldr	r2, [pc, #432]	; (800260c <xTaskIncrementTick+0x208>)
 800245c:	6013      	str	r3, [r2, #0]
 800245e:	f000 fba5 	bl	8002bac <prvResetNextTaskUnblockTime>
 8002462:	4b6b      	ldr	r3, [pc, #428]	; (8002610 <xTaskIncrementTick+0x20c>)
 8002464:	681b      	ldr	r3, [r3, #0]
 8002466:	69ba      	ldr	r2, [r7, #24]
 8002468:	429a      	cmp	r2, r3
 800246a:	f0c0 80a6 	bcc.w	80025ba <xTaskIncrementTick+0x1b6>
 800246e:	4b64      	ldr	r3, [pc, #400]	; (8002600 <xTaskIncrementTick+0x1fc>)
 8002470:	681b      	ldr	r3, [r3, #0]
 8002472:	681b      	ldr	r3, [r3, #0]
 8002474:	2b00      	cmp	r3, #0
 8002476:	d104      	bne.n	8002482 <xTaskIncrementTick+0x7e>
 8002478:	4b65      	ldr	r3, [pc, #404]	; (8002610 <xTaskIncrementTick+0x20c>)
 800247a:	f04f 32ff 	mov.w	r2, #4294967295
 800247e:	601a      	str	r2, [r3, #0]
 8002480:	e09b      	b.n	80025ba <xTaskIncrementTick+0x1b6>
 8002482:	4b5f      	ldr	r3, [pc, #380]	; (8002600 <xTaskIncrementTick+0x1fc>)
 8002484:	681b      	ldr	r3, [r3, #0]
 8002486:	68db      	ldr	r3, [r3, #12]
 8002488:	68db      	ldr	r3, [r3, #12]
 800248a:	613b      	str	r3, [r7, #16]
 800248c:	693b      	ldr	r3, [r7, #16]
 800248e:	685b      	ldr	r3, [r3, #4]
 8002490:	60fb      	str	r3, [r7, #12]
 8002492:	69ba      	ldr	r2, [r7, #24]
 8002494:	68fb      	ldr	r3, [r7, #12]
 8002496:	429a      	cmp	r2, r3
 8002498:	d203      	bcs.n	80024a2 <xTaskIncrementTick+0x9e>
 800249a:	4a5d      	ldr	r2, [pc, #372]	; (8002610 <xTaskIncrementTick+0x20c>)
 800249c:	68fb      	ldr	r3, [r7, #12]
 800249e:	6013      	str	r3, [r2, #0]
 80024a0:	e08b      	b.n	80025ba <xTaskIncrementTick+0x1b6>
 80024a2:	693b      	ldr	r3, [r7, #16]
 80024a4:	695b      	ldr	r3, [r3, #20]
 80024a6:	60bb      	str	r3, [r7, #8]
 80024a8:	693b      	ldr	r3, [r7, #16]
 80024aa:	689b      	ldr	r3, [r3, #8]
 80024ac:	693a      	ldr	r2, [r7, #16]
 80024ae:	68d2      	ldr	r2, [r2, #12]
 80024b0:	609a      	str	r2, [r3, #8]
 80024b2:	693b      	ldr	r3, [r7, #16]
 80024b4:	68db      	ldr	r3, [r3, #12]
 80024b6:	693a      	ldr	r2, [r7, #16]
 80024b8:	6892      	ldr	r2, [r2, #8]
 80024ba:	605a      	str	r2, [r3, #4]
 80024bc:	68bb      	ldr	r3, [r7, #8]
 80024be:	685a      	ldr	r2, [r3, #4]
 80024c0:	693b      	ldr	r3, [r7, #16]
 80024c2:	3304      	adds	r3, #4
 80024c4:	429a      	cmp	r2, r3
 80024c6:	d103      	bne.n	80024d0 <xTaskIncrementTick+0xcc>
 80024c8:	693b      	ldr	r3, [r7, #16]
 80024ca:	68da      	ldr	r2, [r3, #12]
 80024cc:	68bb      	ldr	r3, [r7, #8]
 80024ce:	605a      	str	r2, [r3, #4]
 80024d0:	693b      	ldr	r3, [r7, #16]
 80024d2:	2200      	movs	r2, #0
 80024d4:	615a      	str	r2, [r3, #20]
 80024d6:	68bb      	ldr	r3, [r7, #8]
 80024d8:	681b      	ldr	r3, [r3, #0]
 80024da:	1e5a      	subs	r2, r3, #1
 80024dc:	68bb      	ldr	r3, [r7, #8]
 80024de:	601a      	str	r2, [r3, #0]
 80024e0:	693b      	ldr	r3, [r7, #16]
 80024e2:	6a9b      	ldr	r3, [r3, #40]	; 0x28
 80024e4:	2b00      	cmp	r3, #0
 80024e6:	d01e      	beq.n	8002526 <xTaskIncrementTick+0x122>
 80024e8:	693b      	ldr	r3, [r7, #16]
 80024ea:	6a9b      	ldr	r3, [r3, #40]	; 0x28
 80024ec:	607b      	str	r3, [r7, #4]
 80024ee:	693b      	ldr	r3, [r7, #16]
 80024f0:	69db      	ldr	r3, [r3, #28]
 80024f2:	693a      	ldr	r2, [r7, #16]
 80024f4:	6a12      	ldr	r2, [r2, #32]
 80024f6:	609a      	str	r2, [r3, #8]
 80024f8:	693b      	ldr	r3, [r7, #16]
 80024fa:	6a1b      	ldr	r3, [r3, #32]
 80024fc:	693a      	ldr	r2, [r7, #16]
 80024fe:	69d2      	ldr	r2, [r2, #28]
 8002500:	605a      	str	r2, [r3, #4]
 8002502:	687b      	ldr	r3, [r7, #4]
 8002504:	685a      	ldr	r2, [r3, #4]
 8002506:	693b      	ldr	r3, [r7, #16]
 8002508:	3318      	adds	r3, #24
 800250a:	429a      	cmp	r2, r3
 800250c:	d103      	bne.n	8002516 <xTaskIncrementTick+0x112>
 800250e:	693b      	ldr	r3, [r7, #16]
 8002510:	6a1a      	ldr	r2, [r3, #32]
 8002512:	687b      	ldr	r3, [r7, #4]
 8002514:	605a      	str	r2, [r3, #4]
 8002516:	693b      	ldr	r3, [r7, #16]
 8002518:	2200      	movs	r2, #0
 800251a:	629a      	str	r2, [r3, #40]	; 0x28
 800251c:	687b      	ldr	r3, [r7, #4]
 800251e:	681b      	ldr	r3, [r3, #0]
 8002520:	1e5a      	subs	r2, r3, #1
 8002522:	687b      	ldr	r3, [r7, #4]
 8002524:	601a      	str	r2, [r3, #0]
 8002526:	693b      	ldr	r3, [r7, #16]
 8002528:	6adb      	ldr	r3, [r3, #44]	; 0x2c
 800252a:	2201      	movs	r2, #1
 800252c:	409a      	lsls	r2, r3
 800252e:	4b39      	ldr	r3, [pc, #228]	; (8002614 <xTaskIncrementTick+0x210>)
 8002530:	681b      	ldr	r3, [r3, #0]
 8002532:	4313      	orrs	r3, r2
 8002534:	4a37      	ldr	r2, [pc, #220]	; (8002614 <xTaskIncrementTick+0x210>)
 8002536:	6013      	str	r3, [r2, #0]
 8002538:	693b      	ldr	r3, [r7, #16]
 800253a:	6ada      	ldr	r2, [r3, #44]	; 0x2c
 800253c:	4936      	ldr	r1, [pc, #216]	; (8002618 <xTaskIncrementTick+0x214>)
 800253e:	4613      	mov	r3, r2
 8002540:	009b      	lsls	r3, r3, #2
 8002542:	4413      	add	r3, r2
 8002544:	009b      	lsls	r3, r3, #2
 8002546:	440b      	add	r3, r1
 8002548:	3304      	adds	r3, #4
 800254a:	681b      	ldr	r3, [r3, #0]
 800254c:	603b      	str	r3, [r7, #0]
 800254e:	693b      	ldr	r3, [r7, #16]
 8002550:	683a      	ldr	r2, [r7, #0]
 8002552:	609a      	str	r2, [r3, #8]
 8002554:	683b      	ldr	r3, [r7, #0]
 8002556:	689a      	ldr	r2, [r3, #8]
 8002558:	693b      	ldr	r3, [r7, #16]
 800255a:	60da      	str	r2, [r3, #12]
 800255c:	683b      	ldr	r3, [r7, #0]
 800255e:	689b      	ldr	r3, [r3, #8]
 8002560:	693a      	ldr	r2, [r7, #16]
 8002562:	3204      	adds	r2, #4
 8002564:	605a      	str	r2, [r3, #4]
 8002566:	693b      	ldr	r3, [r7, #16]
 8002568:	1d1a      	adds	r2, r3, #4
 800256a:	683b      	ldr	r3, [r7, #0]
 800256c:	609a      	str	r2, [r3, #8]
 800256e:	693b      	ldr	r3, [r7, #16]
 8002570:	6ada      	ldr	r2, [r3, #44]	; 0x2c
 8002572:	4613      	mov	r3, r2
 8002574:	009b      	lsls	r3, r3, #2
 8002576:	4413      	add	r3, r2
 8002578:	009b      	lsls	r3, r3, #2
 800257a:	4a27      	ldr	r2, [pc, #156]	; (8002618 <xTaskIncrementTick+0x214>)
 800257c:	441a      	add	r2, r3
 800257e:	693b      	ldr	r3, [r7, #16]
 8002580:	615a      	str	r2, [r3, #20]
 8002582:	693b      	ldr	r3, [r7, #16]
 8002584:	6ada      	ldr	r2, [r3, #44]	; 0x2c
 8002586:	4924      	ldr	r1, [pc, #144]	; (8002618 <xTaskIncrementTick+0x214>)
 8002588:	4613      	mov	r3, r2
 800258a:	009b      	lsls	r3, r3, #2
 800258c:	4413      	add	r3, r2
 800258e:	009b      	lsls	r3, r3, #2
 8002590:	440b      	add	r3, r1
 8002592:	681b      	ldr	r3, [r3, #0]
 8002594:	1c59      	adds	r1, r3, #1
 8002596:	4820      	ldr	r0, [pc, #128]	; (8002618 <xTaskIncrementTick+0x214>)
 8002598:	4613      	mov	r3, r2
 800259a:	009b      	lsls	r3, r3, #2
 800259c:	4413      	add	r3, r2
 800259e:	009b      	lsls	r3, r3, #2
 80025a0:	4403      	add	r3, r0
 80025a2:	6019      	str	r1, [r3, #0]
 80025a4:	693b      	ldr	r3, [r7, #16]
 80025a6:	6ada      	ldr	r2, [r3, #44]	; 0x2c
 80025a8:	4b1c      	ldr	r3, [pc, #112]	; (800261c <xTaskIncrementTick+0x218>)
 80025aa:	681b      	ldr	r3, [r3, #0]
 80025ac:	6adb      	ldr	r3, [r3, #44]	; 0x2c
 80025ae:	429a      	cmp	r2, r3
 80025b0:	f4ff af5d 	bcc.w	800246e <xTaskIncrementTick+0x6a>
 80025b4:	2301      	movs	r3, #1
 80025b6:	61fb      	str	r3, [r7, #28]
 80025b8:	e759      	b.n	800246e <xTaskIncrementTick+0x6a>
 80025ba:	4b18      	ldr	r3, [pc, #96]	; (800261c <xTaskIncrementTick+0x218>)
 80025bc:	681b      	ldr	r3, [r3, #0]
 80025be:	6ada      	ldr	r2, [r3, #44]	; 0x2c
 80025c0:	4915      	ldr	r1, [pc, #84]	; (8002618 <xTaskIncrementTick+0x214>)
 80025c2:	4613      	mov	r3, r2
 80025c4:	009b      	lsls	r3, r3, #2
 80025c6:	4413      	add	r3, r2
 80025c8:	009b      	lsls	r3, r3, #2
 80025ca:	440b      	add	r3, r1
 80025cc:	681b      	ldr	r3, [r3, #0]
 80025ce:	2b01      	cmp	r3, #1
 80025d0:	d901      	bls.n	80025d6 <xTaskIncrementTick+0x1d2>
 80025d2:	2301      	movs	r3, #1
 80025d4:	61fb      	str	r3, [r7, #28]
 80025d6:	4b12      	ldr	r3, [pc, #72]	; (8002620 <xTaskIncrementTick+0x21c>)
 80025d8:	681b      	ldr	r3, [r3, #0]
 80025da:	2b00      	cmp	r3, #0
 80025dc:	d007      	beq.n	80025ee <xTaskIncrementTick+0x1ea>
 80025de:	2301      	movs	r3, #1
 80025e0:	61fb      	str	r3, [r7, #28]
 80025e2:	e004      	b.n	80025ee <xTaskIncrementTick+0x1ea>
 80025e4:	4b0f      	ldr	r3, [pc, #60]	; (8002624 <xTaskIncrementTick+0x220>)
 80025e6:	681b      	ldr	r3, [r3, #0]
 80025e8:	3301      	adds	r3, #1
 80025ea:	4a0e      	ldr	r2, [pc, #56]	; (8002624 <xTaskIncrementTick+0x220>)
 80025ec:	6013      	str	r3, [r2, #0]
 80025ee:	69fb      	ldr	r3, [r7, #28]
 80025f0:	4618      	mov	r0, r3
 80025f2:	3720      	adds	r7, #32
 80025f4:	46bd      	mov	sp, r7
 80025f6:	bd80      	pop	{r7, pc}
 80025f8:	20000120 	.word	0x20000120
 80025fc:	200000fc 	.word	0x200000fc
 8002600:	200000b0 	.word	0x200000b0
 8002604:	0800a028 	.word	0x0800a028
 8002608:	200000b4 	.word	0x200000b4
 800260c:	20000110 	.word	0x20000110
 8002610:	20000118 	.word	0x20000118
 8002614:	20000100 	.word	0x20000100
 8002618:	20000024 	.word	0x20000024
 800261c:	20000020 	.word	0x20000020
 8002620:	2000010c 	.word	0x2000010c
 8002624:	20000108 	.word	0x20000108

08002628 <vTaskSwitchContext>:
 8002628:	b580      	push	{r7, lr}
 800262a:	b086      	sub	sp, #24
 800262c:	af00      	add	r7, sp, #0
 800262e:	4b36      	ldr	r3, [pc, #216]	; (8002708 <vTaskSwitchContext+0xe0>)
 8002630:	681b      	ldr	r3, [r3, #0]
 8002632:	2b00      	cmp	r3, #0
 8002634:	d003      	beq.n	800263e <vTaskSwitchContext+0x16>
 8002636:	4b35      	ldr	r3, [pc, #212]	; (800270c <vTaskSwitchContext+0xe4>)
 8002638:	2201      	movs	r2, #1
 800263a:	601a      	str	r2, [r3, #0]
 800263c:	e060      	b.n	8002700 <vTaskSwitchContext+0xd8>
 800263e:	4b33      	ldr	r3, [pc, #204]	; (800270c <vTaskSwitchContext+0xe4>)
 8002640:	2200      	movs	r2, #0
 8002642:	601a      	str	r2, [r3, #0]
 8002644:	4b32      	ldr	r3, [pc, #200]	; (8002710 <vTaskSwitchContext+0xe8>)
 8002646:	681b      	ldr	r3, [r3, #0]
 8002648:	6b1b      	ldr	r3, [r3, #48]	; 0x30
 800264a:	617b      	str	r3, [r7, #20]
 800264c:	f04f 33a5 	mov.w	r3, #2779096485	; 0xa5a5a5a5
 8002650:	613b      	str	r3, [r7, #16]
 8002652:	697b      	ldr	r3, [r7, #20]
 8002654:	681b      	ldr	r3, [r3, #0]
 8002656:	693a      	ldr	r2, [r7, #16]
 8002658:	429a      	cmp	r2, r3
 800265a:	d111      	bne.n	8002680 <vTaskSwitchContext+0x58>
 800265c:	697b      	ldr	r3, [r7, #20]
 800265e:	3304      	adds	r3, #4
 8002660:	681b      	ldr	r3, [r3, #0]
 8002662:	693a      	ldr	r2, [r7, #16]
 8002664:	429a      	cmp	r2, r3
 8002666:	d10b      	bne.n	8002680 <vTaskSwitchContext+0x58>
 8002668:	697b      	ldr	r3, [r7, #20]
 800266a:	3308      	adds	r3, #8
 800266c:	681b      	ldr	r3, [r3, #0]
 800266e:	693a      	ldr	r2, [r7, #16]
 8002670:	429a      	cmp	r2, r3
 8002672:	d105      	bne.n	8002680 <vTaskSwitchContext+0x58>
 8002674:	697b      	ldr	r3, [r7, #20]
 8002676:	330c      	adds	r3, #12
 8002678:	681b      	ldr	r3, [r3, #0]
 800267a:	693a      	ldr	r2, [r7, #16]
 800267c:	429a      	cmp	r2, r3
 800267e:	d008      	beq.n	8002692 <vTaskSwitchContext+0x6a>
 8002680:	4b23      	ldr	r3, [pc, #140]	; (8002710 <vTaskSwitchContext+0xe8>)
 8002682:	681a      	ldr	r2, [r3, #0]
 8002684:	4b22      	ldr	r3, [pc, #136]	; (8002710 <vTaskSwitchContext+0xe8>)
 8002686:	681b      	ldr	r3, [r3, #0]
 8002688:	3334      	adds	r3, #52	; 0x34
 800268a:	4619      	mov	r1, r3
 800268c:	4610      	mov	r0, r2
 800268e:	f7ff f8d6 	bl	800183e <vApplicationStackOverflowHook>
 8002692:	4b20      	ldr	r3, [pc, #128]	; (8002714 <vTaskSwitchContext+0xec>)
 8002694:	681b      	ldr	r3, [r3, #0]
 8002696:	607b      	str	r3, [r7, #4]
 8002698:	687b      	ldr	r3, [r7, #4]
 800269a:	fab3 f383 	clz	r3, r3
 800269e:	70fb      	strb	r3, [r7, #3]
 80026a0:	78fb      	ldrb	r3, [r7, #3]
 80026a2:	f1c3 031f 	rsb	r3, r3, #31
 80026a6:	60fb      	str	r3, [r7, #12]
 80026a8:	491b      	ldr	r1, [pc, #108]	; (8002718 <vTaskSwitchContext+0xf0>)
 80026aa:	68fa      	ldr	r2, [r7, #12]
 80026ac:	4613      	mov	r3, r2
 80026ae:	009b      	lsls	r3, r3, #2
 80026b0:	4413      	add	r3, r2
 80026b2:	009b      	lsls	r3, r3, #2
 80026b4:	440b      	add	r3, r1
 80026b6:	681b      	ldr	r3, [r3, #0]
 80026b8:	2b00      	cmp	r3, #0
 80026ba:	d104      	bne.n	80026c6 <vTaskSwitchContext+0x9e>
 80026bc:	4917      	ldr	r1, [pc, #92]	; (800271c <vTaskSwitchContext+0xf4>)
 80026be:	f640 30ee 	movw	r0, #3054	; 0xbee
 80026c2:	f003 fc00 	bl	8005ec6 <vAssertCalled>
 80026c6:	68fa      	ldr	r2, [r7, #12]
 80026c8:	4613      	mov	r3, r2
 80026ca:	009b      	lsls	r3, r3, #2
 80026cc:	4413      	add	r3, r2
 80026ce:	009b      	lsls	r3, r3, #2
 80026d0:	4a11      	ldr	r2, [pc, #68]	; (8002718 <vTaskSwitchContext+0xf0>)
 80026d2:	4413      	add	r3, r2
 80026d4:	60bb      	str	r3, [r7, #8]
 80026d6:	68bb      	ldr	r3, [r7, #8]
 80026d8:	685b      	ldr	r3, [r3, #4]
 80026da:	685a      	ldr	r2, [r3, #4]
 80026dc:	68bb      	ldr	r3, [r7, #8]
 80026de:	605a      	str	r2, [r3, #4]
 80026e0:	68bb      	ldr	r3, [r7, #8]
 80026e2:	685a      	ldr	r2, [r3, #4]
 80026e4:	68bb      	ldr	r3, [r7, #8]
 80026e6:	3308      	adds	r3, #8
 80026e8:	429a      	cmp	r2, r3
 80026ea:	d104      	bne.n	80026f6 <vTaskSwitchContext+0xce>
 80026ec:	68bb      	ldr	r3, [r7, #8]
 80026ee:	685b      	ldr	r3, [r3, #4]
 80026f0:	685a      	ldr	r2, [r3, #4]
 80026f2:	68bb      	ldr	r3, [r7, #8]
 80026f4:	605a      	str	r2, [r3, #4]
 80026f6:	68bb      	ldr	r3, [r7, #8]
 80026f8:	685b      	ldr	r3, [r3, #4]
 80026fa:	68db      	ldr	r3, [r3, #12]
 80026fc:	4a04      	ldr	r2, [pc, #16]	; (8002710 <vTaskSwitchContext+0xe8>)
 80026fe:	6013      	str	r3, [r2, #0]
 8002700:	bf00      	nop
 8002702:	3718      	adds	r7, #24
 8002704:	46bd      	mov	sp, r7
 8002706:	bd80      	pop	{r7, pc}
 8002708:	20000120 	.word	0x20000120
 800270c:	2000010c 	.word	0x2000010c
 8002710:	20000020 	.word	0x20000020
 8002714:	20000100 	.word	0x20000100
 8002718:	20000024 	.word	0x20000024
 800271c:	0800a028 	.word	0x0800a028

08002720 <vTaskPlaceOnEventList>:
 8002720:	b580      	push	{r7, lr}
 8002722:	b082      	sub	sp, #8
 8002724:	af00      	add	r7, sp, #0
 8002726:	6078      	str	r0, [r7, #4]
 8002728:	6039      	str	r1, [r7, #0]
 800272a:	687b      	ldr	r3, [r7, #4]
 800272c:	2b00      	cmp	r3, #0
 800272e:	d104      	bne.n	800273a <vTaskPlaceOnEventList+0x1a>
 8002730:	4909      	ldr	r1, [pc, #36]	; (8002758 <vTaskPlaceOnEventList+0x38>)
 8002732:	f640 4006 	movw	r0, #3078	; 0xc06
 8002736:	f003 fbc6 	bl	8005ec6 <vAssertCalled>
 800273a:	4b08      	ldr	r3, [pc, #32]	; (800275c <vTaskPlaceOnEventList+0x3c>)
 800273c:	681b      	ldr	r3, [r3, #0]
 800273e:	3318      	adds	r3, #24
 8002740:	4619      	mov	r1, r3
 8002742:	6878      	ldr	r0, [r7, #4]
 8002744:	f000 fd45 	bl	80031d2 <vListInsert>
 8002748:	2101      	movs	r1, #1
 800274a:	6838      	ldr	r0, [r7, #0]
 800274c:	f000 fc70 	bl	8003030 <prvAddCurrentTaskToDelayedList>
 8002750:	bf00      	nop
 8002752:	3708      	adds	r7, #8
 8002754:	46bd      	mov	sp, r7
 8002756:	bd80      	pop	{r7, pc}
 8002758:	0800a028 	.word	0x0800a028
 800275c:	20000020 	.word	0x20000020

08002760 <vTaskPlaceOnEventListRestricted>:
 8002760:	b580      	push	{r7, lr}
 8002762:	b086      	sub	sp, #24
 8002764:	af00      	add	r7, sp, #0
 8002766:	60f8      	str	r0, [r7, #12]
 8002768:	60b9      	str	r1, [r7, #8]
 800276a:	607a      	str	r2, [r7, #4]
 800276c:	68fb      	ldr	r3, [r7, #12]
 800276e:	2b00      	cmp	r3, #0
 8002770:	d104      	bne.n	800277c <vTaskPlaceOnEventListRestricted+0x1c>
 8002772:	491a      	ldr	r1, [pc, #104]	; (80027dc <vTaskPlaceOnEventListRestricted+0x7c>)
 8002774:	f640 403c 	movw	r0, #3132	; 0xc3c
 8002778:	f003 fba5 	bl	8005ec6 <vAssertCalled>
 800277c:	68fb      	ldr	r3, [r7, #12]
 800277e:	685b      	ldr	r3, [r3, #4]
 8002780:	617b      	str	r3, [r7, #20]
 8002782:	4b17      	ldr	r3, [pc, #92]	; (80027e0 <vTaskPlaceOnEventListRestricted+0x80>)
 8002784:	681b      	ldr	r3, [r3, #0]
 8002786:	697a      	ldr	r2, [r7, #20]
 8002788:	61da      	str	r2, [r3, #28]
 800278a:	4b15      	ldr	r3, [pc, #84]	; (80027e0 <vTaskPlaceOnEventListRestricted+0x80>)
 800278c:	681b      	ldr	r3, [r3, #0]
 800278e:	697a      	ldr	r2, [r7, #20]
 8002790:	6892      	ldr	r2, [r2, #8]
 8002792:	621a      	str	r2, [r3, #32]
 8002794:	4b12      	ldr	r3, [pc, #72]	; (80027e0 <vTaskPlaceOnEventListRestricted+0x80>)
 8002796:	681a      	ldr	r2, [r3, #0]
 8002798:	697b      	ldr	r3, [r7, #20]
 800279a:	689b      	ldr	r3, [r3, #8]
 800279c:	3218      	adds	r2, #24
 800279e:	605a      	str	r2, [r3, #4]
 80027a0:	4b0f      	ldr	r3, [pc, #60]	; (80027e0 <vTaskPlaceOnEventListRestricted+0x80>)
 80027a2:	681b      	ldr	r3, [r3, #0]
 80027a4:	f103 0218 	add.w	r2, r3, #24
 80027a8:	697b      	ldr	r3, [r7, #20]
 80027aa:	609a      	str	r2, [r3, #8]
 80027ac:	4b0c      	ldr	r3, [pc, #48]	; (80027e0 <vTaskPlaceOnEventListRestricted+0x80>)
 80027ae:	681b      	ldr	r3, [r3, #0]
 80027b0:	68fa      	ldr	r2, [r7, #12]
 80027b2:	629a      	str	r2, [r3, #40]	; 0x28
 80027b4:	68fb      	ldr	r3, [r7, #12]
 80027b6:	681b      	ldr	r3, [r3, #0]
 80027b8:	1c5a      	adds	r2, r3, #1
 80027ba:	68fb      	ldr	r3, [r7, #12]
 80027bc:	601a      	str	r2, [r3, #0]
 80027be:	687b      	ldr	r3, [r7, #4]
 80027c0:	2b00      	cmp	r3, #0
 80027c2:	d002      	beq.n	80027ca <vTaskPlaceOnEventListRestricted+0x6a>
 80027c4:	f04f 33ff 	mov.w	r3, #4294967295
 80027c8:	60bb      	str	r3, [r7, #8]
 80027ca:	6879      	ldr	r1, [r7, #4]
 80027cc:	68b8      	ldr	r0, [r7, #8]
 80027ce:	f000 fc2f 	bl	8003030 <prvAddCurrentTaskToDelayedList>
 80027d2:	bf00      	nop
 80027d4:	3718      	adds	r7, #24
 80027d6:	46bd      	mov	sp, r7
 80027d8:	bd80      	pop	{r7, pc}
 80027da:	bf00      	nop
 80027dc:	0800a028 	.word	0x0800a028
 80027e0:	20000020 	.word	0x20000020

080027e4 <xTaskRemoveFromEventList>:
 80027e4:	b580      	push	{r7, lr}
 80027e6:	b088      	sub	sp, #32
 80027e8:	af00      	add	r7, sp, #0
 80027ea:	6078      	str	r0, [r7, #4]
 80027ec:	687b      	ldr	r3, [r7, #4]
 80027ee:	68db      	ldr	r3, [r3, #12]
 80027f0:	68db      	ldr	r3, [r3, #12]
 80027f2:	61bb      	str	r3, [r7, #24]
 80027f4:	69bb      	ldr	r3, [r7, #24]
 80027f6:	2b00      	cmp	r3, #0
 80027f8:	d104      	bne.n	8002804 <xTaskRemoveFromEventList+0x20>
 80027fa:	495b      	ldr	r1, [pc, #364]	; (8002968 <xTaskRemoveFromEventList+0x184>)
 80027fc:	f640 406c 	movw	r0, #3180	; 0xc6c
 8002800:	f003 fb61 	bl	8005ec6 <vAssertCalled>
 8002804:	69bb      	ldr	r3, [r7, #24]
 8002806:	6a9b      	ldr	r3, [r3, #40]	; 0x28
 8002808:	617b      	str	r3, [r7, #20]
 800280a:	69bb      	ldr	r3, [r7, #24]
 800280c:	69db      	ldr	r3, [r3, #28]
 800280e:	69ba      	ldr	r2, [r7, #24]
 8002810:	6a12      	ldr	r2, [r2, #32]
 8002812:	609a      	str	r2, [r3, #8]
 8002814:	69bb      	ldr	r3, [r7, #24]
 8002816:	6a1b      	ldr	r3, [r3, #32]
 8002818:	69ba      	ldr	r2, [r7, #24]
 800281a:	69d2      	ldr	r2, [r2, #28]
 800281c:	605a      	str	r2, [r3, #4]
 800281e:	697b      	ldr	r3, [r7, #20]
 8002820:	685a      	ldr	r2, [r3, #4]
 8002822:	69bb      	ldr	r3, [r7, #24]
 8002824:	3318      	adds	r3, #24
 8002826:	429a      	cmp	r2, r3
 8002828:	d103      	bne.n	8002832 <xTaskRemoveFromEventList+0x4e>
 800282a:	69bb      	ldr	r3, [r7, #24]
 800282c:	6a1a      	ldr	r2, [r3, #32]
 800282e:	697b      	ldr	r3, [r7, #20]
 8002830:	605a      	str	r2, [r3, #4]
 8002832:	69bb      	ldr	r3, [r7, #24]
 8002834:	2200      	movs	r2, #0
 8002836:	629a      	str	r2, [r3, #40]	; 0x28
 8002838:	697b      	ldr	r3, [r7, #20]
 800283a:	681b      	ldr	r3, [r3, #0]
 800283c:	1e5a      	subs	r2, r3, #1
 800283e:	697b      	ldr	r3, [r7, #20]
 8002840:	601a      	str	r2, [r3, #0]
 8002842:	4b4a      	ldr	r3, [pc, #296]	; (800296c <xTaskRemoveFromEventList+0x188>)
 8002844:	681b      	ldr	r3, [r3, #0]
 8002846:	2b00      	cmp	r3, #0
 8002848:	d15e      	bne.n	8002908 <xTaskRemoveFromEventList+0x124>
 800284a:	69bb      	ldr	r3, [r7, #24]
 800284c:	695b      	ldr	r3, [r3, #20]
 800284e:	60fb      	str	r3, [r7, #12]
 8002850:	69bb      	ldr	r3, [r7, #24]
 8002852:	689b      	ldr	r3, [r3, #8]
 8002854:	69ba      	ldr	r2, [r7, #24]
 8002856:	68d2      	ldr	r2, [r2, #12]
 8002858:	609a      	str	r2, [r3, #8]
 800285a:	69bb      	ldr	r3, [r7, #24]
 800285c:	68db      	ldr	r3, [r3, #12]
 800285e:	69ba      	ldr	r2, [r7, #24]
 8002860:	6892      	ldr	r2, [r2, #8]
 8002862:	605a      	str	r2, [r3, #4]
 8002864:	68fb      	ldr	r3, [r7, #12]
 8002866:	685a      	ldr	r2, [r3, #4]
 8002868:	69bb      	ldr	r3, [r7, #24]
 800286a:	3304      	adds	r3, #4
 800286c:	429a      	cmp	r2, r3
 800286e:	d103      	bne.n	8002878 <xTaskRemoveFromEventList+0x94>
 8002870:	69bb      	ldr	r3, [r7, #24]
 8002872:	68da      	ldr	r2, [r3, #12]
 8002874:	68fb      	ldr	r3, [r7, #12]
 8002876:	605a      	str	r2, [r3, #4]
 8002878:	69bb      	ldr	r3, [r7, #24]
 800287a:	2200      	movs	r2, #0
 800287c:	615a      	str	r2, [r3, #20]
 800287e:	68fb      	ldr	r3, [r7, #12]
 8002880:	681b      	ldr	r3, [r3, #0]
 8002882:	1e5a      	subs	r2, r3, #1
 8002884:	68fb      	ldr	r3, [r7, #12]
 8002886:	601a      	str	r2, [r3, #0]
 8002888:	69bb      	ldr	r3, [r7, #24]
 800288a:	6adb      	ldr	r3, [r3, #44]	; 0x2c
 800288c:	2201      	movs	r2, #1
 800288e:	409a      	lsls	r2, r3
 8002890:	4b37      	ldr	r3, [pc, #220]	; (8002970 <xTaskRemoveFromEventList+0x18c>)
 8002892:	681b      	ldr	r3, [r3, #0]
 8002894:	4313      	orrs	r3, r2
 8002896:	4a36      	ldr	r2, [pc, #216]	; (8002970 <xTaskRemoveFromEventList+0x18c>)
 8002898:	6013      	str	r3, [r2, #0]
 800289a:	69bb      	ldr	r3, [r7, #24]
 800289c:	6ada      	ldr	r2, [r3, #44]	; 0x2c
 800289e:	4935      	ldr	r1, [pc, #212]	; (8002974 <xTaskRemoveFromEventList+0x190>)
 80028a0:	4613      	mov	r3, r2
 80028a2:	009b      	lsls	r3, r3, #2
 80028a4:	4413      	add	r3, r2
 80028a6:	009b      	lsls	r3, r3, #2
 80028a8:	440b      	add	r3, r1
 80028aa:	3304      	adds	r3, #4
 80028ac:	681b      	ldr	r3, [r3, #0]
 80028ae:	60bb      	str	r3, [r7, #8]
 80028b0:	69bb      	ldr	r3, [r7, #24]
 80028b2:	68ba      	ldr	r2, [r7, #8]
 80028b4:	609a      	str	r2, [r3, #8]
 80028b6:	68bb      	ldr	r3, [r7, #8]
 80028b8:	689a      	ldr	r2, [r3, #8]
 80028ba:	69bb      	ldr	r3, [r7, #24]
 80028bc:	60da      	str	r2, [r3, #12]
 80028be:	68bb      	ldr	r3, [r7, #8]
 80028c0:	689b      	ldr	r3, [r3, #8]
 80028c2:	69ba      	ldr	r2, [r7, #24]
 80028c4:	3204      	adds	r2, #4
 80028c6:	605a      	str	r2, [r3, #4]
 80028c8:	69bb      	ldr	r3, [r7, #24]
 80028ca:	1d1a      	adds	r2, r3, #4
 80028cc:	68bb      	ldr	r3, [r7, #8]
 80028ce:	609a      	str	r2, [r3, #8]
 80028d0:	69bb      	ldr	r3, [r7, #24]
 80028d2:	6ada      	ldr	r2, [r3, #44]	; 0x2c
 80028d4:	4613      	mov	r3, r2
 80028d6:	009b      	lsls	r3, r3, #2
 80028d8:	4413      	add	r3, r2
 80028da:	009b      	lsls	r3, r3, #2
 80028dc:	4a25      	ldr	r2, [pc, #148]	; (8002974 <xTaskRemoveFromEventList+0x190>)
 80028de:	441a      	add	r2, r3
 80028e0:	69bb      	ldr	r3, [r7, #24]
 80028e2:	615a      	str	r2, [r3, #20]
 80028e4:	69bb      	ldr	r3, [r7, #24]
 80028e6:	6ada      	ldr	r2, [r3, #44]	; 0x2c
 80028e8:	4922      	ldr	r1, [pc, #136]	; (8002974 <xTaskRemoveFromEventList+0x190>)
 80028ea:	4613      	mov	r3, r2
 80028ec:	009b      	lsls	r3, r3, #2
 80028ee:	4413      	add	r3, r2
 80028f0:	009b      	lsls	r3, r3, #2
 80028f2:	440b      	add	r3, r1
 80028f4:	681b      	ldr	r3, [r3, #0]
 80028f6:	1c59      	adds	r1, r3, #1
 80028f8:	481e      	ldr	r0, [pc, #120]	; (8002974 <xTaskRemoveFromEventList+0x190>)
 80028fa:	4613      	mov	r3, r2
 80028fc:	009b      	lsls	r3, r3, #2
 80028fe:	4413      	add	r3, r2
 8002900:	009b      	lsls	r3, r3, #2
 8002902:	4403      	add	r3, r0
 8002904:	6019      	str	r1, [r3, #0]
 8002906:	e01b      	b.n	8002940 <xTaskRemoveFromEventList+0x15c>
 8002908:	4b1b      	ldr	r3, [pc, #108]	; (8002978 <xTaskRemoveFromEventList+0x194>)
 800290a:	685b      	ldr	r3, [r3, #4]
 800290c:	613b      	str	r3, [r7, #16]
 800290e:	69bb      	ldr	r3, [r7, #24]
 8002910:	693a      	ldr	r2, [r7, #16]
 8002912:	61da      	str	r2, [r3, #28]
 8002914:	693b      	ldr	r3, [r7, #16]
 8002916:	689a      	ldr	r2, [r3, #8]
 8002918:	69bb      	ldr	r3, [r7, #24]
 800291a:	621a      	str	r2, [r3, #32]
 800291c:	693b      	ldr	r3, [r7, #16]
 800291e:	689b      	ldr	r3, [r3, #8]
 8002920:	69ba      	ldr	r2, [r7, #24]
 8002922:	3218      	adds	r2, #24
 8002924:	605a      	str	r2, [r3, #4]
 8002926:	69bb      	ldr	r3, [r7, #24]
 8002928:	f103 0218 	add.w	r2, r3, #24
 800292c:	693b      	ldr	r3, [r7, #16]
 800292e:	609a      	str	r2, [r3, #8]
 8002930:	69bb      	ldr	r3, [r7, #24]
 8002932:	4a11      	ldr	r2, [pc, #68]	; (8002978 <xTaskRemoveFromEventList+0x194>)
 8002934:	629a      	str	r2, [r3, #40]	; 0x28
 8002936:	4b10      	ldr	r3, [pc, #64]	; (8002978 <xTaskRemoveFromEventList+0x194>)
 8002938:	681b      	ldr	r3, [r3, #0]
 800293a:	3301      	adds	r3, #1
 800293c:	4a0e      	ldr	r2, [pc, #56]	; (8002978 <xTaskRemoveFromEventList+0x194>)
 800293e:	6013      	str	r3, [r2, #0]
 8002940:	69bb      	ldr	r3, [r7, #24]
 8002942:	6ada      	ldr	r2, [r3, #44]	; 0x2c
 8002944:	4b0d      	ldr	r3, [pc, #52]	; (800297c <xTaskRemoveFromEventList+0x198>)
 8002946:	681b      	ldr	r3, [r3, #0]
 8002948:	6adb      	ldr	r3, [r3, #44]	; 0x2c
 800294a:	429a      	cmp	r2, r3
 800294c:	d905      	bls.n	800295a <xTaskRemoveFromEventList+0x176>
 800294e:	2301      	movs	r3, #1
 8002950:	61fb      	str	r3, [r7, #28]
 8002952:	4b0b      	ldr	r3, [pc, #44]	; (8002980 <xTaskRemoveFromEventList+0x19c>)
 8002954:	2201      	movs	r2, #1
 8002956:	601a      	str	r2, [r3, #0]
 8002958:	e001      	b.n	800295e <xTaskRemoveFromEventList+0x17a>
 800295a:	2300      	movs	r3, #0
 800295c:	61fb      	str	r3, [r7, #28]
 800295e:	69fb      	ldr	r3, [r7, #28]
 8002960:	4618      	mov	r0, r3
 8002962:	3720      	adds	r7, #32
 8002964:	46bd      	mov	sp, r7
 8002966:	bd80      	pop	{r7, pc}
 8002968:	0800a028 	.word	0x0800a028
 800296c:	20000120 	.word	0x20000120
 8002970:	20000100 	.word	0x20000100
 8002974:	20000024 	.word	0x20000024
 8002978:	200000b8 	.word	0x200000b8
 800297c:	20000020 	.word	0x20000020
 8002980:	2000010c 	.word	0x2000010c

08002984 <vTaskInternalSetTimeOutState>:
 8002984:	b480      	push	{r7}
 8002986:	b083      	sub	sp, #12
 8002988:	af00      	add	r7, sp, #0
 800298a:	6078      	str	r0, [r7, #4]
 800298c:	4b06      	ldr	r3, [pc, #24]	; (80029a8 <vTaskInternalSetTimeOutState+0x24>)
 800298e:	681a      	ldr	r2, [r3, #0]
 8002990:	687b      	ldr	r3, [r7, #4]
 8002992:	601a      	str	r2, [r3, #0]
 8002994:	4b05      	ldr	r3, [pc, #20]	; (80029ac <vTaskInternalSetTimeOutState+0x28>)
 8002996:	681a      	ldr	r2, [r3, #0]
 8002998:	687b      	ldr	r3, [r7, #4]
 800299a:	605a      	str	r2, [r3, #4]
 800299c:	bf00      	nop
 800299e:	370c      	adds	r7, #12
 80029a0:	46bd      	mov	sp, r7
 80029a2:	f85d 7b04 	ldr.w	r7, [sp], #4
 80029a6:	4770      	bx	lr
 80029a8:	20000110 	.word	0x20000110
 80029ac:	200000fc 	.word	0x200000fc

080029b0 <xTaskCheckForTimeOut>:
 80029b0:	b580      	push	{r7, lr}
 80029b2:	b086      	sub	sp, #24
 80029b4:	af00      	add	r7, sp, #0
 80029b6:	6078      	str	r0, [r7, #4]
 80029b8:	6039      	str	r1, [r7, #0]
 80029ba:	687b      	ldr	r3, [r7, #4]
 80029bc:	2b00      	cmp	r3, #0
 80029be:	d104      	bne.n	80029ca <xTaskCheckForTimeOut+0x1a>
 80029c0:	4926      	ldr	r1, [pc, #152]	; (8002a5c <xTaskCheckForTimeOut+0xac>)
 80029c2:	f640 40e7 	movw	r0, #3303	; 0xce7
 80029c6:	f003 fa7e 	bl	8005ec6 <vAssertCalled>
 80029ca:	683b      	ldr	r3, [r7, #0]
 80029cc:	2b00      	cmp	r3, #0
 80029ce:	d104      	bne.n	80029da <xTaskCheckForTimeOut+0x2a>
 80029d0:	4922      	ldr	r1, [pc, #136]	; (8002a5c <xTaskCheckForTimeOut+0xac>)
 80029d2:	f640 40e8 	movw	r0, #3304	; 0xce8
 80029d6:	f003 fa76 	bl	8005ec6 <vAssertCalled>
 80029da:	f000 fd75 	bl	80034c8 <vPortEnterCritical>
 80029de:	4b20      	ldr	r3, [pc, #128]	; (8002a60 <xTaskCheckForTimeOut+0xb0>)
 80029e0:	681b      	ldr	r3, [r3, #0]
 80029e2:	613b      	str	r3, [r7, #16]
 80029e4:	687b      	ldr	r3, [r7, #4]
 80029e6:	685b      	ldr	r3, [r3, #4]
 80029e8:	693a      	ldr	r2, [r7, #16]
 80029ea:	1ad3      	subs	r3, r2, r3
 80029ec:	60fb      	str	r3, [r7, #12]
 80029ee:	683b      	ldr	r3, [r7, #0]
 80029f0:	681b      	ldr	r3, [r3, #0]
 80029f2:	f1b3 3fff 	cmp.w	r3, #4294967295
 80029f6:	d102      	bne.n	80029fe <xTaskCheckForTimeOut+0x4e>
 80029f8:	2300      	movs	r3, #0
 80029fa:	617b      	str	r3, [r7, #20]
 80029fc:	e026      	b.n	8002a4c <xTaskCheckForTimeOut+0x9c>
 80029fe:	687b      	ldr	r3, [r7, #4]
 8002a00:	681a      	ldr	r2, [r3, #0]
 8002a02:	4b18      	ldr	r3, [pc, #96]	; (8002a64 <xTaskCheckForTimeOut+0xb4>)
 8002a04:	681b      	ldr	r3, [r3, #0]
 8002a06:	429a      	cmp	r2, r3
 8002a08:	d00a      	beq.n	8002a20 <xTaskCheckForTimeOut+0x70>
 8002a0a:	687b      	ldr	r3, [r7, #4]
 8002a0c:	685b      	ldr	r3, [r3, #4]
 8002a0e:	693a      	ldr	r2, [r7, #16]
 8002a10:	429a      	cmp	r2, r3
 8002a12:	d305      	bcc.n	8002a20 <xTaskCheckForTimeOut+0x70>
 8002a14:	2301      	movs	r3, #1
 8002a16:	617b      	str	r3, [r7, #20]
 8002a18:	683b      	ldr	r3, [r7, #0]
 8002a1a:	2200      	movs	r2, #0
 8002a1c:	601a      	str	r2, [r3, #0]
 8002a1e:	e015      	b.n	8002a4c <xTaskCheckForTimeOut+0x9c>
 8002a20:	683b      	ldr	r3, [r7, #0]
 8002a22:	681b      	ldr	r3, [r3, #0]
 8002a24:	68fa      	ldr	r2, [r7, #12]
 8002a26:	429a      	cmp	r2, r3
 8002a28:	d20b      	bcs.n	8002a42 <xTaskCheckForTimeOut+0x92>
 8002a2a:	683b      	ldr	r3, [r7, #0]
 8002a2c:	681a      	ldr	r2, [r3, #0]
 8002a2e:	68fb      	ldr	r3, [r7, #12]
 8002a30:	1ad2      	subs	r2, r2, r3
 8002a32:	683b      	ldr	r3, [r7, #0]
 8002a34:	601a      	str	r2, [r3, #0]
 8002a36:	6878      	ldr	r0, [r7, #4]
 8002a38:	f7ff ffa4 	bl	8002984 <vTaskInternalSetTimeOutState>
 8002a3c:	2300      	movs	r3, #0
 8002a3e:	617b      	str	r3, [r7, #20]
 8002a40:	e004      	b.n	8002a4c <xTaskCheckForTimeOut+0x9c>
 8002a42:	683b      	ldr	r3, [r7, #0]
 8002a44:	2200      	movs	r2, #0
 8002a46:	601a      	str	r2, [r3, #0]
 8002a48:	2301      	movs	r3, #1
 8002a4a:	617b      	str	r3, [r7, #20]
 8002a4c:	f000 fd66 	bl	800351c <vPortExitCritical>
 8002a50:	697b      	ldr	r3, [r7, #20]
 8002a52:	4618      	mov	r0, r3
 8002a54:	3718      	adds	r7, #24
 8002a56:	46bd      	mov	sp, r7
 8002a58:	bd80      	pop	{r7, pc}
 8002a5a:	bf00      	nop
 8002a5c:	0800a028 	.word	0x0800a028
 8002a60:	200000fc 	.word	0x200000fc
 8002a64:	20000110 	.word	0x20000110

08002a68 <vTaskMissedYield>:
 8002a68:	b480      	push	{r7}
 8002a6a:	af00      	add	r7, sp, #0
 8002a6c:	4b03      	ldr	r3, [pc, #12]	; (8002a7c <vTaskMissedYield+0x14>)
 8002a6e:	2201      	movs	r2, #1
 8002a70:	601a      	str	r2, [r3, #0]
 8002a72:	bf00      	nop
 8002a74:	46bd      	mov	sp, r7
 8002a76:	f85d 7b04 	ldr.w	r7, [sp], #4
 8002a7a:	4770      	bx	lr
 8002a7c:	2000010c 	.word	0x2000010c

08002a80 <prvIdleTask>:
 8002a80:	b580      	push	{r7, lr}
 8002a82:	b082      	sub	sp, #8
 8002a84:	af00      	add	r7, sp, #0
 8002a86:	6078      	str	r0, [r7, #4]
 8002a88:	f000 f852 	bl	8002b30 <prvCheckTasksWaitingTermination>
 8002a8c:	4b06      	ldr	r3, [pc, #24]	; (8002aa8 <prvIdleTask+0x28>)
 8002a8e:	681b      	ldr	r3, [r3, #0]
 8002a90:	2b01      	cmp	r3, #1
 8002a92:	d9f9      	bls.n	8002a88 <prvIdleTask+0x8>
 8002a94:	4b05      	ldr	r3, [pc, #20]	; (8002aac <prvIdleTask+0x2c>)
 8002a96:	f04f 5280 	mov.w	r2, #268435456	; 0x10000000
 8002a9a:	601a      	str	r2, [r3, #0]
 8002a9c:	f3bf 8f4f 	dsb	sy
 8002aa0:	f3bf 8f6f 	isb	sy
 8002aa4:	e7f0      	b.n	8002a88 <prvIdleTask+0x8>
 8002aa6:	bf00      	nop
 8002aa8:	20000024 	.word	0x20000024
 8002aac:	e000ed04 	.word	0xe000ed04

08002ab0 <prvInitialiseTaskLists>:
 8002ab0:	b580      	push	{r7, lr}
 8002ab2:	b082      	sub	sp, #8
 8002ab4:	af00      	add	r7, sp, #0
 8002ab6:	2300      	movs	r3, #0
 8002ab8:	607b      	str	r3, [r7, #4]
 8002aba:	e00c      	b.n	8002ad6 <prvInitialiseTaskLists+0x26>
 8002abc:	687a      	ldr	r2, [r7, #4]
 8002abe:	4613      	mov	r3, r2
 8002ac0:	009b      	lsls	r3, r3, #2
 8002ac2:	4413      	add	r3, r2
 8002ac4:	009b      	lsls	r3, r3, #2
 8002ac6:	4a12      	ldr	r2, [pc, #72]	; (8002b10 <prvInitialiseTaskLists+0x60>)
 8002ac8:	4413      	add	r3, r2
 8002aca:	4618      	mov	r0, r3
 8002acc:	f000 fb30 	bl	8003130 <vListInitialise>
 8002ad0:	687b      	ldr	r3, [r7, #4]
 8002ad2:	3301      	adds	r3, #1
 8002ad4:	607b      	str	r3, [r7, #4]
 8002ad6:	687b      	ldr	r3, [r7, #4]
 8002ad8:	2b04      	cmp	r3, #4
 8002ada:	d9ef      	bls.n	8002abc <prvInitialiseTaskLists+0xc>
 8002adc:	480d      	ldr	r0, [pc, #52]	; (8002b14 <prvInitialiseTaskLists+0x64>)
 8002ade:	f000 fb27 	bl	8003130 <vListInitialise>
 8002ae2:	480d      	ldr	r0, [pc, #52]	; (8002b18 <prvInitialiseTaskLists+0x68>)
 8002ae4:	f000 fb24 	bl	8003130 <vListInitialise>
 8002ae8:	480c      	ldr	r0, [pc, #48]	; (8002b1c <prvInitialiseTaskLists+0x6c>)
 8002aea:	f000 fb21 	bl	8003130 <vListInitialise>
 8002aee:	480c      	ldr	r0, [pc, #48]	; (8002b20 <prvInitialiseTaskLists+0x70>)
 8002af0:	f000 fb1e 	bl	8003130 <vListInitialise>
 8002af4:	480b      	ldr	r0, [pc, #44]	; (8002b24 <prvInitialiseTaskLists+0x74>)
 8002af6:	f000 fb1b 	bl	8003130 <vListInitialise>
 8002afa:	4b0b      	ldr	r3, [pc, #44]	; (8002b28 <prvInitialiseTaskLists+0x78>)
 8002afc:	4a05      	ldr	r2, [pc, #20]	; (8002b14 <prvInitialiseTaskLists+0x64>)
 8002afe:	601a      	str	r2, [r3, #0]
 8002b00:	4b0a      	ldr	r3, [pc, #40]	; (8002b2c <prvInitialiseTaskLists+0x7c>)
 8002b02:	4a05      	ldr	r2, [pc, #20]	; (8002b18 <prvInitialiseTaskLists+0x68>)
 8002b04:	601a      	str	r2, [r3, #0]
 8002b06:	bf00      	nop
 8002b08:	3708      	adds	r7, #8
 8002b0a:	46bd      	mov	sp, r7
 8002b0c:	bd80      	pop	{r7, pc}
 8002b0e:	bf00      	nop
 8002b10:	20000024 	.word	0x20000024
 8002b14:	20000088 	.word	0x20000088
 8002b18:	2000009c 	.word	0x2000009c
 8002b1c:	200000b8 	.word	0x200000b8
 8002b20:	200000cc 	.word	0x200000cc
 8002b24:	200000e4 	.word	0x200000e4
 8002b28:	200000b0 	.word	0x200000b0
 8002b2c:	200000b4 	.word	0x200000b4

08002b30 <prvCheckTasksWaitingTermination>:
 8002b30:	b580      	push	{r7, lr}
 8002b32:	b082      	sub	sp, #8
 8002b34:	af00      	add	r7, sp, #0
 8002b36:	e019      	b.n	8002b6c <prvCheckTasksWaitingTermination+0x3c>
 8002b38:	f000 fcc6 	bl	80034c8 <vPortEnterCritical>
 8002b3c:	4b10      	ldr	r3, [pc, #64]	; (8002b80 <prvCheckTasksWaitingTermination+0x50>)
 8002b3e:	68db      	ldr	r3, [r3, #12]
 8002b40:	68db      	ldr	r3, [r3, #12]
 8002b42:	607b      	str	r3, [r7, #4]
 8002b44:	687b      	ldr	r3, [r7, #4]
 8002b46:	3304      	adds	r3, #4
 8002b48:	4618      	mov	r0, r3
 8002b4a:	f000 fb7b 	bl	8003244 <uxListRemove>
 8002b4e:	4b0d      	ldr	r3, [pc, #52]	; (8002b84 <prvCheckTasksWaitingTermination+0x54>)
 8002b50:	681b      	ldr	r3, [r3, #0]
 8002b52:	3b01      	subs	r3, #1
 8002b54:	4a0b      	ldr	r2, [pc, #44]	; (8002b84 <prvCheckTasksWaitingTermination+0x54>)
 8002b56:	6013      	str	r3, [r2, #0]
 8002b58:	4b0b      	ldr	r3, [pc, #44]	; (8002b88 <prvCheckTasksWaitingTermination+0x58>)
 8002b5a:	681b      	ldr	r3, [r3, #0]
 8002b5c:	3b01      	subs	r3, #1
 8002b5e:	4a0a      	ldr	r2, [pc, #40]	; (8002b88 <prvCheckTasksWaitingTermination+0x58>)
 8002b60:	6013      	str	r3, [r2, #0]
 8002b62:	f000 fcdb 	bl	800351c <vPortExitCritical>
 8002b66:	6878      	ldr	r0, [r7, #4]
 8002b68:	f000 f810 	bl	8002b8c <prvDeleteTCB>
 8002b6c:	4b06      	ldr	r3, [pc, #24]	; (8002b88 <prvCheckTasksWaitingTermination+0x58>)
 8002b6e:	681b      	ldr	r3, [r3, #0]
 8002b70:	2b00      	cmp	r3, #0
 8002b72:	d1e1      	bne.n	8002b38 <prvCheckTasksWaitingTermination+0x8>
 8002b74:	bf00      	nop
 8002b76:	bf00      	nop
 8002b78:	3708      	adds	r7, #8
 8002b7a:	46bd      	mov	sp, r7
 8002b7c:	bd80      	pop	{r7, pc}
 8002b7e:	bf00      	nop
 8002b80:	200000cc 	.word	0x200000cc
 8002b84:	200000f8 	.word	0x200000f8
 8002b88:	200000e0 	.word	0x200000e0

08002b8c <prvDeleteTCB>:
 8002b8c:	b580      	push	{r7, lr}
 8002b8e:	b082      	sub	sp, #8
 8002b90:	af00      	add	r7, sp, #0
 8002b92:	6078      	str	r0, [r7, #4]
 8002b94:	687b      	ldr	r3, [r7, #4]
 8002b96:	6b1b      	ldr	r3, [r3, #48]	; 0x30
 8002b98:	4618      	mov	r0, r3
 8002b9a:	f001 fe95 	bl	80048c8 <vPortFree>
 8002b9e:	6878      	ldr	r0, [r7, #4]
 8002ba0:	f001 fe92 	bl	80048c8 <vPortFree>
 8002ba4:	bf00      	nop
 8002ba6:	3708      	adds	r7, #8
 8002ba8:	46bd      	mov	sp, r7
 8002baa:	bd80      	pop	{r7, pc}

08002bac <prvResetNextTaskUnblockTime>:
 8002bac:	b480      	push	{r7}
 8002bae:	af00      	add	r7, sp, #0
 8002bb0:	4b0a      	ldr	r3, [pc, #40]	; (8002bdc <prvResetNextTaskUnblockTime+0x30>)
 8002bb2:	681b      	ldr	r3, [r3, #0]
 8002bb4:	681b      	ldr	r3, [r3, #0]
 8002bb6:	2b00      	cmp	r3, #0
 8002bb8:	d104      	bne.n	8002bc4 <prvResetNextTaskUnblockTime+0x18>
 8002bba:	4b09      	ldr	r3, [pc, #36]	; (8002be0 <prvResetNextTaskUnblockTime+0x34>)
 8002bbc:	f04f 32ff 	mov.w	r2, #4294967295
 8002bc0:	601a      	str	r2, [r3, #0]
 8002bc2:	e005      	b.n	8002bd0 <prvResetNextTaskUnblockTime+0x24>
 8002bc4:	4b05      	ldr	r3, [pc, #20]	; (8002bdc <prvResetNextTaskUnblockTime+0x30>)
 8002bc6:	681b      	ldr	r3, [r3, #0]
 8002bc8:	68db      	ldr	r3, [r3, #12]
 8002bca:	681b      	ldr	r3, [r3, #0]
 8002bcc:	4a04      	ldr	r2, [pc, #16]	; (8002be0 <prvResetNextTaskUnblockTime+0x34>)
 8002bce:	6013      	str	r3, [r2, #0]
 8002bd0:	bf00      	nop
 8002bd2:	46bd      	mov	sp, r7
 8002bd4:	f85d 7b04 	ldr.w	r7, [sp], #4
 8002bd8:	4770      	bx	lr
 8002bda:	bf00      	nop
 8002bdc:	200000b0 	.word	0x200000b0
 8002be0:	20000118 	.word	0x20000118

08002be4 <xTaskGetCurrentTaskHandle>:
 8002be4:	b480      	push	{r7}
 8002be6:	b083      	sub	sp, #12
 8002be8:	af00      	add	r7, sp, #0
 8002bea:	4b05      	ldr	r3, [pc, #20]	; (8002c00 <xTaskGetCurrentTaskHandle+0x1c>)
 8002bec:	681b      	ldr	r3, [r3, #0]
 8002bee:	607b      	str	r3, [r7, #4]
 8002bf0:	687b      	ldr	r3, [r7, #4]
 8002bf2:	4618      	mov	r0, r3
 8002bf4:	370c      	adds	r7, #12
 8002bf6:	46bd      	mov	sp, r7
 8002bf8:	f85d 7b04 	ldr.w	r7, [sp], #4
 8002bfc:	4770      	bx	lr
 8002bfe:	bf00      	nop
 8002c00:	20000020 	.word	0x20000020

08002c04 <xTaskGetSchedulerState>:
 8002c04:	b480      	push	{r7}
 8002c06:	b083      	sub	sp, #12
 8002c08:	af00      	add	r7, sp, #0
 8002c0a:	4b0b      	ldr	r3, [pc, #44]	; (8002c38 <xTaskGetSchedulerState+0x34>)
 8002c0c:	681b      	ldr	r3, [r3, #0]
 8002c0e:	2b00      	cmp	r3, #0
 8002c10:	d102      	bne.n	8002c18 <xTaskGetSchedulerState+0x14>
 8002c12:	2301      	movs	r3, #1
 8002c14:	607b      	str	r3, [r7, #4]
 8002c16:	e008      	b.n	8002c2a <xTaskGetSchedulerState+0x26>
 8002c18:	4b08      	ldr	r3, [pc, #32]	; (8002c3c <xTaskGetSchedulerState+0x38>)
 8002c1a:	681b      	ldr	r3, [r3, #0]
 8002c1c:	2b00      	cmp	r3, #0
 8002c1e:	d102      	bne.n	8002c26 <xTaskGetSchedulerState+0x22>
 8002c20:	2302      	movs	r3, #2
 8002c22:	607b      	str	r3, [r7, #4]
 8002c24:	e001      	b.n	8002c2a <xTaskGetSchedulerState+0x26>
 8002c26:	2300      	movs	r3, #0
 8002c28:	607b      	str	r3, [r7, #4]
 8002c2a:	687b      	ldr	r3, [r7, #4]
 8002c2c:	4618      	mov	r0, r3
 8002c2e:	370c      	adds	r7, #12
 8002c30:	46bd      	mov	sp, r7
 8002c32:	f85d 7b04 	ldr.w	r7, [sp], #4
 8002c36:	4770      	bx	lr
 8002c38:	20000104 	.word	0x20000104
 8002c3c:	20000120 	.word	0x20000120

08002c40 <xTaskPriorityInherit>:
 8002c40:	b580      	push	{r7, lr}
 8002c42:	b086      	sub	sp, #24
 8002c44:	af00      	add	r7, sp, #0
 8002c46:	6078      	str	r0, [r7, #4]
 8002c48:	687b      	ldr	r3, [r7, #4]
 8002c4a:	613b      	str	r3, [r7, #16]
 8002c4c:	2300      	movs	r3, #0
 8002c4e:	617b      	str	r3, [r7, #20]
 8002c50:	687b      	ldr	r3, [r7, #4]
 8002c52:	2b00      	cmp	r3, #0
 8002c54:	f000 8087 	beq.w	8002d66 <xTaskPriorityInherit+0x126>
 8002c58:	693b      	ldr	r3, [r7, #16]
 8002c5a:	6ada      	ldr	r2, [r3, #44]	; 0x2c
 8002c5c:	4b44      	ldr	r3, [pc, #272]	; (8002d70 <xTaskPriorityInherit+0x130>)
 8002c5e:	681b      	ldr	r3, [r3, #0]
 8002c60:	6adb      	ldr	r3, [r3, #44]	; 0x2c
 8002c62:	429a      	cmp	r2, r3
 8002c64:	d276      	bcs.n	8002d54 <xTaskPriorityInherit+0x114>
 8002c66:	693b      	ldr	r3, [r7, #16]
 8002c68:	699b      	ldr	r3, [r3, #24]
 8002c6a:	2b00      	cmp	r3, #0
 8002c6c:	db06      	blt.n	8002c7c <xTaskPriorityInherit+0x3c>
 8002c6e:	4b40      	ldr	r3, [pc, #256]	; (8002d70 <xTaskPriorityInherit+0x130>)
 8002c70:	681b      	ldr	r3, [r3, #0]
 8002c72:	6adb      	ldr	r3, [r3, #44]	; 0x2c
 8002c74:	f1c3 0205 	rsb	r2, r3, #5
 8002c78:	693b      	ldr	r3, [r7, #16]
 8002c7a:	619a      	str	r2, [r3, #24]
 8002c7c:	693b      	ldr	r3, [r7, #16]
 8002c7e:	6959      	ldr	r1, [r3, #20]
 8002c80:	693b      	ldr	r3, [r7, #16]
 8002c82:	6ada      	ldr	r2, [r3, #44]	; 0x2c
 8002c84:	4613      	mov	r3, r2
 8002c86:	009b      	lsls	r3, r3, #2
 8002c88:	4413      	add	r3, r2
 8002c8a:	009b      	lsls	r3, r3, #2
 8002c8c:	4a39      	ldr	r2, [pc, #228]	; (8002d74 <xTaskPriorityInherit+0x134>)
 8002c8e:	4413      	add	r3, r2
 8002c90:	4299      	cmp	r1, r3
 8002c92:	d157      	bne.n	8002d44 <xTaskPriorityInherit+0x104>
 8002c94:	693b      	ldr	r3, [r7, #16]
 8002c96:	3304      	adds	r3, #4
 8002c98:	4618      	mov	r0, r3
 8002c9a:	f000 fad3 	bl	8003244 <uxListRemove>
 8002c9e:	4603      	mov	r3, r0
 8002ca0:	2b00      	cmp	r3, #0
 8002ca2:	d10a      	bne.n	8002cba <xTaskPriorityInherit+0x7a>
 8002ca4:	693b      	ldr	r3, [r7, #16]
 8002ca6:	6adb      	ldr	r3, [r3, #44]	; 0x2c
 8002ca8:	2201      	movs	r2, #1
 8002caa:	fa02 f303 	lsl.w	r3, r2, r3
 8002cae:	43da      	mvns	r2, r3
 8002cb0:	4b31      	ldr	r3, [pc, #196]	; (8002d78 <xTaskPriorityInherit+0x138>)
 8002cb2:	681b      	ldr	r3, [r3, #0]
 8002cb4:	4013      	ands	r3, r2
 8002cb6:	4a30      	ldr	r2, [pc, #192]	; (8002d78 <xTaskPriorityInherit+0x138>)
 8002cb8:	6013      	str	r3, [r2, #0]
 8002cba:	4b2d      	ldr	r3, [pc, #180]	; (8002d70 <xTaskPriorityInherit+0x130>)
 8002cbc:	681b      	ldr	r3, [r3, #0]
 8002cbe:	6ada      	ldr	r2, [r3, #44]	; 0x2c
 8002cc0:	693b      	ldr	r3, [r7, #16]
 8002cc2:	62da      	str	r2, [r3, #44]	; 0x2c
 8002cc4:	693b      	ldr	r3, [r7, #16]
 8002cc6:	6adb      	ldr	r3, [r3, #44]	; 0x2c
 8002cc8:	2201      	movs	r2, #1
 8002cca:	409a      	lsls	r2, r3
 8002ccc:	4b2a      	ldr	r3, [pc, #168]	; (8002d78 <xTaskPriorityInherit+0x138>)
 8002cce:	681b      	ldr	r3, [r3, #0]
 8002cd0:	4313      	orrs	r3, r2
 8002cd2:	4a29      	ldr	r2, [pc, #164]	; (8002d78 <xTaskPriorityInherit+0x138>)
 8002cd4:	6013      	str	r3, [r2, #0]
 8002cd6:	693b      	ldr	r3, [r7, #16]
 8002cd8:	6ada      	ldr	r2, [r3, #44]	; 0x2c
 8002cda:	4926      	ldr	r1, [pc, #152]	; (8002d74 <xTaskPriorityInherit+0x134>)
 8002cdc:	4613      	mov	r3, r2
 8002cde:	009b      	lsls	r3, r3, #2
 8002ce0:	4413      	add	r3, r2
 8002ce2:	009b      	lsls	r3, r3, #2
 8002ce4:	440b      	add	r3, r1
 8002ce6:	3304      	adds	r3, #4
 8002ce8:	681b      	ldr	r3, [r3, #0]
 8002cea:	60fb      	str	r3, [r7, #12]
 8002cec:	693b      	ldr	r3, [r7, #16]
 8002cee:	68fa      	ldr	r2, [r7, #12]
 8002cf0:	609a      	str	r2, [r3, #8]
 8002cf2:	68fb      	ldr	r3, [r7, #12]
 8002cf4:	689a      	ldr	r2, [r3, #8]
 8002cf6:	693b      	ldr	r3, [r7, #16]
 8002cf8:	60da      	str	r2, [r3, #12]
 8002cfa:	68fb      	ldr	r3, [r7, #12]
 8002cfc:	689b      	ldr	r3, [r3, #8]
 8002cfe:	693a      	ldr	r2, [r7, #16]
 8002d00:	3204      	adds	r2, #4
 8002d02:	605a      	str	r2, [r3, #4]
 8002d04:	693b      	ldr	r3, [r7, #16]
 8002d06:	1d1a      	adds	r2, r3, #4
 8002d08:	68fb      	ldr	r3, [r7, #12]
 8002d0a:	609a      	str	r2, [r3, #8]
 8002d0c:	693b      	ldr	r3, [r7, #16]
 8002d0e:	6ada      	ldr	r2, [r3, #44]	; 0x2c
 8002d10:	4613      	mov	r3, r2
 8002d12:	009b      	lsls	r3, r3, #2
 8002d14:	4413      	add	r3, r2
 8002d16:	009b      	lsls	r3, r3, #2
 8002d18:	4a16      	ldr	r2, [pc, #88]	; (8002d74 <xTaskPriorityInherit+0x134>)
 8002d1a:	441a      	add	r2, r3
 8002d1c:	693b      	ldr	r3, [r7, #16]
 8002d1e:	615a      	str	r2, [r3, #20]
 8002d20:	693b      	ldr	r3, [r7, #16]
 8002d22:	6ada      	ldr	r2, [r3, #44]	; 0x2c
 8002d24:	4913      	ldr	r1, [pc, #76]	; (8002d74 <xTaskPriorityInherit+0x134>)
 8002d26:	4613      	mov	r3, r2
 8002d28:	009b      	lsls	r3, r3, #2
 8002d2a:	4413      	add	r3, r2
 8002d2c:	009b      	lsls	r3, r3, #2
 8002d2e:	440b      	add	r3, r1
 8002d30:	681b      	ldr	r3, [r3, #0]
 8002d32:	1c59      	adds	r1, r3, #1
 8002d34:	480f      	ldr	r0, [pc, #60]	; (8002d74 <xTaskPriorityInherit+0x134>)
 8002d36:	4613      	mov	r3, r2
 8002d38:	009b      	lsls	r3, r3, #2
 8002d3a:	4413      	add	r3, r2
 8002d3c:	009b      	lsls	r3, r3, #2
 8002d3e:	4403      	add	r3, r0
 8002d40:	6019      	str	r1, [r3, #0]
 8002d42:	e004      	b.n	8002d4e <xTaskPriorityInherit+0x10e>
 8002d44:	4b0a      	ldr	r3, [pc, #40]	; (8002d70 <xTaskPriorityInherit+0x130>)
 8002d46:	681b      	ldr	r3, [r3, #0]
 8002d48:	6ada      	ldr	r2, [r3, #44]	; 0x2c
 8002d4a:	693b      	ldr	r3, [r7, #16]
 8002d4c:	62da      	str	r2, [r3, #44]	; 0x2c
 8002d4e:	2301      	movs	r3, #1
 8002d50:	617b      	str	r3, [r7, #20]
 8002d52:	e008      	b.n	8002d66 <xTaskPriorityInherit+0x126>
 8002d54:	693b      	ldr	r3, [r7, #16]
 8002d56:	6cda      	ldr	r2, [r3, #76]	; 0x4c
 8002d58:	4b05      	ldr	r3, [pc, #20]	; (8002d70 <xTaskPriorityInherit+0x130>)
 8002d5a:	681b      	ldr	r3, [r3, #0]
 8002d5c:	6adb      	ldr	r3, [r3, #44]	; 0x2c
 8002d5e:	429a      	cmp	r2, r3
 8002d60:	d201      	bcs.n	8002d66 <xTaskPriorityInherit+0x126>
 8002d62:	2301      	movs	r3, #1
 8002d64:	617b      	str	r3, [r7, #20]
 8002d66:	697b      	ldr	r3, [r7, #20]
 8002d68:	4618      	mov	r0, r3
 8002d6a:	3718      	adds	r7, #24
 8002d6c:	46bd      	mov	sp, r7
 8002d6e:	bd80      	pop	{r7, pc}
 8002d70:	20000020 	.word	0x20000020
 8002d74:	20000024 	.word	0x20000024
 8002d78:	20000100 	.word	0x20000100

08002d7c <xTaskPriorityDisinherit>:
 8002d7c:	b580      	push	{r7, lr}
 8002d7e:	b086      	sub	sp, #24
 8002d80:	af00      	add	r7, sp, #0
 8002d82:	6078      	str	r0, [r7, #4]
 8002d84:	687b      	ldr	r3, [r7, #4]
 8002d86:	613b      	str	r3, [r7, #16]
 8002d88:	2300      	movs	r3, #0
 8002d8a:	617b      	str	r3, [r7, #20]
 8002d8c:	687b      	ldr	r3, [r7, #4]
 8002d8e:	2b00      	cmp	r3, #0
 8002d90:	d07f      	beq.n	8002e92 <xTaskPriorityDisinherit+0x116>
 8002d92:	4b42      	ldr	r3, [pc, #264]	; (8002e9c <xTaskPriorityDisinherit+0x120>)
 8002d94:	681b      	ldr	r3, [r3, #0]
 8002d96:	693a      	ldr	r2, [r7, #16]
 8002d98:	429a      	cmp	r2, r3
 8002d9a:	d004      	beq.n	8002da6 <xTaskPriorityDisinherit+0x2a>
 8002d9c:	4940      	ldr	r1, [pc, #256]	; (8002ea0 <xTaskPriorityDisinherit+0x124>)
 8002d9e:	f241 003f 	movw	r0, #4159	; 0x103f
 8002da2:	f003 f890 	bl	8005ec6 <vAssertCalled>
 8002da6:	693b      	ldr	r3, [r7, #16]
 8002da8:	6d1b      	ldr	r3, [r3, #80]	; 0x50
 8002daa:	2b00      	cmp	r3, #0
 8002dac:	d104      	bne.n	8002db8 <xTaskPriorityDisinherit+0x3c>
 8002dae:	493c      	ldr	r1, [pc, #240]	; (8002ea0 <xTaskPriorityDisinherit+0x124>)
 8002db0:	f44f 5082 	mov.w	r0, #4160	; 0x1040
 8002db4:	f003 f887 	bl	8005ec6 <vAssertCalled>
 8002db8:	693b      	ldr	r3, [r7, #16]
 8002dba:	6d1b      	ldr	r3, [r3, #80]	; 0x50
 8002dbc:	1e5a      	subs	r2, r3, #1
 8002dbe:	693b      	ldr	r3, [r7, #16]
 8002dc0:	651a      	str	r2, [r3, #80]	; 0x50
 8002dc2:	693b      	ldr	r3, [r7, #16]
 8002dc4:	6ada      	ldr	r2, [r3, #44]	; 0x2c
 8002dc6:	693b      	ldr	r3, [r7, #16]
 8002dc8:	6cdb      	ldr	r3, [r3, #76]	; 0x4c
 8002dca:	429a      	cmp	r2, r3
 8002dcc:	d061      	beq.n	8002e92 <xTaskPriorityDisinherit+0x116>
 8002dce:	693b      	ldr	r3, [r7, #16]
 8002dd0:	6d1b      	ldr	r3, [r3, #80]	; 0x50
 8002dd2:	2b00      	cmp	r3, #0
 8002dd4:	d15d      	bne.n	8002e92 <xTaskPriorityDisinherit+0x116>
 8002dd6:	693b      	ldr	r3, [r7, #16]
 8002dd8:	3304      	adds	r3, #4
 8002dda:	4618      	mov	r0, r3
 8002ddc:	f000 fa32 	bl	8003244 <uxListRemove>
 8002de0:	4603      	mov	r3, r0
 8002de2:	2b00      	cmp	r3, #0
 8002de4:	d10a      	bne.n	8002dfc <xTaskPriorityDisinherit+0x80>
 8002de6:	693b      	ldr	r3, [r7, #16]
 8002de8:	6adb      	ldr	r3, [r3, #44]	; 0x2c
 8002dea:	2201      	movs	r2, #1
 8002dec:	fa02 f303 	lsl.w	r3, r2, r3
 8002df0:	43da      	mvns	r2, r3
 8002df2:	4b2c      	ldr	r3, [pc, #176]	; (8002ea4 <xTaskPriorityDisinherit+0x128>)
 8002df4:	681b      	ldr	r3, [r3, #0]
 8002df6:	4013      	ands	r3, r2
 8002df8:	4a2a      	ldr	r2, [pc, #168]	; (8002ea4 <xTaskPriorityDisinherit+0x128>)
 8002dfa:	6013      	str	r3, [r2, #0]
 8002dfc:	693b      	ldr	r3, [r7, #16]
 8002dfe:	6cda      	ldr	r2, [r3, #76]	; 0x4c
 8002e00:	693b      	ldr	r3, [r7, #16]
 8002e02:	62da      	str	r2, [r3, #44]	; 0x2c
 8002e04:	693b      	ldr	r3, [r7, #16]
 8002e06:	6adb      	ldr	r3, [r3, #44]	; 0x2c
 8002e08:	f1c3 0205 	rsb	r2, r3, #5
 8002e0c:	693b      	ldr	r3, [r7, #16]
 8002e0e:	619a      	str	r2, [r3, #24]
 8002e10:	693b      	ldr	r3, [r7, #16]
 8002e12:	6adb      	ldr	r3, [r3, #44]	; 0x2c
 8002e14:	2201      	movs	r2, #1
 8002e16:	409a      	lsls	r2, r3
 8002e18:	4b22      	ldr	r3, [pc, #136]	; (8002ea4 <xTaskPriorityDisinherit+0x128>)
 8002e1a:	681b      	ldr	r3, [r3, #0]
 8002e1c:	4313      	orrs	r3, r2
 8002e1e:	4a21      	ldr	r2, [pc, #132]	; (8002ea4 <xTaskPriorityDisinherit+0x128>)
 8002e20:	6013      	str	r3, [r2, #0]
 8002e22:	693b      	ldr	r3, [r7, #16]
 8002e24:	6ada      	ldr	r2, [r3, #44]	; 0x2c
 8002e26:	4920      	ldr	r1, [pc, #128]	; (8002ea8 <xTaskPriorityDisinherit+0x12c>)
 8002e28:	4613      	mov	r3, r2
 8002e2a:	009b      	lsls	r3, r3, #2
 8002e2c:	4413      	add	r3, r2
 8002e2e:	009b      	lsls	r3, r3, #2
 8002e30:	440b      	add	r3, r1
 8002e32:	3304      	adds	r3, #4
 8002e34:	681b      	ldr	r3, [r3, #0]
 8002e36:	60fb      	str	r3, [r7, #12]
 8002e38:	693b      	ldr	r3, [r7, #16]
 8002e3a:	68fa      	ldr	r2, [r7, #12]
 8002e3c:	609a      	str	r2, [r3, #8]
 8002e3e:	68fb      	ldr	r3, [r7, #12]
 8002e40:	689a      	ldr	r2, [r3, #8]
 8002e42:	693b      	ldr	r3, [r7, #16]
 8002e44:	60da      	str	r2, [r3, #12]
 8002e46:	68fb      	ldr	r3, [r7, #12]
 8002e48:	689b      	ldr	r3, [r3, #8]
 8002e4a:	693a      	ldr	r2, [r7, #16]
 8002e4c:	3204      	adds	r2, #4
 8002e4e:	605a      	str	r2, [r3, #4]
 8002e50:	693b      	ldr	r3, [r7, #16]
 8002e52:	1d1a      	adds	r2, r3, #4
 8002e54:	68fb      	ldr	r3, [r7, #12]
 8002e56:	609a      	str	r2, [r3, #8]
 8002e58:	693b      	ldr	r3, [r7, #16]
 8002e5a:	6ada      	ldr	r2, [r3, #44]	; 0x2c
 8002e5c:	4613      	mov	r3, r2
 8002e5e:	009b      	lsls	r3, r3, #2
 8002e60:	4413      	add	r3, r2
 8002e62:	009b      	lsls	r3, r3, #2
 8002e64:	4a10      	ldr	r2, [pc, #64]	; (8002ea8 <xTaskPriorityDisinherit+0x12c>)
 8002e66:	441a      	add	r2, r3
 8002e68:	693b      	ldr	r3, [r7, #16]
 8002e6a:	615a      	str	r2, [r3, #20]
 8002e6c:	693b      	ldr	r3, [r7, #16]
 8002e6e:	6ada      	ldr	r2, [r3, #44]	; 0x2c
 8002e70:	490d      	ldr	r1, [pc, #52]	; (8002ea8 <xTaskPriorityDisinherit+0x12c>)
 8002e72:	4613      	mov	r3, r2
 8002e74:	009b      	lsls	r3, r3, #2
 8002e76:	4413      	add	r3, r2
 8002e78:	009b      	lsls	r3, r3, #2
 8002e7a:	440b      	add	r3, r1
 8002e7c:	681b      	ldr	r3, [r3, #0]
 8002e7e:	1c59      	adds	r1, r3, #1
 8002e80:	4809      	ldr	r0, [pc, #36]	; (8002ea8 <xTaskPriorityDisinherit+0x12c>)
 8002e82:	4613      	mov	r3, r2
 8002e84:	009b      	lsls	r3, r3, #2
 8002e86:	4413      	add	r3, r2
 8002e88:	009b      	lsls	r3, r3, #2
 8002e8a:	4403      	add	r3, r0
 8002e8c:	6019      	str	r1, [r3, #0]
 8002e8e:	2301      	movs	r3, #1
 8002e90:	617b      	str	r3, [r7, #20]
 8002e92:	697b      	ldr	r3, [r7, #20]
 8002e94:	4618      	mov	r0, r3
 8002e96:	3718      	adds	r7, #24
 8002e98:	46bd      	mov	sp, r7
 8002e9a:	bd80      	pop	{r7, pc}
 8002e9c:	20000020 	.word	0x20000020
 8002ea0:	0800a028 	.word	0x0800a028
 8002ea4:	20000100 	.word	0x20000100
 8002ea8:	20000024 	.word	0x20000024

08002eac <vTaskPriorityDisinheritAfterTimeout>:
 8002eac:	b580      	push	{r7, lr}
 8002eae:	b088      	sub	sp, #32
 8002eb0:	af00      	add	r7, sp, #0
 8002eb2:	6078      	str	r0, [r7, #4]
 8002eb4:	6039      	str	r1, [r7, #0]
 8002eb6:	687b      	ldr	r3, [r7, #4]
 8002eb8:	61bb      	str	r3, [r7, #24]
 8002eba:	2301      	movs	r3, #1
 8002ebc:	617b      	str	r3, [r7, #20]
 8002ebe:	687b      	ldr	r3, [r7, #4]
 8002ec0:	2b00      	cmp	r3, #0
 8002ec2:	f000 8094 	beq.w	8002fee <vTaskPriorityDisinheritAfterTimeout+0x142>
 8002ec6:	69bb      	ldr	r3, [r7, #24]
 8002ec8:	6d1b      	ldr	r3, [r3, #80]	; 0x50
 8002eca:	2b00      	cmp	r3, #0
 8002ecc:	d104      	bne.n	8002ed8 <vTaskPriorityDisinheritAfterTimeout+0x2c>
 8002ece:	494a      	ldr	r1, [pc, #296]	; (8002ff8 <vTaskPriorityDisinheritAfterTimeout+0x14c>)
 8002ed0:	f241 008f 	movw	r0, #4239	; 0x108f
 8002ed4:	f002 fff7 	bl	8005ec6 <vAssertCalled>
 8002ed8:	69bb      	ldr	r3, [r7, #24]
 8002eda:	6cdb      	ldr	r3, [r3, #76]	; 0x4c
 8002edc:	683a      	ldr	r2, [r7, #0]
 8002ede:	429a      	cmp	r2, r3
 8002ee0:	d902      	bls.n	8002ee8 <vTaskPriorityDisinheritAfterTimeout+0x3c>
 8002ee2:	683b      	ldr	r3, [r7, #0]
 8002ee4:	61fb      	str	r3, [r7, #28]
 8002ee6:	e002      	b.n	8002eee <vTaskPriorityDisinheritAfterTimeout+0x42>
 8002ee8:	69bb      	ldr	r3, [r7, #24]
 8002eea:	6cdb      	ldr	r3, [r3, #76]	; 0x4c
 8002eec:	61fb      	str	r3, [r7, #28]
 8002eee:	69bb      	ldr	r3, [r7, #24]
 8002ef0:	6adb      	ldr	r3, [r3, #44]	; 0x2c
 8002ef2:	69fa      	ldr	r2, [r7, #28]
 8002ef4:	429a      	cmp	r2, r3
 8002ef6:	d07a      	beq.n	8002fee <vTaskPriorityDisinheritAfterTimeout+0x142>
 8002ef8:	69bb      	ldr	r3, [r7, #24]
 8002efa:	6d1b      	ldr	r3, [r3, #80]	; 0x50
 8002efc:	697a      	ldr	r2, [r7, #20]
 8002efe:	429a      	cmp	r2, r3
 8002f00:	d175      	bne.n	8002fee <vTaskPriorityDisinheritAfterTimeout+0x142>
 8002f02:	4b3e      	ldr	r3, [pc, #248]	; (8002ffc <vTaskPriorityDisinheritAfterTimeout+0x150>)
 8002f04:	681b      	ldr	r3, [r3, #0]
 8002f06:	69ba      	ldr	r2, [r7, #24]
 8002f08:	429a      	cmp	r2, r3
 8002f0a:	d104      	bne.n	8002f16 <vTaskPriorityDisinheritAfterTimeout+0x6a>
 8002f0c:	493a      	ldr	r1, [pc, #232]	; (8002ff8 <vTaskPriorityDisinheritAfterTimeout+0x14c>)
 8002f0e:	f241 00aa 	movw	r0, #4266	; 0x10aa
 8002f12:	f002 ffd8 	bl	8005ec6 <vAssertCalled>
 8002f16:	69bb      	ldr	r3, [r7, #24]
 8002f18:	6adb      	ldr	r3, [r3, #44]	; 0x2c
 8002f1a:	613b      	str	r3, [r7, #16]
 8002f1c:	69bb      	ldr	r3, [r7, #24]
 8002f1e:	69fa      	ldr	r2, [r7, #28]
 8002f20:	62da      	str	r2, [r3, #44]	; 0x2c
 8002f22:	69bb      	ldr	r3, [r7, #24]
 8002f24:	699b      	ldr	r3, [r3, #24]
 8002f26:	2b00      	cmp	r3, #0
 8002f28:	db04      	blt.n	8002f34 <vTaskPriorityDisinheritAfterTimeout+0x88>
 8002f2a:	69fb      	ldr	r3, [r7, #28]
 8002f2c:	f1c3 0205 	rsb	r2, r3, #5
 8002f30:	69bb      	ldr	r3, [r7, #24]
 8002f32:	619a      	str	r2, [r3, #24]
 8002f34:	69bb      	ldr	r3, [r7, #24]
 8002f36:	6959      	ldr	r1, [r3, #20]
 8002f38:	693a      	ldr	r2, [r7, #16]
 8002f3a:	4613      	mov	r3, r2
 8002f3c:	009b      	lsls	r3, r3, #2
 8002f3e:	4413      	add	r3, r2
 8002f40:	009b      	lsls	r3, r3, #2
 8002f42:	4a2f      	ldr	r2, [pc, #188]	; (8003000 <vTaskPriorityDisinheritAfterTimeout+0x154>)
 8002f44:	4413      	add	r3, r2
 8002f46:	4299      	cmp	r1, r3
 8002f48:	d151      	bne.n	8002fee <vTaskPriorityDisinheritAfterTimeout+0x142>
 8002f4a:	69bb      	ldr	r3, [r7, #24]
 8002f4c:	3304      	adds	r3, #4
 8002f4e:	4618      	mov	r0, r3
 8002f50:	f000 f978 	bl	8003244 <uxListRemove>
 8002f54:	4603      	mov	r3, r0
 8002f56:	2b00      	cmp	r3, #0
 8002f58:	d10a      	bne.n	8002f70 <vTaskPriorityDisinheritAfterTimeout+0xc4>
 8002f5a:	69bb      	ldr	r3, [r7, #24]
 8002f5c:	6adb      	ldr	r3, [r3, #44]	; 0x2c
 8002f5e:	2201      	movs	r2, #1
 8002f60:	fa02 f303 	lsl.w	r3, r2, r3
 8002f64:	43da      	mvns	r2, r3
 8002f66:	4b27      	ldr	r3, [pc, #156]	; (8003004 <vTaskPriorityDisinheritAfterTimeout+0x158>)
 8002f68:	681b      	ldr	r3, [r3, #0]
 8002f6a:	4013      	ands	r3, r2
 8002f6c:	4a25      	ldr	r2, [pc, #148]	; (8003004 <vTaskPriorityDisinheritAfterTimeout+0x158>)
 8002f6e:	6013      	str	r3, [r2, #0]
 8002f70:	69bb      	ldr	r3, [r7, #24]
 8002f72:	6adb      	ldr	r3, [r3, #44]	; 0x2c
 8002f74:	2201      	movs	r2, #1
 8002f76:	409a      	lsls	r2, r3
 8002f78:	4b22      	ldr	r3, [pc, #136]	; (8003004 <vTaskPriorityDisinheritAfterTimeout+0x158>)
 8002f7a:	681b      	ldr	r3, [r3, #0]
 8002f7c:	4313      	orrs	r3, r2
 8002f7e:	4a21      	ldr	r2, [pc, #132]	; (8003004 <vTaskPriorityDisinheritAfterTimeout+0x158>)
 8002f80:	6013      	str	r3, [r2, #0]
 8002f82:	69bb      	ldr	r3, [r7, #24]
 8002f84:	6ada      	ldr	r2, [r3, #44]	; 0x2c
 8002f86:	491e      	ldr	r1, [pc, #120]	; (8003000 <vTaskPriorityDisinheritAfterTimeout+0x154>)
 8002f88:	4613      	mov	r3, r2
 8002f8a:	009b      	lsls	r3, r3, #2
 8002f8c:	4413      	add	r3, r2
 8002f8e:	009b      	lsls	r3, r3, #2
 8002f90:	440b      	add	r3, r1
 8002f92:	3304      	adds	r3, #4
 8002f94:	681b      	ldr	r3, [r3, #0]
 8002f96:	60fb      	str	r3, [r7, #12]
 8002f98:	69bb      	ldr	r3, [r7, #24]
 8002f9a:	68fa      	ldr	r2, [r7, #12]
 8002f9c:	609a      	str	r2, [r3, #8]
 8002f9e:	68fb      	ldr	r3, [r7, #12]
 8002fa0:	689a      	ldr	r2, [r3, #8]
 8002fa2:	69bb      	ldr	r3, [r7, #24]
 8002fa4:	60da      	str	r2, [r3, #12]
 8002fa6:	68fb      	ldr	r3, [r7, #12]
 8002fa8:	689b      	ldr	r3, [r3, #8]
 8002faa:	69ba      	ldr	r2, [r7, #24]
 8002fac:	3204      	adds	r2, #4
 8002fae:	605a      	str	r2, [r3, #4]
 8002fb0:	69bb      	ldr	r3, [r7, #24]
 8002fb2:	1d1a      	adds	r2, r3, #4
 8002fb4:	68fb      	ldr	r3, [r7, #12]
 8002fb6:	609a      	str	r2, [r3, #8]
 8002fb8:	69bb      	ldr	r3, [r7, #24]
 8002fba:	6ada      	ldr	r2, [r3, #44]	; 0x2c
 8002fbc:	4613      	mov	r3, r2
 8002fbe:	009b      	lsls	r3, r3, #2
 8002fc0:	4413      	add	r3, r2
 8002fc2:	009b      	lsls	r3, r3, #2
 8002fc4:	4a0e      	ldr	r2, [pc, #56]	; (8003000 <vTaskPriorityDisinheritAfterTimeout+0x154>)
 8002fc6:	441a      	add	r2, r3
 8002fc8:	69bb      	ldr	r3, [r7, #24]
 8002fca:	615a      	str	r2, [r3, #20]
 8002fcc:	69bb      	ldr	r3, [r7, #24]
 8002fce:	6ada      	ldr	r2, [r3, #44]	; 0x2c
 8002fd0:	490b      	ldr	r1, [pc, #44]	; (8003000 <vTaskPriorityDisinheritAfterTimeout+0x154>)
 8002fd2:	4613      	mov	r3, r2
 8002fd4:	009b      	lsls	r3, r3, #2
 8002fd6:	4413      	add	r3, r2
 8002fd8:	009b      	lsls	r3, r3, #2
 8002fda:	440b      	add	r3, r1
 8002fdc:	681b      	ldr	r3, [r3, #0]
 8002fde:	1c59      	adds	r1, r3, #1
 8002fe0:	4807      	ldr	r0, [pc, #28]	; (8003000 <vTaskPriorityDisinheritAfterTimeout+0x154>)
 8002fe2:	4613      	mov	r3, r2
 8002fe4:	009b      	lsls	r3, r3, #2
 8002fe6:	4413      	add	r3, r2
 8002fe8:	009b      	lsls	r3, r3, #2
 8002fea:	4403      	add	r3, r0
 8002fec:	6019      	str	r1, [r3, #0]
 8002fee:	bf00      	nop
 8002ff0:	3720      	adds	r7, #32
 8002ff2:	46bd      	mov	sp, r7
 8002ff4:	bd80      	pop	{r7, pc}
 8002ff6:	bf00      	nop
 8002ff8:	0800a028 	.word	0x0800a028
 8002ffc:	20000020 	.word	0x20000020
 8003000:	20000024 	.word	0x20000024
 8003004:	20000100 	.word	0x20000100

08003008 <pvTaskIncrementMutexHeldCount>:
 8003008:	b480      	push	{r7}
 800300a:	af00      	add	r7, sp, #0
 800300c:	4b07      	ldr	r3, [pc, #28]	; (800302c <pvTaskIncrementMutexHeldCount+0x24>)
 800300e:	681b      	ldr	r3, [r3, #0]
 8003010:	2b00      	cmp	r3, #0
 8003012:	d004      	beq.n	800301e <pvTaskIncrementMutexHeldCount+0x16>
 8003014:	4b05      	ldr	r3, [pc, #20]	; (800302c <pvTaskIncrementMutexHeldCount+0x24>)
 8003016:	681b      	ldr	r3, [r3, #0]
 8003018:	6d1a      	ldr	r2, [r3, #80]	; 0x50
 800301a:	3201      	adds	r2, #1
 800301c:	651a      	str	r2, [r3, #80]	; 0x50
 800301e:	4b03      	ldr	r3, [pc, #12]	; (800302c <pvTaskIncrementMutexHeldCount+0x24>)
 8003020:	681b      	ldr	r3, [r3, #0]
 8003022:	4618      	mov	r0, r3
 8003024:	46bd      	mov	sp, r7
 8003026:	f85d 7b04 	ldr.w	r7, [sp], #4
 800302a:	4770      	bx	lr
 800302c:	20000020 	.word	0x20000020

08003030 <prvAddCurrentTaskToDelayedList>:
 8003030:	b580      	push	{r7, lr}
 8003032:	b086      	sub	sp, #24
 8003034:	af00      	add	r7, sp, #0
 8003036:	6078      	str	r0, [r7, #4]
 8003038:	6039      	str	r1, [r7, #0]
 800303a:	4b36      	ldr	r3, [pc, #216]	; (8003114 <prvAddCurrentTaskToDelayedList+0xe4>)
 800303c:	681b      	ldr	r3, [r3, #0]
 800303e:	617b      	str	r3, [r7, #20]
 8003040:	4b35      	ldr	r3, [pc, #212]	; (8003118 <prvAddCurrentTaskToDelayedList+0xe8>)
 8003042:	681b      	ldr	r3, [r3, #0]
 8003044:	3304      	adds	r3, #4
 8003046:	4618      	mov	r0, r3
 8003048:	f000 f8fc 	bl	8003244 <uxListRemove>
 800304c:	4603      	mov	r3, r0
 800304e:	2b00      	cmp	r3, #0
 8003050:	d10b      	bne.n	800306a <prvAddCurrentTaskToDelayedList+0x3a>
 8003052:	4b31      	ldr	r3, [pc, #196]	; (8003118 <prvAddCurrentTaskToDelayedList+0xe8>)
 8003054:	681b      	ldr	r3, [r3, #0]
 8003056:	6adb      	ldr	r3, [r3, #44]	; 0x2c
 8003058:	2201      	movs	r2, #1
 800305a:	fa02 f303 	lsl.w	r3, r2, r3
 800305e:	43da      	mvns	r2, r3
 8003060:	4b2e      	ldr	r3, [pc, #184]	; (800311c <prvAddCurrentTaskToDelayedList+0xec>)
 8003062:	681b      	ldr	r3, [r3, #0]
 8003064:	4013      	ands	r3, r2
 8003066:	4a2d      	ldr	r2, [pc, #180]	; (800311c <prvAddCurrentTaskToDelayedList+0xec>)
 8003068:	6013      	str	r3, [r2, #0]
 800306a:	687b      	ldr	r3, [r7, #4]
 800306c:	f1b3 3fff 	cmp.w	r3, #4294967295
 8003070:	d124      	bne.n	80030bc <prvAddCurrentTaskToDelayedList+0x8c>
 8003072:	683b      	ldr	r3, [r7, #0]
 8003074:	2b00      	cmp	r3, #0
 8003076:	d021      	beq.n	80030bc <prvAddCurrentTaskToDelayedList+0x8c>
 8003078:	4b29      	ldr	r3, [pc, #164]	; (8003120 <prvAddCurrentTaskToDelayedList+0xf0>)
 800307a:	685b      	ldr	r3, [r3, #4]
 800307c:	613b      	str	r3, [r7, #16]
 800307e:	4b26      	ldr	r3, [pc, #152]	; (8003118 <prvAddCurrentTaskToDelayedList+0xe8>)
 8003080:	681b      	ldr	r3, [r3, #0]
 8003082:	693a      	ldr	r2, [r7, #16]
 8003084:	609a      	str	r2, [r3, #8]
 8003086:	4b24      	ldr	r3, [pc, #144]	; (8003118 <prvAddCurrentTaskToDelayedList+0xe8>)
 8003088:	681b      	ldr	r3, [r3, #0]
 800308a:	693a      	ldr	r2, [r7, #16]
 800308c:	6892      	ldr	r2, [r2, #8]
 800308e:	60da      	str	r2, [r3, #12]
 8003090:	4b21      	ldr	r3, [pc, #132]	; (8003118 <prvAddCurrentTaskToDelayedList+0xe8>)
 8003092:	681a      	ldr	r2, [r3, #0]
 8003094:	693b      	ldr	r3, [r7, #16]
 8003096:	689b      	ldr	r3, [r3, #8]
 8003098:	3204      	adds	r2, #4
 800309a:	605a      	str	r2, [r3, #4]
 800309c:	4b1e      	ldr	r3, [pc, #120]	; (8003118 <prvAddCurrentTaskToDelayedList+0xe8>)
 800309e:	681b      	ldr	r3, [r3, #0]
 80030a0:	1d1a      	adds	r2, r3, #4
 80030a2:	693b      	ldr	r3, [r7, #16]
 80030a4:	609a      	str	r2, [r3, #8]
 80030a6:	4b1c      	ldr	r3, [pc, #112]	; (8003118 <prvAddCurrentTaskToDelayedList+0xe8>)
 80030a8:	681b      	ldr	r3, [r3, #0]
 80030aa:	4a1d      	ldr	r2, [pc, #116]	; (8003120 <prvAddCurrentTaskToDelayedList+0xf0>)
 80030ac:	615a      	str	r2, [r3, #20]
 80030ae:	4b1c      	ldr	r3, [pc, #112]	; (8003120 <prvAddCurrentTaskToDelayedList+0xf0>)
 80030b0:	681b      	ldr	r3, [r3, #0]
 80030b2:	3301      	adds	r3, #1
 80030b4:	4a1a      	ldr	r2, [pc, #104]	; (8003120 <prvAddCurrentTaskToDelayedList+0xf0>)
 80030b6:	6013      	str	r3, [r2, #0]
 80030b8:	bf00      	nop
 80030ba:	e026      	b.n	800310a <prvAddCurrentTaskToDelayedList+0xda>
 80030bc:	697a      	ldr	r2, [r7, #20]
 80030be:	687b      	ldr	r3, [r7, #4]
 80030c0:	4413      	add	r3, r2
 80030c2:	60fb      	str	r3, [r7, #12]
 80030c4:	4b14      	ldr	r3, [pc, #80]	; (8003118 <prvAddCurrentTaskToDelayedList+0xe8>)
 80030c6:	681b      	ldr	r3, [r3, #0]
 80030c8:	68fa      	ldr	r2, [r7, #12]
 80030ca:	605a      	str	r2, [r3, #4]
 80030cc:	68fa      	ldr	r2, [r7, #12]
