
C:\Users\frado\template\BMTemplate/target/thumbv7em-none-eabihf/debug/template:     file format elf32-littlearm


Disassembly of section .text:

08000194 <Reset>:
 8000194:	f006 fd23 	bl	8006bde <DefaultPreInit>
 8000198:	480e      	ldr	r0, [pc, #56]	; (80001d4 <Reset+0x40>)
 800019a:	490f      	ldr	r1, [pc, #60]	; (80001d8 <Reset+0x44>)
 800019c:	2200      	movs	r2, #0
 800019e:	4281      	cmp	r1, r0
 80001a0:	d001      	beq.n	80001a6 <Reset+0x12>
 80001a2:	c004      	stmia	r0!, {r2}
 80001a4:	e7fb      	b.n	800019e <Reset+0xa>
 80001a6:	480d      	ldr	r0, [pc, #52]	; (80001dc <Reset+0x48>)
 80001a8:	490d      	ldr	r1, [pc, #52]	; (80001e0 <Reset+0x4c>)
 80001aa:	4a0e      	ldr	r2, [pc, #56]	; (80001e4 <Reset+0x50>)
 80001ac:	4281      	cmp	r1, r0
 80001ae:	d002      	beq.n	80001b6 <Reset+0x22>
 80001b0:	ca08      	ldmia	r2!, {r3}
 80001b2:	c008      	stmia	r0!, {r3}
 80001b4:	e7fa      	b.n	80001ac <Reset+0x18>
 80001b6:	480c      	ldr	r0, [pc, #48]	; (80001e8 <Reset+0x54>)
 80001b8:	f44f 0170 	mov.w	r1, #15728640	; 0xf00000
 80001bc:	6802      	ldr	r2, [r0, #0]
 80001be:	ea42 0201 	orr.w	r2, r2, r1
 80001c2:	6002      	str	r2, [r0, #0]
 80001c4:	f3bf 8f4f 	dsb	sy
 80001c8:	f3bf 8f6f 	isb	sy
 80001cc:	f000 fb34 	bl	8000838 <main>
 80001d0:	de00      	udf	#0
 80001d2:	0000      	movs	r0, r0
 80001d4:	20000004 	.word	0x20000004
 80001d8:	20000010 	.word	0x20000010
 80001dc:	20000000 	.word	0x20000000
 80001e0:	20000004 	.word	0x20000004
 80001e4:	08009600 	.word	0x08009600
 80001e8:	e000ed88 	.word	0xe000ed88

080001ec <_ZN13stm32f4xx_hal4gpio23Pin$LT$_$C$_$C$MODE$GT$3new17h34100d0e09a8828cE>:
 80001ec:	4770      	bx	lr

080001ee <_ZN13stm32f4xx_hal4gpio23Pin$LT$_$C$_$C$MODE$GT$8_set_low28_$u7b$$u7b$closure$u7d$$u7d$17h2acaa0c790eeec95E>:
 80001ee:	b580      	push	{r7, lr}
 80001f0:	466f      	mov	r7, sp
 80001f2:	b08a      	sub	sp, #40	; 0x28
 80001f4:	4601      	mov	r1, r0
 80001f6:	9103      	str	r1, [sp, #12]
 80001f8:	9106      	str	r1, [sp, #24]
 80001fa:	2005      	movs	r0, #5
 80001fc:	f807 0c09 	strb.w	r0, [r7, #-9]
 8000200:	9108      	str	r1, [sp, #32]
 8000202:	2015      	movs	r0, #21
 8000204:	f807 0c01 	strb.w	r0, [r7, #-1]
 8000208:	9104      	str	r1, [sp, #16]
 800020a:	f88d 0014 	strb.w	r0, [sp, #20]
 800020e:	9804      	ldr	r0, [sp, #16]
 8000210:	9001      	str	r0, [sp, #4]
 8000212:	f89d 1014 	ldrb.w	r1, [sp, #20]
 8000216:	2001      	movs	r0, #1
 8000218:	f001 fb8d 	bl	8001936 <_ZN53_$LT$u32$u20$as$u20$core..ops..bit..Shl$LT$u8$GT$$GT$3shl17headca2689882f40eE>
 800021c:	4601      	mov	r1, r0
 800021e:	9801      	ldr	r0, [sp, #4]
 8000220:	f001 fb75 	bl	800190e <_ZN51_$LT$u32$u20$as$u20$core..ops..bit..BitOrAssign$GT$12bitor_assign17h0fdd03c610374d6bE>
 8000224:	9804      	ldr	r0, [sp, #16]
 8000226:	b00a      	add	sp, #40	; 0x28
 8000228:	bd80      	pop	{r7, pc}

0800022a <_ZN13stm32f4xx_hal4gpio23Pin$LT$_$C$_$C$MODE$GT$8_set_low28_$u7b$$u7b$closure$u7d$$u7d$17h42996967de19be16E>:
 800022a:	b580      	push	{r7, lr}
 800022c:	466f      	mov	r7, sp
 800022e:	b08a      	sub	sp, #40	; 0x28
 8000230:	4601      	mov	r1, r0
 8000232:	9103      	str	r1, [sp, #12]
 8000234:	9106      	str	r1, [sp, #24]
 8000236:	2005      	movs	r0, #5
 8000238:	f807 0c09 	strb.w	r0, [r7, #-9]
 800023c:	9108      	str	r1, [sp, #32]
 800023e:	2015      	movs	r0, #21
 8000240:	f807 0c01 	strb.w	r0, [r7, #-1]
 8000244:	9104      	str	r1, [sp, #16]
 8000246:	f88d 0014 	strb.w	r0, [sp, #20]
 800024a:	9804      	ldr	r0, [sp, #16]
 800024c:	9001      	str	r0, [sp, #4]
 800024e:	f89d 1014 	ldrb.w	r1, [sp, #20]
 8000252:	2001      	movs	r0, #1
 8000254:	f001 fb6f 	bl	8001936 <_ZN53_$LT$u32$u20$as$u20$core..ops..bit..Shl$LT$u8$GT$$GT$3shl17headca2689882f40eE>
 8000258:	4601      	mov	r1, r0
 800025a:	9801      	ldr	r0, [sp, #4]
 800025c:	f001 fb57 	bl	800190e <_ZN51_$LT$u32$u20$as$u20$core..ops..bit..BitOrAssign$GT$12bitor_assign17h0fdd03c610374d6bE>
 8000260:	9804      	ldr	r0, [sp, #16]
 8000262:	b00a      	add	sp, #40	; 0x28
 8000264:	bd80      	pop	{r7, pc}

08000266 <_ZN13stm32f4xx_hal4gpio23Pin$LT$_$C$_$C$MODE$GT$9_set_high28_$u7b$$u7b$closure$u7d$$u7d$17h273d148d047bf613E>:
 8000266:	b580      	push	{r7, lr}
 8000268:	466f      	mov	r7, sp
 800026a:	b08a      	sub	sp, #40	; 0x28
 800026c:	4601      	mov	r1, r0
 800026e:	9103      	str	r1, [sp, #12]
 8000270:	9106      	str	r1, [sp, #24]
 8000272:	2005      	movs	r0, #5
 8000274:	f807 0c09 	strb.w	r0, [r7, #-9]
 8000278:	9108      	str	r1, [sp, #32]
 800027a:	f807 0c01 	strb.w	r0, [r7, #-1]
 800027e:	9104      	str	r1, [sp, #16]
 8000280:	f88d 0014 	strb.w	r0, [sp, #20]
 8000284:	9804      	ldr	r0, [sp, #16]
 8000286:	9001      	str	r0, [sp, #4]
 8000288:	f89d 1014 	ldrb.w	r1, [sp, #20]
 800028c:	2001      	movs	r0, #1
 800028e:	f001 fb52 	bl	8001936 <_ZN53_$LT$u32$u20$as$u20$core..ops..bit..Shl$LT$u8$GT$$GT$3shl17headca2689882f40eE>
 8000292:	4601      	mov	r1, r0
 8000294:	9801      	ldr	r0, [sp, #4]
 8000296:	f001 fb3a 	bl	800190e <_ZN51_$LT$u32$u20$as$u20$core..ops..bit..BitOrAssign$GT$12bitor_assign17h0fdd03c610374d6bE>
 800029a:	9804      	ldr	r0, [sp, #16]
 800029c:	b00a      	add	sp, #40	; 0x28
 800029e:	bd80      	pop	{r7, pc}

080002a0 <_ZN13stm32f4xx_hal4gpio4exti62_$LT$impl$u20$stm32f4xx_hal..gpio..Pin$LT$_$C$_$C$MODE$GT$$GT$9interrupt17hc18dbaf7e7a0d214E>:
 80002a0:	b088      	sub	sp, #32
 80002a2:	9007      	str	r0, [sp, #28]
 80002a4:	e7ff      	b.n	80002a6 <_ZN13stm32f4xx_hal4gpio4exti62_$LT$impl$u20$stm32f4xx_hal..gpio..Pin$LT$_$C$_$C$MODE$GT$$GT$9interrupt17hc18dbaf7e7a0d214E+0x6>
 80002a6:	e7ff      	b.n	80002a8 <_ZN13stm32f4xx_hal4gpio4exti62_$LT$impl$u20$stm32f4xx_hal..gpio..Pin$LT$_$C$_$C$MODE$GT$$GT$9interrupt17hc18dbaf7e7a0d214E+0x8>
 80002a8:	e7ff      	b.n	80002aa <_ZN13stm32f4xx_hal4gpio4exti62_$LT$impl$u20$stm32f4xx_hal..gpio..Pin$LT$_$C$_$C$MODE$GT$$GT$9interrupt17hc18dbaf7e7a0d214E+0xa>
 80002aa:	e7ff      	b.n	80002ac <_ZN13stm32f4xx_hal4gpio4exti62_$LT$impl$u20$stm32f4xx_hal..gpio..Pin$LT$_$C$_$C$MODE$GT$$GT$9interrupt17hc18dbaf7e7a0d214E+0xc>
 80002ac:	e7ff      	b.n	80002ae <_ZN13stm32f4xx_hal4gpio4exti62_$LT$impl$u20$stm32f4xx_hal..gpio..Pin$LT$_$C$_$C$MODE$GT$$GT$9interrupt17hc18dbaf7e7a0d214E+0xe>
 80002ae:	2028      	movs	r0, #40	; 0x28
 80002b0:	f8ad 0002 	strh.w	r0, [sp, #2]
 80002b4:	e7ff      	b.n	80002b6 <_ZN13stm32f4xx_hal4gpio4exti62_$LT$impl$u20$stm32f4xx_hal..gpio..Pin$LT$_$C$_$C$MODE$GT$$GT$9interrupt17hc18dbaf7e7a0d214E+0x16>
 80002b6:	f8bd 0002 	ldrh.w	r0, [sp, #2]
 80002ba:	b008      	add	sp, #32
 80002bc:	4770      	bx	lr

080002be <_ZN13stm32f4xx_hal4gpio7convert62_$LT$impl$u20$stm32f4xx_hal..gpio..Pin$LT$_$C$_$C$MODE$GT$$GT$21into_push_pull_output17h9fbaba46a7ef9b88E>:
 80002be:	b580      	push	{r7, lr}
 80002c0:	466f      	mov	r7, sp
 80002c2:	b0bc      	sub	sp, #240	; 0xf0
 80002c4:	f1a7 00b2 	sub.w	r0, r7, #178	; 0xb2
 80002c8:	9010      	str	r0, [sp, #64]	; 0x40
 80002ca:	f001 ff0e 	bl	80020ea <_ZN13stm32f4xx_hal4gpio5gpiox17h947e579eb97e05b7E>
 80002ce:	9011      	str	r0, [sp, #68]	; 0x44
 80002d0:	9027      	str	r0, [sp, #156]	; 0x9c
 80002d2:	3018      	adds	r0, #24
 80002d4:	900e      	str	r0, [sp, #56]	; 0x38
 80002d6:	9016      	str	r0, [sp, #88]	; 0x58
 80002d8:	2000      	movs	r0, #0
 80002da:	900d      	str	r0, [sp, #52]	; 0x34
 80002dc:	f001 fb06 	bl	80018ec <_ZN43_$LT$u32$u20$as$u20$core..ops..bit..Not$GT$3not17hff0a30f9d5639543E>
 80002e0:	4601      	mov	r1, r0
 80002e2:	980d      	ldr	r0, [sp, #52]	; 0x34
 80002e4:	f001 fb0d 	bl	8001902 <_ZN46_$LT$u32$u20$as$u20$core..ops..bit..BitAnd$GT$6bitand17h264f2d095c3a539dE>
 80002e8:	990d      	ldr	r1, [sp, #52]	; 0x34
 80002ea:	f001 fb04 	bl	80018f6 <_ZN45_$LT$u32$u20$as$u20$core..ops..bit..BitOr$GT$5bitor17h04ecc2e3e0e8c1e1E>
 80002ee:	9015      	str	r0, [sp, #84]	; 0x54
 80002f0:	a815      	add	r0, sp, #84	; 0x54
 80002f2:	f7ff ff7c 	bl	80001ee <_ZN13stm32f4xx_hal4gpio23Pin$LT$_$C$_$C$MODE$GT$8_set_low28_$u7b$$u7b$closure$u7d$$u7d$17h2acaa0c790eeec95E>
 80002f6:	4601      	mov	r1, r0
 80002f8:	980e      	ldr	r0, [sp, #56]	; 0x38
 80002fa:	6809      	ldr	r1, [r1, #0]
 80002fc:	9039      	str	r0, [sp, #228]	; 0xe4
 80002fe:	913a      	str	r1, [sp, #232]	; 0xe8
 8000300:	903b      	str	r0, [sp, #236]	; 0xec
 8000302:	f006 fcde 	bl	8006cc2 <_ZN4core3ptr14write_volatile17hc6769b4b417bf8b9E>
 8000306:	a812      	add	r0, sp, #72	; 0x48
 8000308:	9014      	str	r0, [sp, #80]	; 0x50
 800030a:	f248 2034 	movw	r0, #33332	; 0x8234
 800030e:	f6c0 0000 	movt	r0, #2048	; 0x800
 8000312:	f248 2135 	movw	r1, #33333	; 0x8235
 8000316:	f6c0 0100 	movt	r1, #2048	; 0x800
 800031a:	f001 fde2 	bl	8001ee2 <_ZN4core3cmp9PartialEq2ne17h30a35e28ed79374dE>
 800031e:	b950      	cbnz	r0, 8000336 <_ZN13stm32f4xx_hal4gpio7convert62_$LT$impl$u20$stm32f4xx_hal..gpio..Pin$LT$_$C$_$C$MODE$GT$$GT$21into_push_pull_output17h9fbaba46a7ef9b88E+0x78>
 8000320:	e7ff      	b.n	8000322 <_ZN13stm32f4xx_hal4gpio7convert62_$LT$impl$u20$stm32f4xx_hal..gpio..Pin$LT$_$C$_$C$MODE$GT$$GT$21into_push_pull_output17h9fbaba46a7ef9b88E+0x64>
 8000322:	f248 2136 	movw	r1, #33334	; 0x8236
 8000326:	f6c0 0100 	movt	r1, #2048	; 0x800
 800032a:	4608      	mov	r0, r1
 800032c:	f001 fdce 	bl	8001ecc <_ZN4core3cmp9PartialEq2ne17h1059a2d71d223286E>
 8000330:	2800      	cmp	r0, #0
 8000332:	d146      	bne.n	80003c2 <_ZN13stm32f4xx_hal4gpio7convert62_$LT$impl$u20$stm32f4xx_hal..gpio..Pin$LT$_$C$_$C$MODE$GT$$GT$21into_push_pull_output17h9fbaba46a7ef9b88E+0x104>
 8000334:	e039      	b.n	80003aa <_ZN13stm32f4xx_hal4gpio7convert62_$LT$impl$u20$stm32f4xx_hal..gpio..Pin$LT$_$C$_$C$MODE$GT$$GT$21into_push_pull_output17h9fbaba46a7ef9b88E+0xec>
 8000336:	2000      	movs	r0, #0
 8000338:	f807 0ca7 	strb.w	r0, [r7, #-167]
 800033c:	f817 0ca7 	ldrb.w	r0, [r7, #-167]
 8000340:	2802      	cmp	r0, #2
 8000342:	d0ee      	beq.n	8000322 <_ZN13stm32f4xx_hal4gpio7convert62_$LT$impl$u20$stm32f4xx_hal..gpio..Pin$LT$_$C$_$C$MODE$GT$$GT$21into_push_pull_output17h9fbaba46a7ef9b88E+0x64>
 8000344:	e7ff      	b.n	8000346 <_ZN13stm32f4xx_hal4gpio7convert62_$LT$impl$u20$stm32f4xx_hal..gpio..Pin$LT$_$C$_$C$MODE$GT$$GT$21into_push_pull_output17h9fbaba46a7ef9b88E+0x88>
 8000346:	f817 0ca7 	ldrb.w	r0, [r7, #-167]
 800034a:	f000 0001 	and.w	r0, r0, #1
 800034e:	f807 0ca6 	strb.w	r0, [r7, #-166]
 8000352:	f001 feca 	bl	80020ea <_ZN13stm32f4xx_hal4gpio5gpiox17h947e579eb97e05b7E>
 8000356:	9029      	str	r0, [sp, #164]	; 0xa4
 8000358:	3004      	adds	r0, #4
 800035a:	900c      	str	r0, [sp, #48]	; 0x30
 800035c:	901e      	str	r0, [sp, #120]	; 0x78
 800035e:	f1a7 01a6 	sub.w	r1, r7, #166	; 0xa6
 8000362:	910b      	str	r1, [sp, #44]	; 0x2c
 8000364:	911f      	str	r1, [sp, #124]	; 0x7c
 8000366:	902c      	str	r0, [sp, #176]	; 0xb0
 8000368:	902d      	str	r0, [sp, #180]	; 0xb4
 800036a:	f006 fc39 	bl	8006be0 <_ZN4core3ptr13read_volatile17hee64c5a39ad146b0E>
 800036e:	9009      	str	r0, [sp, #36]	; 0x24
 8000370:	9020      	str	r0, [sp, #128]	; 0x80
 8000372:	901c      	str	r0, [sp, #112]	; 0x70
 8000374:	2000      	movs	r0, #0
 8000376:	900a      	str	r0, [sp, #40]	; 0x28
 8000378:	f001 fab8 	bl	80018ec <_ZN43_$LT$u32$u20$as$u20$core..ops..bit..Not$GT$3not17hff0a30f9d5639543E>
 800037c:	4601      	mov	r1, r0
 800037e:	9809      	ldr	r0, [sp, #36]	; 0x24
 8000380:	f001 fabf 	bl	8001902 <_ZN46_$LT$u32$u20$as$u20$core..ops..bit..BitAnd$GT$6bitand17h264f2d095c3a539dE>
 8000384:	990a      	ldr	r1, [sp, #40]	; 0x28
 8000386:	f001 fab6 	bl	80018f6 <_ZN45_$LT$u32$u20$as$u20$core..ops..bit..BitOr$GT$5bitor17h04ecc2e3e0e8c1e1E>
 800038a:	4601      	mov	r1, r0
 800038c:	980b      	ldr	r0, [sp, #44]	; 0x2c
 800038e:	911d      	str	r1, [sp, #116]	; 0x74
 8000390:	a91c      	add	r1, sp, #112	; 0x70
 8000392:	aa1d      	add	r2, sp, #116	; 0x74
 8000394:	f000 fa0d 	bl	80007b2 <_ZN13stm32f4xx_hal4gpio7convert62_$LT$impl$u20$stm32f4xx_hal..gpio..Pin$LT$_$C$_$C$MODE$GT$$GT$4mode28_$u7b$$u7b$closure$u7d$$u7d$17hfe58c7a47b4271b3E>
 8000398:	4601      	mov	r1, r0
 800039a:	980c      	ldr	r0, [sp, #48]	; 0x30
 800039c:	6809      	ldr	r1, [r1, #0]
 800039e:	9033      	str	r0, [sp, #204]	; 0xcc
 80003a0:	9134      	str	r1, [sp, #208]	; 0xd0
 80003a2:	9035      	str	r0, [sp, #212]	; 0xd4
 80003a4:	f006 fc8d 	bl	8006cc2 <_ZN4core3ptr14write_volatile17hc6769b4b417bf8b9E>
 80003a8:	e7bb      	b.n	8000322 <_ZN13stm32f4xx_hal4gpio7convert62_$LT$impl$u20$stm32f4xx_hal..gpio..Pin$LT$_$C$_$C$MODE$GT$$GT$21into_push_pull_output17h9fbaba46a7ef9b88E+0x64>
 80003aa:	f248 2035 	movw	r0, #33333	; 0x8235
 80003ae:	f6c0 0000 	movt	r0, #2048	; 0x800
 80003b2:	f248 2138 	movw	r1, #33336	; 0x8238
 80003b6:	f6c0 0100 	movt	r1, #2048	; 0x800
 80003ba:	f001 fd9d 	bl	8001ef8 <_ZN4core3cmp9PartialEq2ne17hbf4fb33c9e24fef9E>
 80003be:	bbc8      	cbnz	r0, 8000434 <_ZN13stm32f4xx_hal4gpio7convert62_$LT$impl$u20$stm32f4xx_hal..gpio..Pin$LT$_$C$_$C$MODE$GT$$GT$21into_push_pull_output17h9fbaba46a7ef9b88E+0x176>
 80003c0:	e06f      	b.n	80004a2 <_ZN13stm32f4xx_hal4gpio7convert62_$LT$impl$u20$stm32f4xx_hal..gpio..Pin$LT$_$C$_$C$MODE$GT$$GT$21into_push_pull_output17h9fbaba46a7ef9b88E+0x1e4>
 80003c2:	2000      	movs	r0, #0
 80003c4:	f807 0ca5 	strb.w	r0, [r7, #-165]
 80003c8:	f817 0ca5 	ldrb.w	r0, [r7, #-165]
 80003cc:	07c0      	lsls	r0, r0, #31
 80003ce:	2800      	cmp	r0, #0
 80003d0:	d0eb      	beq.n	80003aa <_ZN13stm32f4xx_hal4gpio7convert62_$LT$impl$u20$stm32f4xx_hal..gpio..Pin$LT$_$C$_$C$MODE$GT$$GT$21into_push_pull_output17h9fbaba46a7ef9b88E+0xec>
 80003d2:	e7ff      	b.n	80003d4 <_ZN13stm32f4xx_hal4gpio7convert62_$LT$impl$u20$stm32f4xx_hal..gpio..Pin$LT$_$C$_$C$MODE$GT$$GT$21into_push_pull_output17h9fbaba46a7ef9b88E+0x116>
 80003d4:	f817 0ca4 	ldrb.w	r0, [r7, #-164]
 80003d8:	f807 0ca3 	strb.w	r0, [r7, #-163]
 80003dc:	f001 fe85 	bl	80020ea <_ZN13stm32f4xx_hal4gpio5gpiox17h947e579eb97e05b7E>
 80003e0:	9026      	str	r0, [sp, #152]	; 0x98
 80003e2:	3020      	adds	r0, #32
 80003e4:	9008      	str	r0, [sp, #32]
 80003e6:	9023      	str	r0, [sp, #140]	; 0x8c
 80003e8:	f1a7 01a3 	sub.w	r1, r7, #163	; 0xa3
 80003ec:	9107      	str	r1, [sp, #28]
 80003ee:	9124      	str	r1, [sp, #144]	; 0x90
 80003f0:	902a      	str	r0, [sp, #168]	; 0xa8
 80003f2:	902b      	str	r0, [sp, #172]	; 0xac
 80003f4:	f006 fbf4 	bl	8006be0 <_ZN4core3ptr13read_volatile17hee64c5a39ad146b0E>
 80003f8:	9005      	str	r0, [sp, #20]
 80003fa:	9025      	str	r0, [sp, #148]	; 0x94
 80003fc:	9021      	str	r0, [sp, #132]	; 0x84
 80003fe:	2000      	movs	r0, #0
 8000400:	9006      	str	r0, [sp, #24]
 8000402:	f001 fa73 	bl	80018ec <_ZN43_$LT$u32$u20$as$u20$core..ops..bit..Not$GT$3not17hff0a30f9d5639543E>
 8000406:	4601      	mov	r1, r0
 8000408:	9805      	ldr	r0, [sp, #20]
 800040a:	f001 fa7a 	bl	8001902 <_ZN46_$LT$u32$u20$as$u20$core..ops..bit..BitAnd$GT$6bitand17h264f2d095c3a539dE>
 800040e:	9906      	ldr	r1, [sp, #24]
 8000410:	f001 fa71 	bl	80018f6 <_ZN45_$LT$u32$u20$as$u20$core..ops..bit..BitOr$GT$5bitor17h04ecc2e3e0e8c1e1E>
 8000414:	4601      	mov	r1, r0
 8000416:	9807      	ldr	r0, [sp, #28]
 8000418:	9122      	str	r1, [sp, #136]	; 0x88
 800041a:	a921      	add	r1, sp, #132	; 0x84
 800041c:	aa22      	add	r2, sp, #136	; 0x88
 800041e:	f000 f94b 	bl	80006b8 <_ZN13stm32f4xx_hal4gpio7convert62_$LT$impl$u20$stm32f4xx_hal..gpio..Pin$LT$_$C$_$C$MODE$GT$$GT$4mode28_$u7b$$u7b$closure$u7d$$u7d$17hcb83b0b245bc1cedE>
 8000422:	4601      	mov	r1, r0
 8000424:	9808      	ldr	r0, [sp, #32]
 8000426:	6809      	ldr	r1, [r1, #0]
 8000428:	9030      	str	r0, [sp, #192]	; 0xc0
 800042a:	9131      	str	r1, [sp, #196]	; 0xc4
 800042c:	9032      	str	r0, [sp, #200]	; 0xc8
 800042e:	f006 fc48 	bl	8006cc2 <_ZN4core3ptr14write_volatile17hc6769b4b417bf8b9E>
 8000432:	e7ba      	b.n	80003aa <_ZN13stm32f4xx_hal4gpio7convert62_$LT$impl$u20$stm32f4xx_hal..gpio..Pin$LT$_$C$_$C$MODE$GT$$GT$21into_push_pull_output17h9fbaba46a7ef9b88E+0xec>
 8000434:	2001      	movs	r0, #1
 8000436:	f807 0ca2 	strb.w	r0, [r7, #-162]
 800043a:	f817 0ca2 	ldrb.w	r0, [r7, #-162]
 800043e:	2804      	cmp	r0, #4
 8000440:	d02f      	beq.n	80004a2 <_ZN13stm32f4xx_hal4gpio7convert62_$LT$impl$u20$stm32f4xx_hal..gpio..Pin$LT$_$C$_$C$MODE$GT$$GT$21into_push_pull_output17h9fbaba46a7ef9b88E+0x1e4>
 8000442:	e7ff      	b.n	8000444 <_ZN13stm32f4xx_hal4gpio7convert62_$LT$impl$u20$stm32f4xx_hal..gpio..Pin$LT$_$C$_$C$MODE$GT$$GT$21into_push_pull_output17h9fbaba46a7ef9b88E+0x186>
 8000444:	f817 0ca2 	ldrb.w	r0, [r7, #-162]
 8000448:	f807 0ca1 	strb.w	r0, [r7, #-161]
 800044c:	f001 fe4d 	bl	80020ea <_ZN13stm32f4xx_hal4gpio5gpiox17h947e579eb97e05b7E>
 8000450:	9004      	str	r0, [sp, #16]
 8000452:	9028      	str	r0, [sp, #160]	; 0xa0
 8000454:	9019      	str	r0, [sp, #100]	; 0x64
 8000456:	f1a7 01a1 	sub.w	r1, r7, #161	; 0xa1
 800045a:	9103      	str	r1, [sp, #12]
 800045c:	911a      	str	r1, [sp, #104]	; 0x68
 800045e:	902e      	str	r0, [sp, #184]	; 0xb8
 8000460:	902f      	str	r0, [sp, #188]	; 0xbc
 8000462:	f006 fbbd 	bl	8006be0 <_ZN4core3ptr13read_volatile17hee64c5a39ad146b0E>
 8000466:	9001      	str	r0, [sp, #4]
 8000468:	901b      	str	r0, [sp, #108]	; 0x6c
 800046a:	9017      	str	r0, [sp, #92]	; 0x5c
 800046c:	2000      	movs	r0, #0
 800046e:	9002      	str	r0, [sp, #8]
 8000470:	f001 fa3c 	bl	80018ec <_ZN43_$LT$u32$u20$as$u20$core..ops..bit..Not$GT$3not17hff0a30f9d5639543E>
 8000474:	4601      	mov	r1, r0
 8000476:	9801      	ldr	r0, [sp, #4]
 8000478:	f001 fa43 	bl	8001902 <_ZN46_$LT$u32$u20$as$u20$core..ops..bit..BitAnd$GT$6bitand17h264f2d095c3a539dE>
 800047c:	9902      	ldr	r1, [sp, #8]
 800047e:	f001 fa3a 	bl	80018f6 <_ZN45_$LT$u32$u20$as$u20$core..ops..bit..BitOr$GT$5bitor17h04ecc2e3e0e8c1e1E>
 8000482:	4601      	mov	r1, r0
 8000484:	9803      	ldr	r0, [sp, #12]
 8000486:	9118      	str	r1, [sp, #96]	; 0x60
 8000488:	a917      	add	r1, sp, #92	; 0x5c
 800048a:	aa18      	add	r2, sp, #96	; 0x60
 800048c:	f000 f94e 	bl	800072c <_ZN13stm32f4xx_hal4gpio7convert62_$LT$impl$u20$stm32f4xx_hal..gpio..Pin$LT$_$C$_$C$MODE$GT$$GT$4mode28_$u7b$$u7b$closure$u7d$$u7d$17hec56cfb26ba9fc57E>
 8000490:	4601      	mov	r1, r0
 8000492:	9804      	ldr	r0, [sp, #16]
 8000494:	6809      	ldr	r1, [r1, #0]
 8000496:	9036      	str	r0, [sp, #216]	; 0xd8
 8000498:	9137      	str	r1, [sp, #220]	; 0xdc
 800049a:	9038      	str	r0, [sp, #224]	; 0xe0
 800049c:	f006 fc11 	bl	8006cc2 <_ZN4core3ptr14write_volatile17hc6769b4b417bf8b9E>
 80004a0:	e7ff      	b.n	80004a2 <_ZN13stm32f4xx_hal4gpio7convert62_$LT$impl$u20$stm32f4xx_hal..gpio..Pin$LT$_$C$_$C$MODE$GT$$GT$21into_push_pull_output17h9fbaba46a7ef9b88E+0x1e4>
 80004a2:	f7ff fea3 	bl	80001ec <_ZN13stm32f4xx_hal4gpio23Pin$LT$_$C$_$C$MODE$GT$3new17h34100d0e09a8828cE>
 80004a6:	b03c      	add	sp, #240	; 0xf0
 80004a8:	bd80      	pop	{r7, pc}

080004aa <_ZN8cortex_m9interrupt4free17h176b52d7c1861837E>:
 80004aa:	b580      	push	{r7, lr}
 80004ac:	466f      	mov	r7, sp
 80004ae:	b082      	sub	sp, #8
 80004b0:	f000 f8d1 	bl	8000656 <_ZN8cortex_m8register7primask4read17hac51ca0fc5728b5bE>
 80004b4:	9000      	str	r0, [sp, #0]
 80004b6:	f807 0c01 	strb.w	r0, [r7, #-1]
 80004ba:	f000 f8f8 	bl	80006ae <_ZN8cortex_m9interrupt7disable17hc9c1a860199a1cfeE>
 80004be:	f006 fcee 	bl	8006e9e <_ZN10bare_metal15CriticalSection3new17h9bd189bae3307d9fE>
 80004c2:	a801      	add	r0, sp, #4
 80004c4:	f000 fffc 	bl	80014c0 <_ZN8template18__cortex_m_rt_main28_$u7b$$u7b$closure$u7d$$u7d$17hffb88ec2e7b0cf1eE>
 80004c8:	9800      	ldr	r0, [sp, #0]
 80004ca:	f000 f8dd 	bl	8000688 <_ZN8cortex_m8register7primask7Primask9is_active17hac56192daabd5521E>
 80004ce:	b910      	cbnz	r0, 80004d6 <_ZN8cortex_m9interrupt4free17h176b52d7c1861837E+0x2c>
 80004d0:	e7ff      	b.n	80004d2 <_ZN8cortex_m9interrupt4free17h176b52d7c1861837E+0x28>
 80004d2:	b002      	add	sp, #8
 80004d4:	bd80      	pop	{r7, pc}
 80004d6:	f000 f8e5 	bl	80006a4 <_ZN8cortex_m9interrupt6enable17h9d9024c9247e2dbeE>
 80004da:	e7fa      	b.n	80004d2 <_ZN8cortex_m9interrupt4free17h176b52d7c1861837E+0x28>

080004dc <_ZN8cortex_m9interrupt4free17h33e2905d11dc12bdE>:
 80004dc:	b580      	push	{r7, lr}
 80004de:	466f      	mov	r7, sp
 80004e0:	b084      	sub	sp, #16
 80004e2:	f000 f8b8 	bl	8000656 <_ZN8cortex_m8register7primask4read17hac51ca0fc5728b5bE>
 80004e6:	9000      	str	r0, [sp, #0]
 80004e8:	f807 0c05 	strb.w	r0, [r7, #-5]
 80004ec:	f000 f8df 	bl	80006ae <_ZN8cortex_m9interrupt7disable17hc9c1a860199a1cfeE>
 80004f0:	f006 fcd5 	bl	8006e9e <_ZN10bare_metal15CriticalSection3new17h9bd189bae3307d9fE>
 80004f4:	1ff8      	subs	r0, r7, #7
 80004f6:	f001 f80c 	bl	8001512 <_ZN8template18__cortex_m_rt_main28_$u7b$$u7b$closure$u7d$$u7d$17hd1bf743da7a2b862E>
 80004fa:	4601      	mov	r1, r0
 80004fc:	9800      	ldr	r0, [sp, #0]
 80004fe:	460a      	mov	r2, r1
 8000500:	9201      	str	r2, [sp, #4]
 8000502:	9103      	str	r1, [sp, #12]
 8000504:	f000 f8c0 	bl	8000688 <_ZN8cortex_m8register7primask7Primask9is_active17hac56192daabd5521E>
 8000508:	b918      	cbnz	r0, 8000512 <_ZN8cortex_m9interrupt4free17h33e2905d11dc12bdE+0x36>
 800050a:	e7ff      	b.n	800050c <_ZN8cortex_m9interrupt4free17h33e2905d11dc12bdE+0x30>
 800050c:	9801      	ldr	r0, [sp, #4]
 800050e:	b004      	add	sp, #16
 8000510:	bd80      	pop	{r7, pc}
 8000512:	f000 f8c7 	bl	80006a4 <_ZN8cortex_m9interrupt6enable17h9d9024c9247e2dbeE>
 8000516:	e7f9      	b.n	800050c <_ZN8cortex_m9interrupt4free17h33e2905d11dc12bdE+0x30>

08000518 <_ZN8cortex_m9interrupt4free17ha8a6067d8808e710E>:
 8000518:	b580      	push	{r7, lr}
 800051a:	466f      	mov	r7, sp
 800051c:	b082      	sub	sp, #8
 800051e:	f000 f89a 	bl	8000656 <_ZN8cortex_m8register7primask4read17hac51ca0fc5728b5bE>
 8000522:	9000      	str	r0, [sp, #0]
 8000524:	f807 0c01 	strb.w	r0, [r7, #-1]
 8000528:	f000 f8c1 	bl	80006ae <_ZN8cortex_m9interrupt7disable17hc9c1a860199a1cfeE>
 800052c:	f006 fcb7 	bl	8006e9e <_ZN10bare_metal15CriticalSection3new17h9bd189bae3307d9fE>
 8000530:	a801      	add	r0, sp, #4
 8000532:	f000 fffd 	bl	8001530 <_ZN8template23__cortex_m_rt_EXTI15_1028_$u7b$$u7b$closure$u7d$$u7d$17h67e2aa689e879236E>
 8000536:	9800      	ldr	r0, [sp, #0]
 8000538:	f000 f8a6 	bl	8000688 <_ZN8cortex_m8register7primask7Primask9is_active17hac56192daabd5521E>
 800053c:	b910      	cbnz	r0, 8000544 <_ZN8cortex_m9interrupt4free17ha8a6067d8808e710E+0x2c>
 800053e:	e7ff      	b.n	8000540 <_ZN8cortex_m9interrupt4free17ha8a6067d8808e710E+0x28>
 8000540:	b002      	add	sp, #8
 8000542:	bd80      	pop	{r7, pc}
 8000544:	f000 f8ae 	bl	80006a4 <_ZN8cortex_m9interrupt6enable17h9d9024c9247e2dbeE>
 8000548:	e7fa      	b.n	8000540 <_ZN8cortex_m9interrupt4free17ha8a6067d8808e710E+0x28>

0800054a <_ZN8cortex_m9interrupt4free17hca6ff11251141a74E>:
 800054a:	b580      	push	{r7, lr}
 800054c:	466f      	mov	r7, sp
 800054e:	b084      	sub	sp, #16
 8000550:	f000 f881 	bl	8000656 <_ZN8cortex_m8register7primask4read17hac51ca0fc5728b5bE>
 8000554:	9000      	str	r0, [sp, #0]
 8000556:	f807 0c05 	strb.w	r0, [r7, #-5]
 800055a:	f000 f8a8 	bl	80006ae <_ZN8cortex_m9interrupt7disable17hc9c1a860199a1cfeE>
 800055e:	f006 fc9e 	bl	8006e9e <_ZN10bare_metal15CriticalSection3new17h9bd189bae3307d9fE>
 8000562:	1ff8      	subs	r0, r7, #7
 8000564:	f000 ffc6 	bl	80014f4 <_ZN8template18__cortex_m_rt_main28_$u7b$$u7b$closure$u7d$$u7d$17hd8e2cdaf031f0cadE>
 8000568:	4601      	mov	r1, r0
 800056a:	9800      	ldr	r0, [sp, #0]
 800056c:	460a      	mov	r2, r1
 800056e:	9201      	str	r2, [sp, #4]
 8000570:	9103      	str	r1, [sp, #12]
 8000572:	f000 f889 	bl	8000688 <_ZN8cortex_m8register7primask7Primask9is_active17hac56192daabd5521E>
 8000576:	b918      	cbnz	r0, 8000580 <_ZN8cortex_m9interrupt4free17hca6ff11251141a74E+0x36>
 8000578:	e7ff      	b.n	800057a <_ZN8cortex_m9interrupt4free17hca6ff11251141a74E+0x30>
 800057a:	9801      	ldr	r0, [sp, #4]
 800057c:	b004      	add	sp, #16
 800057e:	bd80      	pop	{r7, pc}
 8000580:	f000 f890 	bl	80006a4 <_ZN8cortex_m9interrupt6enable17h9d9024c9247e2dbeE>
 8000584:	e7f9      	b.n	800057a <_ZN8cortex_m9interrupt4free17hca6ff11251141a74E+0x30>

08000586 <_ZN10bare_metal14Mutex$LT$T$GT$6borrow17h12d8efbf4c64646aE>:
 8000586:	b083      	sub	sp, #12
 8000588:	9000      	str	r0, [sp, #0]
 800058a:	9101      	str	r1, [sp, #4]
 800058c:	9002      	str	r0, [sp, #8]
 800058e:	b003      	add	sp, #12
 8000590:	4770      	bx	lr

08000592 <_ZN10bare_metal14Mutex$LT$T$GT$6borrow17h444bb5f2033f5e6bE>:
 8000592:	b083      	sub	sp, #12
 8000594:	9000      	str	r0, [sp, #0]
 8000596:	9101      	str	r1, [sp, #4]
 8000598:	9002      	str	r0, [sp, #8]
 800059a:	b003      	add	sp, #12
 800059c:	4770      	bx	lr

0800059e <_ZN51_$LT$u32$u20$as$u20$fugit..duration..ExtU32Ceil$GT$15millis_at_least17h0bfe6345ad36cbeeE>:
 800059e:	b580      	push	{r7, lr}
 80005a0:	466f      	mov	r7, sp
 80005a2:	b082      	sub	sp, #8
 80005a4:	9001      	str	r0, [sp, #4]
 80005a6:	f000 f802 	bl	80005ae <_ZN5fugit8duration27Duration$LT$u32$C$_$C$_$GT$15millis_at_least17h72063b891b7e457cE>
 80005aa:	b002      	add	sp, #8
 80005ac:	bd80      	pop	{r7, pc}

080005ae <_ZN5fugit8duration27Duration$LT$u32$C$_$C$_$GT$15millis_at_least17h72063b891b7e457cE>:
 80005ae:	b580      	push	{r7, lr}
 80005b0:	466f      	mov	r7, sp
 80005b2:	b086      	sub	sp, #24
 80005b4:	9003      	str	r0, [sp, #12]
 80005b6:	9001      	str	r0, [sp, #4]
 80005b8:	2000      	movs	r0, #0
 80005ba:	b938      	cbnz	r0, 80005cc <_ZN5fugit8duration27Duration$LT$u32$C$_$C$_$GT$15millis_at_least17h72063b891b7e457cE+0x1e>
 80005bc:	e7ff      	b.n	80005be <_ZN5fugit8duration27Duration$LT$u32$C$_$C$_$GT$15millis_at_least17h72063b891b7e457cE+0x10>
 80005be:	9801      	ldr	r0, [sp, #4]
 80005c0:	9004      	str	r0, [sp, #16]
 80005c2:	2001      	movs	r0, #1
 80005c4:	9005      	str	r0, [sp, #20]
 80005c6:	2000      	movs	r0, #0
 80005c8:	b130      	cbz	r0, 80005d8 <_ZN5fugit8duration27Duration$LT$u32$C$_$C$_$GT$15millis_at_least17h72063b891b7e457cE+0x2a>
 80005ca:	e008      	b.n	80005de <_ZN5fugit8duration27Duration$LT$u32$C$_$C$_$GT$15millis_at_least17h72063b891b7e457cE+0x30>
 80005cc:	f248 2098 	movw	r0, #33432	; 0x8298
 80005d0:	f6c0 0000 	movt	r0, #2048	; 0x800
 80005d4:	f007 fd50 	bl	8008078 <_ZN4core9panicking11panic_const24panic_const_mul_overflow17hd3d29f8f054ee19bE>
 80005d8:	9801      	ldr	r0, [sp, #4]
 80005da:	9002      	str	r0, [sp, #8]
 80005dc:	e006      	b.n	80005ec <_ZN5fugit8duration27Duration$LT$u32$C$_$C$_$GT$15millis_at_least17h72063b891b7e457cE+0x3e>
 80005de:	9901      	ldr	r1, [sp, #4]
 80005e0:	1c48      	adds	r0, r1, #1
 80005e2:	4602      	mov	r2, r0
 80005e4:	9200      	str	r2, [sp, #0]
 80005e6:	4288      	cmp	r0, r1
 80005e8:	d308      	bcc.n	80005fc <_ZN5fugit8duration27Duration$LT$u32$C$_$C$_$GT$15millis_at_least17h72063b891b7e457cE+0x4e>
 80005ea:	e004      	b.n	80005f6 <_ZN5fugit8duration27Duration$LT$u32$C$_$C$_$GT$15millis_at_least17h72063b891b7e457cE+0x48>
 80005ec:	9802      	ldr	r0, [sp, #8]
 80005ee:	f005 fe30 	bl	8006252 <_ZN5fugit8duration27Duration$LT$u32$C$_$C$_$GT$10from_ticks17h070785f2d36001d3E>
 80005f2:	b006      	add	sp, #24
 80005f4:	bd80      	pop	{r7, pc}
 80005f6:	9800      	ldr	r0, [sp, #0]
 80005f8:	9002      	str	r0, [sp, #8]
 80005fa:	e7f7      	b.n	80005ec <_ZN5fugit8duration27Duration$LT$u32$C$_$C$_$GT$15millis_at_least17h72063b891b7e457cE+0x3e>
 80005fc:	f248 2098 	movw	r0, #33432	; 0x8298
 8000600:	f6c0 0000 	movt	r0, #2048	; 0x800
 8000604:	f007 fd12 	bl	800802c <_ZN4core9panicking11panic_const24panic_const_add_overflow17h8e8a2d960805aa64E>

08000608 <_ZN4core3ptr8non_null16NonNull$LT$T$GT$13new_unchecked18precondition_check17h248a73345b15702aE>:
 8000608:	b580      	push	{r7, lr}
 800060a:	466f      	mov	r7, sp
 800060c:	b084      	sub	sp, #16
 800060e:	9001      	str	r0, [sp, #4]
 8000610:	9002      	str	r0, [sp, #8]
 8000612:	9003      	str	r0, [sp, #12]
 8000614:	b938      	cbnz	r0, 8000626 <_ZN4core3ptr8non_null16NonNull$LT$T$GT$13new_unchecked18precondition_check17h248a73345b15702aE+0x1e>
 8000616:	e7ff      	b.n	8000618 <_ZN4core3ptr8non_null16NonNull$LT$T$GT$13new_unchecked18precondition_check17h248a73345b15702aE+0x10>
 8000618:	f248 20a8 	movw	r0, #33448	; 0x82a8
 800061c:	f6c0 0000 	movt	r0, #2048	; 0x800
 8000620:	215d      	movs	r1, #93	; 0x5d
 8000622:	f006 fcb8 	bl	8006f96 <_ZN4core9panicking14panic_nounwind17ha7168a7a4498f4fbE>
 8000626:	b004      	add	sp, #16
 8000628:	bd80      	pop	{r7, pc}

0800062a <_ZN8cortex_m3asm3dsb17hdf01c6031a464b82E>:
 800062a:	b580      	push	{r7, lr}
 800062c:	466f      	mov	r7, sp
 800062e:	f006 fc30 	bl	8006e92 <__dsb>
 8000632:	bd80      	pop	{r7, pc}

08000634 <_ZN77_$LT$cortex_m..register..primask..Primask$u20$as$u20$core..cmp..PartialEq$GT$2eq17hefc2e0b3850a5cfdE>:
 8000634:	b084      	sub	sp, #16
 8000636:	9000      	str	r0, [sp, #0]
 8000638:	9101      	str	r1, [sp, #4]
 800063a:	7800      	ldrb	r0, [r0, #0]
 800063c:	f000 0001 	and.w	r0, r0, #1
 8000640:	9002      	str	r0, [sp, #8]
 8000642:	7809      	ldrb	r1, [r1, #0]
 8000644:	f001 0101 	and.w	r1, r1, #1
 8000648:	9103      	str	r1, [sp, #12]
 800064a:	1a40      	subs	r0, r0, r1
 800064c:	fab0 f080 	clz	r0, r0
 8000650:	0940      	lsrs	r0, r0, #5
 8000652:	b004      	add	sp, #16
 8000654:	4770      	bx	lr

08000656 <_ZN8cortex_m8register7primask4read17hac51ca0fc5728b5bE>:
 8000656:	b580      	push	{r7, lr}
 8000658:	466f      	mov	r7, sp
 800065a:	b082      	sub	sp, #8
 800065c:	f006 fc1c 	bl	8006e98 <__primask_r>
 8000660:	9001      	str	r0, [sp, #4]
 8000662:	f000 0001 	and.w	r0, r0, #1
 8000666:	2801      	cmp	r0, #1
 8000668:	d004      	beq.n	8000674 <_ZN8cortex_m8register7primask4read17hac51ca0fc5728b5bE+0x1e>
 800066a:	e7ff      	b.n	800066c <_ZN8cortex_m8register7primask4read17hac51ca0fc5728b5bE+0x16>
 800066c:	2000      	movs	r0, #0
 800066e:	f807 0c05 	strb.w	r0, [r7, #-5]
 8000672:	e003      	b.n	800067c <_ZN8cortex_m8register7primask4read17hac51ca0fc5728b5bE+0x26>
 8000674:	2001      	movs	r0, #1
 8000676:	f807 0c05 	strb.w	r0, [r7, #-5]
 800067a:	e7ff      	b.n	800067c <_ZN8cortex_m8register7primask4read17hac51ca0fc5728b5bE+0x26>
 800067c:	f817 0c05 	ldrb.w	r0, [r7, #-5]
 8000680:	f000 0001 	and.w	r0, r0, #1
 8000684:	b002      	add	sp, #8
 8000686:	bd80      	pop	{r7, pc}

08000688 <_ZN8cortex_m8register7primask7Primask9is_active17hac56192daabd5521E>:
 8000688:	b580      	push	{r7, lr}
 800068a:	466f      	mov	r7, sp
 800068c:	b082      	sub	sp, #8
 800068e:	f807 0c01 	strb.w	r0, [r7, #-1]
 8000692:	f248 3105 	movw	r1, #33541	; 0x8305
 8000696:	f6c0 0100 	movt	r1, #2048	; 0x800
 800069a:	1e78      	subs	r0, r7, #1
 800069c:	f7ff ffca 	bl	8000634 <_ZN77_$LT$cortex_m..register..primask..Primask$u20$as$u20$core..cmp..PartialEq$GT$2eq17hefc2e0b3850a5cfdE>
 80006a0:	b002      	add	sp, #8
 80006a2:	bd80      	pop	{r7, pc}

080006a4 <_ZN8cortex_m9interrupt6enable17h9d9024c9247e2dbeE>:
 80006a4:	b580      	push	{r7, lr}
 80006a6:	466f      	mov	r7, sp
 80006a8:	f006 fbeb 	bl	8006e82 <__cpsie>
 80006ac:	bd80      	pop	{r7, pc}

080006ae <_ZN8cortex_m9interrupt7disable17hc9c1a860199a1cfeE>:
 80006ae:	b580      	push	{r7, lr}
 80006b0:	466f      	mov	r7, sp
 80006b2:	f006 fbe4 	bl	8006e7e <__cpsid>
 80006b6:	bd80      	pop	{r7, pc}

080006b8 <_ZN13stm32f4xx_hal4gpio7convert62_$LT$impl$u20$stm32f4xx_hal..gpio..Pin$LT$_$C$_$C$MODE$GT$$GT$4mode28_$u7b$$u7b$closure$u7d$$u7d$17hcb83b0b245bc1cedE>:
 80006b8:	b580      	push	{r7, lr}
 80006ba:	466f      	mov	r7, sp
 80006bc:	b08e      	sub	sp, #56	; 0x38
 80006be:	9004      	str	r0, [sp, #16]
 80006c0:	9105      	str	r1, [sp, #20]
 80006c2:	9206      	str	r2, [sp, #24]
 80006c4:	920a      	str	r2, [sp, #40]	; 0x28
 80006c6:	2005      	movs	r0, #5
 80006c8:	f807 0c09 	strb.w	r0, [r7, #-9]
 80006cc:	920c      	str	r2, [sp, #48]	; 0x30
 80006ce:	2114      	movs	r1, #20
 80006d0:	f807 1c02 	strb.w	r1, [r7, #-2]
 80006d4:	9804      	ldr	r0, [sp, #16]
 80006d6:	7800      	ldrb	r0, [r0, #0]
 80006d8:	9002      	str	r0, [sp, #8]
 80006da:	9207      	str	r2, [sp, #28]
 80006dc:	f88d 1020 	strb.w	r1, [sp, #32]
 80006e0:	f807 0c11 	strb.w	r0, [r7, #-17]
 80006e4:	9807      	ldr	r0, [sp, #28]
 80006e6:	9001      	str	r0, [sp, #4]
 80006e8:	f006 f8cd 	bl	8006886 <_ZN15stm32f4_staging7generic8mask_u3217h3038667370972b0dE>
 80006ec:	f89d 1020 	ldrb.w	r1, [sp, #32]
 80006f0:	f001 f921 	bl	8001936 <_ZN53_$LT$u32$u20$as$u20$core..ops..bit..Shl$LT$u8$GT$$GT$3shl17headca2689882f40eE>
 80006f4:	f001 f8fa 	bl	80018ec <_ZN43_$LT$u32$u20$as$u20$core..ops..bit..Not$GT$3not17hff0a30f9d5639543E>
 80006f8:	4601      	mov	r1, r0
 80006fa:	9801      	ldr	r0, [sp, #4]
 80006fc:	f001 f911 	bl	8001922 <_ZN52_$LT$u32$u20$as$u20$core..ops..bit..BitAndAssign$GT$13bitand_assign17hdb060cbf9d195fa6E>
 8000700:	9802      	ldr	r0, [sp, #8]
 8000702:	9907      	ldr	r1, [sp, #28]
 8000704:	9103      	str	r1, [sp, #12]
 8000706:	f807 0c01 	strb.w	r0, [r7, #-1]
 800070a:	f006 f8bc 	bl	8006886 <_ZN15stm32f4_staging7generic8mask_u3217h3038667370972b0dE>
 800070e:	4601      	mov	r1, r0
 8000710:	9802      	ldr	r0, [sp, #8]
 8000712:	f001 f8f6 	bl	8001902 <_ZN46_$LT$u32$u20$as$u20$core..ops..bit..BitAnd$GT$6bitand17h264f2d095c3a539dE>
 8000716:	f89d 1020 	ldrb.w	r1, [sp, #32]
 800071a:	f001 f90c 	bl	8001936 <_ZN53_$LT$u32$u20$as$u20$core..ops..bit..Shl$LT$u8$GT$$GT$3shl17headca2689882f40eE>
 800071e:	4601      	mov	r1, r0
 8000720:	9803      	ldr	r0, [sp, #12]
 8000722:	f001 f8f4 	bl	800190e <_ZN51_$LT$u32$u20$as$u20$core..ops..bit..BitOrAssign$GT$12bitor_assign17h0fdd03c610374d6bE>
 8000726:	9807      	ldr	r0, [sp, #28]
 8000728:	b00e      	add	sp, #56	; 0x38
 800072a:	bd80      	pop	{r7, pc}

0800072c <_ZN13stm32f4xx_hal4gpio7convert62_$LT$impl$u20$stm32f4xx_hal..gpio..Pin$LT$_$C$_$C$MODE$GT$$GT$4mode28_$u7b$$u7b$closure$u7d$$u7d$17hec56cfb26ba9fc57E>:
 800072c:	b580      	push	{r7, lr}
 800072e:	466f      	mov	r7, sp
 8000730:	b090      	sub	sp, #64	; 0x40
 8000732:	9003      	str	r0, [sp, #12]
 8000734:	9104      	str	r1, [sp, #16]
 8000736:	9205      	str	r2, [sp, #20]
 8000738:	920c      	str	r2, [sp, #48]	; 0x30
 800073a:	2005      	movs	r0, #5
 800073c:	f807 0c09 	strb.w	r0, [r7, #-9]
 8000740:	920e      	str	r2, [sp, #56]	; 0x38
 8000742:	210a      	movs	r1, #10
 8000744:	f807 1c03 	strb.w	r1, [r7, #-3]
 8000748:	9803      	ldr	r0, [sp, #12]
 800074a:	7800      	ldrb	r0, [r0, #0]
 800074c:	9206      	str	r2, [sp, #24]
 800074e:	f88d 101c 	strb.w	r1, [sp, #28]
 8000752:	f807 0c1d 	strb.w	r0, [r7, #-29]
 8000756:	f807 0c02 	strb.w	r0, [r7, #-2]
 800075a:	f817 0c02 	ldrb.w	r0, [r7, #-2]
 800075e:	9001      	str	r0, [sp, #4]
 8000760:	9209      	str	r2, [sp, #36]	; 0x24
 8000762:	f88d 1028 	strb.w	r1, [sp, #40]	; 0x28
 8000766:	f807 0c11 	strb.w	r0, [r7, #-17]
 800076a:	9809      	ldr	r0, [sp, #36]	; 0x24
 800076c:	9000      	str	r0, [sp, #0]
 800076e:	f006 f88e 	bl	800688e <_ZN15stm32f4_staging7generic8mask_u3217ha42b028e7d8205ffE>
 8000772:	f89d 1028 	ldrb.w	r1, [sp, #40]	; 0x28
 8000776:	f001 f8de 	bl	8001936 <_ZN53_$LT$u32$u20$as$u20$core..ops..bit..Shl$LT$u8$GT$$GT$3shl17headca2689882f40eE>
 800077a:	f001 f8b7 	bl	80018ec <_ZN43_$LT$u32$u20$as$u20$core..ops..bit..Not$GT$3not17hff0a30f9d5639543E>
 800077e:	4601      	mov	r1, r0
 8000780:	9800      	ldr	r0, [sp, #0]
 8000782:	f001 f8ce 	bl	8001922 <_ZN52_$LT$u32$u20$as$u20$core..ops..bit..BitAndAssign$GT$13bitand_assign17hdb060cbf9d195fa6E>
 8000786:	9801      	ldr	r0, [sp, #4]
 8000788:	9909      	ldr	r1, [sp, #36]	; 0x24
 800078a:	9102      	str	r1, [sp, #8]
 800078c:	f807 0c01 	strb.w	r0, [r7, #-1]
 8000790:	f006 f87d 	bl	800688e <_ZN15stm32f4_staging7generic8mask_u3217ha42b028e7d8205ffE>
 8000794:	4601      	mov	r1, r0
 8000796:	9801      	ldr	r0, [sp, #4]
 8000798:	f001 f8b3 	bl	8001902 <_ZN46_$LT$u32$u20$as$u20$core..ops..bit..BitAnd$GT$6bitand17h264f2d095c3a539dE>
 800079c:	f89d 1028 	ldrb.w	r1, [sp, #40]	; 0x28
 80007a0:	f001 f8c9 	bl	8001936 <_ZN53_$LT$u32$u20$as$u20$core..ops..bit..Shl$LT$u8$GT$$GT$3shl17headca2689882f40eE>
 80007a4:	4601      	mov	r1, r0
 80007a6:	9802      	ldr	r0, [sp, #8]
 80007a8:	f001 f8b1 	bl	800190e <_ZN51_$LT$u32$u20$as$u20$core..ops..bit..BitOrAssign$GT$12bitor_assign17h0fdd03c610374d6bE>
 80007ac:	9809      	ldr	r0, [sp, #36]	; 0x24
 80007ae:	b010      	add	sp, #64	; 0x40
 80007b0:	bd80      	pop	{r7, pc}

080007b2 <_ZN13stm32f4xx_hal4gpio7convert62_$LT$impl$u20$stm32f4xx_hal..gpio..Pin$LT$_$C$_$C$MODE$GT$$GT$4mode28_$u7b$$u7b$closure$u7d$$u7d$17hfe58c7a47b4271b3E>:
 80007b2:	b580      	push	{r7, lr}
 80007b4:	466f      	mov	r7, sp
 80007b6:	b092      	sub	sp, #72	; 0x48
 80007b8:	9005      	str	r0, [sp, #20]
 80007ba:	9106      	str	r1, [sp, #24]
 80007bc:	9207      	str	r2, [sp, #28]
 80007be:	920e      	str	r2, [sp, #56]	; 0x38
 80007c0:	2105      	movs	r1, #5
 80007c2:	f807 1c09 	strb.w	r1, [r7, #-9]
 80007c6:	9210      	str	r2, [sp, #64]	; 0x40
 80007c8:	f807 1c02 	strb.w	r1, [r7, #-2]
 80007cc:	9805      	ldr	r0, [sp, #20]
 80007ce:	7800      	ldrb	r0, [r0, #0]
 80007d0:	9208      	str	r2, [sp, #32]
 80007d2:	f88d 1024 	strb.w	r1, [sp, #36]	; 0x24
 80007d6:	f000 0001 	and.w	r0, r0, #1
 80007da:	f807 0c1d 	strb.w	r0, [r7, #-29]
 80007de:	f807 0c11 	strb.w	r0, [r7, #-17]
 80007e2:	f817 0c11 	ldrb.w	r0, [r7, #-17]
 80007e6:	920b      	str	r2, [sp, #44]	; 0x2c
 80007e8:	f88d 1030 	strb.w	r1, [sp, #48]	; 0x30
 80007ec:	f000 0001 	and.w	r0, r0, #1
 80007f0:	9002      	str	r0, [sp, #8]
 80007f2:	f807 0c12 	strb.w	r0, [r7, #-18]
 80007f6:	980b      	ldr	r0, [sp, #44]	; 0x2c
 80007f8:	9001      	str	r0, [sp, #4]
 80007fa:	f89d 1030 	ldrb.w	r1, [sp, #48]	; 0x30
 80007fe:	2001      	movs	r0, #1
 8000800:	9003      	str	r0, [sp, #12]
 8000802:	f001 f898 	bl	8001936 <_ZN53_$LT$u32$u20$as$u20$core..ops..bit..Shl$LT$u8$GT$$GT$3shl17headca2689882f40eE>
 8000806:	f001 f871 	bl	80018ec <_ZN43_$LT$u32$u20$as$u20$core..ops..bit..Not$GT$3not17hff0a30f9d5639543E>
 800080a:	4601      	mov	r1, r0
 800080c:	9801      	ldr	r0, [sp, #4]
 800080e:	f001 f888 	bl	8001922 <_ZN52_$LT$u32$u20$as$u20$core..ops..bit..BitAndAssign$GT$13bitand_assign17hdb060cbf9d195fa6E>
 8000812:	9802      	ldr	r0, [sp, #8]
 8000814:	9903      	ldr	r1, [sp, #12]
 8000816:	9a0b      	ldr	r2, [sp, #44]	; 0x2c
 8000818:	9204      	str	r2, [sp, #16]
 800081a:	f807 0c01 	strb.w	r0, [r7, #-1]
 800081e:	f001 f870 	bl	8001902 <_ZN46_$LT$u32$u20$as$u20$core..ops..bit..BitAnd$GT$6bitand17h264f2d095c3a539dE>
 8000822:	f89d 1030 	ldrb.w	r1, [sp, #48]	; 0x30
 8000826:	f001 f886 	bl	8001936 <_ZN53_$LT$u32$u20$as$u20$core..ops..bit..Shl$LT$u8$GT$$GT$3shl17headca2689882f40eE>
 800082a:	4601      	mov	r1, r0
 800082c:	9804      	ldr	r0, [sp, #16]
 800082e:	f001 f86e 	bl	800190e <_ZN51_$LT$u32$u20$as$u20$core..ops..bit..BitOrAssign$GT$12bitor_assign17h0fdd03c610374d6bE>
 8000832:	980b      	ldr	r0, [sp, #44]	; 0x2c
 8000834:	b012      	add	sp, #72	; 0x48
 8000836:	bd80      	pop	{r7, pc}

08000838 <main>:
 8000838:	b580      	push	{r7, lr}
 800083a:	466f      	mov	r7, sp
 800083c:	f000 f800 	bl	8000840 <_ZN8template18__cortex_m_rt_main17h6764445424aefa1dE>

08000840 <_ZN8template18__cortex_m_rt_main17h6764445424aefa1dE>:
 8000840:	b580      	push	{r7, lr}
 8000842:	466f      	mov	r7, sp
 8000844:	f5ad 6d91 	sub.w	sp, sp, #1160	; 0x488
 8000848:	f001 f890 	bl	800196c <_ZN15stm32f4_staging9stm32f40111Peripherals4take17h563e934390591ec4E>
 800084c:	f88d 020d 	strb.w	r0, [sp, #525]	; 0x20d
 8000850:	f89d 020d 	ldrb.w	r0, [sp, #525]	; 0x20d
 8000854:	07c0      	lsls	r0, r0, #31
 8000856:	b930      	cbnz	r0, 8000866 <_ZN8template18__cortex_m_rt_main17h6764445424aefa1dE+0x26>
 8000858:	e7ff      	b.n	800085a <_ZN8template18__cortex_m_rt_main17h6764445424aefa1dE+0x1a>
 800085a:	f248 30c4 	movw	r0, #33732	; 0x83c4
 800085e:	f6c0 0000 	movt	r0, #2048	; 0x800
 8000862:	f006 fb40 	bl	8006ee6 <_ZN4core6option13unwrap_failed17he8f5396282508463E>
 8000866:	a83d      	add	r0, sp, #244	; 0xf4
 8000868:	9037      	str	r0, [sp, #220]	; 0xdc
 800086a:	f005 ff32 	bl	80066d2 <_ZN82_$LT$stm32f4_staging..stm32f401..RCC$u20$as$u20$stm32f4xx_hal..rcc..f4..RccExt$GT$9constrain17h0320830bdc0d2e5eE>
 800086e:	9937      	ldr	r1, [sp, #220]	; 0xdc
 8000870:	a865      	add	r0, sp, #404	; 0x194
 8000872:	9038      	str	r0, [sp, #224]	; 0xe0
 8000874:	e8b1 501c 	ldmia.w	r1!, {r2, r3, r4, ip, lr}
 8000878:	e8a0 501c 	stmia.w	r0!, {r2, r3, r4, ip, lr}
 800087c:	e8b1 501c 	ldmia.w	r1!, {r2, r3, r4, ip, lr}
 8000880:	e8a0 501c 	stmia.w	r0!, {r2, r3, r4, ip, lr}
 8000884:	e891 501c 	ldmia.w	r1, {r2, r3, r4, ip, lr}
 8000888:	e880 501c 	stmia.w	r0, {r2, r3, r4, ip, lr}
 800088c:	2008      	movs	r0, #8
 800088e:	f001 f8df 	bl	8001a50 <_ZN43_$LT$u32$u20$as$u20$fugit..rate..ExtU32$GT$3MHz17h4e853f26f40f3768E>
 8000892:	9938      	ldr	r1, [sp, #224]	; 0xe0
 8000894:	4602      	mov	r2, r0
 8000896:	a856      	add	r0, sp, #344	; 0x158
 8000898:	9039      	str	r0, [sp, #228]	; 0xe4
 800089a:	f003 feed 	bl	8004678 <_ZN13stm32f4xx_hal3rcc2f44CFGR7use_hse17hfb2304ed435b664bE>
 800089e:	9939      	ldr	r1, [sp, #228]	; 0xe4
 80008a0:	a84c      	add	r0, sp, #304	; 0x130
 80008a2:	903a      	str	r0, [sp, #232]	; 0xe8
 80008a4:	f004 f80d 	bl	80048c2 <_ZN13stm32f4xx_hal3rcc2f44CFGR6freeze17h1ddbc18e37cc437aE>
 80008a8:	983a      	ldr	r0, [sp, #232]	; 0xe8
 80008aa:	f001 f92d 	bl	8001b08 <_ZN13stm32f4xx_hal5timer8TimerExt8delay_ms17h9c6f65b169bdae09E>
 80008ae:	f005 ff51 	bl	8006754 <_ZN13stm32f4xx_hal4gpio2f45gpioa92_$LT$impl$u20$stm32f4xx_hal..gpio..GpioExt$u20$for$u20$stm32f4_staging..stm32f401..GPIOA$GT$5split17ha000ac490b6ade11E>
 80008b2:	f7ff fd04 	bl	80002be <_ZN13stm32f4xx_hal4gpio7convert62_$LT$impl$u20$stm32f4xx_hal..gpio..Pin$LT$_$C$_$C$MODE$GT$$GT$21into_push_pull_output17h9fbaba46a7ef9b88E>
 80008b6:	f005 ff76 	bl	80067a6 <_ZN13stm32f4xx_hal4gpio2f45gpioc92_$LT$impl$u20$stm32f4xx_hal..gpio..GpioExt$u20$for$u20$stm32f4_staging..stm32f401..GPIOC$GT$5split17hb7a755d3f28c20a6E>
 80008ba:	f005 ff44 	bl	8006746 <_ZN87_$LT$stm32f4_staging..stm32f401..SYSCFG$u20$as$u20$stm32f4xx_hal..syscfg..SysCfgExt$GT$9constrain17hbdb4579fe263253aE>
 80008be:	f50d 70e9 	add.w	r0, sp, #466	; 0x1d2
 80008c2:	90b4      	str	r0, [sp, #720]	; 0x2d0
 80008c4:	f20d 11d3 	addw	r1, sp, #467	; 0x1d3
 80008c8:	91b5      	str	r1, [sp, #724]	; 0x2d4
 80008ca:	f847 0c0c 	str.w	r0, [r7, #-12]
 80008ce:	210d      	movs	r1, #13
 80008d0:	f88d 12db 	strb.w	r1, [sp, #731]	; 0x2db
 80008d4:	f847 0c04 	str.w	r0, [r7, #-4]
 80008d8:	2002      	movs	r0, #2
 80008da:	90b2      	str	r0, [sp, #712]	; 0x2c8
 80008dc:	2004      	movs	r0, #4
 80008de:	903b      	str	r0, [sp, #236]	; 0xec
 80008e0:	2000      	movs	r0, #0
 80008e2:	b930      	cbnz	r0, 80008f2 <_ZN8template18__cortex_m_rt_main17h6764445424aefa1dE+0xb2>
 80008e4:	e7ff      	b.n	80008e6 <_ZN8template18__cortex_m_rt_main17h6764445424aefa1dE+0xa6>
 80008e6:	983b      	ldr	r0, [sp, #236]	; 0xec
 80008e8:	f88d 02cf 	strb.w	r0, [sp, #719]	; 0x2cf
 80008ec:	2000      	movs	r0, #0
 80008ee:	b950      	cbnz	r0, 8000906 <_ZN8template18__cortex_m_rt_main17h6764445424aefa1dE+0xc6>
 80008f0:	e005      	b.n	80008fe <_ZN8template18__cortex_m_rt_main17h6764445424aefa1dE+0xbe>
 80008f2:	f248 3070 	movw	r0, #33648	; 0x8370
 80008f6:	f6c0 0000 	movt	r0, #2048	; 0x800
 80008fa:	f007 fbbd 	bl	8008078 <_ZN4core9panicking11panic_const24panic_const_mul_overflow17hd3d29f8f054ee19bE>
 80008fe:	2001      	movs	r0, #1
 8000900:	2800      	cmp	r0, #0
 8000902:	d13f      	bne.n	8000984 <_ZN8template18__cortex_m_rt_main17h6764445424aefa1dE+0x144>
 8000904:	e03a      	b.n	800097c <_ZN8template18__cortex_m_rt_main17h6764445424aefa1dE+0x13c>
 8000906:	f20d 10d3 	addw	r0, sp, #467	; 0x1d3
 800090a:	f847 0c48 	str.w	r0, [r7, #-72]
 800090e:	f847 0c1c 	str.w	r0, [r7, #-28]
 8000912:	f643 0000 	movw	r0, #14336	; 0x3800
 8000916:	f2c4 0001 	movt	r0, #16385	; 0x4001
 800091a:	90cf      	str	r0, [sp, #828]	; 0x33c
 800091c:	f643 0008 	movw	r0, #14344	; 0x3808
 8000920:	f2c4 0001 	movt	r0, #16385	; 0x4001
 8000924:	9036      	str	r0, [sp, #216]	; 0xd8
 8000926:	90b9      	str	r0, [sp, #740]	; 0x2e4
 8000928:	f20d 21cf 	addw	r1, sp, #719	; 0x2cf
 800092c:	9135      	str	r1, [sp, #212]	; 0xd4
 800092e:	91ba      	str	r1, [sp, #744]	; 0x2e8
 8000930:	a9b2      	add	r1, sp, #712	; 0x2c8
 8000932:	9134      	str	r1, [sp, #208]	; 0xd0
 8000934:	91bb      	str	r1, [sp, #748]	; 0x2ec
 8000936:	90d3      	str	r0, [sp, #844]	; 0x34c
 8000938:	90d4      	str	r0, [sp, #848]	; 0x350
 800093a:	f006 f951 	bl	8006be0 <_ZN4core3ptr13read_volatile17hee64c5a39ad146b0E>
 800093e:	9032      	str	r0, [sp, #200]	; 0xc8
 8000940:	90bc      	str	r0, [sp, #752]	; 0x2f0
 8000942:	90b7      	str	r0, [sp, #732]	; 0x2dc
 8000944:	2000      	movs	r0, #0
 8000946:	9033      	str	r0, [sp, #204]	; 0xcc
 8000948:	f000 ffd0 	bl	80018ec <_ZN43_$LT$u32$u20$as$u20$core..ops..bit..Not$GT$3not17hff0a30f9d5639543E>
 800094c:	4601      	mov	r1, r0
 800094e:	9832      	ldr	r0, [sp, #200]	; 0xc8
 8000950:	f000 ffd7 	bl	8001902 <_ZN46_$LT$u32$u20$as$u20$core..ops..bit..BitAnd$GT$6bitand17h264f2d095c3a539dE>
 8000954:	9933      	ldr	r1, [sp, #204]	; 0xcc
 8000956:	f000 ffce 	bl	80018f6 <_ZN45_$LT$u32$u20$as$u20$core..ops..bit..BitOr$GT$5bitor17h04ecc2e3e0e8c1e1E>
 800095a:	9934      	ldr	r1, [sp, #208]	; 0xd0
 800095c:	4602      	mov	r2, r0
 800095e:	9835      	ldr	r0, [sp, #212]	; 0xd4
 8000960:	92b8      	str	r2, [sp, #736]	; 0x2e0
 8000962:	aab7      	add	r2, sp, #732	; 0x2dc
 8000964:	abb8      	add	r3, sp, #736	; 0x2e0
 8000966:	f000 fcbb 	bl	80012e0 <_ZN58_$LT$PIN$u20$as$u20$stm32f4xx_hal..gpio..exti..ExtiPin$GT$21make_interrupt_source28_$u7b$$u7b$closure$u7d$$u7d$17hff715bd6c4c276deE>
 800096a:	4601      	mov	r1, r0
 800096c:	9836      	ldr	r0, [sp, #216]	; 0xd8
 800096e:	6809      	ldr	r1, [r1, #0]
 8000970:	90e9      	str	r0, [sp, #932]	; 0x3a4
 8000972:	91ea      	str	r1, [sp, #936]	; 0x3a8
 8000974:	90eb      	str	r0, [sp, #940]	; 0x3ac
 8000976:	f006 f9a4 	bl	8006cc2 <_ZN4core3ptr14write_volatile17hc6769b4b417bf8b9E>
 800097a:	e0cf      	b.n	8000b1c <_ZN8template18__cortex_m_rt_main17h6764445424aefa1dE+0x2dc>
 800097c:	2001      	movs	r0, #1
 800097e:	2800      	cmp	r0, #0
 8000980:	d143      	bne.n	8000a0a <_ZN8template18__cortex_m_rt_main17h6764445424aefa1dE+0x1ca>
 8000982:	e03e      	b.n	8000a02 <_ZN8template18__cortex_m_rt_main17h6764445424aefa1dE+0x1c2>
 8000984:	2001      	movs	r0, #1
 8000986:	2800      	cmp	r0, #0
 8000988:	d1f8      	bne.n	800097c <_ZN8template18__cortex_m_rt_main17h6764445424aefa1dE+0x13c>
 800098a:	e7ff      	b.n	800098c <_ZN8template18__cortex_m_rt_main17h6764445424aefa1dE+0x14c>
 800098c:	f20d 10d3 	addw	r0, sp, #467	; 0x1d3
 8000990:	f847 0c44 	str.w	r0, [r7, #-68]
 8000994:	f847 0c18 	str.w	r0, [r7, #-24]
 8000998:	f643 0000 	movw	r0, #14336	; 0x3800
 800099c:	f2c4 0001 	movt	r0, #16385	; 0x4001
 80009a0:	90d0      	str	r0, [sp, #832]	; 0x340
 80009a2:	f643 000c 	movw	r0, #14348	; 0x380c
 80009a6:	f2c4 0001 	movt	r0, #16385	; 0x4001
 80009aa:	9031      	str	r0, [sp, #196]	; 0xc4
 80009ac:	90c5      	str	r0, [sp, #788]	; 0x314
 80009ae:	f20d 21cf 	addw	r1, sp, #719	; 0x2cf
 80009b2:	9130      	str	r1, [sp, #192]	; 0xc0
 80009b4:	91c6      	str	r1, [sp, #792]	; 0x318
 80009b6:	a9b2      	add	r1, sp, #712	; 0x2c8
 80009b8:	912f      	str	r1, [sp, #188]	; 0xbc
 80009ba:	91c7      	str	r1, [sp, #796]	; 0x31c
 80009bc:	90d5      	str	r0, [sp, #852]	; 0x354
 80009be:	90d6      	str	r0, [sp, #856]	; 0x358
 80009c0:	f006 f90e 	bl	8006be0 <_ZN4core3ptr13read_volatile17hee64c5a39ad146b0E>
 80009c4:	902d      	str	r0, [sp, #180]	; 0xb4
 80009c6:	90c8      	str	r0, [sp, #800]	; 0x320
 80009c8:	90c3      	str	r0, [sp, #780]	; 0x30c
 80009ca:	2000      	movs	r0, #0
 80009cc:	902e      	str	r0, [sp, #184]	; 0xb8
 80009ce:	f000 ff8d 	bl	80018ec <_ZN43_$LT$u32$u20$as$u20$core..ops..bit..Not$GT$3not17hff0a30f9d5639543E>
 80009d2:	4601      	mov	r1, r0
 80009d4:	982d      	ldr	r0, [sp, #180]	; 0xb4
 80009d6:	f000 ff94 	bl	8001902 <_ZN46_$LT$u32$u20$as$u20$core..ops..bit..BitAnd$GT$6bitand17h264f2d095c3a539dE>
 80009da:	992e      	ldr	r1, [sp, #184]	; 0xb8
 80009dc:	f000 ff8b 	bl	80018f6 <_ZN45_$LT$u32$u20$as$u20$core..ops..bit..BitOr$GT$5bitor17h04ecc2e3e0e8c1e1E>
 80009e0:	992f      	ldr	r1, [sp, #188]	; 0xbc
 80009e2:	4602      	mov	r2, r0
 80009e4:	9830      	ldr	r0, [sp, #192]	; 0xc0
 80009e6:	92c4      	str	r2, [sp, #784]	; 0x310
 80009e8:	aac3      	add	r2, sp, #780	; 0x30c
 80009ea:	abc4      	add	r3, sp, #784	; 0x310
 80009ec:	f000 fbc1 	bl	8001172 <_ZN58_$LT$PIN$u20$as$u20$stm32f4xx_hal..gpio..exti..ExtiPin$GT$21make_interrupt_source28_$u7b$$u7b$closure$u7d$$u7d$17h5bcea472b1da6ca7E>
 80009f0:	4601      	mov	r1, r0
 80009f2:	9831      	ldr	r0, [sp, #196]	; 0xc4
 80009f4:	6809      	ldr	r1, [r1, #0]
 80009f6:	90ec      	str	r0, [sp, #944]	; 0x3b0
 80009f8:	91ed      	str	r1, [sp, #948]	; 0x3b4
 80009fa:	90ee      	str	r0, [sp, #952]	; 0x3b8
 80009fc:	f006 f961 	bl	8006cc2 <_ZN4core3ptr14write_volatile17hc6769b4b417bf8b9E>
 8000a00:	e08c      	b.n	8000b1c <_ZN8template18__cortex_m_rt_main17h6764445424aefa1dE+0x2dc>
 8000a02:	2001      	movs	r0, #1
 8000a04:	2800      	cmp	r0, #0
 8000a06:	d14a      	bne.n	8000a9e <_ZN8template18__cortex_m_rt_main17h6764445424aefa1dE+0x25e>
 8000a08:	e03e      	b.n	8000a88 <_ZN8template18__cortex_m_rt_main17h6764445424aefa1dE+0x248>
 8000a0a:	2001      	movs	r0, #1
 8000a0c:	2800      	cmp	r0, #0
 8000a0e:	d1f8      	bne.n	8000a02 <_ZN8template18__cortex_m_rt_main17h6764445424aefa1dE+0x1c2>
 8000a10:	e7ff      	b.n	8000a12 <_ZN8template18__cortex_m_rt_main17h6764445424aefa1dE+0x1d2>
 8000a12:	f20d 10d3 	addw	r0, sp, #467	; 0x1d3
 8000a16:	f847 0c40 	str.w	r0, [r7, #-64]
 8000a1a:	f847 0c14 	str.w	r0, [r7, #-20]
 8000a1e:	f643 0000 	movw	r0, #14336	; 0x3800
 8000a22:	f2c4 0001 	movt	r0, #16385	; 0x4001
 8000a26:	90d1      	str	r0, [sp, #836]	; 0x344
 8000a28:	f643 0010 	movw	r0, #14352	; 0x3810
 8000a2c:	f2c4 0001 	movt	r0, #16385	; 0x4001
 8000a30:	902c      	str	r0, [sp, #176]	; 0xb0
 8000a32:	90bf      	str	r0, [sp, #764]	; 0x2fc
 8000a34:	f20d 21cf 	addw	r1, sp, #719	; 0x2cf
 8000a38:	912b      	str	r1, [sp, #172]	; 0xac
 8000a3a:	91c0      	str	r1, [sp, #768]	; 0x300
 8000a3c:	a9b2      	add	r1, sp, #712	; 0x2c8
 8000a3e:	912a      	str	r1, [sp, #168]	; 0xa8
 8000a40:	91c1      	str	r1, [sp, #772]	; 0x304
 8000a42:	90d7      	str	r0, [sp, #860]	; 0x35c
 8000a44:	90d8      	str	r0, [sp, #864]	; 0x360
 8000a46:	f006 f8cb 	bl	8006be0 <_ZN4core3ptr13read_volatile17hee64c5a39ad146b0E>
 8000a4a:	9028      	str	r0, [sp, #160]	; 0xa0
 8000a4c:	90c2      	str	r0, [sp, #776]	; 0x308
 8000a4e:	90bd      	str	r0, [sp, #756]	; 0x2f4
 8000a50:	2000      	movs	r0, #0
 8000a52:	9029      	str	r0, [sp, #164]	; 0xa4
 8000a54:	f000 ff4a 	bl	80018ec <_ZN43_$LT$u32$u20$as$u20$core..ops..bit..Not$GT$3not17hff0a30f9d5639543E>
 8000a58:	4601      	mov	r1, r0
 8000a5a:	9828      	ldr	r0, [sp, #160]	; 0xa0
 8000a5c:	f000 ff51 	bl	8001902 <_ZN46_$LT$u32$u20$as$u20$core..ops..bit..BitAnd$GT$6bitand17h264f2d095c3a539dE>
 8000a60:	9929      	ldr	r1, [sp, #164]	; 0xa4
 8000a62:	f000 ff48 	bl	80018f6 <_ZN45_$LT$u32$u20$as$u20$core..ops..bit..BitOr$GT$5bitor17h04ecc2e3e0e8c1e1E>
 8000a66:	992a      	ldr	r1, [sp, #168]	; 0xa8
 8000a68:	4602      	mov	r2, r0
 8000a6a:	982b      	ldr	r0, [sp, #172]	; 0xac
 8000a6c:	92be      	str	r2, [sp, #760]	; 0x2f8
 8000a6e:	aabd      	add	r2, sp, #756	; 0x2f4
 8000a70:	abbe      	add	r3, sp, #760	; 0x2f8
 8000a72:	f000 fbbb 	bl	80011ec <_ZN58_$LT$PIN$u20$as$u20$stm32f4xx_hal..gpio..exti..ExtiPin$GT$21make_interrupt_source28_$u7b$$u7b$closure$u7d$$u7d$17h7d64bb20525fe9b2E>
 8000a76:	4601      	mov	r1, r0
 8000a78:	982c      	ldr	r0, [sp, #176]	; 0xb0
 8000a7a:	6809      	ldr	r1, [r1, #0]
 8000a7c:	90ef      	str	r0, [sp, #956]	; 0x3bc
 8000a7e:	91f0      	str	r1, [sp, #960]	; 0x3c0
 8000a80:	90f1      	str	r0, [sp, #964]	; 0x3c4
 8000a82:	f006 f91e 	bl	8006cc2 <_ZN4core3ptr14write_volatile17hc6769b4b417bf8b9E>
 8000a86:	e049      	b.n	8000b1c <_ZN8template18__cortex_m_rt_main17h6764445424aefa1dE+0x2dc>
 8000a88:	f248 3080 	movw	r0, #33664	; 0x8380
 8000a8c:	f6c0 0000 	movt	r0, #2048	; 0x800
 8000a90:	f248 32a8 	movw	r2, #33704	; 0x83a8
 8000a94:	f6c0 0200 	movt	r2, #2048	; 0x800
 8000a98:	2128      	movs	r1, #40	; 0x28
 8000a9a:	f006 fa69 	bl	8006f70 <_ZN4core9panicking5panic17h3d328557175627ceE>
 8000a9e:	2000      	movs	r0, #0
 8000aa0:	2800      	cmp	r0, #0
 8000aa2:	d1f1      	bne.n	8000a88 <_ZN8template18__cortex_m_rt_main17h6764445424aefa1dE+0x248>
 8000aa4:	e7ff      	b.n	8000aa6 <_ZN8template18__cortex_m_rt_main17h6764445424aefa1dE+0x266>
 8000aa6:	f20d 10d3 	addw	r0, sp, #467	; 0x1d3
 8000aaa:	f847 0c3c 	str.w	r0, [r7, #-60]
 8000aae:	f847 0c10 	str.w	r0, [r7, #-16]
 8000ab2:	f643 0000 	movw	r0, #14336	; 0x3800
 8000ab6:	f2c4 0001 	movt	r0, #16385	; 0x4001
 8000aba:	90d2      	str	r0, [sp, #840]	; 0x348
 8000abc:	f643 0014 	movw	r0, #14356	; 0x3814
 8000ac0:	f2c4 0001 	movt	r0, #16385	; 0x4001
 8000ac4:	9027      	str	r0, [sp, #156]	; 0x9c
 8000ac6:	90cb      	str	r0, [sp, #812]	; 0x32c
 8000ac8:	f20d 21cf 	addw	r1, sp, #719	; 0x2cf
 8000acc:	9126      	str	r1, [sp, #152]	; 0x98
 8000ace:	91cc      	str	r1, [sp, #816]	; 0x330
 8000ad0:	a9b2      	add	r1, sp, #712	; 0x2c8
 8000ad2:	9125      	str	r1, [sp, #148]	; 0x94
 8000ad4:	91cd      	str	r1, [sp, #820]	; 0x334
 8000ad6:	90d9      	str	r0, [sp, #868]	; 0x364
 8000ad8:	90da      	str	r0, [sp, #872]	; 0x368
 8000ada:	f006 f881 	bl	8006be0 <_ZN4core3ptr13read_volatile17hee64c5a39ad146b0E>
 8000ade:	9023      	str	r0, [sp, #140]	; 0x8c
 8000ae0:	90ce      	str	r0, [sp, #824]	; 0x338
 8000ae2:	90c9      	str	r0, [sp, #804]	; 0x324
 8000ae4:	2000      	movs	r0, #0
 8000ae6:	9024      	str	r0, [sp, #144]	; 0x90
 8000ae8:	f000 ff00 	bl	80018ec <_ZN43_$LT$u32$u20$as$u20$core..ops..bit..Not$GT$3not17hff0a30f9d5639543E>
 8000aec:	4601      	mov	r1, r0
 8000aee:	9823      	ldr	r0, [sp, #140]	; 0x8c
 8000af0:	f000 ff07 	bl	8001902 <_ZN46_$LT$u32$u20$as$u20$core..ops..bit..BitAnd$GT$6bitand17h264f2d095c3a539dE>
 8000af4:	9924      	ldr	r1, [sp, #144]	; 0x90
 8000af6:	f000 fefe 	bl	80018f6 <_ZN45_$LT$u32$u20$as$u20$core..ops..bit..BitOr$GT$5bitor17h04ecc2e3e0e8c1e1E>
 8000afa:	9925      	ldr	r1, [sp, #148]	; 0x94
 8000afc:	4602      	mov	r2, r0
 8000afe:	9826      	ldr	r0, [sp, #152]	; 0x98
 8000b00:	92ca      	str	r2, [sp, #808]	; 0x328
 8000b02:	aac9      	add	r2, sp, #804	; 0x324
 8000b04:	abca      	add	r3, sp, #808	; 0x328
 8000b06:	f000 fbae 	bl	8001266 <_ZN58_$LT$PIN$u20$as$u20$stm32f4xx_hal..gpio..exti..ExtiPin$GT$21make_interrupt_source28_$u7b$$u7b$closure$u7d$$u7d$17hd0cc9a5bec6f8128E>
 8000b0a:	4601      	mov	r1, r0
 8000b0c:	9827      	ldr	r0, [sp, #156]	; 0x9c
 8000b0e:	6809      	ldr	r1, [r1, #0]
 8000b10:	90f2      	str	r0, [sp, #968]	; 0x3c8
 8000b12:	91f3      	str	r1, [sp, #972]	; 0x3cc
 8000b14:	90f4      	str	r0, [sp, #976]	; 0x3d0
 8000b16:	f006 f8d4 	bl	8006cc2 <_ZN4core3ptr14write_volatile17hc6769b4b417bf8b9E>
 8000b1a:	e7ff      	b.n	8000b1c <_ZN8template18__cortex_m_rt_main17h6764445424aefa1dE+0x2dc>
 8000b1c:	2000      	movs	r0, #0
 8000b1e:	f88d 01d4 	strb.w	r0, [sp, #468]	; 0x1d4
 8000b22:	f89d 01d4 	ldrb.w	r0, [sp, #468]	; 0x1d4
 8000b26:	f88d 020e 	strb.w	r0, [sp, #526]	; 0x20e
 8000b2a:	f50d 70e9 	add.w	r0, sp, #466	; 0x1d2
 8000b2e:	9084      	str	r0, [sp, #528]	; 0x210
 8000b30:	f10d 01f3 	add.w	r1, sp, #243	; 0xf3
 8000b34:	9185      	str	r1, [sp, #532]	; 0x214
 8000b36:	f847 0c08 	str.w	r0, [r7, #-8]
 8000b3a:	200d      	movs	r0, #13
 8000b3c:	f88d 020f 	strb.w	r0, [sp, #527]	; 0x20f
 8000b40:	f89d 020e 	ldrb.w	r0, [sp, #526]	; 0x20e
 8000b44:	4601      	mov	r1, r0
 8000b46:	9122      	str	r1, [sp, #136]	; 0x88
 8000b48:	b130      	cbz	r0, 8000b58 <_ZN8template18__cortex_m_rt_main17h6764445424aefa1dE+0x318>
 8000b4a:	e7ff      	b.n	8000b4c <_ZN8template18__cortex_m_rt_main17h6764445424aefa1dE+0x30c>
 8000b4c:	9822      	ldr	r0, [sp, #136]	; 0x88
 8000b4e:	2801      	cmp	r0, #1
 8000b50:	d067      	beq.n	8000c22 <_ZN8template18__cortex_m_rt_main17h6764445424aefa1dE+0x3e2>
 8000b52:	e7ff      	b.n	8000b54 <_ZN8template18__cortex_m_rt_main17h6764445424aefa1dE+0x314>
 8000b54:	e0ce      	b.n	8000cf4 <_ZN8template18__cortex_m_rt_main17h6764445424aefa1dE+0x4b4>
 8000b56:	defe      	udf	#254	; 0xfe
 8000b58:	f10d 00f3 	add.w	r0, sp, #243	; 0xf3
 8000b5c:	901c      	str	r0, [sp, #112]	; 0x70
 8000b5e:	f847 0c30 	str.w	r0, [r7, #-48]
 8000b62:	f643 4000 	movw	r0, #15360	; 0x3c00
 8000b66:	f2c4 0001 	movt	r0, #16385	; 0x4001
 8000b6a:	901d      	str	r0, [sp, #116]	; 0x74
 8000b6c:	90a9      	str	r0, [sp, #676]	; 0x2a4
 8000b6e:	f643 4008 	movw	r0, #15368	; 0x3c08
 8000b72:	f2c4 0001 	movt	r0, #16385	; 0x4001
 8000b76:	901b      	str	r0, [sp, #108]	; 0x6c
 8000b78:	909c      	str	r0, [sp, #624]	; 0x270
 8000b7a:	f20d 210f 	addw	r1, sp, #527	; 0x20f
 8000b7e:	9120      	str	r1, [sp, #128]	; 0x80
 8000b80:	919d      	str	r1, [sp, #628]	; 0x274
 8000b82:	90df      	str	r0, [sp, #892]	; 0x37c
 8000b84:	90e0      	str	r0, [sp, #896]	; 0x380
 8000b86:	f006 f82b 	bl	8006be0 <_ZN4core3ptr13read_volatile17hee64c5a39ad146b0E>
 8000b8a:	901a      	str	r0, [sp, #104]	; 0x68
 8000b8c:	909e      	str	r0, [sp, #632]	; 0x278
 8000b8e:	909a      	str	r0, [sp, #616]	; 0x268
 8000b90:	2000      	movs	r0, #0
 8000b92:	901f      	str	r0, [sp, #124]	; 0x7c
 8000b94:	f000 feaa 	bl	80018ec <_ZN43_$LT$u32$u20$as$u20$core..ops..bit..Not$GT$3not17hff0a30f9d5639543E>
 8000b98:	4601      	mov	r1, r0
 8000b9a:	981a      	ldr	r0, [sp, #104]	; 0x68
 8000b9c:	f000 feb1 	bl	8001902 <_ZN46_$LT$u32$u20$as$u20$core..ops..bit..BitAnd$GT$6bitand17h264f2d095c3a539dE>
 8000ba0:	991f      	ldr	r1, [sp, #124]	; 0x7c
 8000ba2:	f000 fea8 	bl	80018f6 <_ZN45_$LT$u32$u20$as$u20$core..ops..bit..BitOr$GT$5bitor17h04ecc2e3e0e8c1e1E>
 8000ba6:	4601      	mov	r1, r0
 8000ba8:	9820      	ldr	r0, [sp, #128]	; 0x80
 8000baa:	919b      	str	r1, [sp, #620]	; 0x26c
 8000bac:	a99a      	add	r1, sp, #616	; 0x268
 8000bae:	aa9b      	add	r2, sp, #620	; 0x26c
 8000bb0:	f000 fa79 	bl	80010a6 <_ZN58_$LT$PIN$u20$as$u20$stm32f4xx_hal..gpio..exti..ExtiPin$GT$15trigger_on_edge28_$u7b$$u7b$closure$u7d$$u7d$17hc67ee2b9d10b6b0aE>
 8000bb4:	4601      	mov	r1, r0
 8000bb6:	981b      	ldr	r0, [sp, #108]	; 0x6c
 8000bb8:	6809      	ldr	r1, [r1, #0]
 8000bba:	90fb      	str	r0, [sp, #1004]	; 0x3ec
 8000bbc:	91fc      	str	r1, [sp, #1008]	; 0x3f0
 8000bbe:	90fd      	str	r0, [sp, #1012]	; 0x3f4
 8000bc0:	f006 f87f 	bl	8006cc2 <_ZN4core3ptr14write_volatile17hc6769b4b417bf8b9E>
 8000bc4:	9a1c      	ldr	r2, [sp, #112]	; 0x70
 8000bc6:	981d      	ldr	r0, [sp, #116]	; 0x74
 8000bc8:	9920      	ldr	r1, [sp, #128]	; 0x80
 8000bca:	f847 2c34 	str.w	r2, [r7, #-52]
 8000bce:	90a6      	str	r0, [sp, #664]	; 0x298
 8000bd0:	f643 400c 	movw	r0, #15372	; 0x3c0c
 8000bd4:	f2c4 0001 	movt	r0, #16385	; 0x4001
 8000bd8:	9021      	str	r0, [sp, #132]	; 0x84
 8000bda:	9092      	str	r0, [sp, #584]	; 0x248
 8000bdc:	9193      	str	r1, [sp, #588]	; 0x24c
 8000bde:	90dd      	str	r0, [sp, #884]	; 0x374
 8000be0:	90de      	str	r0, [sp, #888]	; 0x378
 8000be2:	f005 fffd 	bl	8006be0 <_ZN4core3ptr13read_volatile17hee64c5a39ad146b0E>
 8000be6:	4601      	mov	r1, r0
 8000be8:	981f      	ldr	r0, [sp, #124]	; 0x7c
 8000bea:	911e      	str	r1, [sp, #120]	; 0x78
 8000bec:	9194      	str	r1, [sp, #592]	; 0x250
 8000bee:	9190      	str	r1, [sp, #576]	; 0x240
 8000bf0:	f000 fe7c 	bl	80018ec <_ZN43_$LT$u32$u20$as$u20$core..ops..bit..Not$GT$3not17hff0a30f9d5639543E>
 8000bf4:	4601      	mov	r1, r0
 8000bf6:	981e      	ldr	r0, [sp, #120]	; 0x78
 8000bf8:	f000 fe83 	bl	8001902 <_ZN46_$LT$u32$u20$as$u20$core..ops..bit..BitAnd$GT$6bitand17h264f2d095c3a539dE>
 8000bfc:	991f      	ldr	r1, [sp, #124]	; 0x7c
 8000bfe:	f000 fe7a 	bl	80018f6 <_ZN45_$LT$u32$u20$as$u20$core..ops..bit..BitOr$GT$5bitor17h04ecc2e3e0e8c1e1E>
 8000c02:	4601      	mov	r1, r0
 8000c04:	9820      	ldr	r0, [sp, #128]	; 0x80
 8000c06:	9191      	str	r1, [sp, #580]	; 0x244
 8000c08:	a990      	add	r1, sp, #576	; 0x240
 8000c0a:	aa91      	add	r2, sp, #580	; 0x244
 8000c0c:	f000 fa6f 	bl	80010ee <_ZN58_$LT$PIN$u20$as$u20$stm32f4xx_hal..gpio..exti..ExtiPin$GT$15trigger_on_edge28_$u7b$$u7b$closure$u7d$$u7d$17hf3eb0990d737cd88E>
 8000c10:	4601      	mov	r1, r0
 8000c12:	9821      	ldr	r0, [sp, #132]	; 0x84
 8000c14:	6809      	ldr	r1, [r1, #0]
 8000c16:	90f8      	str	r0, [sp, #992]	; 0x3e0
 8000c18:	91f9      	str	r1, [sp, #996]	; 0x3e4
 8000c1a:	90fa      	str	r0, [sp, #1000]	; 0x3e8
 8000c1c:	f006 f851 	bl	8006cc2 <_ZN4core3ptr14write_volatile17hc6769b4b417bf8b9E>
 8000c20:	e0d3      	b.n	8000dca <_ZN8template18__cortex_m_rt_main17h6764445424aefa1dE+0x58a>
 8000c22:	f10d 00f3 	add.w	r0, sp, #243	; 0xf3
 8000c26:	9014      	str	r0, [sp, #80]	; 0x50
 8000c28:	f847 0c28 	str.w	r0, [r7, #-40]
 8000c2c:	f643 4000 	movw	r0, #15360	; 0x3c00
 8000c30:	f2c4 0001 	movt	r0, #16385	; 0x4001
 8000c34:	9015      	str	r0, [sp, #84]	; 0x54
 8000c36:	90a5      	str	r0, [sp, #660]	; 0x294
 8000c38:	f643 400c 	movw	r0, #15372	; 0x3c0c
 8000c3c:	f2c4 0001 	movt	r0, #16385	; 0x4001
 8000c40:	9013      	str	r0, [sp, #76]	; 0x4c
 8000c42:	9097      	str	r0, [sp, #604]	; 0x25c
 8000c44:	f20d 210f 	addw	r1, sp, #527	; 0x20f
 8000c48:	9118      	str	r1, [sp, #96]	; 0x60
 8000c4a:	9198      	str	r1, [sp, #608]	; 0x260
 8000c4c:	90e3      	str	r0, [sp, #908]	; 0x38c
 8000c4e:	90e4      	str	r0, [sp, #912]	; 0x390
 8000c50:	f005 ffc6 	bl	8006be0 <_ZN4core3ptr13read_volatile17hee64c5a39ad146b0E>
 8000c54:	9012      	str	r0, [sp, #72]	; 0x48
 8000c56:	9099      	str	r0, [sp, #612]	; 0x264
 8000c58:	9095      	str	r0, [sp, #596]	; 0x254
 8000c5a:	2000      	movs	r0, #0
 8000c5c:	9017      	str	r0, [sp, #92]	; 0x5c
 8000c5e:	f000 fe45 	bl	80018ec <_ZN43_$LT$u32$u20$as$u20$core..ops..bit..Not$GT$3not17hff0a30f9d5639543E>
 8000c62:	4601      	mov	r1, r0
 8000c64:	9812      	ldr	r0, [sp, #72]	; 0x48
 8000c66:	f000 fe4c 	bl	8001902 <_ZN46_$LT$u32$u20$as$u20$core..ops..bit..BitAnd$GT$6bitand17h264f2d095c3a539dE>
 8000c6a:	9917      	ldr	r1, [sp, #92]	; 0x5c
 8000c6c:	f000 fe43 	bl	80018f6 <_ZN45_$LT$u32$u20$as$u20$core..ops..bit..BitOr$GT$5bitor17h04ecc2e3e0e8c1e1E>
 8000c70:	4601      	mov	r1, r0
 8000c72:	9818      	ldr	r0, [sp, #96]	; 0x60
 8000c74:	9196      	str	r1, [sp, #600]	; 0x258
 8000c76:	a995      	add	r1, sp, #596	; 0x254
 8000c78:	aa96      	add	r2, sp, #600	; 0x258
 8000c7a:	f000 f9f0 	bl	800105e <_ZN58_$LT$PIN$u20$as$u20$stm32f4xx_hal..gpio..exti..ExtiPin$GT$15trigger_on_edge28_$u7b$$u7b$closure$u7d$$u7d$17ha4d5269831c2c75fE>
 8000c7e:	4601      	mov	r1, r0
 8000c80:	9813      	ldr	r0, [sp, #76]	; 0x4c
 8000c82:	6809      	ldr	r1, [r1, #0]
 8000c84:	f847 0c84 	str.w	r0, [r7, #-132]
 8000c88:	f847 1c80 	str.w	r1, [r7, #-128]
 8000c8c:	f847 0c7c 	str.w	r0, [r7, #-124]
 8000c90:	f006 f817 	bl	8006cc2 <_ZN4core3ptr14write_volatile17hc6769b4b417bf8b9E>
 8000c94:	9a14      	ldr	r2, [sp, #80]	; 0x50
 8000c96:	9815      	ldr	r0, [sp, #84]	; 0x54
 8000c98:	9918      	ldr	r1, [sp, #96]	; 0x60
 8000c9a:	f847 2c2c 	str.w	r2, [r7, #-44]
 8000c9e:	90a8      	str	r0, [sp, #672]	; 0x2a0
 8000ca0:	f643 4008 	movw	r0, #15368	; 0x3c08
 8000ca4:	f2c4 0001 	movt	r0, #16385	; 0x4001
 8000ca8:	9019      	str	r0, [sp, #100]	; 0x64
 8000caa:	908d      	str	r0, [sp, #564]	; 0x234
 8000cac:	918e      	str	r1, [sp, #568]	; 0x238
 8000cae:	90e1      	str	r0, [sp, #900]	; 0x384
 8000cb0:	90e2      	str	r0, [sp, #904]	; 0x388
 8000cb2:	f005 ff95 	bl	8006be0 <_ZN4core3ptr13read_volatile17hee64c5a39ad146b0E>
 8000cb6:	4601      	mov	r1, r0
 8000cb8:	9817      	ldr	r0, [sp, #92]	; 0x5c
 8000cba:	9116      	str	r1, [sp, #88]	; 0x58
 8000cbc:	918f      	str	r1, [sp, #572]	; 0x23c
 8000cbe:	918b      	str	r1, [sp, #556]	; 0x22c
 8000cc0:	f000 fe14 	bl	80018ec <_ZN43_$LT$u32$u20$as$u20$core..ops..bit..Not$GT$3not17hff0a30f9d5639543E>
 8000cc4:	4601      	mov	r1, r0
 8000cc6:	9816      	ldr	r0, [sp, #88]	; 0x58
 8000cc8:	f000 fe1b 	bl	8001902 <_ZN46_$LT$u32$u20$as$u20$core..ops..bit..BitAnd$GT$6bitand17h264f2d095c3a539dE>
 8000ccc:	9917      	ldr	r1, [sp, #92]	; 0x5c
 8000cce:	f000 fe12 	bl	80018f6 <_ZN45_$LT$u32$u20$as$u20$core..ops..bit..BitOr$GT$5bitor17h04ecc2e3e0e8c1e1E>
 8000cd2:	4601      	mov	r1, r0
 8000cd4:	9818      	ldr	r0, [sp, #96]	; 0x60
 8000cd6:	918c      	str	r1, [sp, #560]	; 0x230
 8000cd8:	a98b      	add	r1, sp, #556	; 0x22c
 8000cda:	aa8c      	add	r2, sp, #560	; 0x230
 8000cdc:	f000 f977 	bl	8000fce <_ZN58_$LT$PIN$u20$as$u20$stm32f4xx_hal..gpio..exti..ExtiPin$GT$15trigger_on_edge28_$u7b$$u7b$closure$u7d$$u7d$17h9e3039e6a55d9666E>
 8000ce0:	4601      	mov	r1, r0
 8000ce2:	9819      	ldr	r0, [sp, #100]	; 0x64
 8000ce4:	6809      	ldr	r1, [r1, #0]
 8000ce6:	90fe      	str	r0, [sp, #1016]	; 0x3f8
 8000ce8:	91ff      	str	r1, [sp, #1020]	; 0x3fc
 8000cea:	f847 0c88 	str.w	r0, [r7, #-136]
 8000cee:	f005 ffe8 	bl	8006cc2 <_ZN4core3ptr14write_volatile17hc6769b4b417bf8b9E>
 8000cf2:	e06a      	b.n	8000dca <_ZN8template18__cortex_m_rt_main17h6764445424aefa1dE+0x58a>
 8000cf4:	f10d 00f3 	add.w	r0, sp, #243	; 0xf3
 8000cf8:	900c      	str	r0, [sp, #48]	; 0x30
 8000cfa:	f847 0c20 	str.w	r0, [r7, #-32]
 8000cfe:	f643 4000 	movw	r0, #15360	; 0x3c00
 8000d02:	f2c4 0001 	movt	r0, #16385	; 0x4001
 8000d06:	900d      	str	r0, [sp, #52]	; 0x34
 8000d08:	90a7      	str	r0, [sp, #668]	; 0x29c
 8000d0a:	f643 4008 	movw	r0, #15368	; 0x3c08
 8000d0e:	f2c4 0001 	movt	r0, #16385	; 0x4001
 8000d12:	900b      	str	r0, [sp, #44]	; 0x2c
 8000d14:	9088      	str	r0, [sp, #544]	; 0x220
 8000d16:	f20d 210f 	addw	r1, sp, #527	; 0x20f
 8000d1a:	9110      	str	r1, [sp, #64]	; 0x40
 8000d1c:	9189      	str	r1, [sp, #548]	; 0x224
 8000d1e:	90e7      	str	r0, [sp, #924]	; 0x39c
 8000d20:	90e8      	str	r0, [sp, #928]	; 0x3a0
 8000d22:	f005 ff5d 	bl	8006be0 <_ZN4core3ptr13read_volatile17hee64c5a39ad146b0E>
 8000d26:	900a      	str	r0, [sp, #40]	; 0x28
 8000d28:	908a      	str	r0, [sp, #552]	; 0x228
 8000d2a:	9086      	str	r0, [sp, #536]	; 0x218
 8000d2c:	2000      	movs	r0, #0
 8000d2e:	900f      	str	r0, [sp, #60]	; 0x3c
 8000d30:	f000 fddc 	bl	80018ec <_ZN43_$LT$u32$u20$as$u20$core..ops..bit..Not$GT$3not17hff0a30f9d5639543E>
 8000d34:	4601      	mov	r1, r0
 8000d36:	980a      	ldr	r0, [sp, #40]	; 0x28
 8000d38:	f000 fde3 	bl	8001902 <_ZN46_$LT$u32$u20$as$u20$core..ops..bit..BitAnd$GT$6bitand17h264f2d095c3a539dE>
 8000d3c:	990f      	ldr	r1, [sp, #60]	; 0x3c
 8000d3e:	f000 fdda 	bl	80018f6 <_ZN45_$LT$u32$u20$as$u20$core..ops..bit..BitOr$GT$5bitor17h04ecc2e3e0e8c1e1E>
 8000d42:	4601      	mov	r1, r0
 8000d44:	9810      	ldr	r0, [sp, #64]	; 0x40
 8000d46:	9187      	str	r1, [sp, #540]	; 0x21c
 8000d48:	a986      	add	r1, sp, #536	; 0x218
 8000d4a:	aa87      	add	r2, sp, #540	; 0x21c
 8000d4c:	f000 f91b 	bl	8000f86 <_ZN58_$LT$PIN$u20$as$u20$stm32f4xx_hal..gpio..exti..ExtiPin$GT$15trigger_on_edge28_$u7b$$u7b$closure$u7d$$u7d$17h88bf19300e4de6c2E>
 8000d50:	4601      	mov	r1, r0
 8000d52:	980b      	ldr	r0, [sp, #44]	; 0x2c
 8000d54:	6809      	ldr	r1, [r1, #0]
 8000d56:	f847 0c6c 	str.w	r0, [r7, #-108]
 8000d5a:	f847 1c68 	str.w	r1, [r7, #-104]
 8000d5e:	f847 0c64 	str.w	r0, [r7, #-100]
 8000d62:	f005 ffae 	bl	8006cc2 <_ZN4core3ptr14write_volatile17hc6769b4b417bf8b9E>
 8000d66:	9a0c      	ldr	r2, [sp, #48]	; 0x30
 8000d68:	980d      	ldr	r0, [sp, #52]	; 0x34
 8000d6a:	9910      	ldr	r1, [sp, #64]	; 0x40
 8000d6c:	f847 2c24 	str.w	r2, [r7, #-36]
 8000d70:	90a4      	str	r0, [sp, #656]	; 0x290
 8000d72:	f643 400c 	movw	r0, #15372	; 0x3c0c
 8000d76:	f2c4 0001 	movt	r0, #16385	; 0x4001
 8000d7a:	9011      	str	r0, [sp, #68]	; 0x44
 8000d7c:	90a1      	str	r0, [sp, #644]	; 0x284
 8000d7e:	91a2      	str	r1, [sp, #648]	; 0x288
 8000d80:	90e5      	str	r0, [sp, #916]	; 0x394
 8000d82:	90e6      	str	r0, [sp, #920]	; 0x398
 8000d84:	f005 ff2c 	bl	8006be0 <_ZN4core3ptr13read_volatile17hee64c5a39ad146b0E>
 8000d88:	4601      	mov	r1, r0
 8000d8a:	980f      	ldr	r0, [sp, #60]	; 0x3c
 8000d8c:	910e      	str	r1, [sp, #56]	; 0x38
 8000d8e:	91a3      	str	r1, [sp, #652]	; 0x28c
 8000d90:	919f      	str	r1, [sp, #636]	; 0x27c
 8000d92:	f000 fdab 	bl	80018ec <_ZN43_$LT$u32$u20$as$u20$core..ops..bit..Not$GT$3not17hff0a30f9d5639543E>
 8000d96:	4601      	mov	r1, r0
 8000d98:	980e      	ldr	r0, [sp, #56]	; 0x38
 8000d9a:	f000 fdb2 	bl	8001902 <_ZN46_$LT$u32$u20$as$u20$core..ops..bit..BitAnd$GT$6bitand17h264f2d095c3a539dE>
 8000d9e:	990f      	ldr	r1, [sp, #60]	; 0x3c
 8000da0:	f000 fda9 	bl	80018f6 <_ZN45_$LT$u32$u20$as$u20$core..ops..bit..BitOr$GT$5bitor17h04ecc2e3e0e8c1e1E>
 8000da4:	4601      	mov	r1, r0
 8000da6:	9810      	ldr	r0, [sp, #64]	; 0x40
 8000da8:	91a0      	str	r1, [sp, #640]	; 0x280
 8000daa:	a99f      	add	r1, sp, #636	; 0x27c
 8000dac:	aaa0      	add	r2, sp, #640	; 0x280
 8000dae:	f000 f932 	bl	8001016 <_ZN58_$LT$PIN$u20$as$u20$stm32f4xx_hal..gpio..exti..ExtiPin$GT$15trigger_on_edge28_$u7b$$u7b$closure$u7d$$u7d$17h9fea6c1a54261e87E>
 8000db2:	4601      	mov	r1, r0
 8000db4:	9811      	ldr	r0, [sp, #68]	; 0x44
 8000db6:	6809      	ldr	r1, [r1, #0]
 8000db8:	f847 0c78 	str.w	r0, [r7, #-120]
 8000dbc:	f847 1c74 	str.w	r1, [r7, #-116]
 8000dc0:	f847 0c70 	str.w	r0, [r7, #-112]
 8000dc4:	f005 ff7d 	bl	8006cc2 <_ZN4core3ptr14write_volatile17hc6769b4b417bf8b9E>
 8000dc8:	e7ff      	b.n	8000dca <_ZN8template18__cortex_m_rt_main17h6764445424aefa1dE+0x58a>
 8000dca:	f50d 71e9 	add.w	r1, sp, #466	; 0x1d2
 8000dce:	9109      	str	r1, [sp, #36]	; 0x24
 8000dd0:	91aa      	str	r1, [sp, #680]	; 0x2a8
 8000dd2:	f10d 00f3 	add.w	r0, sp, #243	; 0xf3
 8000dd6:	90ab      	str	r0, [sp, #684]	; 0x2ac
 8000dd8:	f847 0c38 	str.w	r0, [r7, #-56]
 8000ddc:	f643 4000 	movw	r0, #15360	; 0x3c00
 8000de0:	f2c4 0001 	movt	r0, #16385	; 0x4001
 8000de4:	9008      	str	r0, [sp, #32]
 8000de6:	90b1      	str	r0, [sp, #708]	; 0x2c4
 8000de8:	90ae      	str	r0, [sp, #696]	; 0x2b8
 8000dea:	91af      	str	r1, [sp, #700]	; 0x2bc
 8000dec:	90db      	str	r0, [sp, #876]	; 0x36c
 8000dee:	90dc      	str	r0, [sp, #880]	; 0x370
 8000df0:	f005 fef6 	bl	8006be0 <_ZN4core3ptr13read_volatile17hee64c5a39ad146b0E>
 8000df4:	9006      	str	r0, [sp, #24]
 8000df6:	90b0      	str	r0, [sp, #704]	; 0x2c0
 8000df8:	90ac      	str	r0, [sp, #688]	; 0x2b0
 8000dfa:	2000      	movs	r0, #0
 8000dfc:	9007      	str	r0, [sp, #28]
 8000dfe:	f000 fd75 	bl	80018ec <_ZN43_$LT$u32$u20$as$u20$core..ops..bit..Not$GT$3not17hff0a30f9d5639543E>
 8000e02:	4601      	mov	r1, r0
 8000e04:	9806      	ldr	r0, [sp, #24]
 8000e06:	f000 fd7c 	bl	8001902 <_ZN46_$LT$u32$u20$as$u20$core..ops..bit..BitAnd$GT$6bitand17h264f2d095c3a539dE>
 8000e0a:	9907      	ldr	r1, [sp, #28]
 8000e0c:	f000 fd73 	bl	80018f6 <_ZN45_$LT$u32$u20$as$u20$core..ops..bit..BitOr$GT$5bitor17h04ecc2e3e0e8c1e1E>
 8000e10:	4601      	mov	r1, r0
 8000e12:	9809      	ldr	r0, [sp, #36]	; 0x24
 8000e14:	91ad      	str	r1, [sp, #692]	; 0x2b4
 8000e16:	a9ac      	add	r1, sp, #688	; 0x2b0
 8000e18:	aaad      	add	r2, sp, #692	; 0x2b4
 8000e1a:	f000 f98c 	bl	8001136 <_ZN58_$LT$PIN$u20$as$u20$stm32f4xx_hal..gpio..exti..ExtiPin$GT$16enable_interrupt28_$u7b$$u7b$closure$u7d$$u7d$17h85e457de35ee599cE>
 8000e1e:	4601      	mov	r1, r0
 8000e20:	9808      	ldr	r0, [sp, #32]
 8000e22:	6809      	ldr	r1, [r1, #0]
 8000e24:	90f5      	str	r0, [sp, #980]	; 0x3d4
 8000e26:	91f6      	str	r1, [sp, #984]	; 0x3d8
 8000e28:	90f7      	str	r0, [sp, #988]	; 0x3dc
 8000e2a:	f005 ff4a 	bl	8006cc2 <_ZN4core3ptr14write_volatile17hc6769b4b417bf8b9E>
 8000e2e:	9809      	ldr	r0, [sp, #36]	; 0x24
 8000e30:	f7ff fa36 	bl	80002a0 <_ZN13stm32f4xx_hal4gpio4exti62_$LT$impl$u20$stm32f4xx_hal..gpio..Pin$LT$_$C$_$C$MODE$GT$$GT$9interrupt17hc18dbaf7e7a0d214E>
 8000e34:	f000 f865 	bl	8000f02 <_ZN8cortex_m10peripheral4nvic44_$LT$impl$u20$cortex_m..peripheral..NVIC$GT$6unmask17h0a4d2dcade5a897dE>
 8000e38:	f7ff fb37 	bl	80004aa <_ZN8cortex_m9interrupt4free17h176b52d7c1861837E>
 8000e3c:	e7ff      	b.n	8000e3e <_ZN8template18__cortex_m_rt_main17h6764445424aefa1dE+0x5fe>
 8000e3e:	f20d 10d1 	addw	r0, sp, #465	; 0x1d1
 8000e42:	9002      	str	r0, [sp, #8]
 8000e44:	907a      	str	r0, [sp, #488]	; 0x1e8
 8000e46:	907b      	str	r0, [sp, #492]	; 0x1ec
 8000e48:	f001 f94f 	bl	80020ea <_ZN13stm32f4xx_hal4gpio5gpiox17h947e579eb97e05b7E>
 8000e4c:	907c      	str	r0, [sp, #496]	; 0x1f0
 8000e4e:	9081      	str	r0, [sp, #516]	; 0x204
 8000e50:	3018      	adds	r0, #24
 8000e52:	9001      	str	r0, [sp, #4]
 8000e54:	907e      	str	r0, [sp, #504]	; 0x1f8
 8000e56:	2000      	movs	r0, #0
 8000e58:	9003      	str	r0, [sp, #12]
 8000e5a:	f000 fd47 	bl	80018ec <_ZN43_$LT$u32$u20$as$u20$core..ops..bit..Not$GT$3not17hff0a30f9d5639543E>
 8000e5e:	4601      	mov	r1, r0
 8000e60:	9803      	ldr	r0, [sp, #12]
 8000e62:	f000 fd4e 	bl	8001902 <_ZN46_$LT$u32$u20$as$u20$core..ops..bit..BitAnd$GT$6bitand17h264f2d095c3a539dE>
 8000e66:	9903      	ldr	r1, [sp, #12]
 8000e68:	f000 fd45 	bl	80018f6 <_ZN45_$LT$u32$u20$as$u20$core..ops..bit..BitOr$GT$5bitor17h04ecc2e3e0e8c1e1E>
 8000e6c:	907d      	str	r0, [sp, #500]	; 0x1f4
 8000e6e:	a87d      	add	r0, sp, #500	; 0x1f4
 8000e70:	f7ff f9f9 	bl	8000266 <_ZN13stm32f4xx_hal4gpio23Pin$LT$_$C$_$C$MODE$GT$9_set_high28_$u7b$$u7b$closure$u7d$$u7d$17h273d148d047bf613E>
 8000e74:	4601      	mov	r1, r0
 8000e76:	9801      	ldr	r0, [sp, #4]
 8000e78:	6809      	ldr	r1, [r1, #0]
 8000e7a:	f847 0c54 	str.w	r0, [r7, #-84]
 8000e7e:	f847 1c50 	str.w	r1, [r7, #-80]
 8000e82:	f847 0c4c 	str.w	r0, [r7, #-76]
 8000e86:	f005 ff1c 	bl	8006cc2 <_ZN4core3ptr14write_volatile17hc6769b4b417bf8b9E>
 8000e8a:	f7ff fb5e 	bl	800054a <_ZN8cortex_m9interrupt4free17hca6ff11251141a74E>
 8000e8e:	4601      	mov	r1, r0
 8000e90:	a874      	add	r0, sp, #464	; 0x1d0
 8000e92:	9005      	str	r0, [sp, #20]
 8000e94:	f000 ff99 	bl	8001dca <_ZN13stm32f4xx_hal5timer5hal_1108_$LT$impl$u20$embedded_hal..delay..DelayNs$u20$for$u20$stm32f4xx_hal..timer..delay..Delay$LT$TIM$C$_$GT$$GT$8delay_ms17ha508c855231ce94dE>
 8000e98:	9802      	ldr	r0, [sp, #8]
 8000e9a:	9077      	str	r0, [sp, #476]	; 0x1dc
 8000e9c:	9078      	str	r0, [sp, #480]	; 0x1e0
 8000e9e:	f001 f924 	bl	80020ea <_ZN13stm32f4xx_hal4gpio5gpiox17h947e579eb97e05b7E>
 8000ea2:	4601      	mov	r1, r0
 8000ea4:	9803      	ldr	r0, [sp, #12]
 8000ea6:	9179      	str	r1, [sp, #484]	; 0x1e4
 8000ea8:	9182      	str	r1, [sp, #520]	; 0x208
 8000eaa:	3118      	adds	r1, #24
 8000eac:	9104      	str	r1, [sp, #16]
 8000eae:	9180      	str	r1, [sp, #512]	; 0x200
 8000eb0:	f000 fd1c 	bl	80018ec <_ZN43_$LT$u32$u20$as$u20$core..ops..bit..Not$GT$3not17hff0a30f9d5639543E>
 8000eb4:	4601      	mov	r1, r0
 8000eb6:	9803      	ldr	r0, [sp, #12]
 8000eb8:	f000 fd23 	bl	8001902 <_ZN46_$LT$u32$u20$as$u20$core..ops..bit..BitAnd$GT$6bitand17h264f2d095c3a539dE>
 8000ebc:	9903      	ldr	r1, [sp, #12]
 8000ebe:	f000 fd1a 	bl	80018f6 <_ZN45_$LT$u32$u20$as$u20$core..ops..bit..BitOr$GT$5bitor17h04ecc2e3e0e8c1e1E>
 8000ec2:	907f      	str	r0, [sp, #508]	; 0x1fc
 8000ec4:	a87f      	add	r0, sp, #508	; 0x1fc
 8000ec6:	f7ff f9b0 	bl	800022a <_ZN13stm32f4xx_hal4gpio23Pin$LT$_$C$_$C$MODE$GT$8_set_low28_$u7b$$u7b$closure$u7d$$u7d$17h42996967de19be16E>
 8000eca:	4601      	mov	r1, r0
 8000ecc:	9804      	ldr	r0, [sp, #16]
 8000ece:	6809      	ldr	r1, [r1, #0]
 8000ed0:	f847 0c60 	str.w	r0, [r7, #-96]
 8000ed4:	f847 1c5c 	str.w	r1, [r7, #-92]
 8000ed8:	f847 0c58 	str.w	r0, [r7, #-88]
 8000edc:	f005 fef1 	bl	8006cc2 <_ZN4core3ptr14write_volatile17hc6769b4b417bf8b9E>
 8000ee0:	f7ff fafc 	bl	80004dc <_ZN8cortex_m9interrupt4free17h33e2905d11dc12bdE>
 8000ee4:	4601      	mov	r1, r0
 8000ee6:	9805      	ldr	r0, [sp, #20]
 8000ee8:	f000 ff6f 	bl	8001dca <_ZN13stm32f4xx_hal5timer5hal_1108_$LT$impl$u20$embedded_hal..delay..DelayNs$u20$for$u20$stm32f4xx_hal..timer..delay..Delay$LT$TIM$C$_$GT$$GT$8delay_ms17ha508c855231ce94dE>
 8000eec:	e7a7      	b.n	8000e3e <_ZN8template18__cortex_m_rt_main17h6764445424aefa1dE+0x5fe>

08000eee <EXTI15_10>:
 8000eee:	b580      	push	{r7, lr}
 8000ef0:	466f      	mov	r7, sp
 8000ef2:	f000 f801 	bl	8000ef8 <_ZN8template23__cortex_m_rt_EXTI15_1017h383e8d8d1de00617E>
 8000ef6:	bd80      	pop	{r7, pc}

08000ef8 <_ZN8template23__cortex_m_rt_EXTI15_1017h383e8d8d1de00617E>:
 8000ef8:	b580      	push	{r7, lr}
 8000efa:	466f      	mov	r7, sp
 8000efc:	f7ff fb0c 	bl	8000518 <_ZN8cortex_m9interrupt4free17ha8a6067d8808e710E>
 8000f00:	bd80      	pop	{r7, pc}

08000f02 <_ZN8cortex_m10peripheral4nvic44_$LT$impl$u20$cortex_m..peripheral..NVIC$GT$6unmask17h0a4d2dcade5a897dE>:
 8000f02:	b580      	push	{r7, lr}
 8000f04:	466f      	mov	r7, sp
 8000f06:	b08c      	sub	sp, #48	; 0x30
 8000f08:	f8ad 0010 	strh.w	r0, [sp, #16]
 8000f0c:	f827 0c02 	strh.w	r0, [r7, #-2]
 8000f10:	f837 0c02 	ldrh.w	r0, [r7, #-2]
 8000f14:	4601      	mov	r1, r0
 8000f16:	9102      	str	r1, [sp, #8]
 8000f18:	f827 0c1e 	strh.w	r0, [r7, #-30]
 8000f1c:	0940      	lsrs	r0, r0, #5
 8000f1e:	f827 0c12 	strh.w	r0, [r7, #-18]
 8000f22:	4601      	mov	r1, r0
 8000f24:	9103      	str	r1, [sp, #12]
 8000f26:	280f      	cmp	r0, #15
 8000f28:	d810      	bhi.n	8000f4c <_ZN8cortex_m10peripheral4nvic44_$LT$impl$u20$cortex_m..peripheral..NVIC$GT$6unmask17h0a4d2dcade5a897dE+0x4a>
 8000f2a:	e7ff      	b.n	8000f2c <_ZN8cortex_m10peripheral4nvic44_$LT$impl$u20$cortex_m..peripheral..NVIC$GT$6unmask17h0a4d2dcade5a897dE+0x2a>
 8000f2c:	9802      	ldr	r0, [sp, #8]
 8000f2e:	9a03      	ldr	r2, [sp, #12]
 8000f30:	f24e 1100 	movw	r1, #57600	; 0xe100
 8000f34:	f2ce 0100 	movt	r1, #57344	; 0xe000
 8000f38:	eb01 0182 	add.w	r1, r1, r2, lsl #2
 8000f3c:	9100      	str	r1, [sp, #0]
 8000f3e:	f000 001f 	and.w	r0, r0, #31
 8000f42:	4601      	mov	r1, r0
 8000f44:	9101      	str	r1, [sp, #4]
 8000f46:	2820      	cmp	r0, #32
 8000f48:	d308      	bcc.n	8000f5c <_ZN8cortex_m10peripheral4nvic44_$LT$impl$u20$cortex_m..peripheral..NVIC$GT$6unmask17h0a4d2dcade5a897dE+0x5a>
 8000f4a:	e016      	b.n	8000f7a <_ZN8cortex_m10peripheral4nvic44_$LT$impl$u20$cortex_m..peripheral..NVIC$GT$6unmask17h0a4d2dcade5a897dE+0x78>
 8000f4c:	9803      	ldr	r0, [sp, #12]
 8000f4e:	f248 4240 	movw	r2, #33856	; 0x8440
 8000f52:	f6c0 0200 	movt	r2, #2048	; 0x800
 8000f56:	2110      	movs	r1, #16
 8000f58:	f006 f834 	bl	8006fc4 <_ZN4core9panicking18panic_bounds_check17h533996232d7df350E>
 8000f5c:	9800      	ldr	r0, [sp, #0]
 8000f5e:	9901      	ldr	r1, [sp, #4]
 8000f60:	f001 021f 	and.w	r2, r1, #31
 8000f64:	2101      	movs	r1, #1
 8000f66:	4091      	lsls	r1, r2
 8000f68:	9005      	str	r0, [sp, #20]
 8000f6a:	9106      	str	r1, [sp, #24]
 8000f6c:	9008      	str	r0, [sp, #32]
 8000f6e:	9109      	str	r1, [sp, #36]	; 0x24
 8000f70:	900a      	str	r0, [sp, #40]	; 0x28
 8000f72:	f005 fea6 	bl	8006cc2 <_ZN4core3ptr14write_volatile17hc6769b4b417bf8b9E>
 8000f76:	b00c      	add	sp, #48	; 0x30
 8000f78:	bd80      	pop	{r7, pc}
 8000f7a:	f248 4050 	movw	r0, #33872	; 0x8450
 8000f7e:	f6c0 0000 	movt	r0, #2048	; 0x800
 8000f82:	f007 f89f 	bl	80080c4 <_ZN4core9panicking11panic_const24panic_const_shl_overflow17h7d1dfb79ee113705E>

08000f86 <_ZN58_$LT$PIN$u20$as$u20$stm32f4xx_hal..gpio..exti..ExtiPin$GT$15trigger_on_edge28_$u7b$$u7b$closure$u7d$$u7d$17h88bf19300e4de6c2E>:
 8000f86:	b580      	push	{r7, lr}
 8000f88:	466f      	mov	r7, sp
 8000f8a:	b08a      	sub	sp, #40	; 0x28
 8000f8c:	9201      	str	r2, [sp, #4]
 8000f8e:	9004      	str	r0, [sp, #16]
 8000f90:	9105      	str	r1, [sp, #20]
 8000f92:	9206      	str	r2, [sp, #24]
 8000f94:	9107      	str	r1, [sp, #28]
 8000f96:	6808      	ldr	r0, [r1, #0]
 8000f98:	9002      	str	r0, [sp, #8]
 8000f9a:	9804      	ldr	r0, [sp, #16]
 8000f9c:	7800      	ldrb	r0, [r0, #0]
 8000f9e:	4601      	mov	r1, r0
 8000fa0:	9103      	str	r1, [sp, #12]
 8000fa2:	281f      	cmp	r0, #31
 8000fa4:	d80d      	bhi.n	8000fc2 <_ZN58_$LT$PIN$u20$as$u20$stm32f4xx_hal..gpio..exti..ExtiPin$GT$15trigger_on_edge28_$u7b$$u7b$closure$u7d$$u7d$17h88bf19300e4de6c2E+0x3c>
 8000fa6:	e7ff      	b.n	8000fa8 <_ZN58_$LT$PIN$u20$as$u20$stm32f4xx_hal..gpio..exti..ExtiPin$GT$15trigger_on_edge28_$u7b$$u7b$closure$u7d$$u7d$17h88bf19300e4de6c2E+0x22>
 8000fa8:	9801      	ldr	r0, [sp, #4]
 8000faa:	9902      	ldr	r1, [sp, #8]
 8000fac:	9a03      	ldr	r2, [sp, #12]
 8000fae:	f002 031f 	and.w	r3, r2, #31
 8000fb2:	2201      	movs	r2, #1
 8000fb4:	409a      	lsls	r2, r3
 8000fb6:	4311      	orrs	r1, r2
 8000fb8:	9008      	str	r0, [sp, #32]
 8000fba:	9109      	str	r1, [sp, #36]	; 0x24
 8000fbc:	6001      	str	r1, [r0, #0]
 8000fbe:	b00a      	add	sp, #40	; 0x28
 8000fc0:	bd80      	pop	{r7, pc}
 8000fc2:	f248 40cc 	movw	r0, #33996	; 0x84cc
 8000fc6:	f6c0 0000 	movt	r0, #2048	; 0x800
 8000fca:	f007 f87b 	bl	80080c4 <_ZN4core9panicking11panic_const24panic_const_shl_overflow17h7d1dfb79ee113705E>

08000fce <_ZN58_$LT$PIN$u20$as$u20$stm32f4xx_hal..gpio..exti..ExtiPin$GT$15trigger_on_edge28_$u7b$$u7b$closure$u7d$$u7d$17h9e3039e6a55d9666E>:
 8000fce:	b580      	push	{r7, lr}
 8000fd0:	466f      	mov	r7, sp
 8000fd2:	b08a      	sub	sp, #40	; 0x28
 8000fd4:	9201      	str	r2, [sp, #4]
 8000fd6:	9004      	str	r0, [sp, #16]
 8000fd8:	9105      	str	r1, [sp, #20]
 8000fda:	9206      	str	r2, [sp, #24]
 8000fdc:	9107      	str	r1, [sp, #28]
 8000fde:	6808      	ldr	r0, [r1, #0]
 8000fe0:	9002      	str	r0, [sp, #8]
 8000fe2:	9804      	ldr	r0, [sp, #16]
 8000fe4:	7800      	ldrb	r0, [r0, #0]
 8000fe6:	4601      	mov	r1, r0
 8000fe8:	9103      	str	r1, [sp, #12]
 8000fea:	281f      	cmp	r0, #31
 8000fec:	d80d      	bhi.n	800100a <_ZN58_$LT$PIN$u20$as$u20$stm32f4xx_hal..gpio..exti..ExtiPin$GT$15trigger_on_edge28_$u7b$$u7b$closure$u7d$$u7d$17h9e3039e6a55d9666E+0x3c>
 8000fee:	e7ff      	b.n	8000ff0 <_ZN58_$LT$PIN$u20$as$u20$stm32f4xx_hal..gpio..exti..ExtiPin$GT$15trigger_on_edge28_$u7b$$u7b$closure$u7d$$u7d$17h9e3039e6a55d9666E+0x22>
 8000ff0:	9801      	ldr	r0, [sp, #4]
 8000ff2:	9902      	ldr	r1, [sp, #8]
 8000ff4:	9a03      	ldr	r2, [sp, #12]
 8000ff6:	f002 031f 	and.w	r3, r2, #31
 8000ffa:	2201      	movs	r2, #1
 8000ffc:	409a      	lsls	r2, r3
 8000ffe:	4391      	bics	r1, r2
 8001000:	9008      	str	r0, [sp, #32]
 8001002:	9109      	str	r1, [sp, #36]	; 0x24
 8001004:	6001      	str	r1, [r0, #0]
 8001006:	b00a      	add	sp, #40	; 0x28
 8001008:	bd80      	pop	{r7, pc}
 800100a:	f248 40dc 	movw	r0, #34012	; 0x84dc
 800100e:	f6c0 0000 	movt	r0, #2048	; 0x800
 8001012:	f007 f857 	bl	80080c4 <_ZN4core9panicking11panic_const24panic_const_shl_overflow17h7d1dfb79ee113705E>

08001016 <_ZN58_$LT$PIN$u20$as$u20$stm32f4xx_hal..gpio..exti..ExtiPin$GT$15trigger_on_edge28_$u7b$$u7b$closure$u7d$$u7d$17h9fea6c1a54261e87E>:
 8001016:	b580      	push	{r7, lr}
 8001018:	466f      	mov	r7, sp
 800101a:	b08a      	sub	sp, #40	; 0x28
 800101c:	9201      	str	r2, [sp, #4]
 800101e:	9004      	str	r0, [sp, #16]
 8001020:	9105      	str	r1, [sp, #20]
 8001022:	9206      	str	r2, [sp, #24]
 8001024:	9107      	str	r1, [sp, #28]
 8001026:	6808      	ldr	r0, [r1, #0]
 8001028:	9002      	str	r0, [sp, #8]
 800102a:	9804      	ldr	r0, [sp, #16]
 800102c:	7800      	ldrb	r0, [r0, #0]
 800102e:	4601      	mov	r1, r0
 8001030:	9103      	str	r1, [sp, #12]
 8001032:	281f      	cmp	r0, #31
 8001034:	d80d      	bhi.n	8001052 <_ZN58_$LT$PIN$u20$as$u20$stm32f4xx_hal..gpio..exti..ExtiPin$GT$15trigger_on_edge28_$u7b$$u7b$closure$u7d$$u7d$17h9fea6c1a54261e87E+0x3c>
 8001036:	e7ff      	b.n	8001038 <_ZN58_$LT$PIN$u20$as$u20$stm32f4xx_hal..gpio..exti..ExtiPin$GT$15trigger_on_edge28_$u7b$$u7b$closure$u7d$$u7d$17h9fea6c1a54261e87E+0x22>
 8001038:	9801      	ldr	r0, [sp, #4]
 800103a:	9902      	ldr	r1, [sp, #8]
 800103c:	9a03      	ldr	r2, [sp, #12]
 800103e:	f002 031f 	and.w	r3, r2, #31
 8001042:	2201      	movs	r2, #1
 8001044:	409a      	lsls	r2, r3
 8001046:	4311      	orrs	r1, r2
 8001048:	9008      	str	r0, [sp, #32]
 800104a:	9109      	str	r1, [sp, #36]	; 0x24
 800104c:	6001      	str	r1, [r0, #0]
 800104e:	b00a      	add	sp, #40	; 0x28
 8001050:	bd80      	pop	{r7, pc}
 8001052:	f248 40ec 	movw	r0, #34028	; 0x84ec
 8001056:	f6c0 0000 	movt	r0, #2048	; 0x800
 800105a:	f007 f833 	bl	80080c4 <_ZN4core9panicking11panic_const24panic_const_shl_overflow17h7d1dfb79ee113705E>

0800105e <_ZN58_$LT$PIN$u20$as$u20$stm32f4xx_hal..gpio..exti..ExtiPin$GT$15trigger_on_edge28_$u7b$$u7b$closure$u7d$$u7d$17ha4d5269831c2c75fE>:
 800105e:	b580      	push	{r7, lr}
 8001060:	466f      	mov	r7, sp
 8001062:	b08a      	sub	sp, #40	; 0x28
 8001064:	9201      	str	r2, [sp, #4]
 8001066:	9004      	str	r0, [sp, #16]
 8001068:	9105      	str	r1, [sp, #20]
 800106a:	9206      	str	r2, [sp, #24]
 800106c:	9107      	str	r1, [sp, #28]
 800106e:	6808      	ldr	r0, [r1, #0]
 8001070:	9002      	str	r0, [sp, #8]
 8001072:	9804      	ldr	r0, [sp, #16]
 8001074:	7800      	ldrb	r0, [r0, #0]
 8001076:	4601      	mov	r1, r0
 8001078:	9103      	str	r1, [sp, #12]
 800107a:	281f      	cmp	r0, #31
 800107c:	d80d      	bhi.n	800109a <_ZN58_$LT$PIN$u20$as$u20$stm32f4xx_hal..gpio..exti..ExtiPin$GT$15trigger_on_edge28_$u7b$$u7b$closure$u7d$$u7d$17ha4d5269831c2c75fE+0x3c>
 800107e:	e7ff      	b.n	8001080 <_ZN58_$LT$PIN$u20$as$u20$stm32f4xx_hal..gpio..exti..ExtiPin$GT$15trigger_on_edge28_$u7b$$u7b$closure$u7d$$u7d$17ha4d5269831c2c75fE+0x22>
 8001080:	9801      	ldr	r0, [sp, #4]
 8001082:	9902      	ldr	r1, [sp, #8]
 8001084:	9a03      	ldr	r2, [sp, #12]
 8001086:	f002 031f 	and.w	r3, r2, #31
 800108a:	2201      	movs	r2, #1
 800108c:	409a      	lsls	r2, r3
 800108e:	4311      	orrs	r1, r2
 8001090:	9008      	str	r0, [sp, #32]
 8001092:	9109      	str	r1, [sp, #36]	; 0x24
 8001094:	6001      	str	r1, [r0, #0]
 8001096:	b00a      	add	sp, #40	; 0x28
 8001098:	bd80      	pop	{r7, pc}
 800109a:	f248 40fc 	movw	r0, #34044	; 0x84fc
 800109e:	f6c0 0000 	movt	r0, #2048	; 0x800
 80010a2:	f007 f80f 	bl	80080c4 <_ZN4core9panicking11panic_const24panic_const_shl_overflow17h7d1dfb79ee113705E>

080010a6 <_ZN58_$LT$PIN$u20$as$u20$stm32f4xx_hal..gpio..exti..ExtiPin$GT$15trigger_on_edge28_$u7b$$u7b$closure$u7d$$u7d$17hc67ee2b9d10b6b0aE>:
 80010a6:	b580      	push	{r7, lr}
 80010a8:	466f      	mov	r7, sp
 80010aa:	b08a      	sub	sp, #40	; 0x28
 80010ac:	9201      	str	r2, [sp, #4]
 80010ae:	9004      	str	r0, [sp, #16]
 80010b0:	9105      	str	r1, [sp, #20]
 80010b2:	9206      	str	r2, [sp, #24]
 80010b4:	9107      	str	r1, [sp, #28]
 80010b6:	6808      	ldr	r0, [r1, #0]
 80010b8:	9002      	str	r0, [sp, #8]
 80010ba:	9804      	ldr	r0, [sp, #16]
 80010bc:	7800      	ldrb	r0, [r0, #0]
 80010be:	4601      	mov	r1, r0
 80010c0:	9103      	str	r1, [sp, #12]
 80010c2:	281f      	cmp	r0, #31
 80010c4:	d80d      	bhi.n	80010e2 <_ZN58_$LT$PIN$u20$as$u20$stm32f4xx_hal..gpio..exti..ExtiPin$GT$15trigger_on_edge28_$u7b$$u7b$closure$u7d$$u7d$17hc67ee2b9d10b6b0aE+0x3c>
 80010c6:	e7ff      	b.n	80010c8 <_ZN58_$LT$PIN$u20$as$u20$stm32f4xx_hal..gpio..exti..ExtiPin$GT$15trigger_on_edge28_$u7b$$u7b$closure$u7d$$u7d$17hc67ee2b9d10b6b0aE+0x22>
 80010c8:	9801      	ldr	r0, [sp, #4]
 80010ca:	9902      	ldr	r1, [sp, #8]
 80010cc:	9a03      	ldr	r2, [sp, #12]
 80010ce:	f002 031f 	and.w	r3, r2, #31
 80010d2:	2201      	movs	r2, #1
 80010d4:	409a      	lsls	r2, r3
 80010d6:	4311      	orrs	r1, r2
 80010d8:	9008      	str	r0, [sp, #32]
 80010da:	9109      	str	r1, [sp, #36]	; 0x24
 80010dc:	6001      	str	r1, [r0, #0]
 80010de:	b00a      	add	sp, #40	; 0x28
 80010e0:	bd80      	pop	{r7, pc}
 80010e2:	f248 500c 	movw	r0, #34060	; 0x850c
 80010e6:	f6c0 0000 	movt	r0, #2048	; 0x800
 80010ea:	f006 ffeb 	bl	80080c4 <_ZN4core9panicking11panic_const24panic_const_shl_overflow17h7d1dfb79ee113705E>

080010ee <_ZN58_$LT$PIN$u20$as$u20$stm32f4xx_hal..gpio..exti..ExtiPin$GT$15trigger_on_edge28_$u7b$$u7b$closure$u7d$$u7d$17hf3eb0990d737cd88E>:
 80010ee:	b580      	push	{r7, lr}
 80010f0:	466f      	mov	r7, sp
 80010f2:	b08a      	sub	sp, #40	; 0x28
 80010f4:	9201      	str	r2, [sp, #4]
 80010f6:	9004      	str	r0, [sp, #16]
 80010f8:	9105      	str	r1, [sp, #20]
 80010fa:	9206      	str	r2, [sp, #24]
 80010fc:	9107      	str	r1, [sp, #28]
 80010fe:	6808      	ldr	r0, [r1, #0]
 8001100:	9002      	str	r0, [sp, #8]
 8001102:	9804      	ldr	r0, [sp, #16]
 8001104:	7800      	ldrb	r0, [r0, #0]
 8001106:	4601      	mov	r1, r0
 8001108:	9103      	str	r1, [sp, #12]
 800110a:	281f      	cmp	r0, #31
 800110c:	d80d      	bhi.n	800112a <_ZN58_$LT$PIN$u20$as$u20$stm32f4xx_hal..gpio..exti..ExtiPin$GT$15trigger_on_edge28_$u7b$$u7b$closure$u7d$$u7d$17hf3eb0990d737cd88E+0x3c>
 800110e:	e7ff      	b.n	8001110 <_ZN58_$LT$PIN$u20$as$u20$stm32f4xx_hal..gpio..exti..ExtiPin$GT$15trigger_on_edge28_$u7b$$u7b$closure$u7d$$u7d$17hf3eb0990d737cd88E+0x22>
 8001110:	9801      	ldr	r0, [sp, #4]
 8001112:	9902      	ldr	r1, [sp, #8]
 8001114:	9a03      	ldr	r2, [sp, #12]
 8001116:	f002 031f 	and.w	r3, r2, #31
 800111a:	2201      	movs	r2, #1
 800111c:	409a      	lsls	r2, r3
 800111e:	4391      	bics	r1, r2
 8001120:	9008      	str	r0, [sp, #32]
 8001122:	9109      	str	r1, [sp, #36]	; 0x24
 8001124:	6001      	str	r1, [r0, #0]
 8001126:	b00a      	add	sp, #40	; 0x28
 8001128:	bd80      	pop	{r7, pc}
 800112a:	f248 501c 	movw	r0, #34076	; 0x851c
 800112e:	f6c0 0000 	movt	r0, #2048	; 0x800
 8001132:	f006 ffc7 	bl	80080c4 <_ZN4core9panicking11panic_const24panic_const_shl_overflow17h7d1dfb79ee113705E>

08001136 <_ZN58_$LT$PIN$u20$as$u20$stm32f4xx_hal..gpio..exti..ExtiPin$GT$16enable_interrupt28_$u7b$$u7b$closure$u7d$$u7d$17h85e457de35ee599cE>:
 8001136:	b580      	push	{r7, lr}
 8001138:	466f      	mov	r7, sp
 800113a:	b08a      	sub	sp, #40	; 0x28
 800113c:	9201      	str	r2, [sp, #4]
 800113e:	9003      	str	r0, [sp, #12]
 8001140:	9104      	str	r1, [sp, #16]
 8001142:	9205      	str	r2, [sp, #20]
 8001144:	9106      	str	r1, [sp, #24]
 8001146:	6808      	ldr	r0, [r1, #0]
 8001148:	9002      	str	r0, [sp, #8]
 800114a:	9803      	ldr	r0, [sp, #12]
 800114c:	9009      	str	r0, [sp, #36]	; 0x24
 800114e:	2000      	movs	r0, #0
 8001150:	b948      	cbnz	r0, 8001166 <_ZN58_$LT$PIN$u20$as$u20$stm32f4xx_hal..gpio..exti..ExtiPin$GT$16enable_interrupt28_$u7b$$u7b$closure$u7d$$u7d$17h85e457de35ee599cE+0x30>
 8001152:	e7ff      	b.n	8001154 <_ZN58_$LT$PIN$u20$as$u20$stm32f4xx_hal..gpio..exti..ExtiPin$GT$16enable_interrupt28_$u7b$$u7b$closure$u7d$$u7d$17h85e457de35ee599cE+0x1e>
 8001154:	9801      	ldr	r0, [sp, #4]
 8001156:	9902      	ldr	r1, [sp, #8]
 8001158:	f441 5100 	orr.w	r1, r1, #8192	; 0x2000
 800115c:	9007      	str	r0, [sp, #28]
 800115e:	9108      	str	r1, [sp, #32]
 8001160:	6001      	str	r1, [r0, #0]
 8001162:	b00a      	add	sp, #40	; 0x28
 8001164:	bd80      	pop	{r7, pc}
 8001166:	f248 502c 	movw	r0, #34092	; 0x852c
 800116a:	f6c0 0000 	movt	r0, #2048	; 0x800
 800116e:	f006 ffa9 	bl	80080c4 <_ZN4core9panicking11panic_const24panic_const_shl_overflow17h7d1dfb79ee113705E>

08001172 <_ZN58_$LT$PIN$u20$as$u20$stm32f4xx_hal..gpio..exti..ExtiPin$GT$21make_interrupt_source28_$u7b$$u7b$closure$u7d$$u7d$17h5bcea472b1da6ca7E>:
 8001172:	b580      	push	{r7, lr}
 8001174:	466f      	mov	r7, sp
 8001176:	b08e      	sub	sp, #56	; 0x38
 8001178:	9304      	str	r3, [sp, #16]
 800117a:	9007      	str	r0, [sp, #28]
 800117c:	9108      	str	r1, [sp, #32]
 800117e:	9209      	str	r2, [sp, #36]	; 0x24
 8001180:	930a      	str	r3, [sp, #40]	; 0x28
 8001182:	920b      	str	r2, [sp, #44]	; 0x2c
 8001184:	6810      	ldr	r0, [r2, #0]
 8001186:	9005      	str	r0, [sp, #20]
 8001188:	9807      	ldr	r0, [sp, #28]
 800118a:	7800      	ldrb	r0, [r0, #0]
 800118c:	4601      	mov	r1, r0
 800118e:	9106      	str	r1, [sp, #24]
 8001190:	281f      	cmp	r0, #31
 8001192:	d812      	bhi.n	80011ba <_ZN58_$LT$PIN$u20$as$u20$stm32f4xx_hal..gpio..exti..ExtiPin$GT$21make_interrupt_source28_$u7b$$u7b$closure$u7d$$u7d$17h5bcea472b1da6ca7E+0x48>
 8001194:	e7ff      	b.n	8001196 <_ZN58_$LT$PIN$u20$as$u20$stm32f4xx_hal..gpio..exti..ExtiPin$GT$21make_interrupt_source28_$u7b$$u7b$closure$u7d$$u7d$17h5bcea472b1da6ca7E+0x24>
 8001196:	9805      	ldr	r0, [sp, #20]
 8001198:	9906      	ldr	r1, [sp, #24]
 800119a:	f001 021f 	and.w	r2, r1, #31
 800119e:	210f      	movs	r1, #15
 80011a0:	4091      	lsls	r1, r2
 80011a2:	4388      	bics	r0, r1
 80011a4:	9001      	str	r0, [sp, #4]
 80011a6:	9807      	ldr	r0, [sp, #28]
 80011a8:	9908      	ldr	r1, [sp, #32]
 80011aa:	6809      	ldr	r1, [r1, #0]
 80011ac:	9102      	str	r1, [sp, #8]
 80011ae:	7800      	ldrb	r0, [r0, #0]
 80011b0:	4601      	mov	r1, r0
 80011b2:	9103      	str	r1, [sp, #12]
 80011b4:	2820      	cmp	r0, #32
 80011b6:	d306      	bcc.n	80011c6 <_ZN58_$LT$PIN$u20$as$u20$stm32f4xx_hal..gpio..exti..ExtiPin$GT$21make_interrupt_source28_$u7b$$u7b$closure$u7d$$u7d$17h5bcea472b1da6ca7E+0x54>
 80011b8:	e012      	b.n	80011e0 <_ZN58_$LT$PIN$u20$as$u20$stm32f4xx_hal..gpio..exti..ExtiPin$GT$21make_interrupt_source28_$u7b$$u7b$closure$u7d$$u7d$17h5bcea472b1da6ca7E+0x6e>
 80011ba:	f248 503c 	movw	r0, #34108	; 0x853c
 80011be:	f6c0 0000 	movt	r0, #2048	; 0x800
 80011c2:	f006 ff7f 	bl	80080c4 <_ZN4core9panicking11panic_const24panic_const_shl_overflow17h7d1dfb79ee113705E>
 80011c6:	9804      	ldr	r0, [sp, #16]
 80011c8:	9901      	ldr	r1, [sp, #4]
 80011ca:	9a02      	ldr	r2, [sp, #8]
 80011cc:	9b03      	ldr	r3, [sp, #12]
 80011ce:	f003 031f 	and.w	r3, r3, #31
 80011d2:	409a      	lsls	r2, r3
 80011d4:	4311      	orrs	r1, r2
 80011d6:	900c      	str	r0, [sp, #48]	; 0x30
 80011d8:	910d      	str	r1, [sp, #52]	; 0x34
 80011da:	6001      	str	r1, [r0, #0]
 80011dc:	b00e      	add	sp, #56	; 0x38
 80011de:	bd80      	pop	{r7, pc}
 80011e0:	f248 504c 	movw	r0, #34124	; 0x854c
 80011e4:	f6c0 0000 	movt	r0, #2048	; 0x800
 80011e8:	f006 ff6c 	bl	80080c4 <_ZN4core9panicking11panic_const24panic_const_shl_overflow17h7d1dfb79ee113705E>

080011ec <_ZN58_$LT$PIN$u20$as$u20$stm32f4xx_hal..gpio..exti..ExtiPin$GT$21make_interrupt_source28_$u7b$$u7b$closure$u7d$$u7d$17h7d64bb20525fe9b2E>:
 80011ec:	b580      	push	{r7, lr}
 80011ee:	466f      	mov	r7, sp
 80011f0:	b08e      	sub	sp, #56	; 0x38
 80011f2:	9304      	str	r3, [sp, #16]
 80011f4:	9007      	str	r0, [sp, #28]
 80011f6:	9108      	str	r1, [sp, #32]
 80011f8:	9209      	str	r2, [sp, #36]	; 0x24
 80011fa:	930a      	str	r3, [sp, #40]	; 0x28
 80011fc:	920b      	str	r2, [sp, #44]	; 0x2c
 80011fe:	6810      	ldr	r0, [r2, #0]
 8001200:	9005      	str	r0, [sp, #20]
 8001202:	9807      	ldr	r0, [sp, #28]
 8001204:	7800      	ldrb	r0, [r0, #0]
 8001206:	4601      	mov	r1, r0
 8001208:	9106      	str	r1, [sp, #24]
 800120a:	281f      	cmp	r0, #31
 800120c:	d812      	bhi.n	8001234 <_ZN58_$LT$PIN$u20$as$u20$stm32f4xx_hal..gpio..exti..ExtiPin$GT$21make_interrupt_source28_$u7b$$u7b$closure$u7d$$u7d$17h7d64bb20525fe9b2E+0x48>
 800120e:	e7ff      	b.n	8001210 <_ZN58_$LT$PIN$u20$as$u20$stm32f4xx_hal..gpio..exti..ExtiPin$GT$21make_interrupt_source28_$u7b$$u7b$closure$u7d$$u7d$17h7d64bb20525fe9b2E+0x24>
 8001210:	9805      	ldr	r0, [sp, #20]
 8001212:	9906      	ldr	r1, [sp, #24]
 8001214:	f001 021f 	and.w	r2, r1, #31
 8001218:	210f      	movs	r1, #15
 800121a:	4091      	lsls	r1, r2
 800121c:	4388      	bics	r0, r1
 800121e:	9001      	str	r0, [sp, #4]
 8001220:	9807      	ldr	r0, [sp, #28]
 8001222:	9908      	ldr	r1, [sp, #32]
 8001224:	6809      	ldr	r1, [r1, #0]
 8001226:	9102      	str	r1, [sp, #8]
 8001228:	7800      	ldrb	r0, [r0, #0]
 800122a:	4601      	mov	r1, r0
 800122c:	9103      	str	r1, [sp, #12]
 800122e:	2820      	cmp	r0, #32
 8001230:	d306      	bcc.n	8001240 <_ZN58_$LT$PIN$u20$as$u20$stm32f4xx_hal..gpio..exti..ExtiPin$GT$21make_interrupt_source28_$u7b$$u7b$closure$u7d$$u7d$17h7d64bb20525fe9b2E+0x54>
 8001232:	e012      	b.n	800125a <_ZN58_$LT$PIN$u20$as$u20$stm32f4xx_hal..gpio..exti..ExtiPin$GT$21make_interrupt_source28_$u7b$$u7b$closure$u7d$$u7d$17h7d64bb20525fe9b2E+0x6e>
 8001234:	f248 505c 	movw	r0, #34140	; 0x855c
 8001238:	f6c0 0000 	movt	r0, #2048	; 0x800
 800123c:	f006 ff42 	bl	80080c4 <_ZN4core9panicking11panic_const24panic_const_shl_overflow17h7d1dfb79ee113705E>
 8001240:	9804      	ldr	r0, [sp, #16]
 8001242:	9901      	ldr	r1, [sp, #4]
 8001244:	9a02      	ldr	r2, [sp, #8]
 8001246:	9b03      	ldr	r3, [sp, #12]
 8001248:	f003 031f 	and.w	r3, r3, #31
 800124c:	409a      	lsls	r2, r3
 800124e:	4311      	orrs	r1, r2
 8001250:	900c      	str	r0, [sp, #48]	; 0x30
 8001252:	910d      	str	r1, [sp, #52]	; 0x34
 8001254:	6001      	str	r1, [r0, #0]
 8001256:	b00e      	add	sp, #56	; 0x38
 8001258:	bd80      	pop	{r7, pc}
 800125a:	f248 506c 	movw	r0, #34156	; 0x856c
 800125e:	f6c0 0000 	movt	r0, #2048	; 0x800
 8001262:	f006 ff2f 	bl	80080c4 <_ZN4core9panicking11panic_const24panic_const_shl_overflow17h7d1dfb79ee113705E>

08001266 <_ZN58_$LT$PIN$u20$as$u20$stm32f4xx_hal..gpio..exti..ExtiPin$GT$21make_interrupt_source28_$u7b$$u7b$closure$u7d$$u7d$17hd0cc9a5bec6f8128E>:
 8001266:	b580      	push	{r7, lr}
 8001268:	466f      	mov	r7, sp
 800126a:	b08e      	sub	sp, #56	; 0x38
 800126c:	9304      	str	r3, [sp, #16]
 800126e:	9007      	str	r0, [sp, #28]
 8001270:	9108      	str	r1, [sp, #32]
 8001272:	9209      	str	r2, [sp, #36]	; 0x24
 8001274:	930a      	str	r3, [sp, #40]	; 0x28
 8001276:	920b      	str	r2, [sp, #44]	; 0x2c
 8001278:	6810      	ldr	r0, [r2, #0]
 800127a:	9005      	str	r0, [sp, #20]
 800127c:	9807      	ldr	r0, [sp, #28]
 800127e:	7800      	ldrb	r0, [r0, #0]
 8001280:	4601      	mov	r1, r0
 8001282:	9106      	str	r1, [sp, #24]
 8001284:	281f      	cmp	r0, #31
 8001286:	d812      	bhi.n	80012ae <_ZN58_$LT$PIN$u20$as$u20$stm32f4xx_hal..gpio..exti..ExtiPin$GT$21make_interrupt_source28_$u7b$$u7b$closure$u7d$$u7d$17hd0cc9a5bec6f8128E+0x48>
 8001288:	e7ff      	b.n	800128a <_ZN58_$LT$PIN$u20$as$u20$stm32f4xx_hal..gpio..exti..ExtiPin$GT$21make_interrupt_source28_$u7b$$u7b$closure$u7d$$u7d$17hd0cc9a5bec6f8128E+0x24>
 800128a:	9805      	ldr	r0, [sp, #20]
 800128c:	9906      	ldr	r1, [sp, #24]
 800128e:	f001 021f 	and.w	r2, r1, #31
 8001292:	210f      	movs	r1, #15
 8001294:	4091      	lsls	r1, r2
 8001296:	4388      	bics	r0, r1
 8001298:	9001      	str	r0, [sp, #4]
 800129a:	9807      	ldr	r0, [sp, #28]
 800129c:	9908      	ldr	r1, [sp, #32]
 800129e:	6809      	ldr	r1, [r1, #0]
 80012a0:	9102      	str	r1, [sp, #8]
 80012a2:	7800      	ldrb	r0, [r0, #0]
 80012a4:	4601      	mov	r1, r0
 80012a6:	9103      	str	r1, [sp, #12]
 80012a8:	2820      	cmp	r0, #32
 80012aa:	d306      	bcc.n	80012ba <_ZN58_$LT$PIN$u20$as$u20$stm32f4xx_hal..gpio..exti..ExtiPin$GT$21make_interrupt_source28_$u7b$$u7b$closure$u7d$$u7d$17hd0cc9a5bec6f8128E+0x54>
 80012ac:	e012      	b.n	80012d4 <_ZN58_$LT$PIN$u20$as$u20$stm32f4xx_hal..gpio..exti..ExtiPin$GT$21make_interrupt_source28_$u7b$$u7b$closure$u7d$$u7d$17hd0cc9a5bec6f8128E+0x6e>
 80012ae:	f248 507c 	movw	r0, #34172	; 0x857c
 80012b2:	f6c0 0000 	movt	r0, #2048	; 0x800
 80012b6:	f006 ff05 	bl	80080c4 <_ZN4core9panicking11panic_const24panic_const_shl_overflow17h7d1dfb79ee113705E>
 80012ba:	9804      	ldr	r0, [sp, #16]
 80012bc:	9901      	ldr	r1, [sp, #4]
 80012be:	9a02      	ldr	r2, [sp, #8]
 80012c0:	9b03      	ldr	r3, [sp, #12]
 80012c2:	f003 031f 	and.w	r3, r3, #31
 80012c6:	409a      	lsls	r2, r3
 80012c8:	4311      	orrs	r1, r2
 80012ca:	900c      	str	r0, [sp, #48]	; 0x30
 80012cc:	910d      	str	r1, [sp, #52]	; 0x34
 80012ce:	6001      	str	r1, [r0, #0]
 80012d0:	b00e      	add	sp, #56	; 0x38
 80012d2:	bd80      	pop	{r7, pc}
 80012d4:	f248 508c 	movw	r0, #34188	; 0x858c
 80012d8:	f6c0 0000 	movt	r0, #2048	; 0x800
 80012dc:	f006 fef2 	bl	80080c4 <_ZN4core9panicking11panic_const24panic_const_shl_overflow17h7d1dfb79ee113705E>

080012e0 <_ZN58_$LT$PIN$u20$as$u20$stm32f4xx_hal..gpio..exti..ExtiPin$GT$21make_interrupt_source28_$u7b$$u7b$closure$u7d$$u7d$17hff715bd6c4c276deE>:
 80012e0:	b580      	push	{r7, lr}
 80012e2:	466f      	mov	r7, sp
 80012e4:	b08e      	sub	sp, #56	; 0x38
 80012e6:	9304      	str	r3, [sp, #16]
 80012e8:	9007      	str	r0, [sp, #28]
 80012ea:	9108      	str	r1, [sp, #32]
 80012ec:	9209      	str	r2, [sp, #36]	; 0x24
 80012ee:	930a      	str	r3, [sp, #40]	; 0x28
 80012f0:	920b      	str	r2, [sp, #44]	; 0x2c
 80012f2:	6810      	ldr	r0, [r2, #0]
 80012f4:	9005      	str	r0, [sp, #20]
 80012f6:	9807      	ldr	r0, [sp, #28]
 80012f8:	7800      	ldrb	r0, [r0, #0]
 80012fa:	4601      	mov	r1, r0
 80012fc:	9106      	str	r1, [sp, #24]
 80012fe:	281f      	cmp	r0, #31
 8001300:	d812      	bhi.n	8001328 <_ZN58_$LT$PIN$u20$as$u20$stm32f4xx_hal..gpio..exti..ExtiPin$GT$21make_interrupt_source28_$u7b$$u7b$closure$u7d$$u7d$17hff715bd6c4c276deE+0x48>
 8001302:	e7ff      	b.n	8001304 <_ZN58_$LT$PIN$u20$as$u20$stm32f4xx_hal..gpio..exti..ExtiPin$GT$21make_interrupt_source28_$u7b$$u7b$closure$u7d$$u7d$17hff715bd6c4c276deE+0x24>
 8001304:	9805      	ldr	r0, [sp, #20]
 8001306:	9906      	ldr	r1, [sp, #24]
 8001308:	f001 021f 	and.w	r2, r1, #31
 800130c:	210f      	movs	r1, #15
 800130e:	4091      	lsls	r1, r2
 8001310:	4388      	bics	r0, r1
 8001312:	9001      	str	r0, [sp, #4]
 8001314:	9807      	ldr	r0, [sp, #28]
 8001316:	9908      	ldr	r1, [sp, #32]
 8001318:	6809      	ldr	r1, [r1, #0]
 800131a:	9102      	str	r1, [sp, #8]
 800131c:	7800      	ldrb	r0, [r0, #0]
 800131e:	4601      	mov	r1, r0
 8001320:	9103      	str	r1, [sp, #12]
 8001322:	2820      	cmp	r0, #32
 8001324:	d306      	bcc.n	8001334 <_ZN58_$LT$PIN$u20$as$u20$stm32f4xx_hal..gpio..exti..ExtiPin$GT$21make_interrupt_source28_$u7b$$u7b$closure$u7d$$u7d$17hff715bd6c4c276deE+0x54>
 8001326:	e012      	b.n	800134e <_ZN58_$LT$PIN$u20$as$u20$stm32f4xx_hal..gpio..exti..ExtiPin$GT$21make_interrupt_source28_$u7b$$u7b$closure$u7d$$u7d$17hff715bd6c4c276deE+0x6e>
 8001328:	f248 509c 	movw	r0, #34204	; 0x859c
 800132c:	f6c0 0000 	movt	r0, #2048	; 0x800
 8001330:	f006 fec8 	bl	80080c4 <_ZN4core9panicking11panic_const24panic_const_shl_overflow17h7d1dfb79ee113705E>
 8001334:	9804      	ldr	r0, [sp, #16]
 8001336:	9901      	ldr	r1, [sp, #4]
 8001338:	9a02      	ldr	r2, [sp, #8]
 800133a:	9b03      	ldr	r3, [sp, #12]
 800133c:	f003 031f 	and.w	r3, r3, #31
 8001340:	409a      	lsls	r2, r3
 8001342:	4311      	orrs	r1, r2
 8001344:	900c      	str	r0, [sp, #48]	; 0x30
 8001346:	910d      	str	r1, [sp, #52]	; 0x34
 8001348:	6001      	str	r1, [r0, #0]
 800134a:	b00e      	add	sp, #56	; 0x38
 800134c:	bd80      	pop	{r7, pc}
 800134e:	f248 50ac 	movw	r0, #34220	; 0x85ac
 8001352:	f6c0 0000 	movt	r0, #2048	; 0x800
 8001356:	f006 feb5 	bl	80080c4 <_ZN4core9panicking11panic_const24panic_const_shl_overflow17h7d1dfb79ee113705E>

0800135a <_ZN58_$LT$PIN$u20$as$u20$stm32f4xx_hal..gpio..exti..ExtiPin$GT$27clear_interrupt_pending_bit28_$u7b$$u7b$closure$u7d$$u7d$17hd06b5e59cce02a36E>:
 800135a:	b580      	push	{r7, lr}
 800135c:	466f      	mov	r7, sp
 800135e:	b086      	sub	sp, #24
 8001360:	9100      	str	r1, [sp, #0]
 8001362:	9001      	str	r0, [sp, #4]
 8001364:	9102      	str	r1, [sp, #8]
 8001366:	9801      	ldr	r0, [sp, #4]
 8001368:	9005      	str	r0, [sp, #20]
 800136a:	2000      	movs	r0, #0
 800136c:	b940      	cbnz	r0, 8001380 <_ZN58_$LT$PIN$u20$as$u20$stm32f4xx_hal..gpio..exti..ExtiPin$GT$27clear_interrupt_pending_bit28_$u7b$$u7b$closure$u7d$$u7d$17hd06b5e59cce02a36E+0x26>
 800136e:	e7ff      	b.n	8001370 <_ZN58_$LT$PIN$u20$as$u20$stm32f4xx_hal..gpio..exti..ExtiPin$GT$27clear_interrupt_pending_bit28_$u7b$$u7b$closure$u7d$$u7d$17hd06b5e59cce02a36E+0x16>
 8001370:	9800      	ldr	r0, [sp, #0]
 8001372:	9003      	str	r0, [sp, #12]
 8001374:	f44f 5100 	mov.w	r1, #8192	; 0x2000
 8001378:	9104      	str	r1, [sp, #16]
 800137a:	6001      	str	r1, [r0, #0]
 800137c:	b006      	add	sp, #24
 800137e:	bd80      	pop	{r7, pc}
 8001380:	f248 50bc 	movw	r0, #34236	; 0x85bc
 8001384:	f6c0 0000 	movt	r0, #2048	; 0x800
 8001388:	f006 fe9c 	bl	80080c4 <_ZN4core9panicking11panic_const24panic_const_shl_overflow17h7d1dfb79ee113705E>

0800138c <_ZN89_$LT$stm32f4_staging..stm32f401..gpioa..moder..MODER0$u20$as$u20$core..cmp..PartialEq$GT$2eq17h9b5402db58c104d0E>:
 800138c:	b083      	sub	sp, #12
 800138e:	9000      	str	r0, [sp, #0]
 8001390:	9101      	str	r1, [sp, #4]
 8001392:	7800      	ldrb	r0, [r0, #0]
 8001394:	f88d 000a 	strb.w	r0, [sp, #10]
 8001398:	7809      	ldrb	r1, [r1, #0]
 800139a:	f88d 100b 	strb.w	r1, [sp, #11]
 800139e:	1a40      	subs	r0, r0, r1
 80013a0:	fab0 f080 	clz	r0, r0
 80013a4:	0940      	lsrs	r0, r0, #5
 80013a6:	b003      	add	sp, #12
 80013a8:	4770      	bx	lr

080013aa <_ZN4core4cell13Cell$LT$T$GT$3get17h8efe93522909cd57E>:
 80013aa:	b082      	sub	sp, #8
 80013ac:	9000      	str	r0, [sp, #0]
 80013ae:	9001      	str	r0, [sp, #4]
 80013b0:	6800      	ldr	r0, [r0, #0]
 80013b2:	b002      	add	sp, #8
 80013b4:	4770      	bx	lr

080013b6 <_ZN4core4cell13Cell$LT$T$GT$3set17h6bc084b996115b9fE>:
 80013b6:	b085      	sub	sp, #20
 80013b8:	9000      	str	r0, [sp, #0]
 80013ba:	9101      	str	r1, [sp, #4]
 80013bc:	9002      	str	r0, [sp, #8]
 80013be:	9003      	str	r0, [sp, #12]
 80013c0:	6802      	ldr	r2, [r0, #0]
 80013c2:	9204      	str	r2, [sp, #16]
 80013c4:	6001      	str	r1, [r0, #0]
 80013c6:	b005      	add	sp, #20
 80013c8:	4770      	bx	lr

080013ca <_ZN4core4cell16RefCell$LT$T$GT$10borrow_mut17h8297c25bc97563c6E>:
 80013ca:	b580      	push	{r7, lr}
 80013cc:	466f      	mov	r7, sp
 80013ce:	b088      	sub	sp, #32
 80013d0:	9101      	str	r1, [sp, #4]
 80013d2:	9004      	str	r0, [sp, #16]
 80013d4:	f000 f80e 	bl	80013f4 <_ZN4core4cell16RefCell$LT$T$GT$14try_borrow_mut17h14967f19ec9bd306E>
 80013d8:	9002      	str	r0, [sp, #8]
 80013da:	9103      	str	r1, [sp, #12]
 80013dc:	9802      	ldr	r0, [sp, #8]
 80013de:	b130      	cbz	r0, 80013ee <_ZN4core4cell16RefCell$LT$T$GT$10borrow_mut17h8297c25bc97563c6E+0x24>
 80013e0:	e7ff      	b.n	80013e2 <_ZN4core4cell16RefCell$LT$T$GT$10borrow_mut17h8297c25bc97563c6E+0x18>
 80013e2:	9802      	ldr	r0, [sp, #8]
 80013e4:	9903      	ldr	r1, [sp, #12]
 80013e6:	9006      	str	r0, [sp, #24]
 80013e8:	9107      	str	r1, [sp, #28]
 80013ea:	b008      	add	sp, #32
 80013ec:	bd80      	pop	{r7, pc}
 80013ee:	9801      	ldr	r0, [sp, #4]
 80013f0:	f005 fd5f 	bl	8006eb2 <_ZN4core4cell22panic_already_borrowed17h8ed9a151d192a447E>

080013f4 <_ZN4core4cell16RefCell$LT$T$GT$14try_borrow_mut17h14967f19ec9bd306E>:
 80013f4:	b580      	push	{r7, lr}
 80013f6:	466f      	mov	r7, sp
 80013f8:	b094      	sub	sp, #80	; 0x50
 80013fa:	9002      	str	r0, [sp, #8]
 80013fc:	9006      	str	r0, [sp, #24]
 80013fe:	f04f 31ff 	mov.w	r1, #4294967295
 8001402:	9107      	str	r1, [sp, #28]
 8001404:	9108      	str	r1, [sp, #32]
 8001406:	9109      	str	r1, [sp, #36]	; 0x24
 8001408:	910a      	str	r1, [sp, #40]	; 0x28
 800140a:	900b      	str	r0, [sp, #44]	; 0x2c
 800140c:	900c      	str	r0, [sp, #48]	; 0x30
 800140e:	6800      	ldr	r0, [r0, #0]
 8001410:	b990      	cbnz	r0, 8001438 <_ZN4core4cell16RefCell$LT$T$GT$14try_borrow_mut17h14967f19ec9bd306E+0x44>
 8001412:	e7ff      	b.n	8001414 <_ZN4core4cell16RefCell$LT$T$GT$14try_borrow_mut17h14967f19ec9bd306E+0x20>
 8001414:	9802      	ldr	r0, [sp, #8]
 8001416:	900d      	str	r0, [sp, #52]	; 0x34
 8001418:	900e      	str	r0, [sp, #56]	; 0x38
 800141a:	6801      	ldr	r1, [r0, #0]
 800141c:	910f      	str	r1, [sp, #60]	; 0x3c
 800141e:	f04f 31ff 	mov.w	r1, #4294967295
 8001422:	6001      	str	r1, [r0, #0]
 8001424:	9005      	str	r0, [sp, #20]
 8001426:	9905      	ldr	r1, [sp, #20]
 8001428:	9100      	str	r1, [sp, #0]
 800142a:	9110      	str	r1, [sp, #64]	; 0x40
 800142c:	3004      	adds	r0, #4
 800142e:	9011      	str	r0, [sp, #68]	; 0x44
 8001430:	4601      	mov	r1, r0
 8001432:	9101      	str	r1, [sp, #4]
 8001434:	9012      	str	r0, [sp, #72]	; 0x48
 8001436:	e002      	b.n	800143e <_ZN4core4cell16RefCell$LT$T$GT$14try_borrow_mut17h14967f19ec9bd306E+0x4a>
 8001438:	2000      	movs	r0, #0
 800143a:	9003      	str	r0, [sp, #12]
 800143c:	e009      	b.n	8001452 <_ZN4core4cell16RefCell$LT$T$GT$14try_borrow_mut17h14967f19ec9bd306E+0x5e>
 800143e:	9801      	ldr	r0, [sp, #4]
 8001440:	f7ff f8e2 	bl	8000608 <_ZN4core3ptr8non_null16NonNull$LT$T$GT$13new_unchecked18precondition_check17h248a73345b15702aE>
 8001444:	e7ff      	b.n	8001446 <_ZN4core4cell16RefCell$LT$T$GT$14try_borrow_mut17h14967f19ec9bd306E+0x52>
 8001446:	9800      	ldr	r0, [sp, #0]
 8001448:	9901      	ldr	r1, [sp, #4]
 800144a:	9113      	str	r1, [sp, #76]	; 0x4c
 800144c:	9103      	str	r1, [sp, #12]
 800144e:	9004      	str	r0, [sp, #16]
 8001450:	e7ff      	b.n	8001452 <_ZN4core4cell16RefCell$LT$T$GT$14try_borrow_mut17h14967f19ec9bd306E+0x5e>
 8001452:	9803      	ldr	r0, [sp, #12]
 8001454:	9904      	ldr	r1, [sp, #16]
 8001456:	b014      	add	sp, #80	; 0x50
 8001458:	bd80      	pop	{r7, pc}

0800145a <_ZN4core4cell16RefCell$LT$T$GT$7replace17h8fea71fba23ba809E>:
 800145a:	b580      	push	{r7, lr}
 800145c:	466f      	mov	r7, sp
 800145e:	b08e      	sub	sp, #56	; 0x38
 8001460:	9201      	str	r2, [sp, #4]
 8001462:	460a      	mov	r2, r1
 8001464:	9202      	str	r2, [sp, #8]
 8001466:	9007      	str	r0, [sp, #28]
 8001468:	f807 1c16 	strb.w	r1, [r7, #-22]
 800146c:	f7ff ffc2 	bl	80013f4 <_ZN4core4cell16RefCell$LT$T$GT$14try_borrow_mut17h14967f19ec9bd306E>
 8001470:	9005      	str	r0, [sp, #20]
 8001472:	9106      	str	r1, [sp, #24]
 8001474:	9805      	ldr	r0, [sp, #20]
 8001476:	b1c8      	cbz	r0, 80014ac <_ZN4core4cell16RefCell$LT$T$GT$7replace17h8fea71fba23ba809E+0x52>
 8001478:	e7ff      	b.n	800147a <_ZN4core4cell16RefCell$LT$T$GT$7replace17h8fea71fba23ba809E+0x20>
 800147a:	9902      	ldr	r1, [sp, #8]
 800147c:	9a05      	ldr	r2, [sp, #20]
 800147e:	9806      	ldr	r0, [sp, #24]
 8001480:	9203      	str	r2, [sp, #12]
 8001482:	9004      	str	r0, [sp, #16]
 8001484:	a803      	add	r0, sp, #12
 8001486:	9009      	str	r0, [sp, #36]	; 0x24
 8001488:	900a      	str	r0, [sp, #40]	; 0x28
 800148a:	9a03      	ldr	r2, [sp, #12]
 800148c:	920b      	str	r2, [sp, #44]	; 0x2c
 800148e:	920c      	str	r2, [sp, #48]	; 0x30
 8001490:	7813      	ldrb	r3, [r2, #0]
 8001492:	f003 0301 	and.w	r3, r3, #1
 8001496:	9300      	str	r3, [sp, #0]
 8001498:	f807 3c01 	strb.w	r3, [r7, #-1]
 800149c:	f001 0101 	and.w	r1, r1, #1
 80014a0:	7011      	strb	r1, [r2, #0]
 80014a2:	f000 fcab 	bl	8001dfc <_ZN4core3ptr116drop_in_place$LT$core..cell..RefMut$LT$core..option..Option$LT$stm32f4xx_hal..gpio..Pin$LT$_$C$13_u8$GT$$GT$$GT$$GT$17h479972a60991f7beE>
 80014a6:	9800      	ldr	r0, [sp, #0]
 80014a8:	b00e      	add	sp, #56	; 0x38
 80014aa:	bd80      	pop	{r7, pc}
 80014ac:	9801      	ldr	r0, [sp, #4]
 80014ae:	f005 fd00 	bl	8006eb2 <_ZN4core4cell22panic_already_borrowed17h8ed9a151d192a447E>

080014b2 <_ZN74_$LT$core..cell..RefMut$LT$T$GT$$u20$as$u20$core..ops..deref..DerefMut$GT$9deref_mut17h42d6e7598343b96dE>:
 80014b2:	b083      	sub	sp, #12
 80014b4:	9000      	str	r0, [sp, #0]
 80014b6:	9001      	str	r0, [sp, #4]
 80014b8:	6800      	ldr	r0, [r0, #0]
 80014ba:	9002      	str	r0, [sp, #8]
 80014bc:	b003      	add	sp, #12
 80014be:	4770      	bx	lr

080014c0 <_ZN8template18__cortex_m_rt_main28_$u7b$$u7b$closure$u7d$$u7d$17hffb88ec2e7b0cf1eE>:
 80014c0:	b580      	push	{r7, lr}
 80014c2:	466f      	mov	r7, sp
 80014c4:	b084      	sub	sp, #16
 80014c6:	4601      	mov	r1, r0
 80014c8:	9102      	str	r1, [sp, #8]
 80014ca:	f240 0004 	movw	r0, #4
 80014ce:	f2c2 0000 	movt	r0, #8192	; 0x2000
 80014d2:	f7ff f85e 	bl	8000592 <_ZN10bare_metal14Mutex$LT$T$GT$6borrow17h444bb5f2033f5e6bE>
 80014d6:	2101      	movs	r1, #1
 80014d8:	f807 1c0a 	strb.w	r1, [r7, #-10]
 80014dc:	f817 1c0a 	ldrb.w	r1, [r7, #-10]
 80014e0:	f001 0101 	and.w	r1, r1, #1
 80014e4:	f248 52d8 	movw	r2, #34264	; 0x85d8
 80014e8:	f6c0 0200 	movt	r2, #2048	; 0x800
 80014ec:	f7ff ffb5 	bl	800145a <_ZN4core4cell16RefCell$LT$T$GT$7replace17h8fea71fba23ba809E>
 80014f0:	b004      	add	sp, #16
 80014f2:	bd80      	pop	{r7, pc}

080014f4 <_ZN8template18__cortex_m_rt_main28_$u7b$$u7b$closure$u7d$$u7d$17hd8e2cdaf031f0cadE>:
 80014f4:	b580      	push	{r7, lr}
 80014f6:	466f      	mov	r7, sp
 80014f8:	b082      	sub	sp, #8
 80014fa:	4601      	mov	r1, r0
 80014fc:	9101      	str	r1, [sp, #4]
 80014fe:	f240 0000 	movw	r0, #0
 8001502:	f2c2 0000 	movt	r0, #8192	; 0x2000
 8001506:	f7ff f83e 	bl	8000586 <_ZN10bare_metal14Mutex$LT$T$GT$6borrow17h12d8efbf4c64646aE>
 800150a:	f7ff ff4e 	bl	80013aa <_ZN4core4cell13Cell$LT$T$GT$3get17h8efe93522909cd57E>
 800150e:	b002      	add	sp, #8
 8001510:	bd80      	pop	{r7, pc}

08001512 <_ZN8template18__cortex_m_rt_main28_$u7b$$u7b$closure$u7d$$u7d$17hd1bf743da7a2b862E>:
 8001512:	b580      	push	{r7, lr}
 8001514:	466f      	mov	r7, sp
 8001516:	b082      	sub	sp, #8
 8001518:	4601      	mov	r1, r0
 800151a:	9101      	str	r1, [sp, #4]
 800151c:	f240 0000 	movw	r0, #0
 8001520:	f2c2 0000 	movt	r0, #8192	; 0x2000
 8001524:	f7ff f82f 	bl	8000586 <_ZN10bare_metal14Mutex$LT$T$GT$6borrow17h12d8efbf4c64646aE>
 8001528:	f7ff ff3f 	bl	80013aa <_ZN4core4cell13Cell$LT$T$GT$3get17h8efe93522909cd57E>
 800152c:	b002      	add	sp, #8
 800152e:	bd80      	pop	{r7, pc}

08001530 <_ZN8template23__cortex_m_rt_EXTI15_1028_$u7b$$u7b$closure$u7d$$u7d$17h67e2aa689e879236E>:
 8001530:	b580      	push	{r7, lr}
 8001532:	466f      	mov	r7, sp
 8001534:	b096      	sub	sp, #88	; 0x58
 8001536:	4601      	mov	r1, r0
 8001538:	9104      	str	r1, [sp, #16]
 800153a:	910b      	str	r1, [sp, #44]	; 0x2c
 800153c:	f240 0000 	movw	r0, #0
 8001540:	f2c2 0000 	movt	r0, #8192	; 0x2000
 8001544:	9005      	str	r0, [sp, #20]
 8001546:	f7ff f81e 	bl	8000586 <_ZN10bare_metal14Mutex$LT$T$GT$6borrow17h12d8efbf4c64646aE>
 800154a:	9904      	ldr	r1, [sp, #16]
 800154c:	4602      	mov	r2, r0
 800154e:	9805      	ldr	r0, [sp, #20]
 8001550:	9206      	str	r2, [sp, #24]
 8001552:	f7ff f818 	bl	8000586 <_ZN10bare_metal14Mutex$LT$T$GT$6borrow17h12d8efbf4c64646aE>
 8001556:	f7ff ff28 	bl	80013aa <_ZN4core4cell13Cell$LT$T$GT$3get17h8efe93522909cd57E>
 800155a:	f5a0 71fa 	sub.w	r1, r0, #500	; 0x1f4
 800155e:	9107      	str	r1, [sp, #28]
 8001560:	f5b0 7ffa 	cmp.w	r0, #500	; 0x1f4
 8001564:	d311      	bcc.n	800158a <_ZN8template23__cortex_m_rt_EXTI15_1028_$u7b$$u7b$closure$u7d$$u7d$17h67e2aa689e879236E+0x5a>
 8001566:	e7ff      	b.n	8001568 <_ZN8template23__cortex_m_rt_EXTI15_1028_$u7b$$u7b$closure$u7d$$u7d$17h67e2aa689e879236E+0x38>
 8001568:	9907      	ldr	r1, [sp, #28]
 800156a:	9806      	ldr	r0, [sp, #24]
 800156c:	f7ff ff23 	bl	80013b6 <_ZN4core4cell13Cell$LT$T$GT$3set17h6bc084b996115b9fE>
 8001570:	9904      	ldr	r1, [sp, #16]
 8001572:	f240 0000 	movw	r0, #0
 8001576:	f2c2 0000 	movt	r0, #8192	; 0x2000
 800157a:	f7ff f804 	bl	8000586 <_ZN10bare_metal14Mutex$LT$T$GT$6borrow17h12d8efbf4c64646aE>
 800157e:	f7ff ff14 	bl	80013aa <_ZN4core4cell13Cell$LT$T$GT$3get17h8efe93522909cd57E>
 8001582:	f5b0 7ffa 	cmp.w	r0, #500	; 0x1f4
 8001586:	d355      	bcc.n	8001634 <_ZN8template23__cortex_m_rt_EXTI15_1028_$u7b$$u7b$closure$u7d$$u7d$17h67e2aa689e879236E+0x104>
 8001588:	e005      	b.n	8001596 <_ZN8template23__cortex_m_rt_EXTI15_1028_$u7b$$u7b$closure$u7d$$u7d$17h67e2aa689e879236E+0x66>
 800158a:	f248 50e8 	movw	r0, #34280	; 0x85e8
 800158e:	f6c0 0000 	movt	r0, #2048	; 0x800
 8001592:	f006 fd5e 	bl	8008052 <_ZN4core9panicking11panic_const24panic_const_sub_overflow17h655aa7502feebde5E>
 8001596:	9904      	ldr	r1, [sp, #16]
 8001598:	f240 0004 	movw	r0, #4
 800159c:	f2c2 0000 	movt	r0, #8192	; 0x2000
 80015a0:	f7fe fff7 	bl	8000592 <_ZN10bare_metal14Mutex$LT$T$GT$6borrow17h444bb5f2033f5e6bE>
 80015a4:	f248 51f8 	movw	r1, #34296	; 0x85f8
 80015a8:	f6c0 0100 	movt	r1, #2048	; 0x800
 80015ac:	f7ff ff0d 	bl	80013ca <_ZN4core4cell16RefCell$LT$T$GT$10borrow_mut17h8297c25bc97563c6E>
 80015b0:	9008      	str	r0, [sp, #32]
 80015b2:	9109      	str	r1, [sp, #36]	; 0x24
 80015b4:	a808      	add	r0, sp, #32
 80015b6:	f7ff ff7c 	bl	80014b2 <_ZN74_$LT$core..cell..RefMut$LT$T$GT$$u20$as$u20$core..ops..deref..DerefMut$GT$9deref_mut17h42d6e7598343b96dE>
 80015ba:	f000 fca8 	bl	8001f0e <_ZN4core6option15Option$LT$T$GT$6as_mut17ha34c95246e7f4469E>
 80015be:	900c      	str	r0, [sp, #48]	; 0x30
 80015c0:	980c      	ldr	r0, [sp, #48]	; 0x30
 80015c2:	b930      	cbnz	r0, 80015d2 <_ZN8template23__cortex_m_rt_EXTI15_1028_$u7b$$u7b$closure$u7d$$u7d$17h67e2aa689e879236E+0xa2>
 80015c4:	e7ff      	b.n	80015c6 <_ZN8template23__cortex_m_rt_EXTI15_1028_$u7b$$u7b$closure$u7d$$u7d$17h67e2aa689e879236E+0x96>
 80015c6:	f248 6008 	movw	r0, #34312	; 0x8608
 80015ca:	f6c0 0000 	movt	r0, #2048	; 0x800
 80015ce:	f005 fc8a 	bl	8006ee6 <_ZN4core6option13unwrap_failed17he8f5396282508463E>
 80015d2:	980c      	ldr	r0, [sp, #48]	; 0x30
 80015d4:	9002      	str	r0, [sp, #8]
 80015d6:	900d      	str	r0, [sp, #52]	; 0x34
 80015d8:	900e      	str	r0, [sp, #56]	; 0x38
 80015da:	f643 4100 	movw	r1, #15360	; 0x3c00
 80015de:	f2c4 0101 	movt	r1, #16385	; 0x4001
 80015e2:	9112      	str	r1, [sp, #72]	; 0x48
 80015e4:	f643 4114 	movw	r1, #15380	; 0x3c14
 80015e8:	f2c4 0101 	movt	r1, #16385	; 0x4001
 80015ec:	9103      	str	r1, [sp, #12]
 80015ee:	9110      	str	r1, [sp, #64]	; 0x40
 80015f0:	9011      	str	r0, [sp, #68]	; 0x44
 80015f2:	f64f 70ff 	movw	r0, #65535	; 0xffff
 80015f6:	f2c0 007f 	movt	r0, #127	; 0x7f
 80015fa:	f000 f977 	bl	80018ec <_ZN43_$LT$u32$u20$as$u20$core..ops..bit..Not$GT$3not17hff0a30f9d5639543E>
 80015fe:	4601      	mov	r1, r0
 8001600:	2000      	movs	r0, #0
 8001602:	9001      	str	r0, [sp, #4]
 8001604:	f000 f97d 	bl	8001902 <_ZN46_$LT$u32$u20$as$u20$core..ops..bit..BitAnd$GT$6bitand17h264f2d095c3a539dE>
 8001608:	9901      	ldr	r1, [sp, #4]
 800160a:	f000 f974 	bl	80018f6 <_ZN45_$LT$u32$u20$as$u20$core..ops..bit..BitOr$GT$5bitor17h04ecc2e3e0e8c1e1E>
 800160e:	4601      	mov	r1, r0
 8001610:	9802      	ldr	r0, [sp, #8]
 8001612:	910f      	str	r1, [sp, #60]	; 0x3c
 8001614:	a90f      	add	r1, sp, #60	; 0x3c
 8001616:	f7ff fea0 	bl	800135a <_ZN58_$LT$PIN$u20$as$u20$stm32f4xx_hal..gpio..exti..ExtiPin$GT$27clear_interrupt_pending_bit28_$u7b$$u7b$closure$u7d$$u7d$17hd06b5e59cce02a36E>
 800161a:	4601      	mov	r1, r0
 800161c:	9803      	ldr	r0, [sp, #12]
 800161e:	6809      	ldr	r1, [r1, #0]
 8001620:	9013      	str	r0, [sp, #76]	; 0x4c
 8001622:	9114      	str	r1, [sp, #80]	; 0x50
 8001624:	9015      	str	r0, [sp, #84]	; 0x54
 8001626:	f005 fb4c 	bl	8006cc2 <_ZN4core3ptr14write_volatile17hc6769b4b417bf8b9E>
 800162a:	a808      	add	r0, sp, #32
 800162c:	f000 fbe6 	bl	8001dfc <_ZN4core3ptr116drop_in_place$LT$core..cell..RefMut$LT$core..option..Option$LT$stm32f4xx_hal..gpio..Pin$LT$_$C$13_u8$GT$$GT$$GT$$GT$17h479972a60991f7beE>
 8001630:	b016      	add	sp, #88	; 0x58
 8001632:	bd80      	pop	{r7, pc}
 8001634:	9904      	ldr	r1, [sp, #16]
 8001636:	f240 0000 	movw	r0, #0
 800163a:	f2c2 0000 	movt	r0, #8192	; 0x2000
 800163e:	f7fe ffa2 	bl	8000586 <_ZN10bare_metal14Mutex$LT$T$GT$6borrow17h12d8efbf4c64646aE>
 8001642:	f44f 61fa 	mov.w	r1, #2000	; 0x7d0
 8001646:	f7ff feb6 	bl	80013b6 <_ZN4core4cell13Cell$LT$T$GT$3set17h6bc084b996115b9fE>
 800164a:	e7a4      	b.n	8001596 <_ZN8template23__cortex_m_rt_EXTI15_1028_$u7b$$u7b$closure$u7d$$u7d$17h67e2aa689e879236E+0x66>

0800164c <_ZN13stm32f4xx_hal5timer100_$LT$impl$u20$stm32f4xx_hal..timer..sealed..General$u20$for$u20$stm32f4_staging..stm32f401..TIM1$GT$13set_prescaler28_$u7b$$u7b$closure$u7d$$u7d$17h19d4066333fc7f39E>:
 800164c:	b580      	push	{r7, lr}
 800164e:	466f      	mov	r7, sp
 8001650:	b08e      	sub	sp, #56	; 0x38
 8001652:	460a      	mov	r2, r1
 8001654:	9003      	str	r0, [sp, #12]
 8001656:	9204      	str	r2, [sp, #16]
 8001658:	920b      	str	r2, [sp, #44]	; 0x2c
 800165a:	920c      	str	r2, [sp, #48]	; 0x30
 800165c:	2100      	movs	r1, #0
 800165e:	f807 1c03 	strb.w	r1, [r7, #-3]
 8001662:	9803      	ldr	r0, [sp, #12]
 8001664:	8800      	ldrh	r0, [r0, #0]
 8001666:	9001      	str	r0, [sp, #4]
 8001668:	9205      	str	r2, [sp, #20]
 800166a:	f88d 1018 	strb.w	r1, [sp, #24]
 800166e:	f827 0c1a 	strh.w	r0, [r7, #-26]
 8001672:	9208      	str	r2, [sp, #32]
 8001674:	f88d 1024 	strb.w	r1, [sp, #36]	; 0x24
 8001678:	f827 0c0e 	strh.w	r0, [r7, #-14]
 800167c:	9808      	ldr	r0, [sp, #32]
 800167e:	9000      	str	r0, [sp, #0]
 8001680:	f005 f907 	bl	8006892 <_ZN15stm32f4_staging7generic8mask_u3217hde6fc4a1303956abE>
 8001684:	f89d 1024 	ldrb.w	r1, [sp, #36]	; 0x24
 8001688:	f000 f955 	bl	8001936 <_ZN53_$LT$u32$u20$as$u20$core..ops..bit..Shl$LT$u8$GT$$GT$3shl17headca2689882f40eE>
 800168c:	f000 f92e 	bl	80018ec <_ZN43_$LT$u32$u20$as$u20$core..ops..bit..Not$GT$3not17hff0a30f9d5639543E>
 8001690:	4601      	mov	r1, r0
 8001692:	9800      	ldr	r0, [sp, #0]
 8001694:	f000 f945 	bl	8001922 <_ZN52_$LT$u32$u20$as$u20$core..ops..bit..BitAndAssign$GT$13bitand_assign17hdb060cbf9d195fa6E>
 8001698:	9801      	ldr	r0, [sp, #4]
 800169a:	9908      	ldr	r1, [sp, #32]
 800169c:	9102      	str	r1, [sp, #8]
 800169e:	f827 0c02 	strh.w	r0, [r7, #-2]
 80016a2:	f005 f8f6 	bl	8006892 <_ZN15stm32f4_staging7generic8mask_u3217hde6fc4a1303956abE>
 80016a6:	4601      	mov	r1, r0
 80016a8:	9801      	ldr	r0, [sp, #4]
 80016aa:	f000 f92a 	bl	8001902 <_ZN46_$LT$u32$u20$as$u20$core..ops..bit..BitAnd$GT$6bitand17h264f2d095c3a539dE>
 80016ae:	f89d 1024 	ldrb.w	r1, [sp, #36]	; 0x24
 80016b2:	f000 f940 	bl	8001936 <_ZN53_$LT$u32$u20$as$u20$core..ops..bit..Shl$LT$u8$GT$$GT$3shl17headca2689882f40eE>
 80016b6:	4601      	mov	r1, r0
 80016b8:	9802      	ldr	r0, [sp, #8]
 80016ba:	f000 f928 	bl	800190e <_ZN51_$LT$u32$u20$as$u20$core..ops..bit..BitOrAssign$GT$12bitor_assign17h0fdd03c610374d6bE>
 80016be:	9808      	ldr	r0, [sp, #32]
 80016c0:	b00e      	add	sp, #56	; 0x38
 80016c2:	bd80      	pop	{r7, pc}

080016c4 <_ZN13stm32f4xx_hal5timer100_$LT$impl$u20$stm32f4xx_hal..timer..sealed..General$u20$for$u20$stm32f4_staging..stm32f401..TIM1$GT$14trigger_update28_$u7b$$u7b$closure$u7d$$u7d$17h646aa29ed36e1c73E>:
 80016c4:	b580      	push	{r7, lr}
 80016c6:	466f      	mov	r7, sp
 80016c8:	b08a      	sub	sp, #40	; 0x28
 80016ca:	9003      	str	r0, [sp, #12]
 80016cc:	9104      	str	r1, [sp, #16]
 80016ce:	9107      	str	r1, [sp, #28]
 80016d0:	9108      	str	r1, [sp, #32]
 80016d2:	2002      	movs	r0, #2
 80016d4:	f807 0c01 	strb.w	r0, [r7, #-1]
 80016d8:	9105      	str	r1, [sp, #20]
 80016da:	f88d 0018 	strb.w	r0, [sp, #24]
 80016de:	9805      	ldr	r0, [sp, #20]
 80016e0:	9001      	str	r0, [sp, #4]
 80016e2:	f89d 1018 	ldrb.w	r1, [sp, #24]
 80016e6:	2001      	movs	r0, #1
 80016e8:	f000 f925 	bl	8001936 <_ZN53_$LT$u32$u20$as$u20$core..ops..bit..Shl$LT$u8$GT$$GT$3shl17headca2689882f40eE>
 80016ec:	f000 f8fe 	bl	80018ec <_ZN43_$LT$u32$u20$as$u20$core..ops..bit..Not$GT$3not17hff0a30f9d5639543E>
 80016f0:	4601      	mov	r1, r0
 80016f2:	9801      	ldr	r0, [sp, #4]
 80016f4:	f000 f915 	bl	8001922 <_ZN52_$LT$u32$u20$as$u20$core..ops..bit..BitAndAssign$GT$13bitand_assign17hdb060cbf9d195fa6E>
 80016f8:	9805      	ldr	r0, [sp, #20]
 80016fa:	b00a      	add	sp, #40	; 0x28
 80016fc:	bd80      	pop	{r7, pc}

080016fe <_ZN13stm32f4xx_hal5timer100_$LT$impl$u20$stm32f4xx_hal..timer..sealed..General$u20$for$u20$stm32f4_staging..stm32f401..TIM1$GT$14trigger_update28_$u7b$$u7b$closure$u7d$$u7d$17h9c9f05eaac2fbfdfE>:
 80016fe:	b580      	push	{r7, lr}
 8001700:	466f      	mov	r7, sp
 8001702:	b08a      	sub	sp, #40	; 0x28
 8001704:	9003      	str	r0, [sp, #12]
 8001706:	9104      	str	r1, [sp, #16]
 8001708:	9107      	str	r1, [sp, #28]
 800170a:	9108      	str	r1, [sp, #32]
 800170c:	2002      	movs	r0, #2
 800170e:	f807 0c01 	strb.w	r0, [r7, #-1]
 8001712:	9105      	str	r1, [sp, #20]
 8001714:	f88d 0018 	strb.w	r0, [sp, #24]
 8001718:	9805      	ldr	r0, [sp, #20]
 800171a:	9001      	str	r0, [sp, #4]
 800171c:	f89d 1018 	ldrb.w	r1, [sp, #24]
 8001720:	2001      	movs	r0, #1
 8001722:	f000 f908 	bl	8001936 <_ZN53_$LT$u32$u20$as$u20$core..ops..bit..Shl$LT$u8$GT$$GT$3shl17headca2689882f40eE>
 8001726:	4601      	mov	r1, r0
 8001728:	9801      	ldr	r0, [sp, #4]
 800172a:	f000 f8f0 	bl	800190e <_ZN51_$LT$u32$u20$as$u20$core..ops..bit..BitOrAssign$GT$12bitor_assign17h0fdd03c610374d6bE>
 800172e:	9805      	ldr	r0, [sp, #20]
 8001730:	b00a      	add	sp, #40	; 0x28
 8001732:	bd80      	pop	{r7, pc}

08001734 <_ZN13stm32f4xx_hal5timer100_$LT$impl$u20$stm32f4xx_hal..timer..sealed..General$u20$for$u20$stm32f4_staging..stm32f401..TIM1$GT$14trigger_update28_$u7b$$u7b$closure$u7d$$u7d$17hcdd4357a7e1886caE>:
 8001734:	b580      	push	{r7, lr}
 8001736:	466f      	mov	r7, sp
 8001738:	b088      	sub	sp, #32
 800173a:	4601      	mov	r1, r0
 800173c:	9102      	str	r1, [sp, #8]
 800173e:	9105      	str	r1, [sp, #20]
 8001740:	9106      	str	r1, [sp, #24]
 8001742:	2000      	movs	r0, #0
 8001744:	f807 0c01 	strb.w	r0, [r7, #-1]
 8001748:	9103      	str	r1, [sp, #12]
 800174a:	f88d 0010 	strb.w	r0, [sp, #16]
 800174e:	9803      	ldr	r0, [sp, #12]
 8001750:	9000      	str	r0, [sp, #0]
 8001752:	f89d 1010 	ldrb.w	r1, [sp, #16]
 8001756:	2001      	movs	r0, #1
 8001758:	f000 f8ed 	bl	8001936 <_ZN53_$LT$u32$u20$as$u20$core..ops..bit..Shl$LT$u8$GT$$GT$3shl17headca2689882f40eE>
 800175c:	4601      	mov	r1, r0
 800175e:	9800      	ldr	r0, [sp, #0]
 8001760:	f000 f8d5 	bl	800190e <_ZN51_$LT$u32$u20$as$u20$core..ops..bit..BitOrAssign$GT$12bitor_assign17h0fdd03c610374d6bE>
 8001764:	9803      	ldr	r0, [sp, #12]
 8001766:	b008      	add	sp, #32
 8001768:	bd80      	pop	{r7, pc}

0800176a <_ZN13stm32f4xx_hal5timer100_$LT$impl$u20$stm32f4xx_hal..timer..sealed..General$u20$for$u20$stm32f4_staging..stm32f401..TIM1$GT$15start_one_pulse28_$u7b$$u7b$closure$u7d$$u7d$17h47ca4e3a972a89e7E>:
 800176a:	b580      	push	{r7, lr}
 800176c:	466f      	mov	r7, sp
 800176e:	b08c      	sub	sp, #48	; 0x30
 8001770:	9003      	str	r0, [sp, #12]
 8001772:	9104      	str	r1, [sp, #16]
 8001774:	9105      	str	r1, [sp, #20]
 8001776:	2008      	movs	r0, #8
 8001778:	9006      	str	r0, [sp, #24]
 800177a:	6008      	str	r0, [r1, #0]
 800177c:	9109      	str	r1, [sp, #36]	; 0x24
 800177e:	910a      	str	r1, [sp, #40]	; 0x28
 8001780:	2000      	movs	r0, #0
 8001782:	f807 0c01 	strb.w	r0, [r7, #-1]
 8001786:	9107      	str	r1, [sp, #28]
 8001788:	f88d 0020 	strb.w	r0, [sp, #32]
 800178c:	9807      	ldr	r0, [sp, #28]
 800178e:	9001      	str	r0, [sp, #4]
 8001790:	f89d 1020 	ldrb.w	r1, [sp, #32]
 8001794:	2001      	movs	r0, #1
 8001796:	f000 f8ce 	bl	8001936 <_ZN53_$LT$u32$u20$as$u20$core..ops..bit..Shl$LT$u8$GT$$GT$3shl17headca2689882f40eE>
 800179a:	4601      	mov	r1, r0
 800179c:	9801      	ldr	r0, [sp, #4]
 800179e:	f000 f8b6 	bl	800190e <_ZN51_$LT$u32$u20$as$u20$core..ops..bit..BitOrAssign$GT$12bitor_assign17h0fdd03c610374d6bE>
 80017a2:	9807      	ldr	r0, [sp, #28]
 80017a4:	b00c      	add	sp, #48	; 0x30
 80017a6:	bd80      	pop	{r7, pc}

080017a8 <_ZN13stm32f4xx_hal5timer21FTimer$LT$TIM$C$_$GT$3new17h179c5b00a1812ebeE>:
 80017a8:	b580      	push	{r7, lr}
 80017aa:	466f      	mov	r7, sp
 80017ac:	b084      	sub	sp, #16
 80017ae:	9001      	str	r0, [sp, #4]
 80017b0:	9003      	str	r0, [sp, #12]
 80017b2:	f000 f997 	bl	8001ae4 <_ZN13stm32f4xx_hal3rcc2f46Enable16enable_unchecked17h3485507c62ca2f36E>
 80017b6:	f000 f97d 	bl	8001ab4 <_ZN13stm32f4xx_hal3rcc2f45Reset15reset_unchecked17hd509c09d8f33b8f2E>
 80017ba:	9901      	ldr	r1, [sp, #4]
 80017bc:	1fb8      	subs	r0, r7, #6
 80017be:	f000 f805 	bl	80017cc <_ZN13stm32f4xx_hal5timer21FTimer$LT$TIM$C$_$GT$9configure17hdea15f930780b34bE>
 80017c2:	b004      	add	sp, #16
 80017c4:	bd80      	pop	{r7, pc}

080017c6 <_ZN13stm32f4xx_hal5timer21FTimer$LT$TIM$C$_$GT$5delay17hcc2b63e4af40f582E>:
 80017c6:	b081      	sub	sp, #4
 80017c8:	b001      	add	sp, #4
 80017ca:	4770      	bx	lr

080017cc <_ZN13stm32f4xx_hal5timer21FTimer$LT$TIM$C$_$GT$9configure17hdea15f930780b34bE>:
 80017cc:	b580      	push	{r7, lr}
 80017ce:	466f      	mov	r7, sp
 80017d0:	b098      	sub	sp, #96	; 0x60
 80017d2:	9106      	str	r1, [sp, #24]
 80017d4:	4601      	mov	r1, r0
 80017d6:	9806      	ldr	r0, [sp, #24]
 80017d8:	9107      	str	r1, [sp, #28]
 80017da:	9109      	str	r1, [sp, #36]	; 0x24
 80017dc:	900a      	str	r0, [sp, #40]	; 0x28
 80017de:	f000 f9c0 	bl	8001b62 <_ZN55_$LT$T$u20$as$u20$stm32f4xx_hal..rcc..BusTimerClock$GT$11timer_clock17h56847b20ae488cb1E>
 80017e2:	9008      	str	r0, [sp, #32]
 80017e4:	a808      	add	r0, sp, #32
 80017e6:	f005 f835 	bl	8006854 <_ZN5fugit4rate23Rate$LT$u32$C$_$C$_$GT$3raw17h22158c4a3151c800E>
 80017ea:	f647 01d5 	movw	r1, #30933	; 0x78d5
 80017ee:	f2c2 61e9 	movt	r1, #9961	; 0x26e9
 80017f2:	4348      	muls	r0, r1
 80017f4:	ea4f 00f0 	mov.w	r0, r0, ror #3
 80017f8:	f648 1137 	movw	r1, #35127	; 0x8937
 80017fc:	f2c0 0141 	movt	r1, #65	; 0x41
 8001800:	4288      	cmp	r0, r1
 8001802:	d813      	bhi.n	800182c <_ZN13stm32f4xx_hal5timer21FTimer$LT$TIM$C$_$GT$9configure17hdea15f930780b34bE+0x60>
 8001804:	e7ff      	b.n	8001806 <_ZN13stm32f4xx_hal5timer21FTimer$LT$TIM$C$_$GT$9configure17hdea15f930780b34bE+0x3a>
 8001806:	a808      	add	r0, sp, #32
 8001808:	f005 f824 	bl	8006854 <_ZN5fugit4rate23Rate$LT$u32$C$_$C$_$GT$3raw17h22158c4a3151c800E>
 800180c:	f644 51d3 	movw	r1, #19923	; 0x4dd3
 8001810:	f2c1 0162 	movt	r1, #4194	; 0x1062
 8001814:	fba0 0201 	umull	r0, r2, r0, r1
 8001818:	0990      	lsrs	r0, r2, #6
 800181a:	900b      	str	r0, [sp, #44]	; 0x2c
 800181c:	f04f 31ff 	mov.w	r1, #4294967295
 8001820:	eb01 1192 	add.w	r1, r1, r2, lsr #6
 8001824:	9105      	str	r1, [sp, #20]
 8001826:	2800      	cmp	r0, #0
 8001828:	d05a      	beq.n	80018e0 <_ZN13stm32f4xx_hal5timer21FTimer$LT$TIM$C$_$GT$9configure17hdea15f930780b34bE+0x114>
 800182a:	e00a      	b.n	8001842 <_ZN13stm32f4xx_hal5timer21FTimer$LT$TIM$C$_$GT$9configure17hdea15f930780b34bE+0x76>
 800182c:	f248 60a0 	movw	r0, #34464	; 0x86a0
 8001830:	f6c0 0000 	movt	r0, #2048	; 0x800
 8001834:	f248 62c8 	movw	r2, #34504	; 0x86c8
 8001838:	f6c0 0200 	movt	r2, #2048	; 0x800
 800183c:	2127      	movs	r1, #39	; 0x27
 800183e:	f005 fb97 	bl	8006f70 <_ZN4core9panicking5panic17h3d328557175627ceE>
 8001842:	9805      	ldr	r0, [sp, #20]
 8001844:	f000 fb21 	bl	8001e8a <_ZN4core7convert3num67_$LT$impl$u20$core..convert..TryFrom$LT$u32$GT$$u20$for$u20$u16$GT$8try_from17h3a5bf2d9f24fb8adE>
 8001848:	f8ad 0048 	strh.w	r0, [sp, #72]	; 0x48
 800184c:	f8ad 104a 	strh.w	r1, [sp, #74]	; 0x4a
 8001850:	f8bd 0048 	ldrh.w	r0, [sp, #72]	; 0x48
 8001854:	b198      	cbz	r0, 800187e <_ZN13stm32f4xx_hal5timer21FTimer$LT$TIM$C$_$GT$9configure17hdea15f930780b34bE+0xb2>
 8001856:	e7ff      	b.n	8001858 <_ZN13stm32f4xx_hal5timer21FTimer$LT$TIM$C$_$GT$9configure17hdea15f930780b34bE+0x8c>
 8001858:	f248 6090 	movw	r0, #34448	; 0x8690
 800185c:	f6c0 0000 	movt	r0, #2048	; 0x800
 8001860:	4669      	mov	r1, sp
 8001862:	6008      	str	r0, [r1, #0]
 8001864:	f248 60e8 	movw	r0, #34536	; 0x86e8
 8001868:	f6c0 0000 	movt	r0, #2048	; 0x800
 800186c:	f248 63d8 	movw	r3, #34520	; 0x86d8
 8001870:	f6c0 0300 	movt	r3, #2048	; 0x800
 8001874:	212b      	movs	r1, #43	; 0x2b
 8001876:	f1a7 0213 	sub.w	r2, r7, #19
 800187a:	f005 fbc1 	bl	8007000 <_ZN4core6result13unwrap_failed17h155735d8bdfe0abbE>
 800187e:	9807      	ldr	r0, [sp, #28]
 8001880:	f8bd 104a 	ldrh.w	r1, [sp, #74]	; 0x4a
 8001884:	f827 1c12 	strh.w	r1, [r7, #-18]
 8001888:	f827 1c2e 	strh.w	r1, [r7, #-46]
 800188c:	900d      	str	r0, [sp, #52]	; 0x34
 800188e:	9017      	str	r0, [sp, #92]	; 0x5c
 8001890:	2000      	movs	r0, #0
 8001892:	f2c4 0001 	movt	r0, #16385	; 0x4001
 8001896:	9011      	str	r0, [sp, #68]	; 0x44
 8001898:	2028      	movs	r0, #40	; 0x28
 800189a:	f2c4 0001 	movt	r0, #16385	; 0x4001
 800189e:	9004      	str	r0, [sp, #16]
 80018a0:	900f      	str	r0, [sp, #60]	; 0x3c
 80018a2:	f1a7 002e 	sub.w	r0, r7, #46	; 0x2e
 80018a6:	9003      	str	r0, [sp, #12]
 80018a8:	9010      	str	r0, [sp, #64]	; 0x40
 80018aa:	2000      	movs	r0, #0
 80018ac:	9002      	str	r0, [sp, #8]
 80018ae:	f000 f81d 	bl	80018ec <_ZN43_$LT$u32$u20$as$u20$core..ops..bit..Not$GT$3not17hff0a30f9d5639543E>
 80018b2:	4601      	mov	r1, r0
 80018b4:	9802      	ldr	r0, [sp, #8]
 80018b6:	f000 f824 	bl	8001902 <_ZN46_$LT$u32$u20$as$u20$core..ops..bit..BitAnd$GT$6bitand17h264f2d095c3a539dE>
 80018ba:	9902      	ldr	r1, [sp, #8]
 80018bc:	f000 f81b 	bl	80018f6 <_ZN45_$LT$u32$u20$as$u20$core..ops..bit..BitOr$GT$5bitor17h04ecc2e3e0e8c1e1E>
 80018c0:	4601      	mov	r1, r0
 80018c2:	9803      	ldr	r0, [sp, #12]
 80018c4:	910e      	str	r1, [sp, #56]	; 0x38
 80018c6:	a90e      	add	r1, sp, #56	; 0x38
 80018c8:	f7ff fec0 	bl	800164c <_ZN13stm32f4xx_hal5timer100_$LT$impl$u20$stm32f4xx_hal..timer..sealed..General$u20$for$u20$stm32f4_staging..stm32f401..TIM1$GT$13set_prescaler28_$u7b$$u7b$closure$u7d$$u7d$17h19d4066333fc7f39E>
 80018cc:	4601      	mov	r1, r0
 80018ce:	9804      	ldr	r0, [sp, #16]
 80018d0:	6809      	ldr	r1, [r1, #0]
 80018d2:	9014      	str	r0, [sp, #80]	; 0x50
 80018d4:	9115      	str	r1, [sp, #84]	; 0x54
 80018d6:	9016      	str	r0, [sp, #88]	; 0x58
 80018d8:	f005 f9f3 	bl	8006cc2 <_ZN4core3ptr14write_volatile17hc6769b4b417bf8b9E>
 80018dc:	b018      	add	sp, #96	; 0x60
 80018de:	bd80      	pop	{r7, pc}
 80018e0:	f248 6080 	movw	r0, #34432	; 0x8680
 80018e4:	f6c0 0000 	movt	r0, #2048	; 0x800
 80018e8:	f006 fbb3 	bl	8008052 <_ZN4core9panicking11panic_const24panic_const_sub_overflow17h655aa7502feebde5E>

080018ec <_ZN43_$LT$u32$u20$as$u20$core..ops..bit..Not$GT$3not17hff0a30f9d5639543E>:
 80018ec:	b081      	sub	sp, #4
 80018ee:	9000      	str	r0, [sp, #0]
 80018f0:	43c0      	mvns	r0, r0
 80018f2:	b001      	add	sp, #4
 80018f4:	4770      	bx	lr

080018f6 <_ZN45_$LT$u32$u20$as$u20$core..ops..bit..BitOr$GT$5bitor17h04ecc2e3e0e8c1e1E>:
 80018f6:	b082      	sub	sp, #8
 80018f8:	9000      	str	r0, [sp, #0]
 80018fa:	9101      	str	r1, [sp, #4]
 80018fc:	4308      	orrs	r0, r1
 80018fe:	b002      	add	sp, #8
 8001900:	4770      	bx	lr

08001902 <_ZN46_$LT$u32$u20$as$u20$core..ops..bit..BitAnd$GT$6bitand17h264f2d095c3a539dE>:
 8001902:	b082      	sub	sp, #8
 8001904:	9000      	str	r0, [sp, #0]
 8001906:	9101      	str	r1, [sp, #4]
 8001908:	4008      	ands	r0, r1
 800190a:	b002      	add	sp, #8
 800190c:	4770      	bx	lr

0800190e <_ZN51_$LT$u32$u20$as$u20$core..ops..bit..BitOrAssign$GT$12bitor_assign17h0fdd03c610374d6bE>:
 800190e:	b082      	sub	sp, #8
 8001910:	460a      	mov	r2, r1
 8001912:	4601      	mov	r1, r0
 8001914:	9100      	str	r1, [sp, #0]
 8001916:	9201      	str	r2, [sp, #4]
 8001918:	6808      	ldr	r0, [r1, #0]
 800191a:	4310      	orrs	r0, r2
 800191c:	6008      	str	r0, [r1, #0]
 800191e:	b002      	add	sp, #8
 8001920:	4770      	bx	lr

08001922 <_ZN52_$LT$u32$u20$as$u20$core..ops..bit..BitAndAssign$GT$13bitand_assign17hdb060cbf9d195fa6E>:
 8001922:	b082      	sub	sp, #8
 8001924:	460a      	mov	r2, r1
 8001926:	4601      	mov	r1, r0
 8001928:	9100      	str	r1, [sp, #0]
 800192a:	9201      	str	r2, [sp, #4]
 800192c:	6808      	ldr	r0, [r1, #0]
 800192e:	4010      	ands	r0, r2
 8001930:	6008      	str	r0, [r1, #0]
 8001932:	b002      	add	sp, #8
 8001934:	4770      	bx	lr

08001936 <_ZN53_$LT$u32$u20$as$u20$core..ops..bit..Shl$LT$u8$GT$$GT$3shl17headca2689882f40eE>:
 8001936:	b580      	push	{r7, lr}
 8001938:	466f      	mov	r7, sp
 800193a:	b084      	sub	sp, #16
 800193c:	4602      	mov	r2, r0
 800193e:	9200      	str	r2, [sp, #0]
 8001940:	b2c8      	uxtb	r0, r1
 8001942:	460b      	mov	r3, r1
 8001944:	9301      	str	r3, [sp, #4]
 8001946:	9202      	str	r2, [sp, #8]
 8001948:	f807 1c01 	strb.w	r1, [r7, #-1]
 800194c:	281f      	cmp	r0, #31
 800194e:	d807      	bhi.n	8001960 <_ZN53_$LT$u32$u20$as$u20$core..ops..bit..Shl$LT$u8$GT$$GT$3shl17headca2689882f40eE+0x2a>
 8001950:	e7ff      	b.n	8001952 <_ZN53_$LT$u32$u20$as$u20$core..ops..bit..Shl$LT$u8$GT$$GT$3shl17headca2689882f40eE+0x1c>
 8001952:	9800      	ldr	r0, [sp, #0]
 8001954:	9901      	ldr	r1, [sp, #4]
 8001956:	f001 011f 	and.w	r1, r1, #31
 800195a:	4088      	lsls	r0, r1
 800195c:	b004      	add	sp, #16
 800195e:	bd80      	pop	{r7, pc}
 8001960:	f248 7084 	movw	r0, #34692	; 0x8784
 8001964:	f6c0 0000 	movt	r0, #2048	; 0x800
 8001968:	f006 fbac 	bl	80080c4 <_ZN4core9panicking11panic_const24panic_const_shl_overflow17h7d1dfb79ee113705E>

0800196c <_ZN15stm32f4_staging9stm32f40111Peripherals4take17h563e934390591ec4E>:
 800196c:	b580      	push	{r7, lr}
 800196e:	466f      	mov	r7, sp
 8001970:	f000 f88e 	bl	8001a90 <_ZN16critical_section4with17hd95783b2427a40f5E>
 8001974:	bd80      	pop	{r7, pc}

08001976 <_ZN15stm32f4_staging9stm32f40111Peripherals5steal17h803366b361809a64E>:
 8001976:	b580      	push	{r7, lr}
 8001978:	466f      	mov	r7, sp
 800197a:	f240 010c 	movw	r1, #12
 800197e:	f2c2 0100 	movt	r1, #8192	; 0x2000
 8001982:	2001      	movs	r0, #1
 8001984:	7008      	strb	r0, [r1, #0]
 8001986:	f005 f8f2 	bl	8006b6e <_ZN15stm32f4_staging9stm32f40110ADC_COMMON5steal17he050bfed3632aeefE>
 800198a:	f005 f8f1 	bl	8006b70 <_ZN15stm32f4_staging9stm32f4014ADC15steal17hdd6a956d686d901fE>
 800198e:	f005 f8f0 	bl	8006b72 <_ZN15stm32f4_staging9stm32f4013CRC5steal17hdee6ce974f372ddaE>
 8001992:	f005 f8ef 	bl	8006b74 <_ZN15stm32f4_staging9stm32f4016DBGMCU5steal17hc875b0da18802d03E>
 8001996:	f005 f8ee 	bl	8006b76 <_ZN15stm32f4_staging9stm32f4014EXTI5steal17hedf6ec20ce0e319fE>
 800199a:	f005 f8ed 	bl	8006b78 <_ZN15stm32f4_staging9stm32f4015FLASH5steal17h08bdfcff1b7cddc1E>
 800199e:	f005 f8ec 	bl	8006b7a <_ZN15stm32f4_staging9stm32f4014IWDG5steal17h6814269bacba7b4cE>
 80019a2:	f005 f8eb 	bl	8006b7c <_ZN15stm32f4_staging9stm32f40113OTG_FS_DEVICE5steal17hcf0b8355083a8188E>
 80019a6:	f005 f8ea 	bl	8006b7e <_ZN15stm32f4_staging9stm32f40113OTG_FS_GLOBAL5steal17h2b15aafa6c356de8E>
 80019aa:	f005 f8e9 	bl	8006b80 <_ZN15stm32f4_staging9stm32f40111OTG_FS_HOST5steal17hfc25711ebd284654E>
 80019ae:	f005 f8e8 	bl	8006b82 <_ZN15stm32f4_staging9stm32f40113OTG_FS_PWRCLK5steal17hd9999057f35ea13bE>
 80019b2:	f005 f8e7 	bl	8006b84 <_ZN15stm32f4_staging9stm32f4013PWR5steal17hcd3794da3796076aE>
 80019b6:	f005 f8e6 	bl	8006b86 <_ZN15stm32f4_staging9stm32f4013RCC5steal17h9eb49d1f1566b59cE>
 80019ba:	f005 f8e5 	bl	8006b88 <_ZN15stm32f4_staging9stm32f4013RTC5steal17h9c179be27bc4122dE>
 80019be:	f005 f8e4 	bl	8006b8a <_ZN15stm32f4_staging9stm32f4014SDIO5steal17hcb9cd086b0d44222E>
 80019c2:	f005 f8e3 	bl	8006b8c <_ZN15stm32f4_staging9stm32f4016SYSCFG5steal17hc5518a93beeda483E>
 80019c6:	f005 f8e2 	bl	8006b8e <_ZN15stm32f4_staging9stm32f4014TIM15steal17hc0e6d54ac85ea440E>
 80019ca:	f005 f8e1 	bl	8006b90 <_ZN15stm32f4_staging9stm32f4015TIM105steal17h9e235e86d7e6f2c9E>
 80019ce:	f005 f8e0 	bl	8006b92 <_ZN15stm32f4_staging9stm32f4015TIM115steal17hd1a6f6c249f1784dE>
 80019d2:	f005 f8df 	bl	8006b94 <_ZN15stm32f4_staging9stm32f4014TIM25steal17hb0efcfbb0e845d85E>
 80019d6:	f005 f8de 	bl	8006b96 <_ZN15stm32f4_staging9stm32f4014TIM35steal17hda847f892699c7d5E>
 80019da:	f005 f8dd 	bl	8006b98 <_ZN15stm32f4_staging9stm32f4014TIM45steal17h6abe7f1004fc770dE>
 80019de:	f005 f8dc 	bl	8006b9a <_ZN15stm32f4_staging9stm32f4014TIM55steal17h995d9825f6bc9041E>
 80019e2:	f005 f8db 	bl	8006b9c <_ZN15stm32f4_staging9stm32f4014TIM95steal17h0e24ba8f6343a57aE>
 80019e6:	f005 f8da 	bl	8006b9e <_ZN15stm32f4_staging9stm32f4016USART15steal17h63d92809a694af34E>
 80019ea:	f005 f8d9 	bl	8006ba0 <_ZN15stm32f4_staging9stm32f4016USART25steal17hccb1595f8b98b780E>
 80019ee:	f005 f8d8 	bl	8006ba2 <_ZN15stm32f4_staging9stm32f4016USART65steal17hcf46c961cfce0ce3E>
 80019f2:	f005 f8d7 	bl	8006ba4 <_ZN15stm32f4_staging9stm32f4014WWDG5steal17h38b14568afdf8043E>
 80019f6:	f005 f8d6 	bl	8006ba6 <_ZN15stm32f4_staging9stm32f4014DMA25steal17h63eedf0122ed4b90E>
 80019fa:	f005 f8d5 	bl	8006ba8 <_ZN15stm32f4_staging9stm32f4014DMA15steal17he84ebe92abfb6099E>
 80019fe:	f005 f8d4 	bl	8006baa <_ZN15stm32f4_staging9stm32f4015GPIOH5steal17h97e77825bdb7a42cE>
 8001a02:	f005 f8d3 	bl	8006bac <_ZN15stm32f4_staging9stm32f4015GPIOE5steal17h2a2c988d22be001dE>
 8001a06:	f005 f8d2 	bl	8006bae <_ZN15stm32f4_staging9stm32f4015GPIOD5steal17hc3980ce48245ee22E>
 8001a0a:	f005 f8d1 	bl	8006bb0 <_ZN15stm32f4_staging9stm32f4015GPIOC5steal17h2db796611ab48657E>
 8001a0e:	f005 f8d0 	bl	8006bb2 <_ZN15stm32f4_staging9stm32f4015GPIOB5steal17h4ac73418de7d7bd8E>
 8001a12:	f005 f8cf 	bl	8006bb4 <_ZN15stm32f4_staging9stm32f4015GPIOA5steal17h41c3fc8cbe5b35c1E>
 8001a16:	f005 f8ce 	bl	8006bb6 <_ZN15stm32f4_staging9stm32f4014I2C15steal17h96f5dfaf76d63a9bE>
 8001a1a:	f005 f8cd 	bl	8006bb8 <_ZN15stm32f4_staging9stm32f4014I2C35steal17he44bd06c960fbf6fE>
 8001a1e:	f005 f8cc 	bl	8006bba <_ZN15stm32f4_staging9stm32f4014I2C25steal17h93c83780145c7319E>
 8001a22:	f005 f8cb 	bl	8006bbc <_ZN15stm32f4_staging9stm32f4014SPI15steal17hf69c817f8cfee129E>
 8001a26:	f005 f8ca 	bl	8006bbe <_ZN15stm32f4_staging9stm32f4017I2S2EXT5steal17he493b02ce5a9c7d6E>
 8001a2a:	f005 f8c9 	bl	8006bc0 <_ZN15stm32f4_staging9stm32f4017I2S3EXT5steal17h6eec6c3f73ddce28E>
 8001a2e:	f005 f8c8 	bl	8006bc2 <_ZN15stm32f4_staging9stm32f4014SPI25steal17h792dec8d7619adc7E>
 8001a32:	f005 f8c7 	bl	8006bc4 <_ZN15stm32f4_staging9stm32f4014SPI35steal17hcb33427dbefae5f5E>
 8001a36:	f005 f8c6 	bl	8006bc6 <_ZN15stm32f4_staging9stm32f4014SPI45steal17h580608a1f8c4a79aE>
 8001a3a:	f005 f8c5 	bl	8006bc8 <_ZN15stm32f4_staging9stm32f4013FPU5steal17hd4da4f6add90041bE>
 8001a3e:	f005 f8c4 	bl	8006bca <_ZN15stm32f4_staging9stm32f4013STK5steal17hf6f221075550dc97E>
 8001a42:	f005 f8c3 	bl	8006bcc <_ZN15stm32f4_staging9stm32f4019NVIC_STIR5steal17h740026287dc295c9E>
 8001a46:	f005 f8c2 	bl	8006bce <_ZN15stm32f4_staging9stm32f4019FPU_CPACR5steal17h8a3fe68c5d35fe1fE>
 8001a4a:	f005 f8c1 	bl	8006bd0 <_ZN15stm32f4_staging9stm32f4019SCB_ACTRL5steal17h887eb6ffe74eb919E>
 8001a4e:	bd80      	pop	{r7, pc}

08001a50 <_ZN43_$LT$u32$u20$as$u20$fugit..rate..ExtU32$GT$3MHz17h4e853f26f40f3768E>:
 8001a50:	b580      	push	{r7, lr}
 8001a52:	466f      	mov	r7, sp
 8001a54:	b082      	sub	sp, #8
 8001a56:	9001      	str	r0, [sp, #4]
 8001a58:	f000 f802 	bl	8001a60 <_ZN5fugit4rate23Rate$LT$u32$C$_$C$_$GT$3MHz17h3c206738fe08b5a3E>
 8001a5c:	b002      	add	sp, #8
 8001a5e:	bd80      	pop	{r7, pc}

08001a60 <_ZN5fugit4rate23Rate$LT$u32$C$_$C$_$GT$3MHz17h3c206738fe08b5a3E>:
 8001a60:	b580      	push	{r7, lr}
 8001a62:	466f      	mov	r7, sp
 8001a64:	b082      	sub	sp, #8
 8001a66:	9001      	str	r0, [sp, #4]
 8001a68:	f244 2140 	movw	r1, #16960	; 0x4240
 8001a6c:	f2c0 010f 	movt	r1, #15
 8001a70:	fba0 1001 	umull	r1, r0, r0, r1
 8001a74:	9100      	str	r1, [sp, #0]
 8001a76:	b928      	cbnz	r0, 8001a84 <_ZN5fugit4rate23Rate$LT$u32$C$_$C$_$GT$3MHz17h3c206738fe08b5a3E+0x24>
 8001a78:	e7ff      	b.n	8001a7a <_ZN5fugit4rate23Rate$LT$u32$C$_$C$_$GT$3MHz17h3c206738fe08b5a3E+0x1a>
 8001a7a:	9800      	ldr	r0, [sp, #0]
 8001a7c:	f004 feef 	bl	800685e <_ZN5fugit4rate23Rate$LT$u32$C$_$C$_$GT$8from_raw17h4dfb6adeb9c3a2f3E>
 8001a80:	b002      	add	sp, #8
 8001a82:	bd80      	pop	{r7, pc}
 8001a84:	f248 70f0 	movw	r0, #34800	; 0x87f0
 8001a88:	f6c0 0000 	movt	r0, #2048	; 0x800
 8001a8c:	f006 faf4 	bl	8008078 <_ZN4core9panicking11panic_const24panic_const_mul_overflow17hd3d29f8f054ee19bE>

08001a90 <_ZN16critical_section4with17hd95783b2427a40f5E>:
 8001a90:	b580      	push	{r7, lr}
 8001a92:	466f      	mov	r7, sp
 8001a94:	b082      	sub	sp, #8
 8001a96:	f005 f9d3 	bl	8006e40 <_critical_section_1_0_acquire>
 8001a9a:	f807 0c01 	strb.w	r0, [r7, #-1]
 8001a9e:	f807 0c03 	strb.w	r0, [r7, #-3]
 8001aa2:	f000 f839 	bl	8001b18 <_ZN15stm32f4_staging9stm32f40111Peripherals4take28_$u7b$$u7b$closure$u7d$$u7d$17hc46f8977ba49ca11E>
 8001aa6:	9000      	str	r0, [sp, #0]
 8001aa8:	1ef8      	subs	r0, r7, #3
 8001aaa:	f000 f9b8 	bl	8001e1e <_ZN4core3ptr50drop_in_place$LT$critical_section..with..Guard$GT$17hbb61852d2ea008eeE>
 8001aae:	9800      	ldr	r0, [sp, #0]
 8001ab0:	b002      	add	sp, #8
 8001ab2:	bd80      	pop	{r7, pc}

08001ab4 <_ZN13stm32f4xx_hal3rcc2f45Reset15reset_unchecked17hd509c09d8f33b8f2E>:
 8001ab4:	b580      	push	{r7, lr}
 8001ab6:	466f      	mov	r7, sp
 8001ab8:	b084      	sub	sp, #16
 8001aba:	f643 0000 	movw	r0, #14336	; 0x3800
 8001abe:	f2c4 0002 	movt	r0, #16386	; 0x4002
 8001ac2:	9000      	str	r0, [sp, #0]
 8001ac4:	9002      	str	r0, [sp, #8]
 8001ac6:	9003      	str	r0, [sp, #12]
 8001ac8:	f003 fedc 	bl	8005884 <_ZN13stm32f4xx_hal3rcc2f44APB24rstr17h803037462b0327c6E>
 8001acc:	2100      	movs	r1, #0
 8001ace:	9101      	str	r1, [sp, #4]
 8001ad0:	f001 fc3e 	bl	8003350 <_ZN13stm32f4xx_hal2bb3set17hdf15f0ceb6627530E>
 8001ad4:	9800      	ldr	r0, [sp, #0]
 8001ad6:	f003 fed5 	bl	8005884 <_ZN13stm32f4xx_hal3rcc2f44APB24rstr17h803037462b0327c6E>
 8001ada:	9901      	ldr	r1, [sp, #4]
 8001adc:	f001 fc0c 	bl	80032f8 <_ZN13stm32f4xx_hal2bb5clear17h905cc3b21b81804cE>
 8001ae0:	b004      	add	sp, #16
 8001ae2:	bd80      	pop	{r7, pc}

08001ae4 <_ZN13stm32f4xx_hal3rcc2f46Enable16enable_unchecked17h3485507c62ca2f36E>:
 8001ae4:	b580      	push	{r7, lr}
 8001ae6:	466f      	mov	r7, sp
 8001ae8:	b082      	sub	sp, #8
 8001aea:	f643 0000 	movw	r0, #14336	; 0x3800
 8001aee:	f2c4 0002 	movt	r0, #16386	; 0x4002
 8001af2:	9000      	str	r0, [sp, #0]
 8001af4:	9001      	str	r0, [sp, #4]
 8001af6:	f003 febf 	bl	8005878 <_ZN13stm32f4xx_hal3rcc2f44APB23enr17h1147e7813ca1a2c7E>
 8001afa:	2100      	movs	r1, #0
 8001afc:	f001 fc1d 	bl	800333a <_ZN13stm32f4xx_hal2bb3set17ha5766432cd126a5bE>
 8001b00:	f7fe fd93 	bl	800062a <_ZN8cortex_m3asm3dsb17hdf01c6031a464b82E>
 8001b04:	b002      	add	sp, #8
 8001b06:	bd80      	pop	{r7, pc}

08001b08 <_ZN13stm32f4xx_hal5timer8TimerExt8delay_ms17h9c6f65b169bdae09E>:
 8001b08:	b580      	push	{r7, lr}
 8001b0a:	466f      	mov	r7, sp
 8001b0c:	b082      	sub	sp, #8
 8001b0e:	9001      	str	r0, [sp, #4]
 8001b10:	f000 f81d 	bl	8001b4e <_ZN54_$LT$TIM$u20$as$u20$stm32f4xx_hal..timer..TimerExt$GT$5delay17haf90e81827c30a26E>
 8001b14:	b002      	add	sp, #8
 8001b16:	bd80      	pop	{r7, pc}

08001b18 <_ZN15stm32f4_staging9stm32f40111Peripherals4take28_$u7b$$u7b$closure$u7d$$u7d$17hc46f8977ba49ca11E>:
 8001b18:	b580      	push	{r7, lr}
 8001b1a:	466f      	mov	r7, sp
 8001b1c:	b082      	sub	sp, #8
 8001b1e:	f240 000c 	movw	r0, #12
 8001b22:	f2c2 0000 	movt	r0, #8192	; 0x2000
 8001b26:	7800      	ldrb	r0, [r0, #0]
 8001b28:	07c0      	lsls	r0, r0, #31
 8001b2a:	b930      	cbnz	r0, 8001b3a <_ZN15stm32f4_staging9stm32f40111Peripherals4take28_$u7b$$u7b$closure$u7d$$u7d$17hc46f8977ba49ca11E+0x22>
 8001b2c:	e7ff      	b.n	8001b2e <_ZN15stm32f4_staging9stm32f40111Peripherals4take28_$u7b$$u7b$closure$u7d$$u7d$17hc46f8977ba49ca11E+0x16>
 8001b2e:	f7ff ff22 	bl	8001976 <_ZN15stm32f4_staging9stm32f40111Peripherals5steal17h803366b361809a64E>
 8001b32:	2001      	movs	r0, #1
 8001b34:	f807 0c03 	strb.w	r0, [r7, #-3]
 8001b38:	e003      	b.n	8001b42 <_ZN15stm32f4_staging9stm32f40111Peripherals4take28_$u7b$$u7b$closure$u7d$$u7d$17hc46f8977ba49ca11E+0x2a>
 8001b3a:	2000      	movs	r0, #0
 8001b3c:	f807 0c03 	strb.w	r0, [r7, #-3]
 8001b40:	e7ff      	b.n	8001b42 <_ZN15stm32f4_staging9stm32f40111Peripherals4take28_$u7b$$u7b$closure$u7d$$u7d$17hc46f8977ba49ca11E+0x2a>
 8001b42:	f817 0c03 	ldrb.w	r0, [r7, #-3]
 8001b46:	f000 0001 	and.w	r0, r0, #1
 8001b4a:	b002      	add	sp, #8
 8001b4c:	bd80      	pop	{r7, pc}

08001b4e <_ZN54_$LT$TIM$u20$as$u20$stm32f4xx_hal..timer..TimerExt$GT$5delay17haf90e81827c30a26E>:
 8001b4e:	b580      	push	{r7, lr}
 8001b50:	466f      	mov	r7, sp
 8001b52:	b082      	sub	sp, #8
 8001b54:	9001      	str	r0, [sp, #4]
 8001b56:	f7ff fe27 	bl	80017a8 <_ZN13stm32f4xx_hal5timer21FTimer$LT$TIM$C$_$GT$3new17h179c5b00a1812ebeE>
 8001b5a:	f7ff fe34 	bl	80017c6 <_ZN13stm32f4xx_hal5timer21FTimer$LT$TIM$C$_$GT$5delay17hcc2b63e4af40f582E>
 8001b5e:	b002      	add	sp, #8
 8001b60:	bd80      	pop	{r7, pc}

08001b62 <_ZN55_$LT$T$u20$as$u20$stm32f4xx_hal..rcc..BusTimerClock$GT$11timer_clock17h56847b20ae488cb1E>:
 8001b62:	b580      	push	{r7, lr}
 8001b64:	466f      	mov	r7, sp
 8001b66:	b082      	sub	sp, #8
 8001b68:	9001      	str	r0, [sp, #4]
 8001b6a:	f002 fd80 	bl	800466e <_ZN82_$LT$stm32f4xx_hal..rcc..f4..APB2$u20$as$u20$stm32f4xx_hal..rcc..BusTimerClock$GT$11timer_clock17hea3401f261d2f232E>
 8001b6e:	b002      	add	sp, #8
 8001b70:	bd80      	pop	{r7, pc}

08001b72 <_ZN13stm32f4xx_hal5timer5delay20Delay$LT$TIM$C$_$GT$5delay17he0534b8eb189efb4E>:
 8001b72:	b580      	push	{r7, lr}
 8001b74:	466f      	mov	r7, sp
 8001b76:	b0d4      	sub	sp, #336	; 0x150
 8001b78:	900c      	str	r0, [sp, #48]	; 0x30
 8001b7a:	910d      	str	r1, [sp, #52]	; 0x34
 8001b7c:	900f      	str	r0, [sp, #60]	; 0x3c
 8001b7e:	a80d      	add	r0, sp, #52	; 0x34
 8001b80:	f004 fb73 	bl	800626a <_ZN5fugit8duration27Duration$LT$u32$C$_$C$_$GT$5ticks17h49ce5545a4a0630dE>
 8001b84:	900e      	str	r0, [sp, #56]	; 0x38
 8001b86:	980e      	ldr	r0, [sp, #56]	; 0x38
 8001b88:	2801      	cmp	r0, #1
 8001b8a:	d803      	bhi.n	8001b94 <_ZN13stm32f4xx_hal5timer5delay20Delay$LT$TIM$C$_$GT$5delay17he0534b8eb189efb4E+0x22>
 8001b8c:	e7ff      	b.n	8001b8e <_ZN13stm32f4xx_hal5timer5delay20Delay$LT$TIM$C$_$GT$5delay17he0534b8eb189efb4E+0x1c>
 8001b8e:	980e      	ldr	r0, [sp, #56]	; 0x38
 8001b90:	b170      	cbz	r0, 8001bb0 <_ZN13stm32f4xx_hal5timer5delay20Delay$LT$TIM$C$_$GT$5delay17he0534b8eb189efb4E+0x3e>
 8001b92:	e00f      	b.n	8001bb4 <_ZN13stm32f4xx_hal5timer5delay20Delay$LT$TIM$C$_$GT$5delay17he0534b8eb189efb4E+0x42>
 8001b94:	980e      	ldr	r0, [sp, #56]	; 0x38
 8001b96:	1e41      	subs	r1, r0, #1
 8001b98:	910b      	str	r1, [sp, #44]	; 0x2c
 8001b9a:	b118      	cbz	r0, 8001ba4 <_ZN13stm32f4xx_hal5timer5delay20Delay$LT$TIM$C$_$GT$5delay17he0534b8eb189efb4E+0x32>
 8001b9c:	e7ff      	b.n	8001b9e <_ZN13stm32f4xx_hal5timer5delay20Delay$LT$TIM$C$_$GT$5delay17he0534b8eb189efb4E+0x2c>
 8001b9e:	980b      	ldr	r0, [sp, #44]	; 0x2c
 8001ba0:	900e      	str	r0, [sp, #56]	; 0x38
 8001ba2:	e7f4      	b.n	8001b8e <_ZN13stm32f4xx_hal5timer5delay20Delay$LT$TIM$C$_$GT$5delay17he0534b8eb189efb4E+0x1c>
 8001ba4:	f648 006c 	movw	r0, #34924	; 0x886c
 8001ba8:	f6c0 0000 	movt	r0, #2048	; 0x800
 8001bac:	f006 fa51 	bl	8008052 <_ZN4core9panicking11panic_const24panic_const_sub_overflow17h655aa7502feebde5E>
 8001bb0:	b054      	add	sp, #336	; 0x150
 8001bb2:	bd80      	pop	{r7, pc}
 8001bb4:	980e      	ldr	r0, [sp, #56]	; 0x38
 8001bb6:	f64f 71ff 	movw	r1, #65535	; 0xffff
 8001bba:	f003 ffdb 	bl	8005b74 <_ZN4core3cmp3Ord3min17hdb5b89acf031ad7eE>
 8001bbe:	4601      	mov	r1, r0
 8001bc0:	980c      	ldr	r0, [sp, #48]	; 0x30
 8001bc2:	9109      	str	r1, [sp, #36]	; 0x24
 8001bc4:	9110      	str	r1, [sp, #64]	; 0x40
 8001bc6:	f000 f915 	bl	8001df4 <_ZN94_$LT$stm32f4xx_hal..timer..delay..Delay$LT$T$C$_$GT$$u20$as$u20$core..ops..deref..DerefMut$GT$9deref_mut17h2658a15b9a673e4dE>
 8001bca:	9909      	ldr	r1, [sp, #36]	; 0x24
 8001bcc:	9116      	str	r1, [sp, #88]	; 0x58
 8001bce:	9017      	str	r0, [sp, #92]	; 0x5c
 8001bd0:	904e      	str	r0, [sp, #312]	; 0x138
 8001bd2:	2000      	movs	r0, #0
 8001bd4:	f2c4 0001 	movt	r0, #16385	; 0x4001
 8001bd8:	9008      	str	r0, [sp, #32]
 8001bda:	902a      	str	r0, [sp, #168]	; 0xa8
 8001bdc:	202c      	movs	r0, #44	; 0x2c
 8001bde:	f2c4 0001 	movt	r0, #16385	; 0x4001
 8001be2:	9001      	str	r0, [sp, #4]
 8001be4:	901c      	str	r0, [sp, #112]	; 0x70
 8001be6:	a816      	add	r0, sp, #88	; 0x58
 8001be8:	9000      	str	r0, [sp, #0]
 8001bea:	901d      	str	r0, [sp, #116]	; 0x74
 8001bec:	2000      	movs	r0, #0
 8001bee:	9007      	str	r0, [sp, #28]
 8001bf0:	f7ff fe7c 	bl	80018ec <_ZN43_$LT$u32$u20$as$u20$core..ops..bit..Not$GT$3not17hff0a30f9d5639543E>
 8001bf4:	4601      	mov	r1, r0
 8001bf6:	9807      	ldr	r0, [sp, #28]
 8001bf8:	f7ff fe83 	bl	8001902 <_ZN46_$LT$u32$u20$as$u20$core..ops..bit..BitAnd$GT$6bitand17h264f2d095c3a539dE>
 8001bfc:	9907      	ldr	r1, [sp, #28]
 8001bfe:	f7ff fe7a 	bl	80018f6 <_ZN45_$LT$u32$u20$as$u20$core..ops..bit..BitOr$GT$5bitor17h04ecc2e3e0e8c1e1E>
 8001c02:	4601      	mov	r1, r0
 8001c04:	9800      	ldr	r0, [sp, #0]
 8001c06:	911b      	str	r1, [sp, #108]	; 0x6c
 8001c08:	a91b      	add	r1, sp, #108	; 0x6c
 8001c0a:	f000 fa78 	bl	80020fe <_ZN13stm32f4xx_hal5timer100_$LT$impl$u20$stm32f4xx_hal..timer..sealed..General$u20$for$u20$stm32f4_staging..stm32f401..TIM1$GT$25set_auto_reload_unchecked28_$u7b$$u7b$closure$u7d$$u7d$17h2c89147fa6b6fa27E>
 8001c0e:	4601      	mov	r1, r0
 8001c10:	9801      	ldr	r0, [sp, #4]
 8001c12:	6809      	ldr	r1, [r1, #0]
 8001c14:	9048      	str	r0, [sp, #288]	; 0x120
 8001c16:	9149      	str	r1, [sp, #292]	; 0x124
 8001c18:	904a      	str	r0, [sp, #296]	; 0x128
 8001c1a:	f005 f852 	bl	8006cc2 <_ZN4core3ptr14write_volatile17hc6769b4b417bf8b9E>
 8001c1e:	980c      	ldr	r0, [sp, #48]	; 0x30
 8001c20:	f000 f8e8 	bl	8001df4 <_ZN94_$LT$stm32f4xx_hal..timer..delay..Delay$LT$T$C$_$GT$$u20$as$u20$core..ops..deref..DerefMut$GT$9deref_mut17h2658a15b9a673e4dE>
 8001c24:	4601      	mov	r1, r0
 8001c26:	9808      	ldr	r0, [sp, #32]
 8001c28:	9104      	str	r1, [sp, #16]
 8001c2a:	9111      	str	r1, [sp, #68]	; 0x44
 8001c2c:	9153      	str	r1, [sp, #332]	; 0x14c
 8001c2e:	902e      	str	r0, [sp, #184]	; 0xb8
 8001c30:	9024      	str	r0, [sp, #144]	; 0x90
 8001c32:	9039      	str	r0, [sp, #228]	; 0xe4
 8001c34:	903a      	str	r0, [sp, #232]	; 0xe8
 8001c36:	f004 ffd3 	bl	8006be0 <_ZN4core3ptr13read_volatile17hee64c5a39ad146b0E>
 8001c3a:	4601      	mov	r1, r0
 8001c3c:	9807      	ldr	r0, [sp, #28]
 8001c3e:	9102      	str	r1, [sp, #8]
 8001c40:	9125      	str	r1, [sp, #148]	; 0x94
 8001c42:	9122      	str	r1, [sp, #136]	; 0x88
 8001c44:	f7ff fe52 	bl	80018ec <_ZN43_$LT$u32$u20$as$u20$core..ops..bit..Not$GT$3not17hff0a30f9d5639543E>
 8001c48:	4601      	mov	r1, r0
 8001c4a:	9802      	ldr	r0, [sp, #8]
 8001c4c:	f7ff fe59 	bl	8001902 <_ZN46_$LT$u32$u20$as$u20$core..ops..bit..BitAnd$GT$6bitand17h264f2d095c3a539dE>
 8001c50:	9907      	ldr	r1, [sp, #28]
 8001c52:	f7ff fe50 	bl	80018f6 <_ZN45_$LT$u32$u20$as$u20$core..ops..bit..BitOr$GT$5bitor17h04ecc2e3e0e8c1e1E>
 8001c56:	9023      	str	r0, [sp, #140]	; 0x8c
 8001c58:	a822      	add	r0, sp, #136	; 0x88
 8001c5a:	a923      	add	r1, sp, #140	; 0x8c
 8001c5c:	f7ff fd4f 	bl	80016fe <_ZN13stm32f4xx_hal5timer100_$LT$impl$u20$stm32f4xx_hal..timer..sealed..General$u20$for$u20$stm32f4_staging..stm32f401..TIM1$GT$14trigger_update28_$u7b$$u7b$closure$u7d$$u7d$17h9c9f05eaac2fbfdfE>
 8001c60:	4601      	mov	r1, r0
 8001c62:	9808      	ldr	r0, [sp, #32]
 8001c64:	6809      	ldr	r1, [r1, #0]
 8001c66:	9042      	str	r0, [sp, #264]	; 0x108
 8001c68:	9143      	str	r1, [sp, #268]	; 0x10c
 8001c6a:	9044      	str	r0, [sp, #272]	; 0x110
 8001c6c:	f005 f829 	bl	8006cc2 <_ZN4core3ptr14write_volatile17hc6769b4b417bf8b9E>
 8001c70:	9a04      	ldr	r2, [sp, #16]
 8001c72:	9807      	ldr	r0, [sp, #28]
 8001c74:	9908      	ldr	r1, [sp, #32]
 8001c76:	9252      	str	r2, [sp, #328]	; 0x148
 8001c78:	912f      	str	r1, [sp, #188]	; 0xbc
 8001c7a:	2114      	movs	r1, #20
 8001c7c:	f2c4 0101 	movt	r1, #16385	; 0x4001
 8001c80:	9103      	str	r1, [sp, #12]
 8001c82:	911a      	str	r1, [sp, #104]	; 0x68
 8001c84:	f7ff fe32 	bl	80018ec <_ZN43_$LT$u32$u20$as$u20$core..ops..bit..Not$GT$3not17hff0a30f9d5639543E>
 8001c88:	4601      	mov	r1, r0
 8001c8a:	9807      	ldr	r0, [sp, #28]
 8001c8c:	f7ff fe39 	bl	8001902 <_ZN46_$LT$u32$u20$as$u20$core..ops..bit..BitAnd$GT$6bitand17h264f2d095c3a539dE>
 8001c90:	9907      	ldr	r1, [sp, #28]
 8001c92:	f7ff fe30 	bl	80018f6 <_ZN45_$LT$u32$u20$as$u20$core..ops..bit..BitOr$GT$5bitor17h04ecc2e3e0e8c1e1E>
 8001c96:	9019      	str	r0, [sp, #100]	; 0x64
 8001c98:	a819      	add	r0, sp, #100	; 0x64
 8001c9a:	f7ff fd4b 	bl	8001734 <_ZN13stm32f4xx_hal5timer100_$LT$impl$u20$stm32f4xx_hal..timer..sealed..General$u20$for$u20$stm32f4_staging..stm32f401..TIM1$GT$14trigger_update28_$u7b$$u7b$closure$u7d$$u7d$17hcdd4357a7e1886caE>
 8001c9e:	4601      	mov	r1, r0
 8001ca0:	9803      	ldr	r0, [sp, #12]
 8001ca2:	6809      	ldr	r1, [r1, #0]
 8001ca4:	904b      	str	r0, [sp, #300]	; 0x12c
 8001ca6:	914c      	str	r1, [sp, #304]	; 0x130
 8001ca8:	904d      	str	r0, [sp, #308]	; 0x134
 8001caa:	f005 f80a 	bl	8006cc2 <_ZN4core3ptr14write_volatile17hc6769b4b417bf8b9E>
 8001cae:	9904      	ldr	r1, [sp, #16]
 8001cb0:	9808      	ldr	r0, [sp, #32]
 8001cb2:	9151      	str	r1, [sp, #324]	; 0x144
 8001cb4:	902d      	str	r0, [sp, #180]	; 0xb4
 8001cb6:	9020      	str	r0, [sp, #128]	; 0x80
 8001cb8:	903b      	str	r0, [sp, #236]	; 0xec
 8001cba:	903c      	str	r0, [sp, #240]	; 0xf0
 8001cbc:	f004 ff90 	bl	8006be0 <_ZN4core3ptr13read_volatile17hee64c5a39ad146b0E>
 8001cc0:	4601      	mov	r1, r0
 8001cc2:	9807      	ldr	r0, [sp, #28]
 8001cc4:	9105      	str	r1, [sp, #20]
 8001cc6:	9121      	str	r1, [sp, #132]	; 0x84
 8001cc8:	911e      	str	r1, [sp, #120]	; 0x78
 8001cca:	f7ff fe0f 	bl	80018ec <_ZN43_$LT$u32$u20$as$u20$core..ops..bit..Not$GT$3not17hff0a30f9d5639543E>
 8001cce:	4601      	mov	r1, r0
 8001cd0:	9805      	ldr	r0, [sp, #20]
 8001cd2:	f7ff fe16 	bl	8001902 <_ZN46_$LT$u32$u20$as$u20$core..ops..bit..BitAnd$GT$6bitand17h264f2d095c3a539dE>
 8001cd6:	9907      	ldr	r1, [sp, #28]
 8001cd8:	f7ff fe0d 	bl	80018f6 <_ZN45_$LT$u32$u20$as$u20$core..ops..bit..BitOr$GT$5bitor17h04ecc2e3e0e8c1e1E>
 8001cdc:	901f      	str	r0, [sp, #124]	; 0x7c
 8001cde:	a81e      	add	r0, sp, #120	; 0x78
 8001ce0:	a91f      	add	r1, sp, #124	; 0x7c
 8001ce2:	f7ff fcef 	bl	80016c4 <_ZN13stm32f4xx_hal5timer100_$LT$impl$u20$stm32f4xx_hal..timer..sealed..General$u20$for$u20$stm32f4_staging..stm32f401..TIM1$GT$14trigger_update28_$u7b$$u7b$closure$u7d$$u7d$17h646aa29ed36e1c73E>
 8001ce6:	4601      	mov	r1, r0
 8001ce8:	9808      	ldr	r0, [sp, #32]
 8001cea:	6809      	ldr	r1, [r1, #0]
 8001cec:	9045      	str	r0, [sp, #276]	; 0x114
 8001cee:	9146      	str	r1, [sp, #280]	; 0x118
 8001cf0:	9047      	str	r0, [sp, #284]	; 0x11c
 8001cf2:	f004 ffe6 	bl	8006cc2 <_ZN4core3ptr14write_volatile17hc6769b4b417bf8b9E>
 8001cf6:	980c      	ldr	r0, [sp, #48]	; 0x30
 8001cf8:	f000 f87c 	bl	8001df4 <_ZN94_$LT$stm32f4xx_hal..timer..delay..Delay$LT$T$C$_$GT$$u20$as$u20$core..ops..deref..DerefMut$GT$9deref_mut17h2658a15b9a673e4dE>
 8001cfc:	4601      	mov	r1, r0
 8001cfe:	9808      	ldr	r0, [sp, #32]
 8001d00:	9112      	str	r1, [sp, #72]	; 0x48
 8001d02:	9150      	str	r1, [sp, #320]	; 0x140
 8001d04:	902c      	str	r0, [sp, #176]	; 0xb0
 8001d06:	9028      	str	r0, [sp, #160]	; 0xa0
 8001d08:	9037      	str	r0, [sp, #220]	; 0xdc
 8001d0a:	9038      	str	r0, [sp, #224]	; 0xe0
 8001d0c:	f004 ff68 	bl	8006be0 <_ZN4core3ptr13read_volatile17hee64c5a39ad146b0E>
 8001d10:	4601      	mov	r1, r0
 8001d12:	9807      	ldr	r0, [sp, #28]
 8001d14:	9106      	str	r1, [sp, #24]
 8001d16:	9129      	str	r1, [sp, #164]	; 0xa4
 8001d18:	9126      	str	r1, [sp, #152]	; 0x98
 8001d1a:	f7ff fde7 	bl	80018ec <_ZN43_$LT$u32$u20$as$u20$core..ops..bit..Not$GT$3not17hff0a30f9d5639543E>
 8001d1e:	4601      	mov	r1, r0
 8001d20:	9806      	ldr	r0, [sp, #24]
 8001d22:	f7ff fdee 	bl	8001902 <_ZN46_$LT$u32$u20$as$u20$core..ops..bit..BitAnd$GT$6bitand17h264f2d095c3a539dE>
 8001d26:	9907      	ldr	r1, [sp, #28]
 8001d28:	f7ff fde5 	bl	80018f6 <_ZN45_$LT$u32$u20$as$u20$core..ops..bit..BitOr$GT$5bitor17h04ecc2e3e0e8c1e1E>
 8001d2c:	9027      	str	r0, [sp, #156]	; 0x9c
 8001d2e:	a826      	add	r0, sp, #152	; 0x98
 8001d30:	a927      	add	r1, sp, #156	; 0x9c
 8001d32:	f7ff fd1a 	bl	800176a <_ZN13stm32f4xx_hal5timer100_$LT$impl$u20$stm32f4xx_hal..timer..sealed..General$u20$for$u20$stm32f4_staging..stm32f401..TIM1$GT$15start_one_pulse28_$u7b$$u7b$closure$u7d$$u7d$17h47ca4e3a972a89e7E>
 8001d36:	4601      	mov	r1, r0
 8001d38:	9808      	ldr	r0, [sp, #32]
 8001d3a:	6809      	ldr	r1, [r1, #0]
 8001d3c:	903f      	str	r0, [sp, #252]	; 0xfc
 8001d3e:	9140      	str	r1, [sp, #256]	; 0x100
 8001d40:	9041      	str	r0, [sp, #260]	; 0x104
 8001d42:	f004 ffbe 	bl	8006cc2 <_ZN4core3ptr14write_volatile17hc6769b4b417bf8b9E>
 8001d46:	9909      	ldr	r1, [sp, #36]	; 0x24
 8001d48:	980e      	ldr	r0, [sp, #56]	; 0x38
 8001d4a:	1a42      	subs	r2, r0, r1
 8001d4c:	920a      	str	r2, [sp, #40]	; 0x28
 8001d4e:	4288      	cmp	r0, r1
 8001d50:	d303      	bcc.n	8001d5a <_ZN13stm32f4xx_hal5timer5delay20Delay$LT$TIM$C$_$GT$5delay17he0534b8eb189efb4E+0x1e8>
 8001d52:	e7ff      	b.n	8001d54 <_ZN13stm32f4xx_hal5timer5delay20Delay$LT$TIM$C$_$GT$5delay17he0534b8eb189efb4E+0x1e2>
 8001d54:	980a      	ldr	r0, [sp, #40]	; 0x28
 8001d56:	900e      	str	r0, [sp, #56]	; 0x38
 8001d58:	e005      	b.n	8001d66 <_ZN13stm32f4xx_hal5timer5delay20Delay$LT$TIM$C$_$GT$5delay17he0534b8eb189efb4E+0x1f4>
 8001d5a:	f648 007c 	movw	r0, #34940	; 0x887c
 8001d5e:	f6c0 0000 	movt	r0, #2048	; 0x800
 8001d62:	f006 f976 	bl	8008052 <_ZN4core9panicking11panic_const24panic_const_sub_overflow17h655aa7502feebde5E>
 8001d66:	980c      	ldr	r0, [sp, #48]	; 0x30
 8001d68:	f000 f840 	bl	8001dec <_ZN91_$LT$stm32f4xx_hal..timer..delay..Delay$LT$T$C$_$GT$$u20$as$u20$core..ops..deref..Deref$GT$5deref17h5c91df49110c3f96E>
 8001d6c:	9015      	str	r0, [sp, #84]	; 0x54
 8001d6e:	904f      	str	r0, [sp, #316]	; 0x13c
 8001d70:	2000      	movs	r0, #0
 8001d72:	f2c4 0001 	movt	r0, #16385	; 0x4001
 8001d76:	902b      	str	r0, [sp, #172]	; 0xac
 8001d78:	9018      	str	r0, [sp, #96]	; 0x60
 8001d7a:	903d      	str	r0, [sp, #244]	; 0xf4
 8001d7c:	903e      	str	r0, [sp, #248]	; 0xf8
 8001d7e:	f004 ff2f 	bl	8006be0 <_ZN4core3ptr13read_volatile17hee64c5a39ad146b0E>
 8001d82:	9014      	str	r0, [sp, #80]	; 0x50
 8001d84:	a814      	add	r0, sp, #80	; 0x50
 8001d86:	9030      	str	r0, [sp, #192]	; 0xc0
 8001d88:	f89d 0050 	ldrb.w	r0, [sp, #80]	; 0x50
 8001d8c:	f000 0001 	and.w	r0, r0, #1
 8001d90:	f807 0c89 	strb.w	r0, [r7, #-137]
 8001d94:	f88d 004f 	strb.w	r0, [sp, #79]	; 0x4f
 8001d98:	f10d 004f 	add.w	r0, sp, #79	; 0x4f
 8001d9c:	9032      	str	r0, [sp, #200]	; 0xc8
 8001d9e:	9034      	str	r0, [sp, #208]	; 0xd0
 8001da0:	f648 018c 	movw	r1, #34956	; 0x888c
 8001da4:	f6c0 0100 	movt	r1, #2048	; 0x800
 8001da8:	9135      	str	r1, [sp, #212]	; 0xd4
 8001daa:	2101      	movs	r1, #1
 8001dac:	f807 1c75 	strb.w	r1, [r7, #-117]
 8001db0:	f817 1c75 	ldrb.w	r1, [r7, #-117]
 8001db4:	f001 0101 	and.w	r1, r1, #1
 8001db8:	f807 1c81 	strb.w	r1, [r7, #-129]
 8001dbc:	f1a7 0181 	sub.w	r1, r7, #129	; 0x81
 8001dc0:	f000 f859 	bl	8001e76 <_ZN4core3cmp5impls55_$LT$impl$u20$core..cmp..PartialEq$u20$for$u20$bool$GT$2eq17hcb795b97468a49dbE>
 8001dc4:	2800      	cmp	r0, #0
 8001dc6:	d1ce      	bne.n	8001d66 <_ZN13stm32f4xx_hal5timer5delay20Delay$LT$TIM$C$_$GT$5delay17he0534b8eb189efb4E+0x1f4>
 8001dc8:	e6e1      	b.n	8001b8e <_ZN13stm32f4xx_hal5timer5delay20Delay$LT$TIM$C$_$GT$5delay17he0534b8eb189efb4E+0x1c>

08001dca <_ZN13stm32f4xx_hal5timer5hal_1108_$LT$impl$u20$embedded_hal..delay..DelayNs$u20$for$u20$stm32f4xx_hal..timer..delay..Delay$LT$TIM$C$_$GT$$GT$8delay_ms17ha508c855231ce94dE>:
 8001dca:	b580      	push	{r7, lr}
 8001dcc:	466f      	mov	r7, sp
 8001dce:	b084      	sub	sp, #16
 8001dd0:	9100      	str	r1, [sp, #0]
 8001dd2:	4601      	mov	r1, r0
 8001dd4:	9800      	ldr	r0, [sp, #0]
 8001dd6:	9101      	str	r1, [sp, #4]
 8001dd8:	9102      	str	r1, [sp, #8]
 8001dda:	9003      	str	r0, [sp, #12]
 8001ddc:	f7fe fbdf 	bl	800059e <_ZN51_$LT$u32$u20$as$u20$fugit..duration..ExtU32Ceil$GT$15millis_at_least17h0bfe6345ad36cbeeE>
 8001de0:	4601      	mov	r1, r0
 8001de2:	9801      	ldr	r0, [sp, #4]
 8001de4:	f7ff fec5 	bl	8001b72 <_ZN13stm32f4xx_hal5timer5delay20Delay$LT$TIM$C$_$GT$5delay17he0534b8eb189efb4E>
 8001de8:	b004      	add	sp, #16
 8001dea:	bd80      	pop	{r7, pc}

08001dec <_ZN91_$LT$stm32f4xx_hal..timer..delay..Delay$LT$T$C$_$GT$$u20$as$u20$core..ops..deref..Deref$GT$5deref17h5c91df49110c3f96E>:
 8001dec:	b081      	sub	sp, #4
 8001dee:	9000      	str	r0, [sp, #0]
 8001df0:	b001      	add	sp, #4
 8001df2:	4770      	bx	lr

08001df4 <_ZN94_$LT$stm32f4xx_hal..timer..delay..Delay$LT$T$C$_$GT$$u20$as$u20$core..ops..deref..DerefMut$GT$9deref_mut17h2658a15b9a673e4dE>:
 8001df4:	b081      	sub	sp, #4
 8001df6:	9000      	str	r0, [sp, #0]
 8001df8:	b001      	add	sp, #4
 8001dfa:	4770      	bx	lr

08001dfc <_ZN4core3ptr116drop_in_place$LT$core..cell..RefMut$LT$core..option..Option$LT$stm32f4xx_hal..gpio..Pin$LT$_$C$13_u8$GT$$GT$$GT$$GT$17h479972a60991f7beE>:
 8001dfc:	b580      	push	{r7, lr}
 8001dfe:	466f      	mov	r7, sp
 8001e00:	b082      	sub	sp, #8
 8001e02:	9001      	str	r0, [sp, #4]
 8001e04:	3004      	adds	r0, #4
 8001e06:	f000 f802 	bl	8001e0e <_ZN4core3ptr45drop_in_place$LT$core..cell..BorrowRefMut$GT$17hccc239923b29b247E>
 8001e0a:	b002      	add	sp, #8
 8001e0c:	bd80      	pop	{r7, pc}

08001e0e <_ZN4core3ptr45drop_in_place$LT$core..cell..BorrowRefMut$GT$17hccc239923b29b247E>:
 8001e0e:	b580      	push	{r7, lr}
 8001e10:	466f      	mov	r7, sp
 8001e12:	b082      	sub	sp, #8
 8001e14:	9001      	str	r0, [sp, #4]
 8001e16:	f000 f810 	bl	8001e3a <_ZN66_$LT$core..cell..BorrowRefMut$u20$as$u20$core..ops..drop..Drop$GT$4drop17h818bd8d3a462a206E>
 8001e1a:	b002      	add	sp, #8
 8001e1c:	bd80      	pop	{r7, pc}

08001e1e <_ZN4core3ptr50drop_in_place$LT$critical_section..with..Guard$GT$17hbb61852d2ea008eeE>:
 8001e1e:	b580      	push	{r7, lr}
 8001e20:	466f      	mov	r7, sp
 8001e22:	b084      	sub	sp, #16
 8001e24:	9001      	str	r0, [sp, #4]
 8001e26:	9002      	str	r0, [sp, #8]
 8001e28:	7800      	ldrb	r0, [r0, #0]
 8001e2a:	f000 0001 	and.w	r0, r0, #1
 8001e2e:	f807 0c01 	strb.w	r0, [r7, #-1]
 8001e32:	f005 f80a 	bl	8006e4a <_critical_section_1_0_release>
 8001e36:	b004      	add	sp, #16
 8001e38:	bd80      	pop	{r7, pc}

08001e3a <_ZN66_$LT$core..cell..BorrowRefMut$u20$as$u20$core..ops..drop..Drop$GT$4drop17h818bd8d3a462a206E>:
 8001e3a:	b089      	sub	sp, #36	; 0x24
 8001e3c:	4601      	mov	r1, r0
 8001e3e:	9100      	str	r1, [sp, #0]
 8001e40:	6808      	ldr	r0, [r1, #0]
 8001e42:	9001      	str	r0, [sp, #4]
 8001e44:	9002      	str	r0, [sp, #8]
 8001e46:	6800      	ldr	r0, [r0, #0]
 8001e48:	9003      	str	r0, [sp, #12]
 8001e4a:	6809      	ldr	r1, [r1, #0]
 8001e4c:	9104      	str	r1, [sp, #16]
 8001e4e:	3001      	adds	r0, #1
 8001e50:	9005      	str	r0, [sp, #20]
 8001e52:	9106      	str	r1, [sp, #24]
 8001e54:	9107      	str	r1, [sp, #28]
 8001e56:	680a      	ldr	r2, [r1, #0]
 8001e58:	9208      	str	r2, [sp, #32]
 8001e5a:	6008      	str	r0, [r1, #0]
 8001e5c:	b009      	add	sp, #36	; 0x24
 8001e5e:	4770      	bx	lr

08001e60 <_ZN4core3cmp5impls53_$LT$impl$u20$core..cmp..PartialEq$u20$for$u20$u8$GT$2eq17h168f027faa7135c4E>:
 8001e60:	b082      	sub	sp, #8
 8001e62:	9000      	str	r0, [sp, #0]
 8001e64:	9101      	str	r1, [sp, #4]
 8001e66:	7800      	ldrb	r0, [r0, #0]
 8001e68:	7809      	ldrb	r1, [r1, #0]
 8001e6a:	1a40      	subs	r0, r0, r1
 8001e6c:	fab0 f080 	clz	r0, r0
 8001e70:	0940      	lsrs	r0, r0, #5
 8001e72:	b002      	add	sp, #8
 8001e74:	4770      	bx	lr

08001e76 <_ZN4core3cmp5impls55_$LT$impl$u20$core..cmp..PartialEq$u20$for$u20$bool$GT$2eq17hcb795b97468a49dbE>:
 8001e76:	b082      	sub	sp, #8
 8001e78:	9000      	str	r0, [sp, #0]
 8001e7a:	9101      	str	r1, [sp, #4]
 8001e7c:	7800      	ldrb	r0, [r0, #0]
 8001e7e:	7809      	ldrb	r1, [r1, #0]
 8001e80:	4041      	eors	r1, r0
 8001e82:	2001      	movs	r0, #1
 8001e84:	4388      	bics	r0, r1
 8001e86:	b002      	add	sp, #8
 8001e88:	4770      	bx	lr

08001e8a <_ZN4core7convert3num67_$LT$impl$u20$core..convert..TryFrom$LT$u32$GT$$u20$for$u20$u16$GT$8try_from17h3a5bf2d9f24fb8adE>:
 8001e8a:	b083      	sub	sp, #12
 8001e8c:	4601      	mov	r1, r0
 8001e8e:	9100      	str	r1, [sp, #0]
 8001e90:	9102      	str	r1, [sp, #8]
 8001e92:	2000      	movs	r0, #0
 8001e94:	ebb0 4f11 	cmp.w	r0, r1, lsr #16
 8001e98:	d107      	bne.n	8001eaa <_ZN4core7convert3num67_$LT$impl$u20$core..convert..TryFrom$LT$u32$GT$$u20$for$u20$u16$GT$8try_from17h3a5bf2d9f24fb8adE+0x20>
 8001e9a:	e7ff      	b.n	8001e9c <_ZN4core7convert3num67_$LT$impl$u20$core..convert..TryFrom$LT$u32$GT$$u20$for$u20$u16$GT$8try_from17h3a5bf2d9f24fb8adE+0x12>
 8001e9c:	9800      	ldr	r0, [sp, #0]
 8001e9e:	f8ad 0006 	strh.w	r0, [sp, #6]
 8001ea2:	2000      	movs	r0, #0
 8001ea4:	f8ad 0004 	strh.w	r0, [sp, #4]
 8001ea8:	e00a      	b.n	8001ec0 <_ZN4core7convert3num67_$LT$impl$u20$core..convert..TryFrom$LT$u32$GT$$u20$for$u20$u16$GT$8try_from17h3a5bf2d9f24fb8adE+0x36>
 8001eaa:	f648 008e 	movw	r0, #34958	; 0x888e
 8001eae:	f6c0 0000 	movt	r0, #2048	; 0x800
 8001eb2:	8801      	ldrh	r1, [r0, #0]
 8001eb4:	8840      	ldrh	r0, [r0, #2]
 8001eb6:	f8ad 1004 	strh.w	r1, [sp, #4]
 8001eba:	f8ad 0006 	strh.w	r0, [sp, #6]
 8001ebe:	e7ff      	b.n	8001ec0 <_ZN4core7convert3num67_$LT$impl$u20$core..convert..TryFrom$LT$u32$GT$$u20$for$u20$u16$GT$8try_from17h3a5bf2d9f24fb8adE+0x36>
 8001ec0:	f8bd 0004 	ldrh.w	r0, [sp, #4]
 8001ec4:	f8bd 1006 	ldrh.w	r1, [sp, #6]
 8001ec8:	b003      	add	sp, #12
 8001eca:	4770      	bx	lr

08001ecc <_ZN4core3cmp9PartialEq2ne17h1059a2d71d223286E>:
 8001ecc:	b580      	push	{r7, lr}
 8001ece:	466f      	mov	r7, sp
 8001ed0:	b082      	sub	sp, #8
 8001ed2:	9000      	str	r0, [sp, #0]
 8001ed4:	9101      	str	r1, [sp, #4]
 8001ed6:	f000 f88c 	bl	8001ff2 <_ZN70_$LT$core..option..Option$LT$T$GT$$u20$as$u20$core..cmp..PartialEq$GT$2eq17hfc9f6939b44d7054E>
 8001eda:	f080 0001 	eor.w	r0, r0, #1
 8001ede:	b002      	add	sp, #8
 8001ee0:	bd80      	pop	{r7, pc}

08001ee2 <_ZN4core3cmp9PartialEq2ne17h30a35e28ed79374dE>:
 8001ee2:	b580      	push	{r7, lr}
 8001ee4:	466f      	mov	r7, sp
 8001ee6:	b082      	sub	sp, #8
 8001ee8:	9000      	str	r0, [sp, #0]
 8001eea:	9101      	str	r1, [sp, #4]
 8001eec:	f000 f821 	bl	8001f32 <_ZN70_$LT$core..option..Option$LT$T$GT$$u20$as$u20$core..cmp..PartialEq$GT$2eq17h107925ac2f2c733dE>
 8001ef0:	f080 0001 	eor.w	r0, r0, #1
 8001ef4:	b002      	add	sp, #8
 8001ef6:	bd80      	pop	{r7, pc}

08001ef8 <_ZN4core3cmp9PartialEq2ne17hbf4fb33c9e24fef9E>:
 8001ef8:	b580      	push	{r7, lr}
 8001efa:	466f      	mov	r7, sp
 8001efc:	b082      	sub	sp, #8
 8001efe:	9000      	str	r0, [sp, #0]
 8001f00:	9101      	str	r1, [sp, #4]
 8001f02:	f000 f846 	bl	8001f92 <_ZN70_$LT$core..option..Option$LT$T$GT$$u20$as$u20$core..cmp..PartialEq$GT$2eq17hfa9fff1051d50677E>
 8001f06:	f080 0001 	eor.w	r0, r0, #1
 8001f0a:	b002      	add	sp, #8
 8001f0c:	bd80      	pop	{r7, pc}

08001f0e <_ZN4core6option15Option$LT$T$GT$6as_mut17ha34c95246e7f4469E>:
 8001f0e:	b084      	sub	sp, #16
 8001f10:	9000      	str	r0, [sp, #0]
 8001f12:	9002      	str	r0, [sp, #8]
 8001f14:	7800      	ldrb	r0, [r0, #0]
 8001f16:	07c0      	lsls	r0, r0, #31
 8001f18:	b918      	cbnz	r0, 8001f22 <_ZN4core6option15Option$LT$T$GT$6as_mut17ha34c95246e7f4469E+0x14>
 8001f1a:	e7ff      	b.n	8001f1c <_ZN4core6option15Option$LT$T$GT$6as_mut17ha34c95246e7f4469E+0xe>
 8001f1c:	2000      	movs	r0, #0
 8001f1e:	9001      	str	r0, [sp, #4]
 8001f20:	e004      	b.n	8001f2c <_ZN4core6option15Option$LT$T$GT$6as_mut17ha34c95246e7f4469E+0x1e>
 8001f22:	9800      	ldr	r0, [sp, #0]
 8001f24:	3001      	adds	r0, #1
 8001f26:	9003      	str	r0, [sp, #12]
 8001f28:	9001      	str	r0, [sp, #4]
 8001f2a:	e7ff      	b.n	8001f2c <_ZN4core6option15Option$LT$T$GT$6as_mut17ha34c95246e7f4469E+0x1e>
 8001f2c:	9801      	ldr	r0, [sp, #4]
 8001f2e:	b004      	add	sp, #16
 8001f30:	4770      	bx	lr

08001f32 <_ZN70_$LT$core..option..Option$LT$T$GT$$u20$as$u20$core..cmp..PartialEq$GT$2eq17h107925ac2f2c733dE>:
 8001f32:	b580      	push	{r7, lr}
 8001f34:	466f      	mov	r7, sp
 8001f36:	b088      	sub	sp, #32
 8001f38:	9101      	str	r1, [sp, #4]
 8001f3a:	9002      	str	r0, [sp, #8]
 8001f3c:	9004      	str	r0, [sp, #16]
 8001f3e:	9105      	str	r1, [sp, #20]
 8001f40:	7800      	ldrb	r0, [r0, #0]
 8001f42:	2802      	cmp	r0, #2
 8001f44:	d105      	bne.n	8001f52 <_ZN70_$LT$core..option..Option$LT$T$GT$$u20$as$u20$core..cmp..PartialEq$GT$2eq17h107925ac2f2c733dE+0x20>
 8001f46:	e7ff      	b.n	8001f48 <_ZN70_$LT$core..option..Option$LT$T$GT$$u20$as$u20$core..cmp..PartialEq$GT$2eq17h107925ac2f2c733dE+0x16>
 8001f48:	9801      	ldr	r0, [sp, #4]
 8001f4a:	7800      	ldrb	r0, [r0, #0]
 8001f4c:	2802      	cmp	r0, #2
 8001f4e:	d005      	beq.n	8001f5c <_ZN70_$LT$core..option..Option$LT$T$GT$$u20$as$u20$core..cmp..PartialEq$GT$2eq17h107925ac2f2c733dE+0x2a>
 8001f50:	e008      	b.n	8001f64 <_ZN70_$LT$core..option..Option$LT$T$GT$$u20$as$u20$core..cmp..PartialEq$GT$2eq17h107925ac2f2c733dE+0x32>
 8001f52:	9801      	ldr	r0, [sp, #4]
 8001f54:	7800      	ldrb	r0, [r0, #0]
 8001f56:	2802      	cmp	r0, #2
 8001f58:	d00e      	beq.n	8001f78 <_ZN70_$LT$core..option..Option$LT$T$GT$$u20$as$u20$core..cmp..PartialEq$GT$2eq17h107925ac2f2c733dE+0x46>
 8001f5a:	e011      	b.n	8001f80 <_ZN70_$LT$core..option..Option$LT$T$GT$$u20$as$u20$core..cmp..PartialEq$GT$2eq17h107925ac2f2c733dE+0x4e>
 8001f5c:	2001      	movs	r0, #1
 8001f5e:	f807 0c11 	strb.w	r0, [r7, #-17]
 8001f62:	e003      	b.n	8001f6c <_ZN70_$LT$core..option..Option$LT$T$GT$$u20$as$u20$core..cmp..PartialEq$GT$2eq17h107925ac2f2c733dE+0x3a>
 8001f64:	2000      	movs	r0, #0
 8001f66:	f807 0c11 	strb.w	r0, [r7, #-17]
 8001f6a:	e7ff      	b.n	8001f6c <_ZN70_$LT$core..option..Option$LT$T$GT$$u20$as$u20$core..cmp..PartialEq$GT$2eq17h107925ac2f2c733dE+0x3a>
 8001f6c:	f817 0c11 	ldrb.w	r0, [r7, #-17]
 8001f70:	f000 0001 	and.w	r0, r0, #1
 8001f74:	b008      	add	sp, #32
 8001f76:	bd80      	pop	{r7, pc}
 8001f78:	2000      	movs	r0, #0
 8001f7a:	f807 0c11 	strb.w	r0, [r7, #-17]
 8001f7e:	e7f5      	b.n	8001f6c <_ZN70_$LT$core..option..Option$LT$T$GT$$u20$as$u20$core..cmp..PartialEq$GT$2eq17h107925ac2f2c733dE+0x3a>
 8001f80:	9901      	ldr	r1, [sp, #4]
 8001f82:	9802      	ldr	r0, [sp, #8]
 8001f84:	9006      	str	r0, [sp, #24]
 8001f86:	9107      	str	r1, [sp, #28]
 8001f88:	f000 f87e 	bl	8002088 <_ZN87_$LT$stm32f4_staging..stm32f401..gpioa..otyper..OT0$u20$as$u20$core..cmp..PartialEq$GT$2eq17h163f56d1e59b52ccE>
 8001f8c:	f807 0c11 	strb.w	r0, [r7, #-17]
 8001f90:	e7ec      	b.n	8001f6c <_ZN70_$LT$core..option..Option$LT$T$GT$$u20$as$u20$core..cmp..PartialEq$GT$2eq17h107925ac2f2c733dE+0x3a>

08001f92 <_ZN70_$LT$core..option..Option$LT$T$GT$$u20$as$u20$core..cmp..PartialEq$GT$2eq17hfa9fff1051d50677E>:
 8001f92:	b580      	push	{r7, lr}
 8001f94:	466f      	mov	r7, sp
 8001f96:	b088      	sub	sp, #32
 8001f98:	9101      	str	r1, [sp, #4]
 8001f9a:	9002      	str	r0, [sp, #8]
 8001f9c:	9004      	str	r0, [sp, #16]
 8001f9e:	9105      	str	r1, [sp, #20]
 8001fa0:	7800      	ldrb	r0, [r0, #0]
 8001fa2:	2804      	cmp	r0, #4
 8001fa4:	d105      	bne.n	8001fb2 <_ZN70_$LT$core..option..Option$LT$T$GT$$u20$as$u20$core..cmp..PartialEq$GT$2eq17hfa9fff1051d50677E+0x20>
 8001fa6:	e7ff      	b.n	8001fa8 <_ZN70_$LT$core..option..Option$LT$T$GT$$u20$as$u20$core..cmp..PartialEq$GT$2eq17hfa9fff1051d50677E+0x16>
 8001fa8:	9801      	ldr	r0, [sp, #4]
 8001faa:	7800      	ldrb	r0, [r0, #0]
 8001fac:	2804      	cmp	r0, #4
 8001fae:	d005      	beq.n	8001fbc <_ZN70_$LT$core..option..Option$LT$T$GT$$u20$as$u20$core..cmp..PartialEq$GT$2eq17hfa9fff1051d50677E+0x2a>
 8001fb0:	e008      	b.n	8001fc4 <_ZN70_$LT$core..option..Option$LT$T$GT$$u20$as$u20$core..cmp..PartialEq$GT$2eq17hfa9fff1051d50677E+0x32>
 8001fb2:	9801      	ldr	r0, [sp, #4]
 8001fb4:	7800      	ldrb	r0, [r0, #0]
 8001fb6:	2804      	cmp	r0, #4
 8001fb8:	d00e      	beq.n	8001fd8 <_ZN70_$LT$core..option..Option$LT$T$GT$$u20$as$u20$core..cmp..PartialEq$GT$2eq17hfa9fff1051d50677E+0x46>
 8001fba:	e011      	b.n	8001fe0 <_ZN70_$LT$core..option..Option$LT$T$GT$$u20$as$u20$core..cmp..PartialEq$GT$2eq17hfa9fff1051d50677E+0x4e>
 8001fbc:	2001      	movs	r0, #1
 8001fbe:	f807 0c11 	strb.w	r0, [r7, #-17]
 8001fc2:	e003      	b.n	8001fcc <_ZN70_$LT$core..option..Option$LT$T$GT$$u20$as$u20$core..cmp..PartialEq$GT$2eq17hfa9fff1051d50677E+0x3a>
 8001fc4:	2000      	movs	r0, #0
 8001fc6:	f807 0c11 	strb.w	r0, [r7, #-17]
 8001fca:	e7ff      	b.n	8001fcc <_ZN70_$LT$core..option..Option$LT$T$GT$$u20$as$u20$core..cmp..PartialEq$GT$2eq17hfa9fff1051d50677E+0x3a>
 8001fcc:	f817 0c11 	ldrb.w	r0, [r7, #-17]
 8001fd0:	f000 0001 	and.w	r0, r0, #1
 8001fd4:	b008      	add	sp, #32
 8001fd6:	bd80      	pop	{r7, pc}
 8001fd8:	2000      	movs	r0, #0
 8001fda:	f807 0c11 	strb.w	r0, [r7, #-17]
 8001fde:	e7f5      	b.n	8001fcc <_ZN70_$LT$core..option..Option$LT$T$GT$$u20$as$u20$core..cmp..PartialEq$GT$2eq17hfa9fff1051d50677E+0x3a>
 8001fe0:	9901      	ldr	r1, [sp, #4]
 8001fe2:	9802      	ldr	r0, [sp, #8]
 8001fe4:	9006      	str	r0, [sp, #24]
 8001fe6:	9107      	str	r1, [sp, #28]
 8001fe8:	f7ff f9d0 	bl	800138c <_ZN89_$LT$stm32f4_staging..stm32f401..gpioa..moder..MODER0$u20$as$u20$core..cmp..PartialEq$GT$2eq17h9b5402db58c104d0E>
 8001fec:	f807 0c11 	strb.w	r0, [r7, #-17]
 8001ff0:	e7ec      	b.n	8001fcc <_ZN70_$LT$core..option..Option$LT$T$GT$$u20$as$u20$core..cmp..PartialEq$GT$2eq17hfa9fff1051d50677E+0x3a>

08001ff2 <_ZN70_$LT$core..option..Option$LT$T$GT$$u20$as$u20$core..cmp..PartialEq$GT$2eq17hfc9f6939b44d7054E>:
 8001ff2:	b580      	push	{r7, lr}
 8001ff4:	466f      	mov	r7, sp
 8001ff6:	b088      	sub	sp, #32
 8001ff8:	9101      	str	r1, [sp, #4]
 8001ffa:	9002      	str	r0, [sp, #8]
 8001ffc:	9004      	str	r0, [sp, #16]
 8001ffe:	9105      	str	r1, [sp, #20]
 8002000:	7800      	ldrb	r0, [r0, #0]
 8002002:	07c0      	lsls	r0, r0, #31
 8002004:	b928      	cbnz	r0, 8002012 <_ZN70_$LT$core..option..Option$LT$T$GT$$u20$as$u20$core..cmp..PartialEq$GT$2eq17hfc9f6939b44d7054E+0x20>
 8002006:	e7ff      	b.n	8002008 <_ZN70_$LT$core..option..Option$LT$T$GT$$u20$as$u20$core..cmp..PartialEq$GT$2eq17hfc9f6939b44d7054E+0x16>
 8002008:	9801      	ldr	r0, [sp, #4]
 800200a:	7800      	ldrb	r0, [r0, #0]
 800200c:	07c0      	lsls	r0, r0, #31
 800200e:	b128      	cbz	r0, 800201c <_ZN70_$LT$core..option..Option$LT$T$GT$$u20$as$u20$core..cmp..PartialEq$GT$2eq17hfc9f6939b44d7054E+0x2a>
 8002010:	e008      	b.n	8002024 <_ZN70_$LT$core..option..Option$LT$T$GT$$u20$as$u20$core..cmp..PartialEq$GT$2eq17hfc9f6939b44d7054E+0x32>
 8002012:	9801      	ldr	r0, [sp, #4]
 8002014:	7800      	ldrb	r0, [r0, #0]
 8002016:	07c0      	lsls	r0, r0, #31
 8002018:	b170      	cbz	r0, 8002038 <_ZN70_$LT$core..option..Option$LT$T$GT$$u20$as$u20$core..cmp..PartialEq$GT$2eq17hfc9f6939b44d7054E+0x46>
 800201a:	e011      	b.n	8002040 <_ZN70_$LT$core..option..Option$LT$T$GT$$u20$as$u20$core..cmp..PartialEq$GT$2eq17hfc9f6939b44d7054E+0x4e>
 800201c:	2001      	movs	r0, #1
 800201e:	f807 0c11 	strb.w	r0, [r7, #-17]
 8002022:	e003      	b.n	800202c <_ZN70_$LT$core..option..Option$LT$T$GT$$u20$as$u20$core..cmp..PartialEq$GT$2eq17hfc9f6939b44d7054E+0x3a>
 8002024:	2000      	movs	r0, #0
 8002026:	f807 0c11 	strb.w	r0, [r7, #-17]
 800202a:	e7ff      	b.n	800202c <_ZN70_$LT$core..option..Option$LT$T$GT$$u20$as$u20$core..cmp..PartialEq$GT$2eq17hfc9f6939b44d7054E+0x3a>
 800202c:	f817 0c11 	ldrb.w	r0, [r7, #-17]
 8002030:	f000 0001 	and.w	r0, r0, #1
 8002034:	b008      	add	sp, #32
 8002036:	bd80      	pop	{r7, pc}
 8002038:	2000      	movs	r0, #0
 800203a:	f807 0c11 	strb.w	r0, [r7, #-17]
 800203e:	e7f5      	b.n	800202c <_ZN70_$LT$core..option..Option$LT$T$GT$$u20$as$u20$core..cmp..PartialEq$GT$2eq17hfc9f6939b44d7054E+0x3a>
 8002040:	9901      	ldr	r1, [sp, #4]
 8002042:	9802      	ldr	r0, [sp, #8]
 8002044:	3001      	adds	r0, #1
 8002046:	9006      	str	r0, [sp, #24]
 8002048:	3101      	adds	r1, #1
 800204a:	9107      	str	r1, [sp, #28]
 800204c:	f7ff ff08 	bl	8001e60 <_ZN4core3cmp5impls53_$LT$impl$u20$core..cmp..PartialEq$u20$for$u20$u8$GT$2eq17h168f027faa7135c4E>
 8002050:	f807 0c11 	strb.w	r0, [r7, #-17]
 8002054:	e7ea      	b.n	800202c <_ZN70_$LT$core..option..Option$LT$T$GT$$u20$as$u20$core..cmp..PartialEq$GT$2eq17hfc9f6939b44d7054E+0x3a>

08002056 <_ZN70_$LT$core..num..error..TryFromIntError$u20$as$u20$core..fmt..Debug$GT$3fmt17h633fd79f52ec880fE>:
 8002056:	b580      	push	{r7, lr}
 8002058:	466f      	mov	r7, sp
 800205a:	b086      	sub	sp, #24
 800205c:	9102      	str	r1, [sp, #8]
 800205e:	4601      	mov	r1, r0
 8002060:	9802      	ldr	r0, [sp, #8]
 8002062:	9104      	str	r1, [sp, #16]
 8002064:	9005      	str	r0, [sp, #20]
 8002066:	9103      	str	r1, [sp, #12]
 8002068:	f648 0198 	movw	r1, #34968	; 0x8898
 800206c:	f6c0 0100 	movt	r1, #2048	; 0x800
 8002070:	466a      	mov	r2, sp
 8002072:	6011      	str	r1, [r2, #0]
 8002074:	f648 01a8 	movw	r1, #34984	; 0x88a8
 8002078:	f6c0 0100 	movt	r1, #2048	; 0x800
 800207c:	220f      	movs	r2, #15
 800207e:	ab03      	add	r3, sp, #12
 8002080:	f005 fd1b 	bl	8007aba <_ZN4core3fmt9Formatter25debug_tuple_field1_finish17h99c194781023e779E>
 8002084:	b006      	add	sp, #24
 8002086:	bd80      	pop	{r7, pc}

08002088 <_ZN87_$LT$stm32f4_staging..stm32f401..gpioa..otyper..OT0$u20$as$u20$core..cmp..PartialEq$GT$2eq17h163f56d1e59b52ccE>:
 8002088:	b084      	sub	sp, #16
 800208a:	9000      	str	r0, [sp, #0]
 800208c:	9101      	str	r1, [sp, #4]
 800208e:	7800      	ldrb	r0, [r0, #0]
 8002090:	f000 0001 	and.w	r0, r0, #1
 8002094:	9002      	str	r0, [sp, #8]
 8002096:	7809      	ldrb	r1, [r1, #0]
 8002098:	f001 0101 	and.w	r1, r1, #1
 800209c:	9103      	str	r1, [sp, #12]
 800209e:	1a40      	subs	r0, r0, r1
 80020a0:	fab0 f080 	clz	r0, r0
 80020a4:	0940      	lsrs	r0, r0, #5
 80020a6:	b004      	add	sp, #16
 80020a8:	4770      	bx	lr

080020aa <_ZN13stm32f4xx_hal4gpio23Pin$LT$_$C$_$C$MODE$GT$3new17h00a8e9439a53c35fE>:
 80020aa:	4770      	bx	lr

080020ac <_ZN13stm32f4xx_hal4gpio23Pin$LT$_$C$_$C$MODE$GT$3new17h03daa3ce01413f65E>:
 80020ac:	4770      	bx	lr

080020ae <_ZN13stm32f4xx_hal4gpio23Pin$LT$_$C$_$C$MODE$GT$3new17h308aa7ce926b3e1aE>:
 80020ae:	4770      	bx	lr

080020b0 <_ZN13stm32f4xx_hal4gpio23Pin$LT$_$C$_$C$MODE$GT$3new17h3a4f83777a0b0221E>:
 80020b0:	4770      	bx	lr

080020b2 <_ZN13stm32f4xx_hal4gpio23Pin$LT$_$C$_$C$MODE$GT$3new17h3ff830eb07dd994dE>:
 80020b2:	4770      	bx	lr

080020b4 <_ZN13stm32f4xx_hal4gpio23Pin$LT$_$C$_$C$MODE$GT$3new17h455ce7cd86b23c69E>:
 80020b4:	4770      	bx	lr

080020b6 <_ZN13stm32f4xx_hal4gpio23Pin$LT$_$C$_$C$MODE$GT$3new17h5290e2cf6f394851E>:
 80020b6:	4770      	bx	lr

080020b8 <_ZN13stm32f4xx_hal4gpio23Pin$LT$_$C$_$C$MODE$GT$3new17h545d6bbe8f6ccb9dE>:
 80020b8:	4770      	bx	lr

080020ba <_ZN13stm32f4xx_hal4gpio23Pin$LT$_$C$_$C$MODE$GT$3new17h58e103b853df1b74E>:
 80020ba:	4770      	bx	lr

080020bc <_ZN13stm32f4xx_hal4gpio23Pin$LT$_$C$_$C$MODE$GT$3new17h5dd8a7c7fd164a66E>:
 80020bc:	4770      	bx	lr

080020be <_ZN13stm32f4xx_hal4gpio23Pin$LT$_$C$_$C$MODE$GT$3new17h61c14c859238a4deE>:
 80020be:	4770      	bx	lr

080020c0 <_ZN13stm32f4xx_hal4gpio23Pin$LT$_$C$_$C$MODE$GT$3new17h77a0db47677fc623E>:
 80020c0:	4770      	bx	lr

080020c2 <_ZN13stm32f4xx_hal4gpio23Pin$LT$_$C$_$C$MODE$GT$3new17h79365ba42c047f36E>:
 80020c2:	4770      	bx	lr

080020c4 <_ZN13stm32f4xx_hal4gpio23Pin$LT$_$C$_$C$MODE$GT$3new17h7ce871744515edebE>:
 80020c4:	4770      	bx	lr

080020c6 <_ZN13stm32f4xx_hal4gpio23Pin$LT$_$C$_$C$MODE$GT$3new17h90353fe8e12fa64bE>:
 80020c6:	4770      	bx	lr

080020c8 <_ZN13stm32f4xx_hal4gpio23Pin$LT$_$C$_$C$MODE$GT$3new17h92e55110f027c0a9E>:
 80020c8:	4770      	bx	lr

080020ca <_ZN13stm32f4xx_hal4gpio23Pin$LT$_$C$_$C$MODE$GT$3new17h9479db2fb45f36f4E>:
 80020ca:	4770      	bx	lr

080020cc <_ZN13stm32f4xx_hal4gpio23Pin$LT$_$C$_$C$MODE$GT$3new17h9806ace94b7b90bdE>:
 80020cc:	4770      	bx	lr

080020ce <_ZN13stm32f4xx_hal4gpio23Pin$LT$_$C$_$C$MODE$GT$3new17h9d0e1cbc216c2b2eE>:
 80020ce:	4770      	bx	lr

080020d0 <_ZN13stm32f4xx_hal4gpio23Pin$LT$_$C$_$C$MODE$GT$3new17h9d28472242d5a1c1E>:
 80020d0:	4770      	bx	lr

080020d2 <_ZN13stm32f4xx_hal4gpio23Pin$LT$_$C$_$C$MODE$GT$3new17ha2239206f605b82dE>:
 80020d2:	4770      	bx	lr

080020d4 <_ZN13stm32f4xx_hal4gpio23Pin$LT$_$C$_$C$MODE$GT$3new17ha71d50e19c4046a0E>:
 80020d4:	4770      	bx	lr

080020d6 <_ZN13stm32f4xx_hal4gpio23Pin$LT$_$C$_$C$MODE$GT$3new17hab4a959b72084819E>:
 80020d6:	4770      	bx	lr

080020d8 <_ZN13stm32f4xx_hal4gpio23Pin$LT$_$C$_$C$MODE$GT$3new17hc2de416c85433e9aE>:
 80020d8:	4770      	bx	lr

080020da <_ZN13stm32f4xx_hal4gpio23Pin$LT$_$C$_$C$MODE$GT$3new17hcae6bcda0bdb153cE>:
 80020da:	4770      	bx	lr

080020dc <_ZN13stm32f4xx_hal4gpio23Pin$LT$_$C$_$C$MODE$GT$3new17hd9df139a5e615a46E>:
 80020dc:	4770      	bx	lr

080020de <_ZN13stm32f4xx_hal4gpio23Pin$LT$_$C$_$C$MODE$GT$3new17hdae38b77910f2ab4E>:
 80020de:	4770      	bx	lr

080020e0 <_ZN13stm32f4xx_hal4gpio23Pin$LT$_$C$_$C$MODE$GT$3new17hddde726c3e40d75bE>:
 80020e0:	4770      	bx	lr

080020e2 <_ZN13stm32f4xx_hal4gpio23Pin$LT$_$C$_$C$MODE$GT$3new17he3c7aad03435934bE>:
 80020e2:	4770      	bx	lr

080020e4 <_ZN13stm32f4xx_hal4gpio23Pin$LT$_$C$_$C$MODE$GT$3new17he552a8025eecc047E>:
 80020e4:	4770      	bx	lr

080020e6 <_ZN13stm32f4xx_hal4gpio23Pin$LT$_$C$_$C$MODE$GT$3new17hf1b54b46aa38fcfeE>:
 80020e6:	4770      	bx	lr

080020e8 <_ZN13stm32f4xx_hal4gpio23Pin$LT$_$C$_$C$MODE$GT$3new17hfeaf8ee37dc6b90fE>:
 80020e8:	4770      	bx	lr

080020ea <_ZN13stm32f4xx_hal4gpio5gpiox17h947e579eb97e05b7E>:
 80020ea:	b081      	sub	sp, #4
 80020ec:	e7ff      	b.n	80020ee <_ZN13stm32f4xx_hal4gpio5gpiox17h947e579eb97e05b7E+0x4>
 80020ee:	2000      	movs	r0, #0
 80020f0:	f2c4 0002 	movt	r0, #16386	; 0x4002
 80020f4:	9000      	str	r0, [sp, #0]
 80020f6:	e7ff      	b.n	80020f8 <_ZN13stm32f4xx_hal4gpio5gpiox17h947e579eb97e05b7E+0xe>
 80020f8:	9800      	ldr	r0, [sp, #0]
 80020fa:	b001      	add	sp, #4
 80020fc:	4770      	bx	lr

080020fe <_ZN13stm32f4xx_hal5timer100_$LT$impl$u20$stm32f4xx_hal..timer..sealed..General$u20$for$u20$stm32f4_staging..stm32f401..TIM1$GT$25set_auto_reload_unchecked28_$u7b$$u7b$closure$u7d$$u7d$17h2c89147fa6b6fa27E>:
 80020fe:	b085      	sub	sp, #20
 8002100:	9100      	str	r1, [sp, #0]
 8002102:	4601      	mov	r1, r0
 8002104:	9800      	ldr	r0, [sp, #0]
 8002106:	9101      	str	r1, [sp, #4]
 8002108:	9002      	str	r0, [sp, #8]
 800210a:	9901      	ldr	r1, [sp, #4]
 800210c:	6809      	ldr	r1, [r1, #0]
 800210e:	9003      	str	r0, [sp, #12]
 8002110:	9104      	str	r1, [sp, #16]
 8002112:	6001      	str	r1, [r0, #0]
 8002114:	b005      	add	sp, #20
 8002116:	4770      	bx	lr

08002118 <_ZN100_$LT$core..ops..range..RangeInclusive$LT$T$GT$$u20$as$u20$core..ops..range..RangeBounds$LT$T$GT$$GT$11start_bound17h0750ffb58aa5af80E>:
 8002118:	b083      	sub	sp, #12
 800211a:	9002      	str	r0, [sp, #8]
 800211c:	9001      	str	r0, [sp, #4]
 800211e:	2000      	movs	r0, #0
 8002120:	9000      	str	r0, [sp, #0]
 8002122:	9800      	ldr	r0, [sp, #0]
 8002124:	9901      	ldr	r1, [sp, #4]
 8002126:	b003      	add	sp, #12
 8002128:	4770      	bx	lr

0800212a <_ZN100_$LT$core..ops..range..RangeInclusive$LT$T$GT$$u20$as$u20$core..ops..range..RangeBounds$LT$T$GT$$GT$11start_bound17h74c5ce22b03290b3E>:
 800212a:	b083      	sub	sp, #12
 800212c:	9002      	str	r0, [sp, #8]
 800212e:	9001      	str	r0, [sp, #4]
 8002130:	2000      	movs	r0, #0
 8002132:	9000      	str	r0, [sp, #0]
 8002134:	9800      	ldr	r0, [sp, #0]
 8002136:	9901      	ldr	r1, [sp, #4]
 8002138:	b003      	add	sp, #12
 800213a:	4770      	bx	lr

0800213c <_ZN100_$LT$core..ops..range..RangeInclusive$LT$T$GT$$u20$as$u20$core..ops..range..RangeBounds$LT$T$GT$$GT$9end_bound17h846ddce4613719edE>:
 800213c:	b084      	sub	sp, #16
 800213e:	9000      	str	r0, [sp, #0]
 8002140:	9003      	str	r0, [sp, #12]
 8002142:	7a00      	ldrb	r0, [r0, #8]
 8002144:	07c0      	lsls	r0, r0, #31
 8002146:	b930      	cbnz	r0, 8002156 <_ZN100_$LT$core..ops..range..RangeInclusive$LT$T$GT$$u20$as$u20$core..ops..range..RangeBounds$LT$T$GT$$GT$9end_bound17h846ddce4613719edE+0x1a>
 8002148:	e7ff      	b.n	800214a <_ZN100_$LT$core..ops..range..RangeInclusive$LT$T$GT$$u20$as$u20$core..ops..range..RangeBounds$LT$T$GT$$GT$9end_bound17h846ddce4613719edE+0xe>
 800214a:	9800      	ldr	r0, [sp, #0]
 800214c:	3004      	adds	r0, #4
 800214e:	9002      	str	r0, [sp, #8]
 8002150:	2000      	movs	r0, #0
 8002152:	9001      	str	r0, [sp, #4]
 8002154:	e005      	b.n	8002162 <_ZN100_$LT$core..ops..range..RangeInclusive$LT$T$GT$$u20$as$u20$core..ops..range..RangeBounds$LT$T$GT$$GT$9end_bound17h846ddce4613719edE+0x26>
 8002156:	9800      	ldr	r0, [sp, #0]
 8002158:	3004      	adds	r0, #4
 800215a:	9002      	str	r0, [sp, #8]
 800215c:	2001      	movs	r0, #1
 800215e:	9001      	str	r0, [sp, #4]
 8002160:	e7ff      	b.n	8002162 <_ZN100_$LT$core..ops..range..RangeInclusive$LT$T$GT$$u20$as$u20$core..ops..range..RangeBounds$LT$T$GT$$GT$9end_bound17h846ddce4613719edE+0x26>
 8002162:	9801      	ldr	r0, [sp, #4]
 8002164:	9902      	ldr	r1, [sp, #8]
 8002166:	b004      	add	sp, #16
 8002168:	4770      	bx	lr

0800216a <_ZN100_$LT$core..ops..range..RangeInclusive$LT$T$GT$$u20$as$u20$core..ops..range..RangeBounds$LT$T$GT$$GT$9end_bound17hb643ad7df834cef0E>:
 800216a:	b084      	sub	sp, #16
 800216c:	9000      	str	r0, [sp, #0]
 800216e:	9003      	str	r0, [sp, #12]
 8002170:	7a00      	ldrb	r0, [r0, #8]
 8002172:	07c0      	lsls	r0, r0, #31
 8002174:	b930      	cbnz	r0, 8002184 <_ZN100_$LT$core..ops..range..RangeInclusive$LT$T$GT$$u20$as$u20$core..ops..range..RangeBounds$LT$T$GT$$GT$9end_bound17hb643ad7df834cef0E+0x1a>
 8002176:	e7ff      	b.n	8002178 <_ZN100_$LT$core..ops..range..RangeInclusive$LT$T$GT$$u20$as$u20$core..ops..range..RangeBounds$LT$T$GT$$GT$9end_bound17hb643ad7df834cef0E+0xe>
 8002178:	9800      	ldr	r0, [sp, #0]
 800217a:	3004      	adds	r0, #4
 800217c:	9002      	str	r0, [sp, #8]
 800217e:	2000      	movs	r0, #0
 8002180:	9001      	str	r0, [sp, #4]
 8002182:	e005      	b.n	8002190 <_ZN100_$LT$core..ops..range..RangeInclusive$LT$T$GT$$u20$as$u20$core..ops..range..RangeBounds$LT$T$GT$$GT$9end_bound17hb643ad7df834cef0E+0x26>
 8002184:	9800      	ldr	r0, [sp, #0]
 8002186:	3004      	adds	r0, #4
 8002188:	9002      	str	r0, [sp, #8]
 800218a:	2001      	movs	r0, #1
 800218c:	9001      	str	r0, [sp, #4]
 800218e:	e7ff      	b.n	8002190 <_ZN100_$LT$core..ops..range..RangeInclusive$LT$T$GT$$u20$as$u20$core..ops..range..RangeBounds$LT$T$GT$$GT$9end_bound17hb643ad7df834cef0E+0x26>
 8002190:	9801      	ldr	r0, [sp, #4]
 8002192:	9902      	ldr	r1, [sp, #8]
 8002194:	b004      	add	sp, #16
 8002196:	4770      	bx	lr

08002198 <_ZN107_$LT$core..ops..range..RangeInclusive$LT$T$GT$$u20$as$u20$core..iter..range..RangeInclusiveIteratorImpl$GT$13spec_try_fold17h0126359b9e843cabE>:
 8002198:	b5f0      	push	{r4, r5, r6, r7, lr}
 800219a:	af03      	add	r7, sp, #12
 800219c:	f84d 8d04 	str.w	r8, [sp, #-4]!
 80021a0:	b0da      	sub	sp, #360	; 0x168
 80021a2:	9202      	str	r2, [sp, #8]
 80021a4:	9103      	str	r1, [sp, #12]
 80021a6:	9004      	str	r0, [sp, #16]
 80021a8:	68b8      	ldr	r0, [r7, #8]
 80021aa:	9305      	str	r3, [sp, #20]
 80021ac:	9006      	str	r0, [sp, #24]
 80021ae:	9151      	str	r1, [sp, #324]	; 0x144
 80021b0:	7a08      	ldrb	r0, [r1, #8]
 80021b2:	07c0      	lsls	r0, r0, #31
 80021b4:	b948      	cbnz	r0, 80021ca <_ZN107_$LT$core..ops..range..RangeInclusive$LT$T$GT$$u20$as$u20$core..iter..range..RangeInclusiveIteratorImpl$GT$13spec_try_fold17h0126359b9e843cabE+0x32>
 80021b6:	e7ff      	b.n	80021b8 <_ZN107_$LT$core..ops..range..RangeInclusive$LT$T$GT$$u20$as$u20$core..iter..range..RangeInclusiveIteratorImpl$GT$13spec_try_fold17h0126359b9e843cabE+0x20>
 80021b8:	9903      	ldr	r1, [sp, #12]
 80021ba:	1d08      	adds	r0, r1, #4
 80021bc:	9156      	str	r1, [sp, #344]	; 0x158
 80021be:	9057      	str	r0, [sp, #348]	; 0x15c
 80021c0:	6808      	ldr	r0, [r1, #0]
 80021c2:	6849      	ldr	r1, [r1, #4]
 80021c4:	4288      	cmp	r0, r1
 80021c6:	d808      	bhi.n	80021da <_ZN107_$LT$core..ops..range..RangeInclusive$LT$T$GT$$u20$as$u20$core..iter..range..RangeInclusiveIteratorImpl$GT$13spec_try_fold17h0126359b9e843cabE+0x42>
 80021c8:	e000      	b.n	80021cc <_ZN107_$LT$core..ops..range..RangeInclusive$LT$T$GT$$u20$as$u20$core..iter..range..RangeInclusiveIteratorImpl$GT$13spec_try_fold17h0126359b9e843cabE+0x34>
 80021ca:	e006      	b.n	80021da <_ZN107_$LT$core..ops..range..RangeInclusive$LT$T$GT$$u20$as$u20$core..iter..range..RangeInclusiveIteratorImpl$GT$13spec_try_fold17h0126359b9e843cabE+0x42>
 80021cc:	9902      	ldr	r1, [sp, #8]
 80021ce:	a807      	add	r0, sp, #28
 80021d0:	e891 503c 	ldmia.w	r1, {r2, r3, r4, r5, ip, lr}
 80021d4:	e880 503c 	stmia.w	r0, {r2, r3, r4, r5, ip, lr}
 80021d8:	e004      	b.n	80021e4 <_ZN107_$LT$core..ops..range..RangeInclusive$LT$T$GT$$u20$as$u20$core..iter..range..RangeInclusiveIteratorImpl$GT$13spec_try_fold17h0126359b9e843cabE+0x4c>
 80021da:	9902      	ldr	r1, [sp, #8]
 80021dc:	9804      	ldr	r0, [sp, #16]
 80021de:	f000 ffc1 	bl	8003164 <_ZN94_$LT$core..ops..try_trait..NeverShortCircuit$LT$T$GT$$u20$as$u20$core..ops..try_trait..Try$GT$11from_output17h00fc5d9273870504E>
 80021e2:	e07a      	b.n	80022da <_ZN107_$LT$core..ops..range..RangeInclusive$LT$T$GT$$u20$as$u20$core..iter..range..RangeInclusiveIteratorImpl$GT$13spec_try_fold17h0126359b9e843cabE+0x142>
 80021e4:	9903      	ldr	r1, [sp, #12]
 80021e6:	1d08      	adds	r0, r1, #4
 80021e8:	9158      	str	r1, [sp, #352]	; 0x160
 80021ea:	9059      	str	r0, [sp, #356]	; 0x164
 80021ec:	6808      	ldr	r0, [r1, #0]
 80021ee:	6849      	ldr	r1, [r1, #4]
 80021f0:	4288      	cmp	r0, r1
 80021f2:	d308      	bcc.n	8002206 <_ZN107_$LT$core..ops..range..RangeInclusive$LT$T$GT$$u20$as$u20$core..iter..range..RangeInclusiveIteratorImpl$GT$13spec_try_fold17h0126359b9e843cabE+0x6e>
 80021f4:	e7ff      	b.n	80021f6 <_ZN107_$LT$core..ops..range..RangeInclusive$LT$T$GT$$u20$as$u20$core..iter..range..RangeInclusiveIteratorImpl$GT$13spec_try_fold17h0126359b9e843cabE+0x5e>
 80021f6:	9803      	ldr	r0, [sp, #12]
 80021f8:	2101      	movs	r1, #1
 80021fa:	7201      	strb	r1, [r0, #8]
 80021fc:	1d01      	adds	r1, r0, #4
 80021fe:	f004 f81d 	bl	800623c <_ZN4core3cmp5impls54_$LT$impl$u20$core..cmp..PartialEq$u20$for$u20$u32$GT$2eq17hf24a696c4b0cb411E>
 8002202:	bb30      	cbnz	r0, 8002252 <_ZN107_$LT$core..ops..range..RangeInclusive$LT$T$GT$$u20$as$u20$core..iter..range..RangeInclusiveIteratorImpl$GT$13spec_try_fold17h0126359b9e843cabE+0xba>
 8002204:	e024      	b.n	8002250 <_ZN107_$LT$core..ops..range..RangeInclusive$LT$T$GT$$u20$as$u20$core..iter..range..RangeInclusiveIteratorImpl$GT$13spec_try_fold17h0126359b9e843cabE+0xb8>
 8002206:	9803      	ldr	r0, [sp, #12]
 8002208:	6800      	ldr	r0, [r0, #0]
 800220a:	2101      	movs	r1, #1
 800220c:	f004 f832 	bl	8006274 <_ZN47_$LT$u32$u20$as$u20$core..iter..range..Step$GT$17forward_unchecked17heeaa38ff01c28faaE>
 8002210:	9a03      	ldr	r2, [sp, #12]
 8002212:	4601      	mov	r1, r0
 8002214:	9153      	str	r1, [sp, #332]	; 0x14c
 8002216:	9254      	str	r2, [sp, #336]	; 0x150
 8002218:	6810      	ldr	r0, [r2, #0]
 800221a:	9055      	str	r0, [sp, #340]	; 0x154
 800221c:	6011      	str	r1, [r2, #0]
 800221e:	aa07      	add	r2, sp, #28
 8002220:	ab20      	add	r3, sp, #128	; 0x80
 8002222:	4619      	mov	r1, r3
 8002224:	e892 5170 	ldmia.w	r2, {r4, r5, r6, r8, ip, lr}
 8002228:	e881 5170 	stmia.w	r1, {r4, r5, r6, r8, ip, lr}
 800222c:	aa19      	add	r2, sp, #100	; 0x64
 800222e:	4611      	mov	r1, r2
 8002230:	e893 5170 	ldmia.w	r3, {r4, r5, r6, r8, ip, lr}
 8002234:	e881 5170 	stmia.w	r1, {r4, r5, r6, r8, ip, lr}
 8002238:	901f      	str	r0, [sp, #124]	; 0x7c
 800223a:	9b1f      	ldr	r3, [sp, #124]	; 0x7c
 800223c:	a813      	add	r0, sp, #76	; 0x4c
 800223e:	9001      	str	r0, [sp, #4]
 8002240:	a905      	add	r1, sp, #20
 8002242:	f000 fe2c 	bl	8002e9e <_ZN4core3ops9try_trait26NeverShortCircuit$LT$T$GT$10wrap_mut_228_$u7b$$u7b$closure$u7d$$u7d$17h4d0acae508d74b6fE>
 8002246:	9901      	ldr	r1, [sp, #4]
 8002248:	a80d      	add	r0, sp, #52	; 0x34
 800224a:	f000 ffa7 	bl	800319c <_ZN94_$LT$core..ops..try_trait..NeverShortCircuit$LT$T$GT$$u20$as$u20$core..ops..try_trait..Try$GT$6branch17hb09ca2bc76c25990E>
 800224e:	e037      	b.n	80022c0 <_ZN107_$LT$core..ops..range..RangeInclusive$LT$T$GT$$u20$as$u20$core..iter..range..RangeInclusiveIteratorImpl$GT$13spec_try_fold17h0126359b9e843cabE+0x128>
 8002250:	e01a      	b.n	8002288 <_ZN107_$LT$core..ops..range..RangeInclusive$LT$T$GT$$u20$as$u20$core..iter..range..RangeInclusiveIteratorImpl$GT$13spec_try_fold17h0126359b9e843cabE+0xf0>
 8002252:	9803      	ldr	r0, [sp, #12]
 8002254:	aa07      	add	r2, sp, #28
 8002256:	ab3f      	add	r3, sp, #252	; 0xfc
 8002258:	4619      	mov	r1, r3
 800225a:	e892 5170 	ldmia.w	r2, {r4, r5, r6, r8, ip, lr}
 800225e:	e881 5170 	stmia.w	r1, {r4, r5, r6, r8, ip, lr}
 8002262:	6800      	ldr	r0, [r0, #0]
 8002264:	aa38      	add	r2, sp, #224	; 0xe0
 8002266:	4611      	mov	r1, r2
 8002268:	e893 5170 	ldmia.w	r3, {r4, r5, r6, r8, ip, lr}
 800226c:	e881 5170 	stmia.w	r1, {r4, r5, r6, r8, ip, lr}
 8002270:	903e      	str	r0, [sp, #248]	; 0xf8
 8002272:	9b3e      	ldr	r3, [sp, #248]	; 0xf8
 8002274:	a832      	add	r0, sp, #200	; 0xc8
 8002276:	9000      	str	r0, [sp, #0]
 8002278:	a905      	add	r1, sp, #20
 800227a:	f000 fe10 	bl	8002e9e <_ZN4core3ops9try_trait26NeverShortCircuit$LT$T$GT$10wrap_mut_228_$u7b$$u7b$closure$u7d$$u7d$17h4d0acae508d74b6fE>
 800227e:	9900      	ldr	r1, [sp, #0]
 8002280:	a82c      	add	r0, sp, #176	; 0xb0
 8002282:	f000 ff8b 	bl	800319c <_ZN94_$LT$core..ops..try_trait..NeverShortCircuit$LT$T$GT$$u20$as$u20$core..ops..try_trait..Try$GT$6branch17hb09ca2bc76c25990E>
 8002286:	e00a      	b.n	800229e <_ZN107_$LT$core..ops..range..RangeInclusive$LT$T$GT$$u20$as$u20$core..iter..range..RangeInclusiveIteratorImpl$GT$13spec_try_fold17h0126359b9e843cabE+0x106>
 8002288:	9804      	ldr	r0, [sp, #16]
 800228a:	ab07      	add	r3, sp, #28
 800228c:	a94b      	add	r1, sp, #300	; 0x12c
 800228e:	460a      	mov	r2, r1
 8002290:	e893 5170 	ldmia.w	r3, {r4, r5, r6, r8, ip, lr}
 8002294:	e882 5170 	stmia.w	r2, {r4, r5, r6, r8, ip, lr}
 8002298:	f000 ff64 	bl	8003164 <_ZN94_$LT$core..ops..try_trait..NeverShortCircuit$LT$T$GT$$u20$as$u20$core..ops..try_trait..Try$GT$11from_output17h00fc5d9273870504E>
 800229c:	e00c      	b.n	80022b8 <_ZN107_$LT$core..ops..range..RangeInclusive$LT$T$GT$$u20$as$u20$core..iter..range..RangeInclusiveIteratorImpl$GT$13spec_try_fold17h0126359b9e843cabE+0x120>
 800229e:	aa2c      	add	r2, sp, #176	; 0xb0
 80022a0:	a945      	add	r1, sp, #276	; 0x114
 80022a2:	4608      	mov	r0, r1
 80022a4:	e892 5078 	ldmia.w	r2, {r3, r4, r5, r6, ip, lr}
 80022a8:	e880 5078 	stmia.w	r0, {r3, r4, r5, r6, ip, lr}
 80022ac:	a807      	add	r0, sp, #28
 80022ae:	e891 503c 	ldmia.w	r1, {r2, r3, r4, r5, ip, lr}
 80022b2:	e880 503c 	stmia.w	r0, {r2, r3, r4, r5, ip, lr}
 80022b6:	e7e7      	b.n	8002288 <_ZN107_$LT$core..ops..range..RangeInclusive$LT$T$GT$$u20$as$u20$core..iter..range..RangeInclusiveIteratorImpl$GT$13spec_try_fold17h0126359b9e843cabE+0xf0>
 80022b8:	b05a      	add	sp, #360	; 0x168
 80022ba:	f85d 8b04 	ldr.w	r8, [sp], #4
 80022be:	bdf0      	pop	{r4, r5, r6, r7, pc}
 80022c0:	aa0d      	add	r2, sp, #52	; 0x34
 80022c2:	a926      	add	r1, sp, #152	; 0x98
 80022c4:	4608      	mov	r0, r1
 80022c6:	e892 5078 	ldmia.w	r2, {r3, r4, r5, r6, ip, lr}
 80022ca:	e880 5078 	stmia.w	r0, {r3, r4, r5, r6, ip, lr}
 80022ce:	a807      	add	r0, sp, #28
 80022d0:	e891 503c 	ldmia.w	r1, {r2, r3, r4, r5, ip, lr}
 80022d4:	e880 503c 	stmia.w	r0, {r2, r3, r4, r5, ip, lr}
 80022d8:	e784      	b.n	80021e4 <_ZN107_$LT$core..ops..range..RangeInclusive$LT$T$GT$$u20$as$u20$core..iter..range..RangeInclusiveIteratorImpl$GT$13spec_try_fold17h0126359b9e843cabE+0x4c>
 80022da:	e7ed      	b.n	80022b8 <_ZN107_$LT$core..ops..range..RangeInclusive$LT$T$GT$$u20$as$u20$core..iter..range..RangeInclusiveIteratorImpl$GT$13spec_try_fold17h0126359b9e843cabE+0x120>

080022dc <_ZN107_$LT$core..ops..range..RangeInclusive$LT$T$GT$$u20$as$u20$core..iter..range..RangeInclusiveIteratorImpl$GT$13spec_try_fold17h4696b886f863b494E>:
 80022dc:	b580      	push	{r7, lr}
 80022de:	466f      	mov	r7, sp
 80022e0:	b0aa      	sub	sp, #168	; 0xa8
 80022e2:	9102      	str	r1, [sp, #8]
 80022e4:	9003      	str	r0, [sp, #12]
 80022e6:	9204      	str	r2, [sp, #16]
 80022e8:	9121      	str	r1, [sp, #132]	; 0x84
 80022ea:	7a08      	ldrb	r0, [r1, #8]
 80022ec:	07c0      	lsls	r0, r0, #31
 80022ee:	b948      	cbnz	r0, 8002304 <_ZN107_$LT$core..ops..range..RangeInclusive$LT$T$GT$$u20$as$u20$core..iter..range..RangeInclusiveIteratorImpl$GT$13spec_try_fold17h4696b886f863b494E+0x28>
 80022f0:	e7ff      	b.n	80022f2 <_ZN107_$LT$core..ops..range..RangeInclusive$LT$T$GT$$u20$as$u20$core..iter..range..RangeInclusiveIteratorImpl$GT$13spec_try_fold17h4696b886f863b494E+0x16>
 80022f2:	9902      	ldr	r1, [sp, #8]
 80022f4:	1d08      	adds	r0, r1, #4
 80022f6:	9126      	str	r1, [sp, #152]	; 0x98
 80022f8:	9027      	str	r0, [sp, #156]	; 0x9c
 80022fa:	6808      	ldr	r0, [r1, #0]
 80022fc:	6849      	ldr	r1, [r1, #4]
 80022fe:	4288      	cmp	r0, r1
 8002300:	d802      	bhi.n	8002308 <_ZN107_$LT$core..ops..range..RangeInclusive$LT$T$GT$$u20$as$u20$core..iter..range..RangeInclusiveIteratorImpl$GT$13spec_try_fold17h4696b886f863b494E+0x2c>
 8002302:	e000      	b.n	8002306 <_ZN107_$LT$core..ops..range..RangeInclusive$LT$T$GT$$u20$as$u20$core..iter..range..RangeInclusiveIteratorImpl$GT$13spec_try_fold17h4696b886f863b494E+0x2a>
 8002304:	e000      	b.n	8002308 <_ZN107_$LT$core..ops..range..RangeInclusive$LT$T$GT$$u20$as$u20$core..iter..range..RangeInclusiveIteratorImpl$GT$13spec_try_fold17h4696b886f863b494E+0x2c>
 8002306:	e003      	b.n	8002310 <_ZN107_$LT$core..ops..range..RangeInclusive$LT$T$GT$$u20$as$u20$core..iter..range..RangeInclusiveIteratorImpl$GT$13spec_try_fold17h4696b886f863b494E+0x34>
 8002308:	9803      	ldr	r0, [sp, #12]
 800230a:	f000 ffbc 	bl	8003286 <_ZN95_$LT$core..ops..control_flow..ControlFlow$LT$B$C$C$GT$$u20$as$u20$core..ops..try_trait..Try$GT$11from_output17h354c859b4261ecf0E>
 800230e:	e05d      	b.n	80023cc <_ZN107_$LT$core..ops..range..RangeInclusive$LT$T$GT$$u20$as$u20$core..iter..range..RangeInclusiveIteratorImpl$GT$13spec_try_fold17h4696b886f863b494E+0xf0>
 8002310:	9902      	ldr	r1, [sp, #8]
 8002312:	1d08      	adds	r0, r1, #4
 8002314:	9128      	str	r1, [sp, #160]	; 0xa0
 8002316:	9029      	str	r0, [sp, #164]	; 0xa4
 8002318:	6808      	ldr	r0, [r1, #0]
 800231a:	6849      	ldr	r1, [r1, #4]
 800231c:	4288      	cmp	r0, r1
 800231e:	d308      	bcc.n	8002332 <_ZN107_$LT$core..ops..range..RangeInclusive$LT$T$GT$$u20$as$u20$core..iter..range..RangeInclusiveIteratorImpl$GT$13spec_try_fold17h4696b886f863b494E+0x56>
 8002320:	e7ff      	b.n	8002322 <_ZN107_$LT$core..ops..range..RangeInclusive$LT$T$GT$$u20$as$u20$core..iter..range..RangeInclusiveIteratorImpl$GT$13spec_try_fold17h4696b886f863b494E+0x46>
 8002322:	9802      	ldr	r0, [sp, #8]
 8002324:	2101      	movs	r1, #1
 8002326:	7201      	strb	r1, [r0, #8]
 8002328:	1d01      	adds	r1, r0, #4
 800232a:	f003 ff87 	bl	800623c <_ZN4core3cmp5impls54_$LT$impl$u20$core..cmp..PartialEq$u20$for$u20$u32$GT$2eq17hf24a696c4b0cb411E>
 800232e:	b9c0      	cbnz	r0, 8002362 <_ZN107_$LT$core..ops..range..RangeInclusive$LT$T$GT$$u20$as$u20$core..iter..range..RangeInclusiveIteratorImpl$GT$13spec_try_fold17h4696b886f863b494E+0x86>
 8002330:	e016      	b.n	8002360 <_ZN107_$LT$core..ops..range..RangeInclusive$LT$T$GT$$u20$as$u20$core..iter..range..RangeInclusiveIteratorImpl$GT$13spec_try_fold17h4696b886f863b494E+0x84>
 8002332:	9802      	ldr	r0, [sp, #8]
 8002334:	6800      	ldr	r0, [r0, #0]
 8002336:	2101      	movs	r1, #1
 8002338:	f003 ff9c 	bl	8006274 <_ZN47_$LT$u32$u20$as$u20$core..iter..range..Step$GT$17forward_unchecked17heeaa38ff01c28faaE>
 800233c:	9902      	ldr	r1, [sp, #8]
 800233e:	9023      	str	r0, [sp, #140]	; 0x8c
 8002340:	9124      	str	r1, [sp, #144]	; 0x90
 8002342:	680a      	ldr	r2, [r1, #0]
 8002344:	9225      	str	r2, [sp, #148]	; 0x94
 8002346:	6008      	str	r0, [r1, #0]
 8002348:	a80a      	add	r0, sp, #40	; 0x28
 800234a:	9001      	str	r0, [sp, #4]
 800234c:	a904      	add	r1, sp, #16
 800234e:	f000 fea3 	bl	8003098 <_ZN4core4iter6traits8iterator8Iterator8find_map5check28_$u7b$$u7b$closure$u7d$$u7d$17hd8aa685a1f337267E>
 8002352:	9901      	ldr	r1, [sp, #4]
 8002354:	a805      	add	r0, sp, #20
 8002356:	f000 ff9c 	bl	8003292 <_ZN95_$LT$core..ops..control_flow..ControlFlow$LT$B$C$C$GT$$u20$as$u20$core..ops..try_trait..Try$GT$6branch17h9ef2f7124420e8f7E>
 800235a:	9805      	ldr	r0, [sp, #20]
 800235c:	b330      	cbz	r0, 80023ac <_ZN107_$LT$core..ops..range..RangeInclusive$LT$T$GT$$u20$as$u20$core..iter..range..RangeInclusiveIteratorImpl$GT$13spec_try_fold17h4696b886f863b494E+0xd0>
 800235e:	e026      	b.n	80023ae <_ZN107_$LT$core..ops..range..RangeInclusive$LT$T$GT$$u20$as$u20$core..iter..range..RangeInclusiveIteratorImpl$GT$13spec_try_fold17h4696b886f863b494E+0xd2>
 8002360:	e00d      	b.n	800237e <_ZN107_$LT$core..ops..range..RangeInclusive$LT$T$GT$$u20$as$u20$core..iter..range..RangeInclusiveIteratorImpl$GT$13spec_try_fold17h4696b886f863b494E+0xa2>
 8002362:	9802      	ldr	r0, [sp, #8]
 8002364:	6802      	ldr	r2, [r0, #0]
 8002366:	a818      	add	r0, sp, #96	; 0x60
 8002368:	9000      	str	r0, [sp, #0]
 800236a:	a904      	add	r1, sp, #16
 800236c:	f000 fe94 	bl	8003098 <_ZN4core4iter6traits8iterator8Iterator8find_map5check28_$u7b$$u7b$closure$u7d$$u7d$17hd8aa685a1f337267E>
 8002370:	9900      	ldr	r1, [sp, #0]
 8002372:	a813      	add	r0, sp, #76	; 0x4c
 8002374:	f000 ff8d 	bl	8003292 <_ZN95_$LT$core..ops..control_flow..ControlFlow$LT$B$C$C$GT$$u20$as$u20$core..ops..try_trait..Try$GT$6branch17h9ef2f7124420e8f7E>
 8002378:	9813      	ldr	r0, [sp, #76]	; 0x4c
 800237a:	b120      	cbz	r0, 8002386 <_ZN107_$LT$core..ops..range..RangeInclusive$LT$T$GT$$u20$as$u20$core..iter..range..RangeInclusiveIteratorImpl$GT$13spec_try_fold17h4696b886f863b494E+0xaa>
 800237c:	e004      	b.n	8002388 <_ZN107_$LT$core..ops..range..RangeInclusive$LT$T$GT$$u20$as$u20$core..iter..range..RangeInclusiveIteratorImpl$GT$13spec_try_fold17h4696b886f863b494E+0xac>
 800237e:	9803      	ldr	r0, [sp, #12]
 8002380:	f000 ff81 	bl	8003286 <_ZN95_$LT$core..ops..control_flow..ControlFlow$LT$B$C$C$GT$$u20$as$u20$core..ops..try_trait..Try$GT$11from_output17h354c859b4261ecf0E>
 8002384:	e00f      	b.n	80023a6 <_ZN107_$LT$core..ops..range..RangeInclusive$LT$T$GT$$u20$as$u20$core..iter..range..RangeInclusiveIteratorImpl$GT$13spec_try_fold17h4696b886f863b494E+0xca>
 8002386:	e7fa      	b.n	800237e <_ZN107_$LT$core..ops..range..RangeInclusive$LT$T$GT$$u20$as$u20$core..iter..range..RangeInclusiveIteratorImpl$GT$13spec_try_fold17h4696b886f863b494E+0xa2>
 8002388:	9803      	ldr	r0, [sp, #12]
 800238a:	9914      	ldr	r1, [sp, #80]	; 0x50
 800238c:	9a15      	ldr	r2, [sp, #84]	; 0x54
 800238e:	9b16      	ldr	r3, [sp, #88]	; 0x58
 8002390:	f8dd c05c 	ldr.w	ip, [sp, #92]	; 0x5c
 8002394:	f8cd c080 	str.w	ip, [sp, #128]	; 0x80
 8002398:	931f      	str	r3, [sp, #124]	; 0x7c
 800239a:	921e      	str	r2, [sp, #120]	; 0x78
 800239c:	911d      	str	r1, [sp, #116]	; 0x74
 800239e:	a91d      	add	r1, sp, #116	; 0x74
 80023a0:	f000 ff3e 	bl	8003220 <_ZN185_$LT$core..ops..control_flow..ControlFlow$LT$B$C$C$GT$$u20$as$u20$core..ops..try_trait..FromResidual$LT$core..ops..control_flow..ControlFlow$LT$B$C$core..convert..Infallible$GT$$GT$$GT$13from_residual17h5cffcfee8da6f5d1E>
 80023a4:	e001      	b.n	80023aa <_ZN107_$LT$core..ops..range..RangeInclusive$LT$T$GT$$u20$as$u20$core..iter..range..RangeInclusiveIteratorImpl$GT$13spec_try_fold17h4696b886f863b494E+0xce>
 80023a6:	b02a      	add	sp, #168	; 0xa8
 80023a8:	bd80      	pop	{r7, pc}
 80023aa:	e00f      	b.n	80023cc <_ZN107_$LT$core..ops..range..RangeInclusive$LT$T$GT$$u20$as$u20$core..iter..range..RangeInclusiveIteratorImpl$GT$13spec_try_fold17h4696b886f863b494E+0xf0>
 80023ac:	e7b0      	b.n	8002310 <_ZN107_$LT$core..ops..range..RangeInclusive$LT$T$GT$$u20$as$u20$core..iter..range..RangeInclusiveIteratorImpl$GT$13spec_try_fold17h4696b886f863b494E+0x34>
 80023ae:	9803      	ldr	r0, [sp, #12]
 80023b0:	9906      	ldr	r1, [sp, #24]
 80023b2:	9a07      	ldr	r2, [sp, #28]
 80023b4:	9b08      	ldr	r3, [sp, #32]
 80023b6:	f8dd c024 	ldr.w	ip, [sp, #36]	; 0x24
 80023ba:	f8cd c048 	str.w	ip, [sp, #72]	; 0x48
 80023be:	9311      	str	r3, [sp, #68]	; 0x44
 80023c0:	9210      	str	r2, [sp, #64]	; 0x40
 80023c2:	910f      	str	r1, [sp, #60]	; 0x3c
 80023c4:	a90f      	add	r1, sp, #60	; 0x3c
 80023c6:	f000 ff2b 	bl	8003220 <_ZN185_$LT$core..ops..control_flow..ControlFlow$LT$B$C$C$GT$$u20$as$u20$core..ops..try_trait..FromResidual$LT$core..ops..control_flow..ControlFlow$LT$B$C$core..convert..Infallible$GT$$GT$$GT$13from_residual17h5cffcfee8da6f5d1E>
 80023ca:	e7ee      	b.n	80023aa <_ZN107_$LT$core..ops..range..RangeInclusive$LT$T$GT$$u20$as$u20$core..iter..range..RangeInclusiveIteratorImpl$GT$13spec_try_fold17h4696b886f863b494E+0xce>
 80023cc:	e7eb      	b.n	80023a6 <_ZN107_$LT$core..ops..range..RangeInclusive$LT$T$GT$$u20$as$u20$core..iter..range..RangeInclusiveIteratorImpl$GT$13spec_try_fold17h4696b886f863b494E+0xca>

080023ce <_ZN107_$LT$core..ops..range..RangeInclusive$LT$T$GT$$u20$as$u20$core..iter..range..RangeInclusiveIteratorImpl$GT$13spec_try_fold17h6ecf68e1db805b0fE>:
 80023ce:	b5f0      	push	{r4, r5, r6, r7, lr}
 80023d0:	af03      	add	r7, sp, #12
 80023d2:	f84d bd04 	str.w	fp, [sp, #-4]!
 80023d6:	b0ce      	sub	sp, #312	; 0x138
 80023d8:	9202      	str	r2, [sp, #8]
 80023da:	9103      	str	r1, [sp, #12]
 80023dc:	9004      	str	r0, [sp, #16]
 80023de:	68b8      	ldr	r0, [r7, #8]
 80023e0:	9305      	str	r3, [sp, #20]
 80023e2:	9006      	str	r0, [sp, #24]
 80023e4:	9145      	str	r1, [sp, #276]	; 0x114
 80023e6:	7a08      	ldrb	r0, [r1, #8]
 80023e8:	07c0      	lsls	r0, r0, #31
 80023ea:	b948      	cbnz	r0, 8002400 <_ZN107_$LT$core..ops..range..RangeInclusive$LT$T$GT$$u20$as$u20$core..iter..range..RangeInclusiveIteratorImpl$GT$13spec_try_fold17h6ecf68e1db805b0fE+0x32>
 80023ec:	e7ff      	b.n	80023ee <_ZN107_$LT$core..ops..range..RangeInclusive$LT$T$GT$$u20$as$u20$core..iter..range..RangeInclusiveIteratorImpl$GT$13spec_try_fold17h6ecf68e1db805b0fE+0x20>
 80023ee:	9903      	ldr	r1, [sp, #12]
 80023f0:	1d08      	adds	r0, r1, #4
 80023f2:	914a      	str	r1, [sp, #296]	; 0x128
 80023f4:	904b      	str	r0, [sp, #300]	; 0x12c
 80023f6:	6808      	ldr	r0, [r1, #0]
 80023f8:	6849      	ldr	r1, [r1, #4]
 80023fa:	4288      	cmp	r0, r1
 80023fc:	d808      	bhi.n	8002410 <_ZN107_$LT$core..ops..range..RangeInclusive$LT$T$GT$$u20$as$u20$core..iter..range..RangeInclusiveIteratorImpl$GT$13spec_try_fold17h6ecf68e1db805b0fE+0x42>
 80023fe:	e000      	b.n	8002402 <_ZN107_$LT$core..ops..range..RangeInclusive$LT$T$GT$$u20$as$u20$core..iter..range..RangeInclusiveIteratorImpl$GT$13spec_try_fold17h6ecf68e1db805b0fE+0x34>
 8002400:	e006      	b.n	8002410 <_ZN107_$LT$core..ops..range..RangeInclusive$LT$T$GT$$u20$as$u20$core..iter..range..RangeInclusiveIteratorImpl$GT$13spec_try_fold17h6ecf68e1db805b0fE+0x42>
 8002402:	9902      	ldr	r1, [sp, #8]
 8002404:	a807      	add	r0, sp, #28
 8002406:	e891 501c 	ldmia.w	r1, {r2, r3, r4, ip, lr}
 800240a:	e880 501c 	stmia.w	r0, {r2, r3, r4, ip, lr}
 800240e:	e004      	b.n	800241a <_ZN107_$LT$core..ops..range..RangeInclusive$LT$T$GT$$u20$as$u20$core..iter..range..RangeInclusiveIteratorImpl$GT$13spec_try_fold17h6ecf68e1db805b0fE+0x4c>
 8002410:	9902      	ldr	r1, [sp, #8]
 8002412:	9804      	ldr	r0, [sp, #16]
 8002414:	f000 feb2 	bl	800317c <_ZN94_$LT$core..ops..try_trait..NeverShortCircuit$LT$T$GT$$u20$as$u20$core..ops..try_trait..Try$GT$11from_output17h821607093da501f7E>
 8002418:	e07a      	b.n	8002510 <_ZN107_$LT$core..ops..range..RangeInclusive$LT$T$GT$$u20$as$u20$core..iter..range..RangeInclusiveIteratorImpl$GT$13spec_try_fold17h6ecf68e1db805b0fE+0x142>
 800241a:	9903      	ldr	r1, [sp, #12]
 800241c:	1d08      	adds	r0, r1, #4
 800241e:	914c      	str	r1, [sp, #304]	; 0x130
 8002420:	904d      	str	r0, [sp, #308]	; 0x134
 8002422:	6808      	ldr	r0, [r1, #0]
 8002424:	6849      	ldr	r1, [r1, #4]
 8002426:	4288      	cmp	r0, r1
 8002428:	d308      	bcc.n	800243c <_ZN107_$LT$core..ops..range..RangeInclusive$LT$T$GT$$u20$as$u20$core..iter..range..RangeInclusiveIteratorImpl$GT$13spec_try_fold17h6ecf68e1db805b0fE+0x6e>
 800242a:	e7ff      	b.n	800242c <_ZN107_$LT$core..ops..range..RangeInclusive$LT$T$GT$$u20$as$u20$core..iter..range..RangeInclusiveIteratorImpl$GT$13spec_try_fold17h6ecf68e1db805b0fE+0x5e>
 800242c:	9803      	ldr	r0, [sp, #12]
 800242e:	2101      	movs	r1, #1
 8002430:	7201      	strb	r1, [r0, #8]
 8002432:	1d01      	adds	r1, r0, #4
 8002434:	f003 ff02 	bl	800623c <_ZN4core3cmp5impls54_$LT$impl$u20$core..cmp..PartialEq$u20$for$u20$u32$GT$2eq17hf24a696c4b0cb411E>
 8002438:	bb30      	cbnz	r0, 8002488 <_ZN107_$LT$core..ops..range..RangeInclusive$LT$T$GT$$u20$as$u20$core..iter..range..RangeInclusiveIteratorImpl$GT$13spec_try_fold17h6ecf68e1db805b0fE+0xba>
 800243a:	e024      	b.n	8002486 <_ZN107_$LT$core..ops..range..RangeInclusive$LT$T$GT$$u20$as$u20$core..iter..range..RangeInclusiveIteratorImpl$GT$13spec_try_fold17h6ecf68e1db805b0fE+0xb8>
 800243c:	9803      	ldr	r0, [sp, #12]
 800243e:	6800      	ldr	r0, [r0, #0]
 8002440:	2101      	movs	r1, #1
 8002442:	f003 ff17 	bl	8006274 <_ZN47_$LT$u32$u20$as$u20$core..iter..range..Step$GT$17forward_unchecked17heeaa38ff01c28faaE>
 8002446:	9a03      	ldr	r2, [sp, #12]
 8002448:	4601      	mov	r1, r0
 800244a:	9147      	str	r1, [sp, #284]	; 0x11c
 800244c:	9248      	str	r2, [sp, #288]	; 0x120
 800244e:	6810      	ldr	r0, [r2, #0]
 8002450:	9049      	str	r0, [sp, #292]	; 0x124
 8002452:	6011      	str	r1, [r2, #0]
 8002454:	aa07      	add	r2, sp, #28
 8002456:	ab1c      	add	r3, sp, #112	; 0x70
 8002458:	4619      	mov	r1, r3
 800245a:	e892 5070 	ldmia.w	r2, {r4, r5, r6, ip, lr}
 800245e:	e881 5070 	stmia.w	r1, {r4, r5, r6, ip, lr}
 8002462:	aa16      	add	r2, sp, #88	; 0x58
 8002464:	4611      	mov	r1, r2
 8002466:	e893 5070 	ldmia.w	r3, {r4, r5, r6, ip, lr}
 800246a:	e881 5070 	stmia.w	r1, {r4, r5, r6, ip, lr}
 800246e:	901b      	str	r0, [sp, #108]	; 0x6c
 8002470:	9b1b      	ldr	r3, [sp, #108]	; 0x6c
 8002472:	a811      	add	r0, sp, #68	; 0x44
 8002474:	9001      	str	r0, [sp, #4]
 8002476:	a905      	add	r1, sp, #20
 8002478:	f000 fce1 	bl	8002e3e <_ZN4core3ops9try_trait26NeverShortCircuit$LT$T$GT$10wrap_mut_228_$u7b$$u7b$closure$u7d$$u7d$17h28a8da63bd78e182E>
 800247c:	9901      	ldr	r1, [sp, #4]
 800247e:	a80c      	add	r0, sp, #48	; 0x30
 8002480:	f000 feb1 	bl	80031e6 <_ZN94_$LT$core..ops..try_trait..NeverShortCircuit$LT$T$GT$$u20$as$u20$core..ops..try_trait..Try$GT$6branch17hd94e30a08d87253eE>
 8002484:	e037      	b.n	80024f6 <_ZN107_$LT$core..ops..range..RangeInclusive$LT$T$GT$$u20$as$u20$core..iter..range..RangeInclusiveIteratorImpl$GT$13spec_try_fold17h6ecf68e1db805b0fE+0x128>
 8002486:	e01a      	b.n	80024be <_ZN107_$LT$core..ops..range..RangeInclusive$LT$T$GT$$u20$as$u20$core..iter..range..RangeInclusiveIteratorImpl$GT$13spec_try_fold17h6ecf68e1db805b0fE+0xf0>
 8002488:	9803      	ldr	r0, [sp, #12]
 800248a:	aa07      	add	r2, sp, #28
 800248c:	ab36      	add	r3, sp, #216	; 0xd8
 800248e:	4619      	mov	r1, r3
 8002490:	e892 5070 	ldmia.w	r2, {r4, r5, r6, ip, lr}
 8002494:	e881 5070 	stmia.w	r1, {r4, r5, r6, ip, lr}
 8002498:	6800      	ldr	r0, [r0, #0]
 800249a:	aa30      	add	r2, sp, #192	; 0xc0
 800249c:	4611      	mov	r1, r2
 800249e:	e893 5070 	ldmia.w	r3, {r4, r5, r6, ip, lr}
 80024a2:	e881 5070 	stmia.w	r1, {r4, r5, r6, ip, lr}
 80024a6:	9035      	str	r0, [sp, #212]	; 0xd4
 80024a8:	9b35      	ldr	r3, [sp, #212]	; 0xd4
 80024aa:	a82b      	add	r0, sp, #172	; 0xac
 80024ac:	9000      	str	r0, [sp, #0]
 80024ae:	a905      	add	r1, sp, #20
 80024b0:	f000 fcc5 	bl	8002e3e <_ZN4core3ops9try_trait26NeverShortCircuit$LT$T$GT$10wrap_mut_228_$u7b$$u7b$closure$u7d$$u7d$17h28a8da63bd78e182E>
 80024b4:	9900      	ldr	r1, [sp, #0]
 80024b6:	a826      	add	r0, sp, #152	; 0x98
 80024b8:	f000 fe95 	bl	80031e6 <_ZN94_$LT$core..ops..try_trait..NeverShortCircuit$LT$T$GT$$u20$as$u20$core..ops..try_trait..Try$GT$6branch17hd94e30a08d87253eE>
 80024bc:	e00a      	b.n	80024d4 <_ZN107_$LT$core..ops..range..RangeInclusive$LT$T$GT$$u20$as$u20$core..iter..range..RangeInclusiveIteratorImpl$GT$13spec_try_fold17h6ecf68e1db805b0fE+0x106>
 80024be:	9804      	ldr	r0, [sp, #16]
 80024c0:	ab07      	add	r3, sp, #28
 80024c2:	a940      	add	r1, sp, #256	; 0x100
 80024c4:	460a      	mov	r2, r1
 80024c6:	e893 5070 	ldmia.w	r3, {r4, r5, r6, ip, lr}
 80024ca:	e882 5070 	stmia.w	r2, {r4, r5, r6, ip, lr}
 80024ce:	f000 fe55 	bl	800317c <_ZN94_$LT$core..ops..try_trait..NeverShortCircuit$LT$T$GT$$u20$as$u20$core..ops..try_trait..Try$GT$11from_output17h821607093da501f7E>
 80024d2:	e00c      	b.n	80024ee <_ZN107_$LT$core..ops..range..RangeInclusive$LT$T$GT$$u20$as$u20$core..iter..range..RangeInclusiveIteratorImpl$GT$13spec_try_fold17h6ecf68e1db805b0fE+0x120>
 80024d4:	aa26      	add	r2, sp, #152	; 0x98
 80024d6:	a93b      	add	r1, sp, #236	; 0xec
 80024d8:	4608      	mov	r0, r1
 80024da:	e892 5038 	ldmia.w	r2, {r3, r4, r5, ip, lr}
 80024de:	e880 5038 	stmia.w	r0, {r3, r4, r5, ip, lr}
 80024e2:	a807      	add	r0, sp, #28
 80024e4:	e891 501c 	ldmia.w	r1, {r2, r3, r4, ip, lr}
 80024e8:	e880 501c 	stmia.w	r0, {r2, r3, r4, ip, lr}
 80024ec:	e7e7      	b.n	80024be <_ZN107_$LT$core..ops..range..RangeInclusive$LT$T$GT$$u20$as$u20$core..iter..range..RangeInclusiveIteratorImpl$GT$13spec_try_fold17h6ecf68e1db805b0fE+0xf0>
 80024ee:	b04e      	add	sp, #312	; 0x138
 80024f0:	f85d bb04 	ldr.w	fp, [sp], #4
 80024f4:	bdf0      	pop	{r4, r5, r6, r7, pc}
 80024f6:	aa0c      	add	r2, sp, #48	; 0x30
 80024f8:	a921      	add	r1, sp, #132	; 0x84
 80024fa:	4608      	mov	r0, r1
 80024fc:	e892 5038 	ldmia.w	r2, {r3, r4, r5, ip, lr}
 8002500:	e880 5038 	stmia.w	r0, {r3, r4, r5, ip, lr}
 8002504:	a807      	add	r0, sp, #28
 8002506:	e891 501c 	ldmia.w	r1, {r2, r3, r4, ip, lr}
 800250a:	e880 501c 	stmia.w	r0, {r2, r3, r4, ip, lr}
 800250e:	e784      	b.n	800241a <_ZN107_$LT$core..ops..range..RangeInclusive$LT$T$GT$$u20$as$u20$core..iter..range..RangeInclusiveIteratorImpl$GT$13spec_try_fold17h6ecf68e1db805b0fE+0x4c>
 8002510:	e7ed      	b.n	80024ee <_ZN107_$LT$core..ops..range..RangeInclusive$LT$T$GT$$u20$as$u20$core..iter..range..RangeInclusiveIteratorImpl$GT$13spec_try_fold17h6ecf68e1db805b0fE+0x120>

08002512 <_ZN107_$LT$core..ops..range..RangeInclusive$LT$T$GT$$u20$as$u20$core..iter..range..RangeInclusiveIteratorImpl$GT$13spec_try_fold17h7392752d81d64507E>:
 8002512:	b580      	push	{r7, lr}
 8002514:	466f      	mov	r7, sp
 8002516:	b0a2      	sub	sp, #136	; 0x88
 8002518:	469c      	mov	ip, r3
 800251a:	9200      	str	r2, [sp, #0]
 800251c:	9101      	str	r1, [sp, #4]
 800251e:	9002      	str	r0, [sp, #8]
 8002520:	68bb      	ldr	r3, [r7, #8]
 8002522:	f8cd c00c 	str.w	ip, [sp, #12]
 8002526:	9304      	str	r3, [sp, #16]
 8002528:	9013      	str	r0, [sp, #76]	; 0x4c
 800252a:	9114      	str	r1, [sp, #80]	; 0x50
 800252c:	9215      	str	r2, [sp, #84]	; 0x54
 800252e:	7a00      	ldrb	r0, [r0, #8]
 8002530:	07c0      	lsls	r0, r0, #31
 8002532:	b948      	cbnz	r0, 8002548 <_ZN107_$LT$core..ops..range..RangeInclusive$LT$T$GT$$u20$as$u20$core..iter..range..RangeInclusiveIteratorImpl$GT$13spec_try_fold17h7392752d81d64507E+0x36>
 8002534:	e7ff      	b.n	8002536 <_ZN107_$LT$core..ops..range..RangeInclusive$LT$T$GT$$u20$as$u20$core..iter..range..RangeInclusiveIteratorImpl$GT$13spec_try_fold17h7392752d81d64507E+0x24>
 8002536:	9902      	ldr	r1, [sp, #8]
 8002538:	1d08      	adds	r0, r1, #4
 800253a:	911e      	str	r1, [sp, #120]	; 0x78
 800253c:	901f      	str	r0, [sp, #124]	; 0x7c
 800253e:	6808      	ldr	r0, [r1, #0]
 8002540:	6849      	ldr	r1, [r1, #4]
 8002542:	4288      	cmp	r0, r1
 8002544:	d806      	bhi.n	8002554 <_ZN107_$LT$core..ops..range..RangeInclusive$LT$T$GT$$u20$as$u20$core..iter..range..RangeInclusiveIteratorImpl$GT$13spec_try_fold17h7392752d81d64507E+0x42>
 8002546:	e000      	b.n	800254a <_ZN107_$LT$core..ops..range..RangeInclusive$LT$T$GT$$u20$as$u20$core..iter..range..RangeInclusiveIteratorImpl$GT$13spec_try_fold17h7392752d81d64507E+0x38>
 8002548:	e004      	b.n	8002554 <_ZN107_$LT$core..ops..range..RangeInclusive$LT$T$GT$$u20$as$u20$core..iter..range..RangeInclusiveIteratorImpl$GT$13spec_try_fold17h7392752d81d64507E+0x42>
 800254a:	9800      	ldr	r0, [sp, #0]
 800254c:	9901      	ldr	r1, [sp, #4]
 800254e:	9107      	str	r1, [sp, #28]
 8002550:	9008      	str	r0, [sp, #32]
 8002552:	e006      	b.n	8002562 <_ZN107_$LT$core..ops..range..RangeInclusive$LT$T$GT$$u20$as$u20$core..iter..range..RangeInclusiveIteratorImpl$GT$13spec_try_fold17h7392752d81d64507E+0x50>
 8002554:	9900      	ldr	r1, [sp, #0]
 8002556:	9801      	ldr	r0, [sp, #4]
 8002558:	f000 fe0b 	bl	8003172 <_ZN94_$LT$core..ops..try_trait..NeverShortCircuit$LT$T$GT$$u20$as$u20$core..ops..try_trait..Try$GT$11from_output17h3b3ad6cad2379c67E>
 800255c:	9005      	str	r0, [sp, #20]
 800255e:	9106      	str	r1, [sp, #24]
 8002560:	e058      	b.n	8002614 <_ZN107_$LT$core..ops..range..RangeInclusive$LT$T$GT$$u20$as$u20$core..iter..range..RangeInclusiveIteratorImpl$GT$13spec_try_fold17h7392752d81d64507E+0x102>
 8002562:	9902      	ldr	r1, [sp, #8]
 8002564:	1d08      	adds	r0, r1, #4
 8002566:	9120      	str	r1, [sp, #128]	; 0x80
 8002568:	9021      	str	r0, [sp, #132]	; 0x84
 800256a:	6808      	ldr	r0, [r1, #0]
 800256c:	6849      	ldr	r1, [r1, #4]
 800256e:	4288      	cmp	r0, r1
 8002570:	d308      	bcc.n	8002584 <_ZN107_$LT$core..ops..range..RangeInclusive$LT$T$GT$$u20$as$u20$core..iter..range..RangeInclusiveIteratorImpl$GT$13spec_try_fold17h7392752d81d64507E+0x72>
 8002572:	e7ff      	b.n	8002574 <_ZN107_$LT$core..ops..range..RangeInclusive$LT$T$GT$$u20$as$u20$core..iter..range..RangeInclusiveIteratorImpl$GT$13spec_try_fold17h7392752d81d64507E+0x62>
 8002574:	9802      	ldr	r0, [sp, #8]
 8002576:	2101      	movs	r1, #1
 8002578:	7201      	strb	r1, [r0, #8]
 800257a:	1d01      	adds	r1, r0, #4
 800257c:	f003 fe5e 	bl	800623c <_ZN4core3cmp5impls54_$LT$impl$u20$core..cmp..PartialEq$u20$for$u20$u32$GT$2eq17hf24a696c4b0cb411E>
 8002580:	b9e8      	cbnz	r0, 80025be <_ZN107_$LT$core..ops..range..RangeInclusive$LT$T$GT$$u20$as$u20$core..iter..range..RangeInclusiveIteratorImpl$GT$13spec_try_fold17h7392752d81d64507E+0xac>
 8002582:	e01b      	b.n	80025bc <_ZN107_$LT$core..ops..range..RangeInclusive$LT$T$GT$$u20$as$u20$core..iter..range..RangeInclusiveIteratorImpl$GT$13spec_try_fold17h7392752d81d64507E+0xaa>
 8002584:	9802      	ldr	r0, [sp, #8]
 8002586:	6800      	ldr	r0, [r0, #0]
 8002588:	2101      	movs	r1, #1
 800258a:	f003 fe73 	bl	8006274 <_ZN47_$LT$u32$u20$as$u20$core..iter..range..Step$GT$17forward_unchecked17heeaa38ff01c28faaE>
 800258e:	9a02      	ldr	r2, [sp, #8]
 8002590:	4601      	mov	r1, r0
 8002592:	9119      	str	r1, [sp, #100]	; 0x64
 8002594:	921a      	str	r2, [sp, #104]	; 0x68
 8002596:	6810      	ldr	r0, [r2, #0]
 8002598:	901b      	str	r0, [sp, #108]	; 0x6c
 800259a:	6011      	str	r1, [r2, #0]
 800259c:	9a07      	ldr	r2, [sp, #28]
 800259e:	9908      	ldr	r1, [sp, #32]
 80025a0:	920b      	str	r2, [sp, #44]	; 0x2c
 80025a2:	910c      	str	r1, [sp, #48]	; 0x30
 80025a4:	900d      	str	r0, [sp, #52]	; 0x34
 80025a6:	990b      	ldr	r1, [sp, #44]	; 0x2c
 80025a8:	9a0c      	ldr	r2, [sp, #48]	; 0x30
 80025aa:	9b0d      	ldr	r3, [sp, #52]	; 0x34
 80025ac:	a803      	add	r0, sp, #12
 80025ae:	f000 fc65 	bl	8002e7c <_ZN4core3ops9try_trait26NeverShortCircuit$LT$T$GT$10wrap_mut_228_$u7b$$u7b$closure$u7d$$u7d$17h441e460153a76969E>
 80025b2:	f000 fe2c 	bl	800320e <_ZN94_$LT$core..ops..try_trait..NeverShortCircuit$LT$T$GT$$u20$as$u20$core..ops..try_trait..Try$GT$6branch17hdd9c925cd531c060E>
 80025b6:	9009      	str	r0, [sp, #36]	; 0x24
 80025b8:	910a      	str	r1, [sp, #40]	; 0x28
 80025ba:	e024      	b.n	8002606 <_ZN107_$LT$core..ops..range..RangeInclusive$LT$T$GT$$u20$as$u20$core..iter..range..RangeInclusiveIteratorImpl$GT$13spec_try_fold17h7392752d81d64507E+0xf4>
 80025bc:	e011      	b.n	80025e2 <_ZN107_$LT$core..ops..range..RangeInclusive$LT$T$GT$$u20$as$u20$core..iter..range..RangeInclusiveIteratorImpl$GT$13spec_try_fold17h7392752d81d64507E+0xd0>
 80025be:	9802      	ldr	r0, [sp, #8]
 80025c0:	9a07      	ldr	r2, [sp, #28]
 80025c2:	9908      	ldr	r1, [sp, #32]
 80025c4:	6800      	ldr	r0, [r0, #0]
 80025c6:	9210      	str	r2, [sp, #64]	; 0x40
 80025c8:	9111      	str	r1, [sp, #68]	; 0x44
 80025ca:	9012      	str	r0, [sp, #72]	; 0x48
 80025cc:	9910      	ldr	r1, [sp, #64]	; 0x40
 80025ce:	9a11      	ldr	r2, [sp, #68]	; 0x44
 80025d0:	9b12      	ldr	r3, [sp, #72]	; 0x48
 80025d2:	a803      	add	r0, sp, #12
 80025d4:	f000 fc52 	bl	8002e7c <_ZN4core3ops9try_trait26NeverShortCircuit$LT$T$GT$10wrap_mut_228_$u7b$$u7b$closure$u7d$$u7d$17h441e460153a76969E>
 80025d8:	f000 fe19 	bl	800320e <_ZN94_$LT$core..ops..try_trait..NeverShortCircuit$LT$T$GT$$u20$as$u20$core..ops..try_trait..Try$GT$6branch17hdd9c925cd531c060E>
 80025dc:	900e      	str	r0, [sp, #56]	; 0x38
 80025de:	910f      	str	r1, [sp, #60]	; 0x3c
 80025e0:	e006      	b.n	80025f0 <_ZN107_$LT$core..ops..range..RangeInclusive$LT$T$GT$$u20$as$u20$core..iter..range..RangeInclusiveIteratorImpl$GT$13spec_try_fold17h7392752d81d64507E+0xde>
 80025e2:	9807      	ldr	r0, [sp, #28]
 80025e4:	9908      	ldr	r1, [sp, #32]
 80025e6:	f000 fdc4 	bl	8003172 <_ZN94_$LT$core..ops..try_trait..NeverShortCircuit$LT$T$GT$$u20$as$u20$core..ops..try_trait..Try$GT$11from_output17h3b3ad6cad2379c67E>
 80025ea:	9005      	str	r0, [sp, #20]
 80025ec:	9106      	str	r1, [sp, #24]
 80025ee:	e006      	b.n	80025fe <_ZN107_$LT$core..ops..range..RangeInclusive$LT$T$GT$$u20$as$u20$core..iter..range..RangeInclusiveIteratorImpl$GT$13spec_try_fold17h7392752d81d64507E+0xec>
 80025f0:	990e      	ldr	r1, [sp, #56]	; 0x38
 80025f2:	980f      	ldr	r0, [sp, #60]	; 0x3c
 80025f4:	9117      	str	r1, [sp, #92]	; 0x5c
 80025f6:	9018      	str	r0, [sp, #96]	; 0x60
 80025f8:	9107      	str	r1, [sp, #28]
 80025fa:	9008      	str	r0, [sp, #32]
 80025fc:	e7f1      	b.n	80025e2 <_ZN107_$LT$core..ops..range..RangeInclusive$LT$T$GT$$u20$as$u20$core..iter..range..RangeInclusiveIteratorImpl$GT$13spec_try_fold17h7392752d81d64507E+0xd0>
 80025fe:	9805      	ldr	r0, [sp, #20]
 8002600:	9906      	ldr	r1, [sp, #24]
 8002602:	b022      	add	sp, #136	; 0x88
 8002604:	bd80      	pop	{r7, pc}
 8002606:	9909      	ldr	r1, [sp, #36]	; 0x24
 8002608:	980a      	ldr	r0, [sp, #40]	; 0x28
 800260a:	911c      	str	r1, [sp, #112]	; 0x70
 800260c:	901d      	str	r0, [sp, #116]	; 0x74
 800260e:	9107      	str	r1, [sp, #28]
 8002610:	9008      	str	r0, [sp, #32]
 8002612:	e7a6      	b.n	8002562 <_ZN107_$LT$core..ops..range..RangeInclusive$LT$T$GT$$u20$as$u20$core..iter..range..RangeInclusiveIteratorImpl$GT$13spec_try_fold17h7392752d81d64507E+0x50>
 8002614:	e7f3      	b.n	80025fe <_ZN107_$LT$core..ops..range..RangeInclusive$LT$T$GT$$u20$as$u20$core..iter..range..RangeInclusiveIteratorImpl$GT$13spec_try_fold17h7392752d81d64507E+0xec>

08002616 <_ZN107_$LT$core..ops..range..RangeInclusive$LT$T$GT$$u20$as$u20$core..iter..range..RangeInclusiveIteratorImpl$GT$13spec_try_fold17ha3679a6ca907f51eE>:
 8002616:	b580      	push	{r7, lr}
 8002618:	466f      	mov	r7, sp
 800261a:	b0b6      	sub	sp, #216	; 0xd8
 800261c:	9303      	str	r3, [sp, #12]
 800261e:	9204      	str	r2, [sp, #16]
 8002620:	9105      	str	r1, [sp, #20]
 8002622:	9006      	str	r0, [sp, #24]
 8002624:	912d      	str	r1, [sp, #180]	; 0xb4
 8002626:	7a08      	ldrb	r0, [r1, #8]
 8002628:	07c0      	lsls	r0, r0, #31
 800262a:	b948      	cbnz	r0, 8002640 <_ZN107_$LT$core..ops..range..RangeInclusive$LT$T$GT$$u20$as$u20$core..iter..range..RangeInclusiveIteratorImpl$GT$13spec_try_fold17ha3679a6ca907f51eE+0x2a>
 800262c:	e7ff      	b.n	800262e <_ZN107_$LT$core..ops..range..RangeInclusive$LT$T$GT$$u20$as$u20$core..iter..range..RangeInclusiveIteratorImpl$GT$13spec_try_fold17ha3679a6ca907f51eE+0x18>
 800262e:	9905      	ldr	r1, [sp, #20]
 8002630:	1d08      	adds	r0, r1, #4
 8002632:	9132      	str	r1, [sp, #200]	; 0xc8
 8002634:	9033      	str	r0, [sp, #204]	; 0xcc
 8002636:	6808      	ldr	r0, [r1, #0]
 8002638:	6849      	ldr	r1, [r1, #4]
 800263a:	4288      	cmp	r0, r1
 800263c:	d809      	bhi.n	8002652 <_ZN107_$LT$core..ops..range..RangeInclusive$LT$T$GT$$u20$as$u20$core..iter..range..RangeInclusiveIteratorImpl$GT$13spec_try_fold17ha3679a6ca907f51eE+0x3c>
 800263e:	e000      	b.n	8002642 <_ZN107_$LT$core..ops..range..RangeInclusive$LT$T$GT$$u20$as$u20$core..iter..range..RangeInclusiveIteratorImpl$GT$13spec_try_fold17ha3679a6ca907f51eE+0x2c>
 8002640:	e007      	b.n	8002652 <_ZN107_$LT$core..ops..range..RangeInclusive$LT$T$GT$$u20$as$u20$core..iter..range..RangeInclusiveIteratorImpl$GT$13spec_try_fold17ha3679a6ca907f51eE+0x3c>
 8002642:	9a04      	ldr	r2, [sp, #16]
 8002644:	6810      	ldr	r0, [r2, #0]
 8002646:	6851      	ldr	r1, [r2, #4]
 8002648:	6892      	ldr	r2, [r2, #8]
 800264a:	9209      	str	r2, [sp, #36]	; 0x24
 800264c:	9108      	str	r1, [sp, #32]
 800264e:	9007      	str	r0, [sp, #28]
 8002650:	e004      	b.n	800265c <_ZN107_$LT$core..ops..range..RangeInclusive$LT$T$GT$$u20$as$u20$core..iter..range..RangeInclusiveIteratorImpl$GT$13spec_try_fold17ha3679a6ca907f51eE+0x46>
 8002652:	9904      	ldr	r1, [sp, #16]
 8002654:	9806      	ldr	r0, [sp, #24]
 8002656:	f000 fd98 	bl	800318a <_ZN94_$LT$core..ops..try_trait..NeverShortCircuit$LT$T$GT$$u20$as$u20$core..ops..try_trait..Try$GT$11from_output17hb31babf52879209aE>
 800265a:	e080      	b.n	800275e <_ZN107_$LT$core..ops..range..RangeInclusive$LT$T$GT$$u20$as$u20$core..iter..range..RangeInclusiveIteratorImpl$GT$13spec_try_fold17ha3679a6ca907f51eE+0x148>
 800265c:	9905      	ldr	r1, [sp, #20]
 800265e:	1d08      	adds	r0, r1, #4
 8002660:	9134      	str	r1, [sp, #208]	; 0xd0
 8002662:	9035      	str	r0, [sp, #212]	; 0xd4
 8002664:	6808      	ldr	r0, [r1, #0]
 8002666:	6849      	ldr	r1, [r1, #4]
 8002668:	4288      	cmp	r0, r1
 800266a:	d308      	bcc.n	800267e <_ZN107_$LT$core..ops..range..RangeInclusive$LT$T$GT$$u20$as$u20$core..iter..range..RangeInclusiveIteratorImpl$GT$13spec_try_fold17ha3679a6ca907f51eE+0x68>
 800266c:	e7ff      	b.n	800266e <_ZN107_$LT$core..ops..range..RangeInclusive$LT$T$GT$$u20$as$u20$core..iter..range..RangeInclusiveIteratorImpl$GT$13spec_try_fold17ha3679a6ca907f51eE+0x58>
 800266e:	9805      	ldr	r0, [sp, #20]
 8002670:	2101      	movs	r1, #1
 8002672:	7201      	strb	r1, [r0, #8]
 8002674:	1d01      	adds	r1, r0, #4
 8002676:	f003 fde1 	bl	800623c <_ZN4core3cmp5impls54_$LT$impl$u20$core..cmp..PartialEq$u20$for$u20$u32$GT$2eq17hf24a696c4b0cb411E>
 800267a:	bb50      	cbnz	r0, 80026d2 <_ZN107_$LT$core..ops..range..RangeInclusive$LT$T$GT$$u20$as$u20$core..iter..range..RangeInclusiveIteratorImpl$GT$13spec_try_fold17ha3679a6ca907f51eE+0xbc>
 800267c:	e028      	b.n	80026d0 <_ZN107_$LT$core..ops..range..RangeInclusive$LT$T$GT$$u20$as$u20$core..iter..range..RangeInclusiveIteratorImpl$GT$13spec_try_fold17ha3679a6ca907f51eE+0xba>
 800267e:	9805      	ldr	r0, [sp, #20]
 8002680:	6800      	ldr	r0, [r0, #0]
 8002682:	2101      	movs	r1, #1
 8002684:	f003 fdf6 	bl	8006274 <_ZN47_$LT$u32$u20$as$u20$core..iter..range..Step$GT$17forward_unchecked17heeaa38ff01c28faaE>
 8002688:	9b05      	ldr	r3, [sp, #20]
 800268a:	9903      	ldr	r1, [sp, #12]
 800268c:	4602      	mov	r2, r0
 800268e:	922f      	str	r2, [sp, #188]	; 0xbc
 8002690:	9330      	str	r3, [sp, #192]	; 0xc0
 8002692:	6818      	ldr	r0, [r3, #0]
 8002694:	9031      	str	r0, [sp, #196]	; 0xc4
 8002696:	601a      	str	r2, [r3, #0]
 8002698:	9a07      	ldr	r2, [sp, #28]
 800269a:	9b08      	ldr	r3, [sp, #32]
 800269c:	f8dd c024 	ldr.w	ip, [sp, #36]	; 0x24
 80026a0:	f8cd c058 	str.w	ip, [sp, #88]	; 0x58
 80026a4:	9315      	str	r3, [sp, #84]	; 0x54
 80026a6:	9214      	str	r2, [sp, #80]	; 0x50
 80026a8:	9a14      	ldr	r2, [sp, #80]	; 0x50
 80026aa:	9b15      	ldr	r3, [sp, #84]	; 0x54
 80026ac:	f8dd c058 	ldr.w	ip, [sp, #88]	; 0x58
 80026b0:	f8cd c048 	str.w	ip, [sp, #72]	; 0x48
 80026b4:	9311      	str	r3, [sp, #68]	; 0x44
 80026b6:	9210      	str	r2, [sp, #64]	; 0x40
 80026b8:	9013      	str	r0, [sp, #76]	; 0x4c
 80026ba:	9b13      	ldr	r3, [sp, #76]	; 0x4c
 80026bc:	a80d      	add	r0, sp, #52	; 0x34
 80026be:	9002      	str	r0, [sp, #8]
 80026c0:	aa10      	add	r2, sp, #64	; 0x40
 80026c2:	f000 fb9c 	bl	8002dfe <_ZN4core3ops9try_trait26NeverShortCircuit$LT$T$GT$10wrap_mut_228_$u7b$$u7b$closure$u7d$$u7d$17h08a3ea53d6c4a3f8E>
 80026c6:	9902      	ldr	r1, [sp, #8]
 80026c8:	a80a      	add	r0, sp, #40	; 0x28
 80026ca:	f000 fd7b 	bl	80031c4 <_ZN94_$LT$core..ops..try_trait..NeverShortCircuit$LT$T$GT$$u20$as$u20$core..ops..try_trait..Try$GT$6branch17hd93d9eeb5f7584ccE>
 80026ce:	e039      	b.n	8002744 <_ZN107_$LT$core..ops..range..RangeInclusive$LT$T$GT$$u20$as$u20$core..iter..range..RangeInclusiveIteratorImpl$GT$13spec_try_fold17ha3679a6ca907f51eE+0x12e>
 80026d0:	e01e      	b.n	8002710 <_ZN107_$LT$core..ops..range..RangeInclusive$LT$T$GT$$u20$as$u20$core..iter..range..RangeInclusiveIteratorImpl$GT$13spec_try_fold17ha3679a6ca907f51eE+0xfa>
 80026d2:	9903      	ldr	r1, [sp, #12]
 80026d4:	9805      	ldr	r0, [sp, #20]
 80026d6:	9a07      	ldr	r2, [sp, #28]
 80026d8:	9b08      	ldr	r3, [sp, #32]
 80026da:	f8dd c024 	ldr.w	ip, [sp, #36]	; 0x24
 80026de:	f8cd c098 	str.w	ip, [sp, #152]	; 0x98
 80026e2:	9325      	str	r3, [sp, #148]	; 0x94
 80026e4:	9224      	str	r2, [sp, #144]	; 0x90
 80026e6:	6800      	ldr	r0, [r0, #0]
 80026e8:	9a24      	ldr	r2, [sp, #144]	; 0x90
 80026ea:	9b25      	ldr	r3, [sp, #148]	; 0x94
 80026ec:	f8dd c098 	ldr.w	ip, [sp, #152]	; 0x98
 80026f0:	f8cd c088 	str.w	ip, [sp, #136]	; 0x88
 80026f4:	9321      	str	r3, [sp, #132]	; 0x84
 80026f6:	9220      	str	r2, [sp, #128]	; 0x80
 80026f8:	9023      	str	r0, [sp, #140]	; 0x8c
 80026fa:	9b23      	ldr	r3, [sp, #140]	; 0x8c
 80026fc:	a81d      	add	r0, sp, #116	; 0x74
 80026fe:	9001      	str	r0, [sp, #4]
 8002700:	aa20      	add	r2, sp, #128	; 0x80
 8002702:	f000 fb7c 	bl	8002dfe <_ZN4core3ops9try_trait26NeverShortCircuit$LT$T$GT$10wrap_mut_228_$u7b$$u7b$closure$u7d$$u7d$17h08a3ea53d6c4a3f8E>
 8002706:	9901      	ldr	r1, [sp, #4]
 8002708:	a81a      	add	r0, sp, #104	; 0x68
 800270a:	f000 fd5b 	bl	80031c4 <_ZN94_$LT$core..ops..try_trait..NeverShortCircuit$LT$T$GT$$u20$as$u20$core..ops..try_trait..Try$GT$6branch17hd93d9eeb5f7584ccE>
 800270e:	e00a      	b.n	8002726 <_ZN107_$LT$core..ops..range..RangeInclusive$LT$T$GT$$u20$as$u20$core..iter..range..RangeInclusiveIteratorImpl$GT$13spec_try_fold17ha3679a6ca907f51eE+0x110>
 8002710:	9806      	ldr	r0, [sp, #24]
 8002712:	9907      	ldr	r1, [sp, #28]
 8002714:	9a08      	ldr	r2, [sp, #32]
 8002716:	9b09      	ldr	r3, [sp, #36]	; 0x24
 8002718:	932c      	str	r3, [sp, #176]	; 0xb0
 800271a:	922b      	str	r2, [sp, #172]	; 0xac
 800271c:	912a      	str	r1, [sp, #168]	; 0xa8
 800271e:	a92a      	add	r1, sp, #168	; 0xa8
 8002720:	f000 fd33 	bl	800318a <_ZN94_$LT$core..ops..try_trait..NeverShortCircuit$LT$T$GT$$u20$as$u20$core..ops..try_trait..Try$GT$11from_output17hb31babf52879209aE>
 8002724:	e00c      	b.n	8002740 <_ZN107_$LT$core..ops..range..RangeInclusive$LT$T$GT$$u20$as$u20$core..iter..range..RangeInclusiveIteratorImpl$GT$13spec_try_fold17ha3679a6ca907f51eE+0x12a>
 8002726:	981a      	ldr	r0, [sp, #104]	; 0x68
 8002728:	991b      	ldr	r1, [sp, #108]	; 0x6c
 800272a:	9a1c      	ldr	r2, [sp, #112]	; 0x70
 800272c:	9229      	str	r2, [sp, #164]	; 0xa4
 800272e:	9128      	str	r1, [sp, #160]	; 0xa0
 8002730:	9027      	str	r0, [sp, #156]	; 0x9c
 8002732:	9827      	ldr	r0, [sp, #156]	; 0x9c
 8002734:	9928      	ldr	r1, [sp, #160]	; 0xa0
 8002736:	9a29      	ldr	r2, [sp, #164]	; 0xa4
 8002738:	9209      	str	r2, [sp, #36]	; 0x24
 800273a:	9108      	str	r1, [sp, #32]
 800273c:	9007      	str	r0, [sp, #28]
 800273e:	e7e7      	b.n	8002710 <_ZN107_$LT$core..ops..range..RangeInclusive$LT$T$GT$$u20$as$u20$core..iter..range..RangeInclusiveIteratorImpl$GT$13spec_try_fold17ha3679a6ca907f51eE+0xfa>
 8002740:	b036      	add	sp, #216	; 0xd8
 8002742:	bd80      	pop	{r7, pc}
 8002744:	980a      	ldr	r0, [sp, #40]	; 0x28
 8002746:	990b      	ldr	r1, [sp, #44]	; 0x2c
 8002748:	9a0c      	ldr	r2, [sp, #48]	; 0x30
 800274a:	9219      	str	r2, [sp, #100]	; 0x64
 800274c:	9118      	str	r1, [sp, #96]	; 0x60
 800274e:	9017      	str	r0, [sp, #92]	; 0x5c
 8002750:	9817      	ldr	r0, [sp, #92]	; 0x5c
 8002752:	9918      	ldr	r1, [sp, #96]	; 0x60
 8002754:	9a19      	ldr	r2, [sp, #100]	; 0x64
 8002756:	9209      	str	r2, [sp, #36]	; 0x24
 8002758:	9108      	str	r1, [sp, #32]
 800275a:	9007      	str	r0, [sp, #28]
 800275c:	e77e      	b.n	800265c <_ZN107_$LT$core..ops..range..RangeInclusive$LT$T$GT$$u20$as$u20$core..iter..range..RangeInclusiveIteratorImpl$GT$13spec_try_fold17ha3679a6ca907f51eE+0x46>
 800275e:	e7ef      	b.n	8002740 <_ZN107_$LT$core..ops..range..RangeInclusive$LT$T$GT$$u20$as$u20$core..iter..range..RangeInclusiveIteratorImpl$GT$13spec_try_fold17ha3679a6ca907f51eE+0x12a>

08002760 <_ZN107_$LT$core..ops..range..RangeInclusive$LT$T$GT$$u20$as$u20$core..iter..range..RangeInclusiveIteratorImpl$GT$9spec_next17h3f5139679206e943E>:
 8002760:	b580      	push	{r7, lr}
 8002762:	466f      	mov	r7, sp
 8002764:	b08c      	sub	sp, #48	; 0x30
 8002766:	9000      	str	r0, [sp, #0]
 8002768:	9004      	str	r0, [sp, #16]
 800276a:	7a00      	ldrb	r0, [r0, #8]
 800276c:	07c0      	lsls	r0, r0, #31
 800276e:	b948      	cbnz	r0, 8002784 <_ZN107_$LT$core..ops..range..RangeInclusive$LT$T$GT$$u20$as$u20$core..iter..range..RangeInclusiveIteratorImpl$GT$9spec_next17h3f5139679206e943E+0x24>
 8002770:	e7ff      	b.n	8002772 <_ZN107_$LT$core..ops..range..RangeInclusive$LT$T$GT$$u20$as$u20$core..iter..range..RangeInclusiveIteratorImpl$GT$9spec_next17h3f5139679206e943E+0x12>
 8002772:	9900      	ldr	r1, [sp, #0]
 8002774:	1d08      	adds	r0, r1, #4
 8002776:	9108      	str	r1, [sp, #32]
 8002778:	9009      	str	r0, [sp, #36]	; 0x24
 800277a:	6808      	ldr	r0, [r1, #0]
 800277c:	6849      	ldr	r1, [r1, #4]
 800277e:	4288      	cmp	r0, r1
 8002780:	d810      	bhi.n	80027a4 <_ZN107_$LT$core..ops..range..RangeInclusive$LT$T$GT$$u20$as$u20$core..iter..range..RangeInclusiveIteratorImpl$GT$9spec_next17h3f5139679206e943E+0x44>
 8002782:	e000      	b.n	8002786 <_ZN107_$LT$core..ops..range..RangeInclusive$LT$T$GT$$u20$as$u20$core..iter..range..RangeInclusiveIteratorImpl$GT$9spec_next17h3f5139679206e943E+0x26>
 8002784:	e00e      	b.n	80027a4 <_ZN107_$LT$core..ops..range..RangeInclusive$LT$T$GT$$u20$as$u20$core..iter..range..RangeInclusiveIteratorImpl$GT$9spec_next17h3f5139679206e943E+0x44>
 8002786:	9900      	ldr	r1, [sp, #0]
 8002788:	1d08      	adds	r0, r1, #4
 800278a:	910a      	str	r1, [sp, #40]	; 0x28
 800278c:	900b      	str	r0, [sp, #44]	; 0x2c
 800278e:	6808      	ldr	r0, [r1, #0]
 8002790:	6849      	ldr	r1, [r1, #4]
 8002792:	2200      	movs	r2, #0
 8002794:	4288      	cmp	r0, r1
 8002796:	bf38      	it	cc
 8002798:	2201      	movcc	r2, #1
 800279a:	f807 2c19 	strb.w	r2, [r7, #-25]
 800279e:	4288      	cmp	r0, r1
 80027a0:	d309      	bcc.n	80027b6 <_ZN107_$LT$core..ops..range..RangeInclusive$LT$T$GT$$u20$as$u20$core..iter..range..RangeInclusiveIteratorImpl$GT$9spec_next17h3f5139679206e943E+0x56>
 80027a2:	e002      	b.n	80027aa <_ZN107_$LT$core..ops..range..RangeInclusive$LT$T$GT$$u20$as$u20$core..iter..range..RangeInclusiveIteratorImpl$GT$9spec_next17h3f5139679206e943E+0x4a>
 80027a4:	2000      	movs	r0, #0
 80027a6:	9001      	str	r0, [sp, #4]
 80027a8:	e016      	b.n	80027d8 <_ZN107_$LT$core..ops..range..RangeInclusive$LT$T$GT$$u20$as$u20$core..iter..range..RangeInclusiveIteratorImpl$GT$9spec_next17h3f5139679206e943E+0x78>
 80027aa:	9800      	ldr	r0, [sp, #0]
 80027ac:	2101      	movs	r1, #1
 80027ae:	7201      	strb	r1, [r0, #8]
 80027b0:	6800      	ldr	r0, [r0, #0]
 80027b2:	9003      	str	r0, [sp, #12]
 80027b4:	e00b      	b.n	80027ce <_ZN107_$LT$core..ops..range..RangeInclusive$LT$T$GT$$u20$as$u20$core..iter..range..RangeInclusiveIteratorImpl$GT$9spec_next17h3f5139679206e943E+0x6e>
 80027b6:	9800      	ldr	r0, [sp, #0]
 80027b8:	6800      	ldr	r0, [r0, #0]
 80027ba:	2101      	movs	r1, #1
 80027bc:	f003 fd5a 	bl	8006274 <_ZN47_$LT$u32$u20$as$u20$core..iter..range..Step$GT$17forward_unchecked17heeaa38ff01c28faaE>
 80027c0:	9900      	ldr	r1, [sp, #0]
 80027c2:	9006      	str	r0, [sp, #24]
 80027c4:	9107      	str	r1, [sp, #28]
 80027c6:	680a      	ldr	r2, [r1, #0]
 80027c8:	9203      	str	r2, [sp, #12]
 80027ca:	6008      	str	r0, [r1, #0]
 80027cc:	e7ff      	b.n	80027ce <_ZN107_$LT$core..ops..range..RangeInclusive$LT$T$GT$$u20$as$u20$core..iter..range..RangeInclusiveIteratorImpl$GT$9spec_next17h3f5139679206e943E+0x6e>
 80027ce:	9803      	ldr	r0, [sp, #12]
 80027d0:	9002      	str	r0, [sp, #8]
 80027d2:	2001      	movs	r0, #1
 80027d4:	9001      	str	r0, [sp, #4]
 80027d6:	e7ff      	b.n	80027d8 <_ZN107_$LT$core..ops..range..RangeInclusive$LT$T$GT$$u20$as$u20$core..iter..range..RangeInclusiveIteratorImpl$GT$9spec_next17h3f5139679206e943E+0x78>
 80027d8:	9801      	ldr	r0, [sp, #4]
 80027da:	9902      	ldr	r1, [sp, #8]
 80027dc:	b00c      	add	sp, #48	; 0x30
 80027de:	bd80      	pop	{r7, pc}

080027e0 <_ZN4core3ops5range11RangeBounds8contains17h02bd657f8d1bae38E>:
 80027e0:	b580      	push	{r7, lr}
 80027e2:	466f      	mov	r7, sp
 80027e4:	b0a2      	sub	sp, #136	; 0x88
 80027e6:	9001      	str	r0, [sp, #4]
 80027e8:	9103      	str	r1, [sp, #12]
 80027ea:	900f      	str	r0, [sp, #60]	; 0x3c
 80027ec:	f7ff fc94 	bl	8002118 <_ZN100_$LT$core..ops..range..RangeInclusive$LT$T$GT$$u20$as$u20$core..ops..range..RangeBounds$LT$T$GT$$GT$11start_bound17h0750ffb58aa5af80E>
 80027f0:	9005      	str	r0, [sp, #20]
 80027f2:	9106      	str	r1, [sp, #24]
 80027f4:	9805      	ldr	r0, [sp, #20]
 80027f6:	9002      	str	r0, [sp, #8]
 80027f8:	b130      	cbz	r0, 8002808 <_ZN4core3ops5range11RangeBounds8contains17h02bd657f8d1bae38E+0x28>
 80027fa:	e7ff      	b.n	80027fc <_ZN4core3ops5range11RangeBounds8contains17h02bd657f8d1bae38E+0x1c>
 80027fc:	9802      	ldr	r0, [sp, #8]
 80027fe:	2801      	cmp	r0, #1
 8002800:	d017      	beq.n	8002832 <_ZN4core3ops5range11RangeBounds8contains17h02bd657f8d1bae38E+0x52>
 8002802:	e7ff      	b.n	8002804 <_ZN4core3ops5range11RangeBounds8contains17h02bd657f8d1bae38E+0x24>
 8002804:	e02a      	b.n	800285c <_ZN4core3ops5range11RangeBounds8contains17h02bd657f8d1bae38E+0x7c>
 8002806:	defe      	udf	#254	; 0xfe
 8002808:	9806      	ldr	r0, [sp, #24]
 800280a:	9007      	str	r0, [sp, #28]
 800280c:	a807      	add	r0, sp, #28
 800280e:	9010      	str	r0, [sp, #64]	; 0x40
 8002810:	9803      	ldr	r0, [sp, #12]
 8002812:	9008      	str	r0, [sp, #32]
 8002814:	a808      	add	r0, sp, #32
 8002816:	9011      	str	r0, [sp, #68]	; 0x44
 8002818:	9907      	ldr	r1, [sp, #28]
 800281a:	9803      	ldr	r0, [sp, #12]
 800281c:	911c      	str	r1, [sp, #112]	; 0x70
 800281e:	901d      	str	r0, [sp, #116]	; 0x74
 8002820:	6809      	ldr	r1, [r1, #0]
 8002822:	6802      	ldr	r2, [r0, #0]
 8002824:	2000      	movs	r0, #0
 8002826:	4291      	cmp	r1, r2
 8002828:	bf98      	it	ls
 800282a:	2001      	movls	r0, #1
 800282c:	f807 0c75 	strb.w	r0, [r7, #-117]
 8002830:	e015      	b.n	800285e <_ZN4core3ops5range11RangeBounds8contains17h02bd657f8d1bae38E+0x7e>
 8002832:	9806      	ldr	r0, [sp, #24]
 8002834:	9009      	str	r0, [sp, #36]	; 0x24
 8002836:	a809      	add	r0, sp, #36	; 0x24
 8002838:	9012      	str	r0, [sp, #72]	; 0x48
 800283a:	9803      	ldr	r0, [sp, #12]
 800283c:	900a      	str	r0, [sp, #40]	; 0x28
 800283e:	a80a      	add	r0, sp, #40	; 0x28
 8002840:	9013      	str	r0, [sp, #76]	; 0x4c
 8002842:	9909      	ldr	r1, [sp, #36]	; 0x24
 8002844:	9803      	ldr	r0, [sp, #12]
 8002846:	9120      	str	r1, [sp, #128]	; 0x80
 8002848:	9021      	str	r0, [sp, #132]	; 0x84
 800284a:	6809      	ldr	r1, [r1, #0]
 800284c:	6802      	ldr	r2, [r0, #0]
 800284e:	2000      	movs	r0, #0
 8002850:	4291      	cmp	r1, r2
 8002852:	bf38      	it	cc
 8002854:	2001      	movcc	r0, #1
 8002856:	f807 0c75 	strb.w	r0, [r7, #-117]
 800285a:	e000      	b.n	800285e <_ZN4core3ops5range11RangeBounds8contains17h02bd657f8d1bae38E+0x7e>
 800285c:	e008      	b.n	8002870 <_ZN4core3ops5range11RangeBounds8contains17h02bd657f8d1bae38E+0x90>
 800285e:	f817 0c75 	ldrb.w	r0, [r7, #-117]
 8002862:	07c0      	lsls	r0, r0, #31
 8002864:	b920      	cbnz	r0, 8002870 <_ZN4core3ops5range11RangeBounds8contains17h02bd657f8d1bae38E+0x90>
 8002866:	e7ff      	b.n	8002868 <_ZN4core3ops5range11RangeBounds8contains17h02bd657f8d1bae38E+0x88>
 8002868:	2000      	movs	r0, #0
 800286a:	f807 0c76 	strb.w	r0, [r7, #-118]
 800286e:	e00d      	b.n	800288c <_ZN4core3ops5range11RangeBounds8contains17h02bd657f8d1bae38E+0xac>
 8002870:	9801      	ldr	r0, [sp, #4]
 8002872:	f7ff fc63 	bl	800213c <_ZN100_$LT$core..ops..range..RangeInclusive$LT$T$GT$$u20$as$u20$core..ops..range..RangeBounds$LT$T$GT$$GT$9end_bound17h846ddce4613719edE>
 8002876:	900b      	str	r0, [sp, #44]	; 0x2c
 8002878:	910c      	str	r1, [sp, #48]	; 0x30
 800287a:	980b      	ldr	r0, [sp, #44]	; 0x2c
 800287c:	9000      	str	r0, [sp, #0]
 800287e:	b158      	cbz	r0, 8002898 <_ZN4core3ops5range11RangeBounds8contains17h02bd657f8d1bae38E+0xb8>
 8002880:	e7ff      	b.n	8002882 <_ZN4core3ops5range11RangeBounds8contains17h02bd657f8d1bae38E+0xa2>
 8002882:	9800      	ldr	r0, [sp, #0]
 8002884:	2801      	cmp	r0, #1
 8002886:	d01a      	beq.n	80028be <_ZN4core3ops5range11RangeBounds8contains17h02bd657f8d1bae38E+0xde>
 8002888:	e7ff      	b.n	800288a <_ZN4core3ops5range11RangeBounds8contains17h02bd657f8d1bae38E+0xaa>
 800288a:	e02b      	b.n	80028e4 <_ZN4core3ops5range11RangeBounds8contains17h02bd657f8d1bae38E+0x104>
 800288c:	f817 0c76 	ldrb.w	r0, [r7, #-118]
 8002890:	f000 0001 	and.w	r0, r0, #1
 8002894:	b022      	add	sp, #136	; 0x88
 8002896:	bd80      	pop	{r7, pc}
 8002898:	980c      	ldr	r0, [sp, #48]	; 0x30
 800289a:	9014      	str	r0, [sp, #80]	; 0x50
 800289c:	a903      	add	r1, sp, #12
 800289e:	9115      	str	r1, [sp, #84]	; 0x54
 80028a0:	900d      	str	r0, [sp, #52]	; 0x34
 80028a2:	a90d      	add	r1, sp, #52	; 0x34
 80028a4:	9116      	str	r1, [sp, #88]	; 0x58
 80028a6:	9903      	ldr	r1, [sp, #12]
 80028a8:	911a      	str	r1, [sp, #104]	; 0x68
 80028aa:	901b      	str	r0, [sp, #108]	; 0x6c
 80028ac:	6809      	ldr	r1, [r1, #0]
 80028ae:	6802      	ldr	r2, [r0, #0]
 80028b0:	2000      	movs	r0, #0
 80028b2:	4291      	cmp	r1, r2
 80028b4:	bf98      	it	ls
 80028b6:	2001      	movls	r0, #1
 80028b8:	f807 0c76 	strb.w	r0, [r7, #-118]
 80028bc:	e016      	b.n	80028ec <_ZN4core3ops5range11RangeBounds8contains17h02bd657f8d1bae38E+0x10c>
 80028be:	980c      	ldr	r0, [sp, #48]	; 0x30
 80028c0:	9017      	str	r0, [sp, #92]	; 0x5c
 80028c2:	a903      	add	r1, sp, #12
 80028c4:	9118      	str	r1, [sp, #96]	; 0x60
 80028c6:	900e      	str	r0, [sp, #56]	; 0x38
 80028c8:	a90e      	add	r1, sp, #56	; 0x38
 80028ca:	9119      	str	r1, [sp, #100]	; 0x64
 80028cc:	9903      	ldr	r1, [sp, #12]
 80028ce:	911e      	str	r1, [sp, #120]	; 0x78
 80028d0:	901f      	str	r0, [sp, #124]	; 0x7c
 80028d2:	6809      	ldr	r1, [r1, #0]
 80028d4:	6802      	ldr	r2, [r0, #0]
 80028d6:	2000      	movs	r0, #0
 80028d8:	4291      	cmp	r1, r2
 80028da:	bf38      	it	cc
 80028dc:	2001      	movcc	r0, #1
 80028de:	f807 0c76 	strb.w	r0, [r7, #-118]
 80028e2:	e003      	b.n	80028ec <_ZN4core3ops5range11RangeBounds8contains17h02bd657f8d1bae38E+0x10c>
 80028e4:	2001      	movs	r0, #1
 80028e6:	f807 0c76 	strb.w	r0, [r7, #-118]
 80028ea:	e7ff      	b.n	80028ec <_ZN4core3ops5range11RangeBounds8contains17h02bd657f8d1bae38E+0x10c>
 80028ec:	e7ce      	b.n	800288c <_ZN4core3ops5range11RangeBounds8contains17h02bd657f8d1bae38E+0xac>

080028ee <_ZN4core3ops5range11RangeBounds8contains17h26f2ce37fd1c05c5E>:
 80028ee:	b580      	push	{r7, lr}
 80028f0:	466f      	mov	r7, sp
 80028f2:	b0a2      	sub	sp, #136	; 0x88
 80028f4:	9001      	str	r0, [sp, #4]
 80028f6:	9103      	str	r1, [sp, #12]
 80028f8:	900f      	str	r0, [sp, #60]	; 0x3c
 80028fa:	f7ff fc16 	bl	800212a <_ZN100_$LT$core..ops..range..RangeInclusive$LT$T$GT$$u20$as$u20$core..ops..range..RangeBounds$LT$T$GT$$GT$11start_bound17h74c5ce22b03290b3E>
 80028fe:	9005      	str	r0, [sp, #20]
 8002900:	9106      	str	r1, [sp, #24]
 8002902:	9805      	ldr	r0, [sp, #20]
 8002904:	9002      	str	r0, [sp, #8]
 8002906:	b130      	cbz	r0, 8002916 <_ZN4core3ops5range11RangeBounds8contains17h26f2ce37fd1c05c5E+0x28>
 8002908:	e7ff      	b.n	800290a <_ZN4core3ops5range11RangeBounds8contains17h26f2ce37fd1c05c5E+0x1c>
 800290a:	9802      	ldr	r0, [sp, #8]
 800290c:	2801      	cmp	r0, #1
 800290e:	d017      	beq.n	8002940 <_ZN4core3ops5range11RangeBounds8contains17h26f2ce37fd1c05c5E+0x52>
 8002910:	e7ff      	b.n	8002912 <_ZN4core3ops5range11RangeBounds8contains17h26f2ce37fd1c05c5E+0x24>
 8002912:	e02a      	b.n	800296a <_ZN4core3ops5range11RangeBounds8contains17h26f2ce37fd1c05c5E+0x7c>
 8002914:	defe      	udf	#254	; 0xfe
 8002916:	9806      	ldr	r0, [sp, #24]
 8002918:	9007      	str	r0, [sp, #28]
 800291a:	a807      	add	r0, sp, #28
 800291c:	9010      	str	r0, [sp, #64]	; 0x40
 800291e:	9803      	ldr	r0, [sp, #12]
 8002920:	9008      	str	r0, [sp, #32]
 8002922:	a808      	add	r0, sp, #32
 8002924:	9011      	str	r0, [sp, #68]	; 0x44
 8002926:	9907      	ldr	r1, [sp, #28]
 8002928:	9803      	ldr	r0, [sp, #12]
 800292a:	911c      	str	r1, [sp, #112]	; 0x70
 800292c:	901d      	str	r0, [sp, #116]	; 0x74
 800292e:	6809      	ldr	r1, [r1, #0]
 8002930:	6802      	ldr	r2, [r0, #0]
 8002932:	2000      	movs	r0, #0
 8002934:	4291      	cmp	r1, r2
 8002936:	bf98      	it	ls
 8002938:	2001      	movls	r0, #1
 800293a:	f807 0c75 	strb.w	r0, [r7, #-117]
 800293e:	e015      	b.n	800296c <_ZN4core3ops5range11RangeBounds8contains17h26f2ce37fd1c05c5E+0x7e>
 8002940:	9806      	ldr	r0, [sp, #24]
 8002942:	9009      	str	r0, [sp, #36]	; 0x24
 8002944:	a809      	add	r0, sp, #36	; 0x24
 8002946:	9012      	str	r0, [sp, #72]	; 0x48
 8002948:	9803      	ldr	r0, [sp, #12]
 800294a:	900a      	str	r0, [sp, #40]	; 0x28
 800294c:	a80a      	add	r0, sp, #40	; 0x28
 800294e:	9013      	str	r0, [sp, #76]	; 0x4c
 8002950:	9909      	ldr	r1, [sp, #36]	; 0x24
 8002952:	9803      	ldr	r0, [sp, #12]
 8002954:	9120      	str	r1, [sp, #128]	; 0x80
 8002956:	9021      	str	r0, [sp, #132]	; 0x84
 8002958:	6809      	ldr	r1, [r1, #0]
 800295a:	6802      	ldr	r2, [r0, #0]
 800295c:	2000      	movs	r0, #0
 800295e:	4291      	cmp	r1, r2
 8002960:	bf38      	it	cc
 8002962:	2001      	movcc	r0, #1
 8002964:	f807 0c75 	strb.w	r0, [r7, #-117]
 8002968:	e000      	b.n	800296c <_ZN4core3ops5range11RangeBounds8contains17h26f2ce37fd1c05c5E+0x7e>
 800296a:	e008      	b.n	800297e <_ZN4core3ops5range11RangeBounds8contains17h26f2ce37fd1c05c5E+0x90>
 800296c:	f817 0c75 	ldrb.w	r0, [r7, #-117]
 8002970:	07c0      	lsls	r0, r0, #31
 8002972:	b920      	cbnz	r0, 800297e <_ZN4core3ops5range11RangeBounds8contains17h26f2ce37fd1c05c5E+0x90>
 8002974:	e7ff      	b.n	8002976 <_ZN4core3ops5range11RangeBounds8contains17h26f2ce37fd1c05c5E+0x88>
 8002976:	2000      	movs	r0, #0
 8002978:	f807 0c76 	strb.w	r0, [r7, #-118]
 800297c:	e00d      	b.n	800299a <_ZN4core3ops5range11RangeBounds8contains17h26f2ce37fd1c05c5E+0xac>
 800297e:	9801      	ldr	r0, [sp, #4]
